EXPORTS
	??0QContact@QtMobility@@QAE@ABV01@@Z @ 1 NONAME ; QtMobility::QContact::QContact(class QtMobility::QContact const &)
	??0QContact@QtMobility@@QAE@XZ @ 2 NONAME ; QtMobility::QContact::QContact(void)
	??0QContactAbstractRequest@QtMobility@@IAE@PAVQContactAbstractRequestPrivate@1@PAVQObject@@@Z @ 3 NONAME ; QtMobility::QContactAbstractRequest::QContactAbstractRequest(class QtMobility::QContactAbstractRequestPrivate *, class QObject *)
	??0QContactAbstractRequest@QtMobility@@QAE@PAVQObject@@@Z @ 4 NONAME ; QtMobility::QContactAbstractRequest::QContactAbstractRequest(class QObject *)
	??0QContactActionDescriptor@QtMobility@@QAE@ABV01@@Z @ 5 NONAME ; QtMobility::QContactActionDescriptor::QContactActionDescriptor(class QtMobility::QContactActionDescriptor const &)
	??0QContactActionDescriptor@QtMobility@@QAE@ABVQString@@0H@Z @ 6 NONAME ; QtMobility::QContactActionDescriptor::QContactActionDescriptor(class QString const &, class QString const &, int)
	??0QContactActionFilter@QtMobility@@QAE@ABVQContactFilter@1@@Z @ 7 NONAME ; QtMobility::QContactActionFilter::QContactActionFilter(class QtMobility::QContactFilter const &)
	??0QContactActionFilter@QtMobility@@QAE@XZ @ 8 NONAME ; QtMobility::QContactActionFilter::QContactActionFilter(void)
	??0QContactAddress@QtMobility@@QAE@ABVQContactDetail@1@@Z @ 9 NONAME ; QtMobility::QContactAddress::QContactAddress(class QtMobility::QContactDetail const &)
	??0QContactAddress@QtMobility@@QAE@XZ @ 10 NONAME ; QtMobility::QContactAddress::QContactAddress(void)
	??0QContactAnniversary@QtMobility@@QAE@ABVQContactDetail@1@@Z @ 11 NONAME ; QtMobility::QContactAnniversary::QContactAnniversary(class QtMobility::QContactDetail const &)
	??0QContactAnniversary@QtMobility@@QAE@XZ @ 12 NONAME ; QtMobility::QContactAnniversary::QContactAnniversary(void)
	??0QContactAvatar@QtMobility@@QAE@ABVQContactDetail@1@@Z @ 13 NONAME ; QtMobility::QContactAvatar::QContactAvatar(class QtMobility::QContactDetail const &)
	??0QContactAvatar@QtMobility@@QAE@XZ @ 14 NONAME ; QtMobility::QContactAvatar::QContactAvatar(void)
	??0QContactBirthday@QtMobility@@QAE@ABVQContactDetail@1@@Z @ 15 NONAME ; QtMobility::QContactBirthday::QContactBirthday(class QtMobility::QContactDetail const &)
	??0QContactBirthday@QtMobility@@QAE@XZ @ 16 NONAME ; QtMobility::QContactBirthday::QContactBirthday(void)
	??0QContactChangeLogFilter@QtMobility@@QAE@ABVQContactFilter@1@@Z @ 17 NONAME ; QtMobility::QContactChangeLogFilter::QContactChangeLogFilter(class QtMobility::QContactFilter const &)
	??0QContactChangeLogFilter@QtMobility@@QAE@W4EventType@01@@Z @ 18 NONAME ; QtMobility::QContactChangeLogFilter::QContactChangeLogFilter(enum QtMobility::QContactChangeLogFilter::EventType)
	??0QContactChangeSet@QtMobility@@QAE@ABV01@@Z @ 19 NONAME ; QtMobility::QContactChangeSet::QContactChangeSet(class QtMobility::QContactChangeSet const &)
	??0QContactChangeSet@QtMobility@@QAE@XZ @ 20 NONAME ; QtMobility::QContactChangeSet::QContactChangeSet(void)
	??0QContactDetail@QtMobility@@IAE@ABV01@ABVQString@@@Z @ 21 NONAME ; QtMobility::QContactDetail::QContactDetail(class QtMobility::QContactDetail const &, class QString const &)
	??0QContactDetail@QtMobility@@IAE@ABV01@PBD@Z @ 22 NONAME ; QtMobility::QContactDetail::QContactDetail(class QtMobility::QContactDetail const &, char const *)
	??0QContactDetail@QtMobility@@QAE@ABV01@@Z @ 23 NONAME ; QtMobility::QContactDetail::QContactDetail(class QtMobility::QContactDetail const &)
	??0QContactDetail@QtMobility@@QAE@ABVQString@@@Z @ 24 NONAME ; QtMobility::QContactDetail::QContactDetail(class QString const &)
	??0QContactDetail@QtMobility@@QAE@PBD@Z @ 25 NONAME ; QtMobility::QContactDetail::QContactDetail(char const *)
	??0QContactDetail@QtMobility@@QAE@XZ @ 26 NONAME ; QtMobility::QContactDetail::QContactDetail(void)
	??0QContactDetailDefinition@QtMobility@@QAE@ABV01@@Z @ 27 NONAME ; QtMobility::QContactDetailDefinition::QContactDetailDefinition(class QtMobility::QContactDetailDefinition const &)
	??0QContactDetailDefinition@QtMobility@@QAE@XZ @ 28 NONAME ; QtMobility::QContactDetailDefinition::QContactDetailDefinition(void)
	??0QContactDetailDefinitionFetchRequest@QtMobility@@QAE@PAVQObject@@@Z @ 29 NONAME ; QtMobility::QContactDetailDefinitionFetchRequest::QContactDetailDefinitionFetchRequest(class QObject *)
	??0QContactDetailDefinitionRemoveRequest@QtMobility@@QAE@PAVQObject@@@Z @ 30 NONAME ; QtMobility::QContactDetailDefinitionRemoveRequest::QContactDetailDefinitionRemoveRequest(class QObject *)
	??0QContactDetailDefinitionSaveRequest@QtMobility@@QAE@PAVQObject@@@Z @ 31 NONAME ; QtMobility::QContactDetailDefinitionSaveRequest::QContactDetailDefinitionSaveRequest(class QObject *)
	??0QContactDetailFieldDefinition@QtMobility@@QAE@ABV01@@Z @ 32 NONAME ; QtMobility::QContactDetailFieldDefinition::QContactDetailFieldDefinition(class QtMobility::QContactDetailFieldDefinition const &)
	??0QContactDetailFieldDefinition@QtMobility@@QAE@XZ @ 33 NONAME ; QtMobility::QContactDetailFieldDefinition::QContactDetailFieldDefinition(void)
	??0QContactDetailFilter@QtMobility@@QAE@ABVQContactFilter@1@@Z @ 34 NONAME ; QtMobility::QContactDetailFilter::QContactDetailFilter(class QtMobility::QContactFilter const &)
	??0QContactDetailFilter@QtMobility@@QAE@XZ @ 35 NONAME ; QtMobility::QContactDetailFilter::QContactDetailFilter(void)
	??0QContactDetailRangeFilter@QtMobility@@QAE@ABVQContactFilter@1@@Z @ 36 NONAME ; QtMobility::QContactDetailRangeFilter::QContactDetailRangeFilter(class QtMobility::QContactFilter const &)
	??0QContactDetailRangeFilter@QtMobility@@QAE@XZ @ 37 NONAME ; QtMobility::QContactDetailRangeFilter::QContactDetailRangeFilter(void)
	??0QContactDisplayLabel@QtMobility@@QAE@ABVQContactDetail@1@@Z @ 38 NONAME ; QtMobility::QContactDisplayLabel::QContactDisplayLabel(class QtMobility::QContactDetail const &)
	??0QContactDisplayLabel@QtMobility@@QAE@XZ @ 39 NONAME ; QtMobility::QContactDisplayLabel::QContactDisplayLabel(void)
	??0QContactEmailAddress@QtMobility@@QAE@ABVQContactDetail@1@@Z @ 40 NONAME ; QtMobility::QContactEmailAddress::QContactEmailAddress(class QtMobility::QContactDetail const &)
	??0QContactEmailAddress@QtMobility@@QAE@XZ @ 41 NONAME ; QtMobility::QContactEmailAddress::QContactEmailAddress(void)
	??0QContactFamily@QtMobility@@QAE@ABVQContactDetail@1@@Z @ 42 NONAME ; QtMobility::QContactFamily::QContactFamily(class QtMobility::QContactDetail const &)
	??0QContactFamily@QtMobility@@QAE@XZ @ 43 NONAME ; QtMobility::QContactFamily::QContactFamily(void)
	??0QContactFetchHint@QtMobility@@QAE@ABV01@@Z @ 44 NONAME ; QtMobility::QContactFetchHint::QContactFetchHint(class QtMobility::QContactFetchHint const &)
	??0QContactFetchHint@QtMobility@@QAE@XZ @ 45 NONAME ; QtMobility::QContactFetchHint::QContactFetchHint(void)
	??0QContactFetchRequest@QtMobility@@QAE@PAVQObject@@@Z @ 46 NONAME ; QtMobility::QContactFetchRequest::QContactFetchRequest(class QObject *)
	??0QContactFilter@QtMobility@@IAE@PAVQContactFilterPrivate@1@@Z @ 47 NONAME ; QtMobility::QContactFilter::QContactFilter(class QtMobility::QContactFilterPrivate *)
	??0QContactFilter@QtMobility@@QAE@ABV01@@Z @ 48 NONAME ; QtMobility::QContactFilter::QContactFilter(class QtMobility::QContactFilter const &)
	??0QContactFilter@QtMobility@@QAE@XZ @ 49 NONAME ; QtMobility::QContactFilter::QContactFilter(void)
	??0QContactGender@QtMobility@@QAE@ABVQContactDetail@1@@Z @ 50 NONAME ; QtMobility::QContactGender::QContactGender(class QtMobility::QContactDetail const &)
	??0QContactGender@QtMobility@@QAE@XZ @ 51 NONAME ; QtMobility::QContactGender::QContactGender(void)
	??0QContactGeoLocation@QtMobility@@QAE@ABVQContactDetail@1@@Z @ 52 NONAME ; QtMobility::QContactGeoLocation::QContactGeoLocation(class QtMobility::QContactDetail const &)
	??0QContactGeoLocation@QtMobility@@QAE@XZ @ 53 NONAME ; QtMobility::QContactGeoLocation::QContactGeoLocation(void)
	??0QContactGlobalPresence@QtMobility@@QAE@ABVQContactDetail@1@@Z @ 54 NONAME ; QtMobility::QContactGlobalPresence::QContactGlobalPresence(class QtMobility::QContactDetail const &)
	??0QContactGlobalPresence@QtMobility@@QAE@XZ @ 55 NONAME ; QtMobility::QContactGlobalPresence::QContactGlobalPresence(void)
	??0QContactGuid@QtMobility@@QAE@ABVQContactDetail@1@@Z @ 56 NONAME ; QtMobility::QContactGuid::QContactGuid(class QtMobility::QContactDetail const &)
	??0QContactGuid@QtMobility@@QAE@XZ @ 57 NONAME ; QtMobility::QContactGuid::QContactGuid(void)
	??0QContactId@QtMobility@@QAE@ABV01@@Z @ 58 NONAME ; QtMobility::QContactId::QContactId(class QtMobility::QContactId const &)
	??0QContactId@QtMobility@@QAE@XZ @ 59 NONAME ; QtMobility::QContactId::QContactId(void)
	??0QContactIntersectionFilter@QtMobility@@QAE@ABVQContactFilter@1@@Z @ 60 NONAME ; QtMobility::QContactIntersectionFilter::QContactIntersectionFilter(class QtMobility::QContactFilter const &)
	??0QContactIntersectionFilter@QtMobility@@QAE@XZ @ 61 NONAME ; QtMobility::QContactIntersectionFilter::QContactIntersectionFilter(void)
	??0QContactInvalidFilter@QtMobility@@QAE@ABVQContactFilter@1@@Z @ 62 NONAME ; QtMobility::QContactInvalidFilter::QContactInvalidFilter(class QtMobility::QContactFilter const &)
	??0QContactInvalidFilter@QtMobility@@QAE@XZ @ 63 NONAME ; QtMobility::QContactInvalidFilter::QContactInvalidFilter(void)
	??0QContactLocalIdFetchRequest@QtMobility@@QAE@PAVQObject@@@Z @ 64 NONAME ; QtMobility::QContactLocalIdFetchRequest::QContactLocalIdFetchRequest(class QObject *)
	??0QContactLocalIdFilter@QtMobility@@QAE@ABVQContactFilter@1@@Z @ 65 NONAME ; QtMobility::QContactLocalIdFilter::QContactLocalIdFilter(class QtMobility::QContactFilter const &)
	??0QContactLocalIdFilter@QtMobility@@QAE@XZ @ 66 NONAME ; QtMobility::QContactLocalIdFilter::QContactLocalIdFilter(void)
	??0QContactManager@QtMobility@@QAE@ABVQString@@ABV?$QMap@VQString@@V1@@@PAVQObject@@@Z @ 67 NONAME ; QtMobility::QContactManager::QContactManager(class QString const &, class QMap<class QString, class QString> const &, class QObject *)
	??0QContactManager@QtMobility@@QAE@ABVQString@@HABV?$QMap@VQString@@V1@@@PAVQObject@@@Z @ 68 NONAME ; QtMobility::QContactManager::QContactManager(class QString const &, int, class QMap<class QString, class QString> const &, class QObject *)
	??0QContactManager@QtMobility@@QAE@PAVQObject@@@Z @ 69 NONAME ; QtMobility::QContactManager::QContactManager(class QObject *)
	??0QContactManagerEngine@QtMobility@@QAE@XZ @ 70 NONAME ; QtMobility::QContactManagerEngine::QContactManagerEngine(void)
	??0QContactName@QtMobility@@QAE@ABVQContactDetail@1@@Z @ 71 NONAME ; QtMobility::QContactName::QContactName(class QtMobility::QContactDetail const &)
	??0QContactName@QtMobility@@QAE@XZ @ 72 NONAME ; QtMobility::QContactName::QContactName(void)
	??0QContactNickname@QtMobility@@QAE@ABVQContactDetail@1@@Z @ 73 NONAME ; QtMobility::QContactNickname::QContactNickname(class QtMobility::QContactDetail const &)
	??0QContactNickname@QtMobility@@QAE@XZ @ 74 NONAME ; QtMobility::QContactNickname::QContactNickname(void)
	??0QContactNote@QtMobility@@QAE@ABVQContactDetail@1@@Z @ 75 NONAME ; QtMobility::QContactNote::QContactNote(class QtMobility::QContactDetail const &)
	??0QContactNote@QtMobility@@QAE@XZ @ 76 NONAME ; QtMobility::QContactNote::QContactNote(void)
	??0QContactOnlineAccount@QtMobility@@QAE@ABVQContactDetail@1@@Z @ 77 NONAME ; QtMobility::QContactOnlineAccount::QContactOnlineAccount(class QtMobility::QContactDetail const &)
	??0QContactOnlineAccount@QtMobility@@QAE@XZ @ 78 NONAME ; QtMobility::QContactOnlineAccount::QContactOnlineAccount(void)
	??0QContactOrganization@QtMobility@@QAE@ABVQContactDetail@1@@Z @ 79 NONAME ; QtMobility::QContactOrganization::QContactOrganization(class QtMobility::QContactDetail const &)
	??0QContactOrganization@QtMobility@@QAE@XZ @ 80 NONAME ; QtMobility::QContactOrganization::QContactOrganization(void)
	??0QContactPhoneNumber@QtMobility@@QAE@ABVQContactDetail@1@@Z @ 81 NONAME ; QtMobility::QContactPhoneNumber::QContactPhoneNumber(class QtMobility::QContactDetail const &)
	??0QContactPhoneNumber@QtMobility@@QAE@XZ @ 82 NONAME ; QtMobility::QContactPhoneNumber::QContactPhoneNumber(void)
	??0QContactPresence@QtMobility@@QAE@ABVQContactDetail@1@@Z @ 83 NONAME ; QtMobility::QContactPresence::QContactPresence(class QtMobility::QContactDetail const &)
	??0QContactPresence@QtMobility@@QAE@XZ @ 84 NONAME ; QtMobility::QContactPresence::QContactPresence(void)
	??0QContactRelationship@QtMobility@@QAE@ABV01@@Z @ 85 NONAME ; QtMobility::QContactRelationship::QContactRelationship(class QtMobility::QContactRelationship const &)
	??0QContactRelationship@QtMobility@@QAE@XZ @ 86 NONAME ; QtMobility::QContactRelationship::QContactRelationship(void)
	??0QContactRelationshipFetchRequest@QtMobility@@QAE@PAVQObject@@@Z @ 87 NONAME ; QtMobility::QContactRelationshipFetchRequest::QContactRelationshipFetchRequest(class QObject *)
	??0QContactRelationshipFilter@QtMobility@@QAE@ABVQContactFilter@1@@Z @ 88 NONAME ; QtMobility::QContactRelationshipFilter::QContactRelationshipFilter(class QtMobility::QContactFilter const &)
	??0QContactRelationshipFilter@QtMobility@@QAE@XZ @ 89 NONAME ; QtMobility::QContactRelationshipFilter::QContactRelationshipFilter(void)
	??0QContactRelationshipRemoveRequest@QtMobility@@QAE@PAVQObject@@@Z @ 90 NONAME ; QtMobility::QContactRelationshipRemoveRequest::QContactRelationshipRemoveRequest(class QObject *)
	??0QContactRelationshipSaveRequest@QtMobility@@QAE@PAVQObject@@@Z @ 91 NONAME ; QtMobility::QContactRelationshipSaveRequest::QContactRelationshipSaveRequest(class QObject *)
	??0QContactRemoveRequest@QtMobility@@QAE@PAVQObject@@@Z @ 92 NONAME ; QtMobility::QContactRemoveRequest::QContactRemoveRequest(class QObject *)
	??0QContactRingtone@QtMobility@@QAE@ABVQContactDetail@1@@Z @ 93 NONAME ; QtMobility::QContactRingtone::QContactRingtone(class QtMobility::QContactDetail const &)
	??0QContactRingtone@QtMobility@@QAE@XZ @ 94 NONAME ; QtMobility::QContactRingtone::QContactRingtone(void)
	??0QContactSaveRequest@QtMobility@@QAE@PAVQObject@@@Z @ 95 NONAME ; QtMobility::QContactSaveRequest::QContactSaveRequest(class QObject *)
	??0QContactSortOrder@QtMobility@@QAE@ABV01@@Z @ 96 NONAME ; QtMobility::QContactSortOrder::QContactSortOrder(class QtMobility::QContactSortOrder const &)
	??0QContactSortOrder@QtMobility@@QAE@XZ @ 97 NONAME ; QtMobility::QContactSortOrder::QContactSortOrder(void)
	??0QContactSyncTarget@QtMobility@@QAE@ABVQContactDetail@1@@Z @ 98 NONAME ; QtMobility::QContactSyncTarget::QContactSyncTarget(class QtMobility::QContactDetail const &)
	??0QContactSyncTarget@QtMobility@@QAE@XZ @ 99 NONAME ; QtMobility::QContactSyncTarget::QContactSyncTarget(void)
	??0QContactTag@QtMobility@@QAE@ABVQContactDetail@1@@Z @ 100 NONAME ; QtMobility::QContactTag::QContactTag(class QtMobility::QContactDetail const &)
	??0QContactTag@QtMobility@@QAE@XZ @ 101 NONAME ; QtMobility::QContactTag::QContactTag(void)
	??0QContactThumbnail@QtMobility@@QAE@ABVQContactDetail@1@@Z @ 102 NONAME ; QtMobility::QContactThumbnail::QContactThumbnail(class QtMobility::QContactDetail const &)
	??0QContactThumbnail@QtMobility@@QAE@XZ @ 103 NONAME ; QtMobility::QContactThumbnail::QContactThumbnail(void)
	??0QContactTimestamp@QtMobility@@QAE@ABVQContactDetail@1@@Z @ 104 NONAME ; QtMobility::QContactTimestamp::QContactTimestamp(class QtMobility::QContactDetail const &)
	??0QContactTimestamp@QtMobility@@QAE@XZ @ 105 NONAME ; QtMobility::QContactTimestamp::QContactTimestamp(void)
	??0QContactType@QtMobility@@QAE@ABVQContactDetail@1@@Z @ 106 NONAME ; QtMobility::QContactType::QContactType(class QtMobility::QContactDetail const &)
	??0QContactType@QtMobility@@QAE@XZ @ 107 NONAME ; QtMobility::QContactType::QContactType(void)
	??0QContactUnionFilter@QtMobility@@QAE@ABVQContactFilter@1@@Z @ 108 NONAME ; QtMobility::QContactUnionFilter::QContactUnionFilter(class QtMobility::QContactFilter const &)
	??0QContactUnionFilter@QtMobility@@QAE@XZ @ 109 NONAME ; QtMobility::QContactUnionFilter::QContactUnionFilter(void)
	??0QContactUrl@QtMobility@@QAE@ABVQContactDetail@1@@Z @ 110 NONAME ; QtMobility::QContactUrl::QContactUrl(class QtMobility::QContactDetail const &)
	??0QContactUrl@QtMobility@@QAE@XZ @ 111 NONAME ; QtMobility::QContactUrl::QContactUrl(void)
	??1QContact@QtMobility@@QAE@XZ @ 112 NONAME ; QtMobility::QContact::~QContact(void)
	??1QContactAbstractRequest@QtMobility@@UAE@XZ @ 113 NONAME ; QtMobility::QContactAbstractRequest::~QContactAbstractRequest(void)
	??1QContactAction@QtMobility@@UAE@XZ @ 114 NONAME ; QtMobility::QContactAction::~QContactAction(void)
	??1QContactActionDescriptor@QtMobility@@QAE@XZ @ 115 NONAME ; QtMobility::QContactActionDescriptor::~QContactActionDescriptor(void)
	??1QContactActionFactory@QtMobility@@UAE@XZ @ 116 NONAME ; QtMobility::QContactActionFactory::~QContactActionFactory(void)
	??1QContactActionFilter@QtMobility@@QAE@XZ @ 117 NONAME ; QtMobility::QContactActionFilter::~QContactActionFilter(void)
	??1QContactChangeLogFilter@QtMobility@@QAE@XZ @ 118 NONAME ; QtMobility::QContactChangeLogFilter::~QContactChangeLogFilter(void)
	??1QContactChangeSet@QtMobility@@QAE@XZ @ 119 NONAME ; QtMobility::QContactChangeSet::~QContactChangeSet(void)
	??1QContactDetail@QtMobility@@QAE@XZ @ 120 NONAME ; QtMobility::QContactDetail::~QContactDetail(void)
	??1QContactDetailDefinition@QtMobility@@QAE@XZ @ 121 NONAME ; QtMobility::QContactDetailDefinition::~QContactDetailDefinition(void)
	??1QContactDetailDefinitionFetchRequest@QtMobility@@UAE@XZ @ 122 NONAME ; QtMobility::QContactDetailDefinitionFetchRequest::~QContactDetailDefinitionFetchRequest(void)
	??1QContactDetailDefinitionRemoveRequest@QtMobility@@UAE@XZ @ 123 NONAME ; QtMobility::QContactDetailDefinitionRemoveRequest::~QContactDetailDefinitionRemoveRequest(void)
	??1QContactDetailDefinitionSaveRequest@QtMobility@@UAE@XZ @ 124 NONAME ; QtMobility::QContactDetailDefinitionSaveRequest::~QContactDetailDefinitionSaveRequest(void)
	??1QContactDetailFieldDefinition@QtMobility@@QAE@XZ @ 125 NONAME ; QtMobility::QContactDetailFieldDefinition::~QContactDetailFieldDefinition(void)
	??1QContactDetailFilter@QtMobility@@QAE@XZ @ 126 NONAME ; QtMobility::QContactDetailFilter::~QContactDetailFilter(void)
	??1QContactDetailRangeFilter@QtMobility@@QAE@XZ @ 127 NONAME ; QtMobility::QContactDetailRangeFilter::~QContactDetailRangeFilter(void)
	??1QContactDisplayLabel@QtMobility@@QAE@XZ @ 128 NONAME ; QtMobility::QContactDisplayLabel::~QContactDisplayLabel(void)
	??1QContactFetchHint@QtMobility@@QAE@XZ @ 129 NONAME ; QtMobility::QContactFetchHint::~QContactFetchHint(void)
	??1QContactFetchRequest@QtMobility@@UAE@XZ @ 130 NONAME ; QtMobility::QContactFetchRequest::~QContactFetchRequest(void)
	??1QContactFilter@QtMobility@@QAE@XZ @ 131 NONAME ; QtMobility::QContactFilter::~QContactFilter(void)
	??1QContactId@QtMobility@@QAE@XZ @ 132 NONAME ; QtMobility::QContactId::~QContactId(void)
	??1QContactIntersectionFilter@QtMobility@@QAE@XZ @ 133 NONAME ; QtMobility::QContactIntersectionFilter::~QContactIntersectionFilter(void)
	??1QContactInvalidFilter@QtMobility@@QAE@XZ @ 134 NONAME ; QtMobility::QContactInvalidFilter::~QContactInvalidFilter(void)
	??1QContactLocalIdFetchRequest@QtMobility@@UAE@XZ @ 135 NONAME ; QtMobility::QContactLocalIdFetchRequest::~QContactLocalIdFetchRequest(void)
	??1QContactLocalIdFilter@QtMobility@@QAE@XZ @ 136 NONAME ; QtMobility::QContactLocalIdFilter::~QContactLocalIdFilter(void)
	??1QContactManager@QtMobility@@UAE@XZ @ 137 NONAME ; QtMobility::QContactManager::~QContactManager(void)
	??1QContactManagerEngine@QtMobility@@UAE@XZ @ 138 NONAME ; QtMobility::QContactManagerEngine::~QContactManagerEngine(void)
	??1QContactManagerEngineFactory@QtMobility@@UAE@XZ @ 139 NONAME ; QtMobility::QContactManagerEngineFactory::~QContactManagerEngineFactory(void)
	??1QContactName@QtMobility@@QAE@XZ @ 140 NONAME ; QtMobility::QContactName::~QContactName(void)
	??1QContactOrganization@QtMobility@@QAE@XZ @ 141 NONAME ; QtMobility::QContactOrganization::~QContactOrganization(void)
	??1QContactRelationship@QtMobility@@QAE@XZ @ 142 NONAME ; QtMobility::QContactRelationship::~QContactRelationship(void)
	??1QContactRelationshipFetchRequest@QtMobility@@UAE@XZ @ 143 NONAME ; QtMobility::QContactRelationshipFetchRequest::~QContactRelationshipFetchRequest(void)
	??1QContactRelationshipFilter@QtMobility@@QAE@XZ @ 144 NONAME ; QtMobility::QContactRelationshipFilter::~QContactRelationshipFilter(void)
	??1QContactRelationshipRemoveRequest@QtMobility@@UAE@XZ @ 145 NONAME ; QtMobility::QContactRelationshipRemoveRequest::~QContactRelationshipRemoveRequest(void)
	??1QContactRelationshipSaveRequest@QtMobility@@UAE@XZ @ 146 NONAME ; QtMobility::QContactRelationshipSaveRequest::~QContactRelationshipSaveRequest(void)
	??1QContactRemoveRequest@QtMobility@@UAE@XZ @ 147 NONAME ; QtMobility::QContactRemoveRequest::~QContactRemoveRequest(void)
	??1QContactSaveRequest@QtMobility@@UAE@XZ @ 148 NONAME ; QtMobility::QContactSaveRequest::~QContactSaveRequest(void)
	??1QContactSortOrder@QtMobility@@QAE@XZ @ 149 NONAME ; QtMobility::QContactSortOrder::~QContactSortOrder(void)
	??1QContactTimestamp@QtMobility@@QAE@XZ @ 150 NONAME ; QtMobility::QContactTimestamp::~QContactTimestamp(void)
	??1QContactType@QtMobility@@QAE@XZ @ 151 NONAME ; QtMobility::QContactType::~QContactType(void)
	??1QContactUnionFilter@QtMobility@@QAE@XZ @ 152 NONAME ; QtMobility::QContactUnionFilter::~QContactUnionFilter(void)
	??4QContact@QtMobility@@QAEAAV01@ABV01@@Z @ 153 NONAME ; class QtMobility::QContact & QtMobility::QContact::operator=(class QtMobility::QContact const &)
	??4QContactActionDescriptor@QtMobility@@QAEAAV01@ABV01@@Z @ 154 NONAME ; class QtMobility::QContactActionDescriptor & QtMobility::QContactActionDescriptor::operator=(class QtMobility::QContactActionDescriptor const &)
	??4QContactAddress@QtMobility@@QAEAAV01@ABVQContactDetail@1@@Z @ 155 NONAME ; class QtMobility::QContactAddress & QtMobility::QContactAddress::operator=(class QtMobility::QContactDetail const &)
	??4QContactAnniversary@QtMobility@@QAEAAV01@ABVQContactDetail@1@@Z @ 156 NONAME ; class QtMobility::QContactAnniversary & QtMobility::QContactAnniversary::operator=(class QtMobility::QContactDetail const &)
	??4QContactAvatar@QtMobility@@QAEAAV01@ABVQContactDetail@1@@Z @ 157 NONAME ; class QtMobility::QContactAvatar & QtMobility::QContactAvatar::operator=(class QtMobility::QContactDetail const &)
	??4QContactBirthday@QtMobility@@QAEAAV01@ABVQContactDetail@1@@Z @ 158 NONAME ; class QtMobility::QContactBirthday & QtMobility::QContactBirthday::operator=(class QtMobility::QContactDetail const &)
	??4QContactChangeSet@QtMobility@@QAEAAV01@ABV01@@Z @ 159 NONAME ; class QtMobility::QContactChangeSet & QtMobility::QContactChangeSet::operator=(class QtMobility::QContactChangeSet const &)
	??4QContactDetail@QtMobility@@QAEAAV01@ABV01@@Z @ 160 NONAME ; class QtMobility::QContactDetail & QtMobility::QContactDetail::operator=(class QtMobility::QContactDetail const &)
	??4QContactDetailDefinition@QtMobility@@QAEAAV01@ABV01@@Z @ 161 NONAME ; class QtMobility::QContactDetailDefinition & QtMobility::QContactDetailDefinition::operator=(class QtMobility::QContactDetailDefinition const &)
	??4QContactDetailFieldDefinition@QtMobility@@QAEAAV01@ABV01@@Z @ 162 NONAME ; class QtMobility::QContactDetailFieldDefinition & QtMobility::QContactDetailFieldDefinition::operator=(class QtMobility::QContactDetailFieldDefinition const &)
	??4QContactDisplayLabel@QtMobility@@QAEAAV01@ABVQContactDetail@1@@Z @ 163 NONAME ; class QtMobility::QContactDisplayLabel & QtMobility::QContactDisplayLabel::operator=(class QtMobility::QContactDetail const &)
	??4QContactEmailAddress@QtMobility@@QAEAAV01@ABVQContactDetail@1@@Z @ 164 NONAME ; class QtMobility::QContactEmailAddress & QtMobility::QContactEmailAddress::operator=(class QtMobility::QContactDetail const &)
	??4QContactFamily@QtMobility@@QAEAAV01@ABVQContactDetail@1@@Z @ 165 NONAME ; class QtMobility::QContactFamily & QtMobility::QContactFamily::operator=(class QtMobility::QContactDetail const &)
	??4QContactFetchHint@QtMobility@@QAEAAV01@ABV01@@Z @ 166 NONAME ; class QtMobility::QContactFetchHint & QtMobility::QContactFetchHint::operator=(class QtMobility::QContactFetchHint const &)
	??4QContactFilter@QtMobility@@QAEAAV01@ABV01@@Z @ 167 NONAME ; class QtMobility::QContactFilter & QtMobility::QContactFilter::operator=(class QtMobility::QContactFilter const &)
	??4QContactGender@QtMobility@@QAEAAV01@ABVQContactDetail@1@@Z @ 168 NONAME ; class QtMobility::QContactGender & QtMobility::QContactGender::operator=(class QtMobility::QContactDetail const &)
	??4QContactGeoLocation@QtMobility@@QAEAAV01@ABVQContactDetail@1@@Z @ 169 NONAME ; class QtMobility::QContactGeoLocation & QtMobility::QContactGeoLocation::operator=(class QtMobility::QContactDetail const &)
	??4QContactGlobalPresence@QtMobility@@QAEAAV01@ABVQContactDetail@1@@Z @ 170 NONAME ; class QtMobility::QContactGlobalPresence & QtMobility::QContactGlobalPresence::operator=(class QtMobility::QContactDetail const &)
	??4QContactGuid@QtMobility@@QAEAAV01@ABVQContactDetail@1@@Z @ 171 NONAME ; class QtMobility::QContactGuid & QtMobility::QContactGuid::operator=(class QtMobility::QContactDetail const &)
	??4QContactId@QtMobility@@QAEAAV01@ABV01@@Z @ 172 NONAME ; class QtMobility::QContactId & QtMobility::QContactId::operator=(class QtMobility::QContactId const &)
	??4QContactName@QtMobility@@QAEAAV01@ABVQContactDetail@1@@Z @ 173 NONAME ; class QtMobility::QContactName & QtMobility::QContactName::operator=(class QtMobility::QContactDetail const &)
	??4QContactNickname@QtMobility@@QAEAAV01@ABVQContactDetail@1@@Z @ 174 NONAME ; class QtMobility::QContactNickname & QtMobility::QContactNickname::operator=(class QtMobility::QContactDetail const &)
	??4QContactNote@QtMobility@@QAEAAV01@ABVQContactDetail@1@@Z @ 175 NONAME ; class QtMobility::QContactNote & QtMobility::QContactNote::operator=(class QtMobility::QContactDetail const &)
	??4QContactOnlineAccount@QtMobility@@QAEAAV01@ABVQContactDetail@1@@Z @ 176 NONAME ; class QtMobility::QContactOnlineAccount & QtMobility::QContactOnlineAccount::operator=(class QtMobility::QContactDetail const &)
	??4QContactOrganization@QtMobility@@QAEAAV01@ABVQContactDetail@1@@Z @ 177 NONAME ; class QtMobility::QContactOrganization & QtMobility::QContactOrganization::operator=(class QtMobility::QContactDetail const &)
	??4QContactPhoneNumber@QtMobility@@QAEAAV01@ABVQContactDetail@1@@Z @ 178 NONAME ; class QtMobility::QContactPhoneNumber & QtMobility::QContactPhoneNumber::operator=(class QtMobility::QContactDetail const &)
	??4QContactPresence@QtMobility@@QAEAAV01@ABVQContactDetail@1@@Z @ 179 NONAME ; class QtMobility::QContactPresence & QtMobility::QContactPresence::operator=(class QtMobility::QContactDetail const &)
	??4QContactRelationship@QtMobility@@QAEAAV01@ABV01@@Z @ 180 NONAME ; class QtMobility::QContactRelationship & QtMobility::QContactRelationship::operator=(class QtMobility::QContactRelationship const &)
	??4QContactRingtone@QtMobility@@QAEAAV01@ABVQContactDetail@1@@Z @ 181 NONAME ; class QtMobility::QContactRingtone & QtMobility::QContactRingtone::operator=(class QtMobility::QContactDetail const &)
	??4QContactSortOrder@QtMobility@@QAEAAV01@ABV01@@Z @ 182 NONAME ; class QtMobility::QContactSortOrder & QtMobility::QContactSortOrder::operator=(class QtMobility::QContactSortOrder const &)
	??4QContactSyncTarget@QtMobility@@QAEAAV01@ABVQContactDetail@1@@Z @ 183 NONAME ; class QtMobility::QContactSyncTarget & QtMobility::QContactSyncTarget::operator=(class QtMobility::QContactDetail const &)
	??4QContactTag@QtMobility@@QAEAAV01@ABVQContactDetail@1@@Z @ 184 NONAME ; class QtMobility::QContactTag & QtMobility::QContactTag::operator=(class QtMobility::QContactDetail const &)
	??4QContactThumbnail@QtMobility@@QAEAAV01@ABVQContactDetail@1@@Z @ 185 NONAME ; class QtMobility::QContactThumbnail & QtMobility::QContactThumbnail::operator=(class QtMobility::QContactDetail const &)
	??4QContactTimestamp@QtMobility@@QAEAAV01@ABVQContactDetail@1@@Z @ 186 NONAME ; class QtMobility::QContactTimestamp & QtMobility::QContactTimestamp::operator=(class QtMobility::QContactDetail const &)
	??4QContactType@QtMobility@@QAEAAV01@ABVQContactDetail@1@@Z @ 187 NONAME ; class QtMobility::QContactType & QtMobility::QContactType::operator=(class QtMobility::QContactDetail const &)
	??4QContactUrl@QtMobility@@QAEAAV01@ABVQContactDetail@1@@Z @ 188 NONAME ; class QtMobility::QContactUrl & QtMobility::QContactUrl::operator=(class QtMobility::QContactDetail const &)
	??6QContactIntersectionFilter@QtMobility@@QAEAAV01@ABVQContactFilter@1@@Z @ 189 NONAME ; class QtMobility::QContactIntersectionFilter & QtMobility::QContactIntersectionFilter::operator<<(class QtMobility::QContactFilter const &)
	??6QContactUnionFilter@QtMobility@@QAEAAV01@ABVQContactFilter@1@@Z @ 190 NONAME ; class QtMobility::QContactUnionFilter & QtMobility::QContactUnionFilter::operator<<(class QtMobility::QContactFilter const &)
	??6QtMobility@@YA?AVQDebug@@V1@ABVQContact@0@@Z @ 191 NONAME ; class QDebug QtMobility::operator<<(class QDebug, class QtMobility::QContact const &)
	??6QtMobility@@YA?AVQDebug@@V1@ABVQContactDetail@0@@Z @ 192 NONAME ; class QDebug QtMobility::operator<<(class QDebug, class QtMobility::QContactDetail const &)
	??6QtMobility@@YA?AVQDebug@@V1@ABVQContactId@0@@Z @ 193 NONAME ; class QDebug QtMobility::operator<<(class QDebug, class QtMobility::QContactId const &)
	??6QtMobility@@YA?AVQDebug@@V1@ABVQContactRelationship@0@@Z @ 194 NONAME ; class QDebug QtMobility::operator<<(class QDebug, class QtMobility::QContactRelationship const &)
	??8QContact@QtMobility@@QBE_NABV01@@Z @ 195 NONAME ; bool QtMobility::QContact::operator==(class QtMobility::QContact const &) const
	??8QContactActionDescriptor@QtMobility@@QBE_NABV01@@Z @ 196 NONAME ; bool QtMobility::QContactActionDescriptor::operator==(class QtMobility::QContactActionDescriptor const &) const
	??8QContactDetail@QtMobility@@QBE_NABV01@@Z @ 197 NONAME ; bool QtMobility::QContactDetail::operator==(class QtMobility::QContactDetail const &) const
	??8QContactDetailDefinition@QtMobility@@QBE_NABV01@@Z @ 198 NONAME ; bool QtMobility::QContactDetailDefinition::operator==(class QtMobility::QContactDetailDefinition const &) const
	??8QContactDetailFieldDefinition@QtMobility@@QBE_NABV01@@Z @ 199 NONAME ; bool QtMobility::QContactDetailFieldDefinition::operator==(class QtMobility::QContactDetailFieldDefinition const &) const
	??8QContactFilter@QtMobility@@QBE_NABV01@@Z @ 200 NONAME ; bool QtMobility::QContactFilter::operator==(class QtMobility::QContactFilter const &) const
	??8QContactId@QtMobility@@QBE_NABV01@@Z @ 201 NONAME ; bool QtMobility::QContactId::operator==(class QtMobility::QContactId const &) const
	??8QContactRelationship@QtMobility@@QBE_NABV01@@Z @ 202 NONAME ; bool QtMobility::QContactRelationship::operator==(class QtMobility::QContactRelationship const &) const
	??8QContactSortOrder@QtMobility@@QBE_NABV01@@Z @ 203 NONAME ; bool QtMobility::QContactSortOrder::operator==(class QtMobility::QContactSortOrder const &) const
	??9QContact@QtMobility@@QBE_NABV01@@Z @ 204 NONAME ; bool QtMobility::QContact::operator!=(class QtMobility::QContact const &) const
	??9QContactActionDescriptor@QtMobility@@QBE_NABV01@@Z @ 205 NONAME ; bool QtMobility::QContactActionDescriptor::operator!=(class QtMobility::QContactActionDescriptor const &) const
	??9QContactDetail@QtMobility@@QBE_NABV01@@Z @ 206 NONAME ; bool QtMobility::QContactDetail::operator!=(class QtMobility::QContactDetail const &) const
	??9QContactDetailDefinition@QtMobility@@QBE_NABV01@@Z @ 207 NONAME ; bool QtMobility::QContactDetailDefinition::operator!=(class QtMobility::QContactDetailDefinition const &) const
	??9QContactDetailFieldDefinition@QtMobility@@QBE_NABV01@@Z @ 208 NONAME ; bool QtMobility::QContactDetailFieldDefinition::operator!=(class QtMobility::QContactDetailFieldDefinition const &) const
	??9QContactFilter@QtMobility@@QBE_NABV01@@Z @ 209 NONAME ; bool QtMobility::QContactFilter::operator!=(class QtMobility::QContactFilter const &) const
	??9QContactId@QtMobility@@QBE_NABV01@@Z @ 210 NONAME ; bool QtMobility::QContactId::operator!=(class QtMobility::QContactId const &) const
	??9QContactRelationship@QtMobility@@QBE_NABV01@@Z @ 211 NONAME ; bool QtMobility::QContactRelationship::operator!=(class QtMobility::QContactRelationship const &) const
	??9QContactSortOrder@QtMobility@@QBE_NABV01@@Z @ 212 NONAME ; bool QtMobility::QContactSortOrder::operator!=(class QtMobility::QContactSortOrder const &) const
	??BQContactSortOrder@QtMobility@@QBE?AV?$QList@VQContactSortOrder@QtMobility@@@@XZ @ 213 NONAME ; QtMobility::QContactSortOrder::operator class QList<class QtMobility::QContactSortOrder>(void) const
	??IQtMobility@@YA?BVQContactFilter@0@ABV10@0@Z @ 214 NONAME ; class QtMobility::QContactFilter const QtMobility::operator&(class QtMobility::QContactFilter const &, class QtMobility::QContactFilter const &)
	??MQContactActionDescriptor@QtMobility@@QBE_NABV01@@Z @ 215 NONAME ; bool QtMobility::QContactActionDescriptor::operator<(class QtMobility::QContactActionDescriptor const &) const
	??MQContactId@QtMobility@@QBE_NABV01@@Z @ 216 NONAME ; bool QtMobility::QContactId::operator<(class QtMobility::QContactId const &) const
	??UQtMobility@@YA?BVQContactFilter@0@ABV10@0@Z @ 217 NONAME ; class QtMobility::QContactFilter const QtMobility::operator|(class QtMobility::QContactFilter const &, class QtMobility::QContactFilter const &)
	??_EQContact@QtMobility@@QAE@I@Z @ 218 NONAME ; QtMobility::QContact::~QContact(unsigned int)
	??_EQContactAbstractRequest@QtMobility@@UAE@I@Z @ 219 NONAME ; QtMobility::QContactAbstractRequest::~QContactAbstractRequest(unsigned int)
	??_EQContactAction@QtMobility@@UAE@I@Z @ 220 NONAME ; QtMobility::QContactAction::~QContactAction(unsigned int)
	??_EQContactActionDescriptor@QtMobility@@QAE@I@Z @ 221 NONAME ; QtMobility::QContactActionDescriptor::~QContactActionDescriptor(unsigned int)
	??_EQContactActionFactory@QtMobility@@UAE@I@Z @ 222 NONAME ; QtMobility::QContactActionFactory::~QContactActionFactory(unsigned int)
	??_EQContactDetail@QtMobility@@QAE@I@Z @ 223 NONAME ; QtMobility::QContactDetail::~QContactDetail(unsigned int)
	??_EQContactDetailDefinition@QtMobility@@QAE@I@Z @ 224 NONAME ; QtMobility::QContactDetailDefinition::~QContactDetailDefinition(unsigned int)
	??_EQContactDetailDefinitionFetchRequest@QtMobility@@UAE@I@Z @ 225 NONAME ; QtMobility::QContactDetailDefinitionFetchRequest::~QContactDetailDefinitionFetchRequest(unsigned int)
	??_EQContactDetailDefinitionRemoveRequest@QtMobility@@UAE@I@Z @ 226 NONAME ; QtMobility::QContactDetailDefinitionRemoveRequest::~QContactDetailDefinitionRemoveRequest(unsigned int)
	??_EQContactDetailDefinitionSaveRequest@QtMobility@@UAE@I@Z @ 227 NONAME ; QtMobility::QContactDetailDefinitionSaveRequest::~QContactDetailDefinitionSaveRequest(unsigned int)
	??_EQContactFetchRequest@QtMobility@@UAE@I@Z @ 228 NONAME ; QtMobility::QContactFetchRequest::~QContactFetchRequest(unsigned int)
	??_EQContactFilter@QtMobility@@QAE@I@Z @ 229 NONAME ; QtMobility::QContactFilter::~QContactFilter(unsigned int)
	??_EQContactId@QtMobility@@QAE@I@Z @ 230 NONAME ; QtMobility::QContactId::~QContactId(unsigned int)
	??_EQContactLocalIdFetchRequest@QtMobility@@UAE@I@Z @ 231 NONAME ; QtMobility::QContactLocalIdFetchRequest::~QContactLocalIdFetchRequest(unsigned int)
	??_EQContactManager@QtMobility@@UAE@I@Z @ 232 NONAME ; QtMobility::QContactManager::~QContactManager(unsigned int)
	??_EQContactManagerEngine@QtMobility@@UAE@I@Z @ 233 NONAME ; QtMobility::QContactManagerEngine::~QContactManagerEngine(unsigned int)
	??_EQContactManagerEngineFactory@QtMobility@@UAE@I@Z @ 234 NONAME ; QtMobility::QContactManagerEngineFactory::~QContactManagerEngineFactory(unsigned int)
	??_EQContactRelationship@QtMobility@@QAE@I@Z @ 235 NONAME ; QtMobility::QContactRelationship::~QContactRelationship(unsigned int)
	??_EQContactRelationshipFetchRequest@QtMobility@@UAE@I@Z @ 236 NONAME ; QtMobility::QContactRelationshipFetchRequest::~QContactRelationshipFetchRequest(unsigned int)
	??_EQContactRelationshipRemoveRequest@QtMobility@@UAE@I@Z @ 237 NONAME ; QtMobility::QContactRelationshipRemoveRequest::~QContactRelationshipRemoveRequest(unsigned int)
	??_EQContactRelationshipSaveRequest@QtMobility@@UAE@I@Z @ 238 NONAME ; QtMobility::QContactRelationshipSaveRequest::~QContactRelationshipSaveRequest(unsigned int)
	??_EQContactRemoveRequest@QtMobility@@UAE@I@Z @ 239 NONAME ; QtMobility::QContactRemoveRequest::~QContactRemoveRequest(unsigned int)
	??_EQContactSaveRequest@QtMobility@@UAE@I@Z @ 240 NONAME ; QtMobility::QContactSaveRequest::~QContactSaveRequest(unsigned int)
	??_EQContactSortOrder@QtMobility@@QAE@I@Z @ 241 NONAME ; QtMobility::QContactSortOrder::~QContactSortOrder(unsigned int)
	?accessConstraints@QContactDetail@QtMobility@@QBE?AV?$QFlags@W4AccessConstraint@QContactDetail@QtMobility@@@@XZ @ 242 NONAME ; class QFlags<enum QtMobility::QContactDetail::AccessConstraint> QtMobility::QContactDetail::accessConstraints(void) const
	?accountUri@QContactOnlineAccount@QtMobility@@QBE?AVQString@@XZ @ 243 NONAME ; class QString QtMobility::QContactOnlineAccount::accountUri(void) const
	?accuracy@QContactGeoLocation@QtMobility@@QBENXZ @ 244 NONAME ; double QtMobility::QContactGeoLocation::accuracy(void) const
	?action@QContactAction@QtMobility@@SAPAV12@ABVQContactActionDescriptor@2@@Z @ 245 NONAME ; class QtMobility::QContactAction * QtMobility::QContactAction::action(class QtMobility::QContactActionDescriptor const &)
	?actionDescriptors@QContactAction@QtMobility@@SA?AV?$QList@VQContactActionDescriptor@QtMobility@@@@ABVQString@@0H@Z @ 246 NONAME ; class QList<class QtMobility::QContactActionDescriptor> QtMobility::QContactAction::actionDescriptors(class QString const &, class QString const &, int)
	?actionName@QContactActionDescriptor@QtMobility@@QBE?AVQString@@XZ @ 247 NONAME ; class QString QtMobility::QContactActionDescriptor::actionName(void) const
	?actionName@QContactActionFilter@QtMobility@@QBE?AVQString@@XZ @ 248 NONAME ; class QString QtMobility::QContactActionFilter::actionName(void) const
	?addSorted@QContactManagerEngine@QtMobility@@SAXPAV?$QList@VQContact@QtMobility@@@@ABVQContact@2@ABV?$QList@VQContactSortOrder@QtMobility@@@@@Z @ 249 NONAME ; void QtMobility::QContactManagerEngine::addSorted(class QList<class QtMobility::QContact> *, class QtMobility::QContact const &, class QList<class QtMobility::QContactSortOrder> const &)
	?addedContacts@QContactChangeSet@QtMobility@@QBE?AV?$QSet@I@@XZ @ 250 NONAME ; class QSet<unsigned int> QtMobility::QContactChangeSet::addedContacts(void) const
	?addedRelationshipsContacts@QContactChangeSet@QtMobility@@QBE?AV?$QSet@I@@XZ @ 251 NONAME ; class QSet<unsigned int> QtMobility::QContactChangeSet::addedRelationshipsContacts(void) const
	?allowableValues@QContactDetailFieldDefinition@QtMobility@@QBE?AV?$QList@VQVariant@@@@XZ @ 252 NONAME ; class QList<class QVariant> QtMobility::QContactDetailFieldDefinition::allowableValues(void) const
	?altitude@QContactGeoLocation@QtMobility@@QBENXZ @ 253 NONAME ; double QtMobility::QContactGeoLocation::altitude(void) const
	?altitudeAccuracy@QContactGeoLocation@QtMobility@@QBENXZ @ 254 NONAME ; double QtMobility::QContactGeoLocation::altitudeAccuracy(void) const
	?append@QContactIntersectionFilter@QtMobility@@QAEXABVQContactFilter@2@@Z @ 255 NONAME ; void QtMobility::QContactIntersectionFilter::append(class QtMobility::QContactFilter const &)
	?append@QContactUnionFilter@QtMobility@@QAEXABVQContactFilter@2@@Z @ 256 NONAME ; void QtMobility::QContactUnionFilter::append(class QtMobility::QContactFilter const &)
	?assign@QContactDetail@QtMobility@@IAEAAV12@ABV12@ABVQString@@@Z @ 257 NONAME ; class QtMobility::QContactDetail & QtMobility::QContactDetail::assign(class QtMobility::QContactDetail const &, class QString const &)
	?assign@QContactDetail@QtMobility@@IAEAAV12@ABV12@PBD@Z @ 258 NONAME ; class QtMobility::QContactDetail & QtMobility::QContactDetail::assign(class QtMobility::QContactDetail const &, char const *)
	?assistantName@QContactOrganization@QtMobility@@QBE?AVQString@@XZ @ 259 NONAME ; class QString QtMobility::QContactOrganization::assistantName(void) const
	?audioRingtoneUrl@QContactRingtone@QtMobility@@QBE?AVQUrl@@XZ @ 260 NONAME ; class QUrl QtMobility::QContactRingtone::audioRingtoneUrl(void) const
	?availableActions@QContact@QtMobility@@QBE?AV?$QList@VQContactActionDescriptor@QtMobility@@@@ABVQString@@H@Z @ 261 NONAME ; class QList<class QtMobility::QContactActionDescriptor> QtMobility::QContact::availableActions(class QString const &, int) const
	?availableActions@QContactAction@QtMobility@@SA?AVQStringList@@ABVQString@@H@Z @ 262 NONAME ; class QStringList QtMobility::QContactAction::availableActions(class QString const &, int)
	?availableManagers@QContactManager@QtMobility@@SA?AVQStringList@@XZ @ 263 NONAME ; class QStringList QtMobility::QContactManager::availableManagers(void)
	?blankPolicy@QContactSortOrder@QtMobility@@QBE?AW4BlankPolicy@12@XZ @ 264 NONAME ; enum QtMobility::QContactSortOrder::BlankPolicy QtMobility::QContactSortOrder::blankPolicy(void) const
	?buildUri@QContactManager@QtMobility@@SA?AVQString@@ABV3@ABV?$QMap@VQString@@V1@@@H@Z @ 265 NONAME ; class QString QtMobility::QContactManager::buildUri(class QString const &, class QMap<class QString, class QString> const &, int)
	?calendarId@QContactAnniversary@QtMobility@@QBE?AVQString@@XZ @ 266 NONAME ; class QString QtMobility::QContactAnniversary::calendarId(void) const
	?cancel@QContactAbstractRequest@QtMobility@@QAE_NXZ @ 267 NONAME ; bool QtMobility::QContactAbstractRequest::cancel(void)
	?cancelRequest@QContactManagerEngine@QtMobility@@UAE_NPAVQContactAbstractRequest@2@@Z @ 268 NONAME ; bool QtMobility::QContactManagerEngine::cancelRequest(class QtMobility::QContactAbstractRequest *)
	?canonicalizedFilter@QContactManagerEngine@QtMobility@@SA?AVQContactFilter@2@ABV32@@Z @ 269 NONAME ; class QtMobility::QContactFilter QtMobility::QContactManagerEngine::canonicalizedFilter(class QtMobility::QContactFilter const &)
	?capabilities@QContactOnlineAccount@QtMobility@@QBE?AVQStringList@@XZ @ 270 NONAME ; class QStringList QtMobility::QContactOnlineAccount::capabilities(void) const
	?caseSensitivity@QContactSortOrder@QtMobility@@QBE?AW4CaseSensitivity@Qt@@XZ @ 271 NONAME ; enum Qt::CaseSensitivity QtMobility::QContactSortOrder::caseSensitivity(void) const
	?changedContacts@QContactChangeSet@QtMobility@@QBE?AV?$QSet@I@@XZ @ 272 NONAME ; class QSet<unsigned int> QtMobility::QContactChangeSet::changedContacts(void) const
	?children@QContactFamily@QtMobility@@QBE?AVQStringList@@XZ @ 273 NONAME ; class QStringList QtMobility::QContactFamily::children(void) const
	?clearAddedContacts@QContactChangeSet@QtMobility@@QAEXXZ @ 274 NONAME ; void QtMobility::QContactChangeSet::clearAddedContacts(void)
	?clearAddedRelationshipsContacts@QContactChangeSet@QtMobility@@QAEXXZ @ 275 NONAME ; void QtMobility::QContactChangeSet::clearAddedRelationshipsContacts(void)
	?clearAll@QContactChangeSet@QtMobility@@QAEXXZ @ 276 NONAME ; void QtMobility::QContactChangeSet::clearAll(void)
	?clearChangedContacts@QContactChangeSet@QtMobility@@QAEXXZ @ 277 NONAME ; void QtMobility::QContactChangeSet::clearChangedContacts(void)
	?clearDetails@QContact@QtMobility@@QAEXXZ @ 278 NONAME ; void QtMobility::QContact::clearDetails(void)
	?clearRemovedContacts@QContactChangeSet@QtMobility@@QAEXXZ @ 279 NONAME ; void QtMobility::QContactChangeSet::clearRemovedContacts(void)
	?clearRemovedRelationshipsContacts@QContactChangeSet@QtMobility@@QAEXXZ @ 280 NONAME ; void QtMobility::QContactChangeSet::clearRemovedRelationshipsContacts(void)
	?compareContact@QContactManagerEngine@QtMobility@@SAHABVQContact@2@0ABV?$QList@VQContactSortOrder@QtMobility@@@@@Z @ 281 NONAME ; int QtMobility::QContactManagerEngine::compareContact(class QtMobility::QContact const &, class QtMobility::QContact const &, class QList<class QtMobility::QContactSortOrder> const &)
	?compareVariant@QContactManagerEngine@QtMobility@@SAHABVQVariant@@0W4CaseSensitivity@Qt@@@Z @ 282 NONAME ; int QtMobility::QContactManagerEngine::compareVariant(class QVariant const &, class QVariant const &, enum Qt::CaseSensitivity)
	?compatibleContact@QContactManager@QtMobility@@QAE?AVQContact@2@ABV32@@Z @ 283 NONAME ; class QtMobility::QContact QtMobility::QContactManager::compatibleContact(class QtMobility::QContact const &)
	?compatibleContact@QContactManagerEngine@QtMobility@@UBE?AVQContact@2@ABV32@PAW4Error@QContactManager@2@@Z @ 284 NONAME ; class QtMobility::QContact QtMobility::QContactManagerEngine::compatibleContact(class QtMobility::QContact const &, enum QtMobility::QContactManager::Error *) const
	?contact@QContactManager@QtMobility@@QBE?AVQContact@2@ABIABVQContactFetchHint@2@@Z @ 285 NONAME ; class QtMobility::QContact QtMobility::QContactManager::contact(unsigned int const &, class QtMobility::QContactFetchHint const &) const
	?contact@QContactManagerEngine@QtMobility@@UBE?AVQContact@2@ABIABVQContactFetchHint@2@PAW4Error@QContactManager@2@@Z @ 286 NONAME ; class QtMobility::QContact QtMobility::QContactManagerEngine::contact(unsigned int const &, class QtMobility::QContactFetchHint const &, enum QtMobility::QContactManager::Error *) const
	?contactIds@QContactManager@QtMobility@@QBE?AV?$QList@I@@ABV?$QList@VQContactSortOrder@QtMobility@@@@@Z @ 287 NONAME ; class QList<unsigned int> QtMobility::QContactManager::contactIds(class QList<class QtMobility::QContactSortOrder> const &) const
	?contactIds@QContactManager@QtMobility@@QBE?AV?$QList@I@@ABVQContactFilter@2@ABV?$QList@VQContactSortOrder@QtMobility@@@@@Z @ 288 NONAME ; class QList<unsigned int> QtMobility::QContactManager::contactIds(class QtMobility::QContactFilter const &, class QList<class QtMobility::QContactSortOrder> const &) const
	?contactIds@QContactManagerEngine@QtMobility@@UBE?AV?$QList@I@@ABVQContactFilter@2@ABV?$QList@VQContactSortOrder@QtMobility@@@@PAW4Error@QContactManager@2@@Z @ 289 NONAME ; class QList<unsigned int> QtMobility::QContactManagerEngine::contactIds(class QtMobility::QContactFilter const &, class QList<class QtMobility::QContactSortOrder> const &, enum QtMobility::QContactManager::Error *) const
	?contactIds@QContactRemoveRequest@QtMobility@@QBE?AV?$QList@I@@XZ @ 290 NONAME ; class QList<unsigned int> QtMobility::QContactRemoveRequest::contactIds(void) const
	?contactType@QContactDetailDefinitionFetchRequest@QtMobility@@QBE?AVQString@@XZ @ 291 NONAME ; class QString QtMobility::QContactDetailDefinitionFetchRequest::contactType(void) const
	?contactType@QContactDetailDefinitionRemoveRequest@QtMobility@@QBE?AVQString@@XZ @ 292 NONAME ; class QString QtMobility::QContactDetailDefinitionRemoveRequest::contactType(void) const
	?contactType@QContactDetailDefinitionSaveRequest@QtMobility@@QBE?AVQString@@XZ @ 293 NONAME ; class QString QtMobility::QContactDetailDefinitionSaveRequest::contactType(void) const
	?contacts@QContactFetchRequest@QtMobility@@QBE?AV?$QList@VQContact@QtMobility@@@@XZ @ 294 NONAME ; class QList<class QtMobility::QContact> QtMobility::QContactFetchRequest::contacts(void) const
	?contacts@QContactManager@QtMobility@@QBE?AV?$QList@VQContact@QtMobility@@@@ABV?$QList@VQContactSortOrder@QtMobility@@@@ABVQContactFetchHint@2@@Z @ 295 NONAME ; class QList<class QtMobility::QContact> QtMobility::QContactManager::contacts(class QList<class QtMobility::QContactSortOrder> const &, class QtMobility::QContactFetchHint const &) const
	?contacts@QContactManager@QtMobility@@QBE?AV?$QList@VQContact@QtMobility@@@@ABVQContactFilter@2@ABV?$QList@VQContactSortOrder@QtMobility@@@@ABVQContactFetchHint@2@@Z @ 296 NONAME ; class QList<class QtMobility::QContact> QtMobility::QContactManager::contacts(class QtMobility::QContactFilter const &, class QList<class QtMobility::QContactSortOrder> const &, class QtMobility::QContactFetchHint const &) const
	?contacts@QContactManagerEngine@QtMobility@@UBE?AV?$QList@VQContact@QtMobility@@@@ABVQContactFilter@2@ABV?$QList@VQContactSortOrder@QtMobility@@@@ABVQContactFetchHint@2@PAW4Error@QContactManager@2@@Z @ 297 NONAME ; class QList<class QtMobility::QContact> QtMobility::QContactManagerEngine::contacts(class QtMobility::QContactFilter const &, class QList<class QtMobility::QContactSortOrder> const &, class QtMobility::QContactFetchHint const &, enum QtMobility::QContactManager::Error *) const
	?contacts@QContactSaveRequest@QtMobility@@QBE?AV?$QList@VQContact@QtMobility@@@@XZ @ 298 NONAME ; class QList<class QtMobility::QContact> QtMobility::QContactSaveRequest::contacts(void) const
	?contactsAdded@QContactManager@QtMobility@@IAEXABV?$QList@I@@@Z @ 299 NONAME ; void QtMobility::QContactManager::contactsAdded(class QList<unsigned int> const &)
	?contactsAdded@QContactManagerEngine@QtMobility@@IAEXABV?$QList@I@@@Z @ 300 NONAME ; void QtMobility::QContactManagerEngine::contactsAdded(class QList<unsigned int> const &)
	?contactsChanged@QContactManager@QtMobility@@IAEXABV?$QList@I@@@Z @ 301 NONAME ; void QtMobility::QContactManager::contactsChanged(class QList<unsigned int> const &)
	?contactsChanged@QContactManagerEngine@QtMobility@@IAEXABV?$QList@I@@@Z @ 302 NONAME ; void QtMobility::QContactManagerEngine::contactsChanged(class QList<unsigned int> const &)
	?contactsRemoved@QContactManager@QtMobility@@IAEXABV?$QList@I@@@Z @ 303 NONAME ; void QtMobility::QContactManager::contactsRemoved(class QList<unsigned int> const &)
	?contactsRemoved@QContactManagerEngine@QtMobility@@IAEXABV?$QList@I@@@Z @ 304 NONAME ; void QtMobility::QContactManagerEngine::contactsRemoved(class QList<unsigned int> const &)
	?contexts@QContactDetail@QtMobility@@QBE?AVQStringList@@XZ @ 305 NONAME ; class QStringList QtMobility::QContactDetail::contexts(void) const
	?country@QContactAddress@QtMobility@@QBE?AVQString@@XZ @ 306 NONAME ; class QString QtMobility::QContactAddress::country(void) const
	?createEngine@QContactManager@QtMobility@@AAEXABVQString@@ABV?$QMap@VQString@@V1@@@@Z @ 307 NONAME ; void QtMobility::QContactManager::createEngine(class QString const &, class QMap<class QString, class QString> const &)
	?created@QContactTimestamp@QtMobility@@QBE?AVQDateTime@@XZ @ 308 NONAME ; class QDateTime QtMobility::QContactTimestamp::created(void) const
	?customLabel@QContactName@QtMobility@@QBE?AVQString@@XZ @ 309 NONAME ; class QString QtMobility::QContactName::customLabel(void) const
	?customMessage@QContactGlobalPresence@QtMobility@@QBE?AVQString@@XZ @ 310 NONAME ; class QString QtMobility::QContactGlobalPresence::customMessage(void) const
	?customMessage@QContactPresence@QtMobility@@QBE?AVQString@@XZ @ 311 NONAME ; class QString QtMobility::QContactPresence::customMessage(void) const
	?d_func@QContactActionFilter@QtMobility@@AAEPAVQContactActionFilterPrivate@2@XZ @ 312 NONAME ; class QtMobility::QContactActionFilterPrivate * QtMobility::QContactActionFilter::d_func(void)
	?d_func@QContactActionFilter@QtMobility@@ABEPBVQContactActionFilterPrivate@2@XZ @ 313 NONAME ; class QtMobility::QContactActionFilterPrivate const * QtMobility::QContactActionFilter::d_func(void) const
	?d_func@QContactChangeLogFilter@QtMobility@@AAEPAVQContactChangeLogFilterPrivate@2@XZ @ 314 NONAME ; class QtMobility::QContactChangeLogFilterPrivate * QtMobility::QContactChangeLogFilter::d_func(void)
	?d_func@QContactChangeLogFilter@QtMobility@@ABEPBVQContactChangeLogFilterPrivate@2@XZ @ 315 NONAME ; class QtMobility::QContactChangeLogFilterPrivate const * QtMobility::QContactChangeLogFilter::d_func(void) const
	?d_func@QContactDetailDefinitionFetchRequest@QtMobility@@AAEPAVQContactDetailDefinitionFetchRequestPrivate@2@XZ @ 316 NONAME ; class QtMobility::QContactDetailDefinitionFetchRequestPrivate * QtMobility::QContactDetailDefinitionFetchRequest::d_func(void)
	?d_func@QContactDetailDefinitionFetchRequest@QtMobility@@ABEPBVQContactDetailDefinitionFetchRequestPrivate@2@XZ @ 317 NONAME ; class QtMobility::QContactDetailDefinitionFetchRequestPrivate const * QtMobility::QContactDetailDefinitionFetchRequest::d_func(void) const
	?d_func@QContactDetailDefinitionRemoveRequest@QtMobility@@AAEPAVQContactDetailDefinitionRemoveRequestPrivate@2@XZ @ 318 NONAME ; class QtMobility::QContactDetailDefinitionRemoveRequestPrivate * QtMobility::QContactDetailDefinitionRemoveRequest::d_func(void)
	?d_func@QContactDetailDefinitionRemoveRequest@QtMobility@@ABEPBVQContactDetailDefinitionRemoveRequestPrivate@2@XZ @ 319 NONAME ; class QtMobility::QContactDetailDefinitionRemoveRequestPrivate const * QtMobility::QContactDetailDefinitionRemoveRequest::d_func(void) const
	?d_func@QContactDetailDefinitionSaveRequest@QtMobility@@AAEPAVQContactDetailDefinitionSaveRequestPrivate@2@XZ @ 320 NONAME ; class QtMobility::QContactDetailDefinitionSaveRequestPrivate * QtMobility::QContactDetailDefinitionSaveRequest::d_func(void)
	?d_func@QContactDetailDefinitionSaveRequest@QtMobility@@ABEPBVQContactDetailDefinitionSaveRequestPrivate@2@XZ @ 321 NONAME ; class QtMobility::QContactDetailDefinitionSaveRequestPrivate const * QtMobility::QContactDetailDefinitionSaveRequest::d_func(void) const
	?d_func@QContactDetailFilter@QtMobility@@AAEPAVQContactDetailFilterPrivate@2@XZ @ 322 NONAME ; class QtMobility::QContactDetailFilterPrivate * QtMobility::QContactDetailFilter::d_func(void)
	?d_func@QContactDetailFilter@QtMobility@@ABEPBVQContactDetailFilterPrivate@2@XZ @ 323 NONAME ; class QtMobility::QContactDetailFilterPrivate const * QtMobility::QContactDetailFilter::d_func(void) const
	?d_func@QContactDetailRangeFilter@QtMobility@@AAEPAVQContactDetailRangeFilterPrivate@2@XZ @ 324 NONAME ; class QtMobility::QContactDetailRangeFilterPrivate * QtMobility::QContactDetailRangeFilter::d_func(void)
	?d_func@QContactDetailRangeFilter@QtMobility@@ABEPBVQContactDetailRangeFilterPrivate@2@XZ @ 325 NONAME ; class QtMobility::QContactDetailRangeFilterPrivate const * QtMobility::QContactDetailRangeFilter::d_func(void) const
	?d_func@QContactFetchRequest@QtMobility@@AAEPAVQContactFetchRequestPrivate@2@XZ @ 326 NONAME ; class QtMobility::QContactFetchRequestPrivate * QtMobility::QContactFetchRequest::d_func(void)
	?d_func@QContactFetchRequest@QtMobility@@ABEPBVQContactFetchRequestPrivate@2@XZ @ 327 NONAME ; class QtMobility::QContactFetchRequestPrivate const * QtMobility::QContactFetchRequest::d_func(void) const
	?d_func@QContactIntersectionFilter@QtMobility@@AAEPAVQContactIntersectionFilterPrivate@2@XZ @ 328 NONAME ; class QtMobility::QContactIntersectionFilterPrivate * QtMobility::QContactIntersectionFilter::d_func(void)
	?d_func@QContactIntersectionFilter@QtMobility@@ABEPBVQContactIntersectionFilterPrivate@2@XZ @ 329 NONAME ; class QtMobility::QContactIntersectionFilterPrivate const * QtMobility::QContactIntersectionFilter::d_func(void) const
	?d_func@QContactLocalIdFetchRequest@QtMobility@@AAEPAVQContactLocalIdFetchRequestPrivate@2@XZ @ 330 NONAME ; class QtMobility::QContactLocalIdFetchRequestPrivate * QtMobility::QContactLocalIdFetchRequest::d_func(void)
	?d_func@QContactLocalIdFetchRequest@QtMobility@@ABEPBVQContactLocalIdFetchRequestPrivate@2@XZ @ 331 NONAME ; class QtMobility::QContactLocalIdFetchRequestPrivate const * QtMobility::QContactLocalIdFetchRequest::d_func(void) const
	?d_func@QContactLocalIdFilter@QtMobility@@AAEPAVQContactLocalIdFilterPrivate@2@XZ @ 332 NONAME ; class QtMobility::QContactLocalIdFilterPrivate * QtMobility::QContactLocalIdFilter::d_func(void)
	?d_func@QContactLocalIdFilter@QtMobility@@ABEPBVQContactLocalIdFilterPrivate@2@XZ @ 333 NONAME ; class QtMobility::QContactLocalIdFilterPrivate const * QtMobility::QContactLocalIdFilter::d_func(void) const
	?d_func@QContactRelationshipFetchRequest@QtMobility@@AAEPAVQContactRelationshipFetchRequestPrivate@2@XZ @ 334 NONAME ; class QtMobility::QContactRelationshipFetchRequestPrivate * QtMobility::QContactRelationshipFetchRequest::d_func(void)
	?d_func@QContactRelationshipFetchRequest@QtMobility@@ABEPBVQContactRelationshipFetchRequestPrivate@2@XZ @ 335 NONAME ; class QtMobility::QContactRelationshipFetchRequestPrivate const * QtMobility::QContactRelationshipFetchRequest::d_func(void) const
	?d_func@QContactRelationshipFilter@QtMobility@@AAEPAVQContactRelationshipFilterPrivate@2@XZ @ 336 NONAME ; class QtMobility::QContactRelationshipFilterPrivate * QtMobility::QContactRelationshipFilter::d_func(void)
	?d_func@QContactRelationshipFilter@QtMobility@@ABEPBVQContactRelationshipFilterPrivate@2@XZ @ 337 NONAME ; class QtMobility::QContactRelationshipFilterPrivate const * QtMobility::QContactRelationshipFilter::d_func(void) const
	?d_func@QContactRelationshipRemoveRequest@QtMobility@@AAEPAVQContactRelationshipRemoveRequestPrivate@2@XZ @ 338 NONAME ; class QtMobility::QContactRelationshipRemoveRequestPrivate * QtMobility::QContactRelationshipRemoveRequest::d_func(void)
	?d_func@QContactRelationshipRemoveRequest@QtMobility@@ABEPBVQContactRelationshipRemoveRequestPrivate@2@XZ @ 339 NONAME ; class QtMobility::QContactRelationshipRemoveRequestPrivate const * QtMobility::QContactRelationshipRemoveRequest::d_func(void) const
	?d_func@QContactRelationshipSaveRequest@QtMobility@@AAEPAVQContactRelationshipSaveRequestPrivate@2@XZ @ 340 NONAME ; class QtMobility::QContactRelationshipSaveRequestPrivate * QtMobility::QContactRelationshipSaveRequest::d_func(void)
	?d_func@QContactRelationshipSaveRequest@QtMobility@@ABEPBVQContactRelationshipSaveRequestPrivate@2@XZ @ 341 NONAME ; class QtMobility::QContactRelationshipSaveRequestPrivate const * QtMobility::QContactRelationshipSaveRequest::d_func(void) const
	?d_func@QContactRemoveRequest@QtMobility@@AAEPAVQContactRemoveRequestPrivate@2@XZ @ 342 NONAME ; class QtMobility::QContactRemoveRequestPrivate * QtMobility::QContactRemoveRequest::d_func(void)
	?d_func@QContactRemoveRequest@QtMobility@@ABEPBVQContactRemoveRequestPrivate@2@XZ @ 343 NONAME ; class QtMobility::QContactRemoveRequestPrivate const * QtMobility::QContactRemoveRequest::d_func(void) const
	?d_func@QContactSaveRequest@QtMobility@@AAEPAVQContactSaveRequestPrivate@2@XZ @ 344 NONAME ; class QtMobility::QContactSaveRequestPrivate * QtMobility::QContactSaveRequest::d_func(void)
	?d_func@QContactSaveRequest@QtMobility@@ABEPBVQContactSaveRequestPrivate@2@XZ @ 345 NONAME ; class QtMobility::QContactSaveRequestPrivate const * QtMobility::QContactSaveRequest::d_func(void) const
	?d_func@QContactUnionFilter@QtMobility@@AAEPAVQContactUnionFilterPrivate@2@XZ @ 346 NONAME ; class QtMobility::QContactUnionFilterPrivate * QtMobility::QContactUnionFilter::d_func(void)
	?d_func@QContactUnionFilter@QtMobility@@ABEPBVQContactUnionFilterPrivate@2@XZ @ 347 NONAME ; class QtMobility::QContactUnionFilterPrivate const * QtMobility::QContactUnionFilter::d_func(void) const
	?dataChanged@QContactChangeSet@QtMobility@@QAE_NXZ @ 348 NONAME ; bool QtMobility::QContactChangeSet::dataChanged(void)
	?dataChanged@QContactManager@QtMobility@@IAEXXZ @ 349 NONAME ; void QtMobility::QContactManager::dataChanged(void)
	?dataChanged@QContactManagerEngine@QtMobility@@IAEXXZ @ 350 NONAME ; void QtMobility::QContactManagerEngine::dataChanged(void)
	?dataType@QContactDetailFieldDefinition@QtMobility@@QBE?AW4Type@QVariant@@XZ @ 351 NONAME ; enum QVariant::Type QtMobility::QContactDetailFieldDefinition::dataType(void) const
	?date@QContactBirthday@QtMobility@@QBE?AVQDate@@XZ @ 352 NONAME ; class QDate QtMobility::QContactBirthday::date(void) const
	?definitionName@QContactDetail@QtMobility@@QBE?AVQString@@XZ @ 353 NONAME ; class QString QtMobility::QContactDetail::definitionName(void) const
	?definitionNames@QContactDetailDefinitionFetchRequest@QtMobility@@QBE?AVQStringList@@XZ @ 354 NONAME ; class QStringList QtMobility::QContactDetailDefinitionFetchRequest::definitionNames(void) const
	?definitionNames@QContactDetailDefinitionRemoveRequest@QtMobility@@QBE?AVQStringList@@XZ @ 355 NONAME ; class QStringList QtMobility::QContactDetailDefinitionRemoveRequest::definitionNames(void) const
	?definitions@QContactDetailDefinitionFetchRequest@QtMobility@@QBE?AV?$QMap@VQString@@VQContactDetailDefinition@QtMobility@@@@XZ @ 356 NONAME ; class QMap<class QString, class QtMobility::QContactDetailDefinition> QtMobility::QContactDetailDefinitionFetchRequest::definitions(void) const
	?definitions@QContactDetailDefinitionSaveRequest@QtMobility@@QBE?AV?$QList@VQContactDetailDefinition@QtMobility@@@@XZ @ 357 NONAME ; class QList<class QtMobility::QContactDetailDefinition> QtMobility::QContactDetailDefinitionSaveRequest::definitions(void) const
	?department@QContactOrganization@QtMobility@@QBE?AVQStringList@@XZ @ 358 NONAME ; class QStringList QtMobility::QContactOrganization::department(void) const
	?detail@QContact@QtMobility@@QBE?AVQContactDetail@2@ABVQString@@@Z @ 359 NONAME ; class QtMobility::QContactDetail QtMobility::QContact::detail(class QString const &) const
	?detail@QContact@QtMobility@@QBE?AVQContactDetail@2@PBD@Z @ 360 NONAME ; class QtMobility::QContactDetail QtMobility::QContact::detail(char const *) const
	?detailDefinition@QContactManager@QtMobility@@QBE?AVQContactDetailDefinition@2@ABVQString@@0@Z @ 361 NONAME ; class QtMobility::QContactDetailDefinition QtMobility::QContactManager::detailDefinition(class QString const &, class QString const &) const
	?detailDefinition@QContactManagerEngine@QtMobility@@UBE?AVQContactDetailDefinition@2@ABVQString@@0PAW4Error@QContactManager@2@@Z @ 362 NONAME ; class QtMobility::QContactDetailDefinition QtMobility::QContactManagerEngine::detailDefinition(class QString const &, class QString const &, enum QtMobility::QContactManager::Error *) const
	?detailDefinitionName@QContactDetailFilter@QtMobility@@QBE?AVQString@@XZ @ 363 NONAME ; class QString QtMobility::QContactDetailFilter::detailDefinitionName(void) const
	?detailDefinitionName@QContactDetailRangeFilter@QtMobility@@QBE?AVQString@@XZ @ 364 NONAME ; class QString QtMobility::QContactDetailRangeFilter::detailDefinitionName(void) const
	?detailDefinitionName@QContactSortOrder@QtMobility@@QBE?AVQString@@XZ @ 365 NONAME ; class QString QtMobility::QContactSortOrder::detailDefinitionName(void) const
	?detailDefinitions@QContactManager@QtMobility@@QBE?AV?$QMap@VQString@@VQContactDetailDefinition@QtMobility@@@@ABVQString@@@Z @ 366 NONAME ; class QMap<class QString, class QtMobility::QContactDetailDefinition> QtMobility::QContactManager::detailDefinitions(class QString const &) const
	?detailDefinitions@QContactManagerEngine@QtMobility@@UBE?AV?$QMap@VQString@@VQContactDetailDefinition@QtMobility@@@@ABVQString@@PAW4Error@QContactManager@2@@Z @ 367 NONAME ; class QMap<class QString, class QtMobility::QContactDetailDefinition> QtMobility::QContactManagerEngine::detailDefinitions(class QString const &, enum QtMobility::QContactManager::Error *) const
	?detailDefinitionsHint@QContactFetchHint@QtMobility@@QBE?AVQStringList@@XZ @ 368 NONAME ; class QStringList QtMobility::QContactFetchHint::detailDefinitionsHint(void) const
	?detailFieldName@QContactDetailFilter@QtMobility@@QBE?AVQString@@XZ @ 369 NONAME ; class QString QtMobility::QContactDetailFilter::detailFieldName(void) const
	?detailFieldName@QContactDetailRangeFilter@QtMobility@@QBE?AVQString@@XZ @ 370 NONAME ; class QString QtMobility::QContactDetailRangeFilter::detailFieldName(void) const
	?detailFieldName@QContactSortOrder@QtMobility@@QBE?AVQString@@XZ @ 371 NONAME ; class QString QtMobility::QContactSortOrder::detailFieldName(void) const
	?detailUri@QContactDetail@QtMobility@@QBE?AVQString@@XZ @ 372 NONAME ; class QString QtMobility::QContactDetail::detailUri(void) const
	?detailWithAction@QContact@QtMobility@@QBE?AVQContactDetail@2@ABVQString@@@Z @ 373 NONAME ; class QtMobility::QContactDetail QtMobility::QContact::detailWithAction(class QString const &) const
	?details@QContact@QtMobility@@QBE?AV?$QList@VQContactDetail@QtMobility@@@@ABVQString@@00@Z @ 374 NONAME ; class QList<class QtMobility::QContactDetail> QtMobility::QContact::details(class QString const &, class QString const &, class QString const &) const
	?details@QContact@QtMobility@@QBE?AV?$QList@VQContactDetail@QtMobility@@@@ABVQString@@@Z @ 375 NONAME ; class QList<class QtMobility::QContactDetail> QtMobility::QContact::details(class QString const &) const
	?details@QContact@QtMobility@@QBE?AV?$QList@VQContactDetail@QtMobility@@@@PBD0ABVQString@@@Z @ 376 NONAME ; class QList<class QtMobility::QContactDetail> QtMobility::QContact::details(char const *, char const *, class QString const &) const
	?details@QContact@QtMobility@@QBE?AV?$QList@VQContactDetail@QtMobility@@@@PBD@Z @ 377 NONAME ; class QList<class QtMobility::QContactDetail> QtMobility::QContact::details(char const *) const
	?detailsWithAction@QContact@QtMobility@@QBE?AV?$QList@VQContactDetail@QtMobility@@@@ABVQString@@@Z @ 378 NONAME ; class QList<class QtMobility::QContactDetail> QtMobility::QContact::detailsWithAction(class QString const &) const
	?direction@QContactSortOrder@QtMobility@@QBE?AW4SortOrder@Qt@@XZ @ 379 NONAME ; enum Qt::SortOrder QtMobility::QContactSortOrder::direction(void) const
	?displayLabel@QContact@QtMobility@@QBE?AVQString@@XZ @ 380 NONAME ; class QString QtMobility::QContact::displayLabel(void) const
	?emailAddress@QContactEmailAddress@QtMobility@@QBE?AVQString@@XZ @ 381 NONAME ; class QString QtMobility::QContactEmailAddress::emailAddress(void) const
	?emitSignals@QContactChangeSet@QtMobility@@QAEXPAVQContactManagerEngine@2@@Z @ 382 NONAME ; void QtMobility::QContactChangeSet::emitSignals(class QtMobility::QContactManagerEngine *)
	?error@QContactAbstractRequest@QtMobility@@QBE?AW4Error@QContactManager@2@XZ @ 383 NONAME ; enum QtMobility::QContactManager::Error QtMobility::QContactAbstractRequest::error(void) const
	?error@QContactManager@QtMobility@@QBE?AW4Error@12@XZ @ 384 NONAME ; enum QtMobility::QContactManager::Error QtMobility::QContactManager::error(void) const
	?errorMap@QContactDetailDefinitionFetchRequest@QtMobility@@QBE?AV?$QMap@HW4Error@QContactManager@QtMobility@@@@XZ @ 385 NONAME ; class QMap<int, enum QtMobility::QContactManager::Error> QtMobility::QContactDetailDefinitionFetchRequest::errorMap(void) const
	?errorMap@QContactDetailDefinitionRemoveRequest@QtMobility@@QBE?AV?$QMap@HW4Error@QContactManager@QtMobility@@@@XZ @ 386 NONAME ; class QMap<int, enum QtMobility::QContactManager::Error> QtMobility::QContactDetailDefinitionRemoveRequest::errorMap(void) const
	?errorMap@QContactDetailDefinitionSaveRequest@QtMobility@@QBE?AV?$QMap@HW4Error@QContactManager@QtMobility@@@@XZ @ 387 NONAME ; class QMap<int, enum QtMobility::QContactManager::Error> QtMobility::QContactDetailDefinitionSaveRequest::errorMap(void) const
	?errorMap@QContactRelationshipRemoveRequest@QtMobility@@QBE?AV?$QMap@HW4Error@QContactManager@QtMobility@@@@XZ @ 388 NONAME ; class QMap<int, enum QtMobility::QContactManager::Error> QtMobility::QContactRelationshipRemoveRequest::errorMap(void) const
	?errorMap@QContactRelationshipSaveRequest@QtMobility@@QBE?AV?$QMap@HW4Error@QContactManager@QtMobility@@@@XZ @ 389 NONAME ; class QMap<int, enum QtMobility::QContactManager::Error> QtMobility::QContactRelationshipSaveRequest::errorMap(void) const
	?errorMap@QContactRemoveRequest@QtMobility@@QBE?AV?$QMap@HW4Error@QContactManager@QtMobility@@@@XZ @ 390 NONAME ; class QMap<int, enum QtMobility::QContactManager::Error> QtMobility::QContactRemoveRequest::errorMap(void) const
	?errorMap@QContactSaveRequest@QtMobility@@QBE?AV?$QMap@HW4Error@QContactManager@QtMobility@@@@XZ @ 391 NONAME ; class QMap<int, enum QtMobility::QContactManager::Error> QtMobility::QContactSaveRequest::errorMap(void) const
	?event@QContactAnniversary@QtMobility@@QBE?AVQString@@XZ @ 392 NONAME ; class QString QtMobility::QContactAnniversary::event(void) const
	?eventType@QContactChangeLogFilter@QtMobility@@QBE?AW4EventType@12@XZ @ 393 NONAME ; enum QtMobility::QContactChangeLogFilter::EventType QtMobility::QContactChangeLogFilter::eventType(void) const
	?fetchHint@QContactFetchRequest@QtMobility@@QBE?AVQContactFetchHint@2@XZ @ 394 NONAME ; class QtMobility::QContactFetchHint QtMobility::QContactFetchRequest::fetchHint(void) const
	?fields@QContactDetailDefinition@QtMobility@@QBE?AV?$QMap@VQString@@VQContactDetailFieldDefinition@QtMobility@@@@XZ @ 395 NONAME ; class QMap<class QString, class QtMobility::QContactDetailFieldDefinition> QtMobility::QContactDetailDefinition::fields(void) const
	?filter@QContactFetchRequest@QtMobility@@QBE?AVQContactFilter@2@XZ @ 396 NONAME ; class QtMobility::QContactFilter QtMobility::QContactFetchRequest::filter(void) const
	?filter@QContactLocalIdFetchRequest@QtMobility@@QBE?AVQContactFilter@2@XZ @ 397 NONAME ; class QtMobility::QContactFilter QtMobility::QContactLocalIdFetchRequest::filter(void) const
	?filters@QContactIntersectionFilter@QtMobility@@QBE?AV?$QList@VQContactFilter@QtMobility@@@@XZ @ 398 NONAME ; class QList<class QtMobility::QContactFilter> QtMobility::QContactIntersectionFilter::filters(void) const
	?filters@QContactUnionFilter@QtMobility@@QBE?AV?$QList@VQContactFilter@QtMobility@@@@XZ @ 399 NONAME ; class QList<class QtMobility::QContactFilter> QtMobility::QContactUnionFilter::filters(void) const
	?first@QContactRelationship@QtMobility@@QBE?AVQContactId@2@XZ @ 400 NONAME ; class QtMobility::QContactId QtMobility::QContactRelationship::first(void) const
	?first@QContactRelationshipFetchRequest@QtMobility@@QBE?AVQContactId@2@XZ @ 401 NONAME ; class QtMobility::QContactId QtMobility::QContactRelationshipFetchRequest::first(void) const
	?firstName@QContactName@QtMobility@@QBE?AVQString@@XZ @ 402 NONAME ; class QString QtMobility::QContactName::firstName(void) const
	?fromUri@QContactManager@QtMobility@@SAPAV12@ABVQString@@PAVQObject@@@Z @ 403 NONAME ; class QtMobility::QContactManager * QtMobility::QContactManager::fromUri(class QString const &, class QObject *)
	?gender@QContactGender@QtMobility@@QBE?AVQString@@XZ @ 404 NONAME ; class QString QtMobility::QContactGender::gender(void) const
	?getStaticMetaObject@QContactAbstractRequest@QtMobility@@SAABUQMetaObject@@XZ @ 405 NONAME ; struct QMetaObject const & QtMobility::QContactAbstractRequest::getStaticMetaObject(void)
	?getStaticMetaObject@QContactAction@QtMobility@@SAABUQMetaObject@@XZ @ 406 NONAME ; struct QMetaObject const & QtMobility::QContactAction::getStaticMetaObject(void)
	?getStaticMetaObject@QContactActionFactory@QtMobility@@SAABUQMetaObject@@XZ @ 407 NONAME ; struct QMetaObject const & QtMobility::QContactActionFactory::getStaticMetaObject(void)
	?getStaticMetaObject@QContactDetailDefinitionFetchRequest@QtMobility@@SAABUQMetaObject@@XZ @ 408 NONAME ; struct QMetaObject const & QtMobility::QContactDetailDefinitionFetchRequest::getStaticMetaObject(void)
	?getStaticMetaObject@QContactDetailDefinitionRemoveRequest@QtMobility@@SAABUQMetaObject@@XZ @ 409 NONAME ; struct QMetaObject const & QtMobility::QContactDetailDefinitionRemoveRequest::getStaticMetaObject(void)
	?getStaticMetaObject@QContactDetailDefinitionSaveRequest@QtMobility@@SAABUQMetaObject@@XZ @ 410 NONAME ; struct QMetaObject const & QtMobility::QContactDetailDefinitionSaveRequest::getStaticMetaObject(void)
	?getStaticMetaObject@QContactFetchRequest@QtMobility@@SAABUQMetaObject@@XZ @ 411 NONAME ; struct QMetaObject const & QtMobility::QContactFetchRequest::getStaticMetaObject(void)
	?getStaticMetaObject@QContactLocalIdFetchRequest@QtMobility@@SAABUQMetaObject@@XZ @ 412 NONAME ; struct QMetaObject const & QtMobility::QContactLocalIdFetchRequest::getStaticMetaObject(void)
	?getStaticMetaObject@QContactManager@QtMobility@@SAABUQMetaObject@@XZ @ 413 NONAME ; struct QMetaObject const & QtMobility::QContactManager::getStaticMetaObject(void)
	?getStaticMetaObject@QContactManagerEngine@QtMobility@@SAABUQMetaObject@@XZ @ 414 NONAME ; struct QMetaObject const & QtMobility::QContactManagerEngine::getStaticMetaObject(void)
	?getStaticMetaObject@QContactRelationshipFetchRequest@QtMobility@@SAABUQMetaObject@@XZ @ 415 NONAME ; struct QMetaObject const & QtMobility::QContactRelationshipFetchRequest::getStaticMetaObject(void)
	?getStaticMetaObject@QContactRelationshipRemoveRequest@QtMobility@@SAABUQMetaObject@@XZ @ 416 NONAME ; struct QMetaObject const & QtMobility::QContactRelationshipRemoveRequest::getStaticMetaObject(void)
	?getStaticMetaObject@QContactRelationshipSaveRequest@QtMobility@@SAABUQMetaObject@@XZ @ 417 NONAME ; struct QMetaObject const & QtMobility::QContactRelationshipSaveRequest::getStaticMetaObject(void)
	?getStaticMetaObject@QContactRemoveRequest@QtMobility@@SAABUQMetaObject@@XZ @ 418 NONAME ; struct QMetaObject const & QtMobility::QContactRemoveRequest::getStaticMetaObject(void)
	?getStaticMetaObject@QContactSaveRequest@QtMobility@@SAABUQMetaObject@@XZ @ 419 NONAME ; struct QMetaObject const & QtMobility::QContactSaveRequest::getStaticMetaObject(void)
	?guid@QContactGuid@QtMobility@@QBE?AVQString@@XZ @ 420 NONAME ; class QString QtMobility::QContactGuid::guid(void) const
	?hasFeature@QContactManager@QtMobility@@QBE_NW4ManagerFeature@12@ABVQString@@@Z @ 421 NONAME ; bool QtMobility::QContactManager::hasFeature(enum QtMobility::QContactManager::ManagerFeature, class QString const &) const
	?hasFeature@QContactManagerEngine@QtMobility@@UBE_NW4ManagerFeature@QContactManager@2@ABVQString@@@Z @ 422 NONAME ; bool QtMobility::QContactManagerEngine::hasFeature(enum QtMobility::QContactManager::ManagerFeature, class QString const &) const
	?hasValue@QContactDetail@QtMobility@@QBE_NABVQString@@@Z @ 423 NONAME ; bool QtMobility::QContactDetail::hasValue(class QString const &) const
	?hasValue@QContactDetail@QtMobility@@QBE_NPBD@Z @ 424 NONAME ; bool QtMobility::QContactDetail::hasValue(char const *) const
	?heading@QContactGeoLocation@QtMobility@@QBENXZ @ 425 NONAME ; double QtMobility::QContactGeoLocation::heading(void) const
	?id@QContact@QtMobility@@QBE?AVQContactId@2@XZ @ 426 NONAME ; class QtMobility::QContactId QtMobility::QContact::id(void) const
	?ids@QContactLocalIdFetchRequest@QtMobility@@QBE?AV?$QList@I@@XZ @ 427 NONAME ; class QList<unsigned int> QtMobility::QContactLocalIdFetchRequest::ids(void) const
	?ids@QContactLocalIdFilter@QtMobility@@QBE?AV?$QList@I@@XZ @ 428 NONAME ; class QList<unsigned int> QtMobility::QContactLocalIdFilter::ids(void) const
	?imageUrl@QContactAvatar@QtMobility@@QBE?AVQUrl@@XZ @ 429 NONAME ; class QUrl QtMobility::QContactAvatar::imageUrl(void) const
	?implementationVersion@QContactActionDescriptor@QtMobility@@QBEHXZ @ 430 NONAME ; int QtMobility::QContactActionDescriptor::implementationVersion(void) const
	?implementationVersion@QContactActionFilter@QtMobility@@QBEHXZ @ 431 NONAME ; int QtMobility::QContactActionFilter::implementationVersion(void) const
	?insertAddedContact@QContactChangeSet@QtMobility@@QAEXI@Z @ 432 NONAME ; void QtMobility::QContactChangeSet::insertAddedContact(unsigned int)
	?insertAddedContacts@QContactChangeSet@QtMobility@@QAEXABV?$QList@I@@@Z @ 433 NONAME ; void QtMobility::QContactChangeSet::insertAddedContacts(class QList<unsigned int> const &)
	?insertAddedRelationshipsContact@QContactChangeSet@QtMobility@@QAEXI@Z @ 434 NONAME ; void QtMobility::QContactChangeSet::insertAddedRelationshipsContact(unsigned int)
	?insertAddedRelationshipsContacts@QContactChangeSet@QtMobility@@QAEXABV?$QList@I@@@Z @ 435 NONAME ; void QtMobility::QContactChangeSet::insertAddedRelationshipsContacts(class QList<unsigned int> const &)
	?insertChangedContact@QContactChangeSet@QtMobility@@QAEXI@Z @ 436 NONAME ; void QtMobility::QContactChangeSet::insertChangedContact(unsigned int)
	?insertChangedContacts@QContactChangeSet@QtMobility@@QAEXABV?$QList@I@@@Z @ 437 NONAME ; void QtMobility::QContactChangeSet::insertChangedContacts(class QList<unsigned int> const &)
	?insertField@QContactDetailDefinition@QtMobility@@QAEXABVQString@@ABVQContactDetailFieldDefinition@2@@Z @ 438 NONAME ; void QtMobility::QContactDetailDefinition::insertField(class QString const &, class QtMobility::QContactDetailFieldDefinition const &)
	?insertRemovedContact@QContactChangeSet@QtMobility@@QAEXI@Z @ 439 NONAME ; void QtMobility::QContactChangeSet::insertRemovedContact(unsigned int)
	?insertRemovedContacts@QContactChangeSet@QtMobility@@QAEXABV?$QList@I@@@Z @ 440 NONAME ; void QtMobility::QContactChangeSet::insertRemovedContacts(class QList<unsigned int> const &)
	?insertRemovedRelationshipsContact@QContactChangeSet@QtMobility@@QAEXI@Z @ 441 NONAME ; void QtMobility::QContactChangeSet::insertRemovedRelationshipsContact(unsigned int)
	?insertRemovedRelationshipsContacts@QContactChangeSet@QtMobility@@QAEXABV?$QList@I@@@Z @ 442 NONAME ; void QtMobility::QContactChangeSet::insertRemovedRelationshipsContacts(class QList<unsigned int> const &)
	?isActive@QContactAbstractRequest@QtMobility@@QBE_NXZ @ 443 NONAME ; bool QtMobility::QContactAbstractRequest::isActive(void) const
	?isCanceled@QContactAbstractRequest@QtMobility@@QBE_NXZ @ 444 NONAME ; bool QtMobility::QContactAbstractRequest::isCanceled(void) const
	?isEmpty@QContact@QtMobility@@QBE_NXZ @ 445 NONAME ; bool QtMobility::QContact::isEmpty(void) const
	?isEmpty@QContactActionDescriptor@QtMobility@@QBE_NXZ @ 446 NONAME ; bool QtMobility::QContactActionDescriptor::isEmpty(void) const
	?isEmpty@QContactDetail@QtMobility@@QBE_NXZ @ 447 NONAME ; bool QtMobility::QContactDetail::isEmpty(void) const
	?isEmpty@QContactDetailDefinition@QtMobility@@QBE_NXZ @ 448 NONAME ; bool QtMobility::QContactDetailDefinition::isEmpty(void) const
	?isFilterSupported@QContactManager@QtMobility@@QBE_NABVQContactFilter@2@@Z @ 449 NONAME ; bool QtMobility::QContactManager::isFilterSupported(class QtMobility::QContactFilter const &) const
	?isFilterSupported@QContactManagerEngine@QtMobility@@UBE_NABVQContactFilter@2@@Z @ 450 NONAME ; bool QtMobility::QContactManagerEngine::isFilterSupported(class QtMobility::QContactFilter const &) const
	?isFinished@QContactAbstractRequest@QtMobility@@QBE_NXZ @ 451 NONAME ; bool QtMobility::QContactAbstractRequest::isFinished(void) const
	?isInactive@QContactAbstractRequest@QtMobility@@QBE_NXZ @ 452 NONAME ; bool QtMobility::QContactAbstractRequest::isInactive(void) const
	?isPreferredDetail@QContact@QtMobility@@QBE_NABVQString@@ABVQContactDetail@2@@Z @ 453 NONAME ; bool QtMobility::QContact::isPreferredDetail(class QString const &, class QtMobility::QContactDetail const &) const
	?isRelationshipTypeSupported@QContactManager@QtMobility@@QBE_NABVQString@@0@Z @ 454 NONAME ; bool QtMobility::QContactManager::isRelationshipTypeSupported(class QString const &, class QString const &) const
	?isRelationshipTypeSupported@QContactManagerEngine@QtMobility@@UBE_NABVQString@@0@Z @ 455 NONAME ; bool QtMobility::QContactManagerEngine::isRelationshipTypeSupported(class QString const &, class QString const &) const
	?isUnique@QContactDetailDefinition@QtMobility@@QBE_NXZ @ 456 NONAME ; bool QtMobility::QContactDetailDefinition::isUnique(void) const
	?isValid@QContactSortOrder@QtMobility@@QBE_NXZ @ 457 NONAME ; bool QtMobility::QContactSortOrder::isValid(void) const
	?key@QContactDetail@QtMobility@@QBEHXZ @ 458 NONAME ; int QtMobility::QContactDetail::key(void) const
	?label@QContactDisplayLabel@QtMobility@@QBE?AVQString@@XZ @ 459 NONAME ; class QString QtMobility::QContactDisplayLabel::label(void) const
	?label@QContactGeoLocation@QtMobility@@QBE?AVQString@@XZ @ 460 NONAME ; class QString QtMobility::QContactGeoLocation::label(void) const
	?lastModified@QContactTimestamp@QtMobility@@QBE?AVQDateTime@@XZ @ 461 NONAME ; class QDateTime QtMobility::QContactTimestamp::lastModified(void) const
	?lastName@QContactName@QtMobility@@QBE?AVQString@@XZ @ 462 NONAME ; class QString QtMobility::QContactName::lastName(void) const
	?latitude@QContactGeoLocation@QtMobility@@QBENXZ @ 463 NONAME ; double QtMobility::QContactGeoLocation::latitude(void) const
	?linkedDetailUris@QContactDetail@QtMobility@@QBE?AVQStringList@@XZ @ 464 NONAME ; class QStringList QtMobility::QContactDetail::linkedDetailUris(void) const
	?localId@QContact@QtMobility@@QBEIXZ @ 465 NONAME ; unsigned int QtMobility::QContact::localId(void) const
	?localId@QContactId@QtMobility@@QBEIXZ @ 466 NONAME ; unsigned int QtMobility::QContactId::localId(void) const
	?locality@QContactAddress@QtMobility@@QBE?AVQString@@XZ @ 467 NONAME ; class QString QtMobility::QContactAddress::locality(void) const
	?location@QContactOrganization@QtMobility@@QBE?AVQString@@XZ @ 468 NONAME ; class QString QtMobility::QContactOrganization::location(void) const
	?logoUrl@QContactOrganization@QtMobility@@QBE?AVQUrl@@XZ @ 469 NONAME ; class QUrl QtMobility::QContactOrganization::logoUrl(void) const
	?longitude@QContactGeoLocation@QtMobility@@QBENXZ @ 470 NONAME ; double QtMobility::QContactGeoLocation::longitude(void) const
	?manager@QContactAbstractRequest@QtMobility@@QBEPAVQContactManager@2@XZ @ 471 NONAME ; class QtMobility::QContactManager * QtMobility::QContactAbstractRequest::manager(void) const
	?managerName@QContactManager@QtMobility@@QBE?AVQString@@XZ @ 472 NONAME ; class QString QtMobility::QContactManager::managerName(void) const
	?managerName@QContactManagerEngine@QtMobility@@UBE?AVQString@@XZ @ 473 NONAME ; class QString QtMobility::QContactManagerEngine::managerName(void) const
	?managerParameters@QContactManager@QtMobility@@QBE?AV?$QMap@VQString@@V1@@@XZ @ 474 NONAME ; class QMap<class QString, class QString> QtMobility::QContactManager::managerParameters(void) const
	?managerParameters@QContactManagerEngine@QtMobility@@UBE?AV?$QMap@VQString@@V1@@@XZ @ 475 NONAME ; class QMap<class QString, class QString> QtMobility::QContactManagerEngine::managerParameters(void) const
	?managerUri@QContactId@QtMobility@@QBE?AVQString@@XZ @ 476 NONAME ; class QString QtMobility::QContactId::managerUri(void) const
	?managerUri@QContactManager@QtMobility@@QBE?AVQString@@XZ @ 477 NONAME ; class QString QtMobility::QContactManager::managerUri(void) const
	?managerUri@QContactManagerEngine@QtMobility@@QBE?AVQString@@XZ @ 478 NONAME ; class QString QtMobility::QContactManagerEngine::managerUri(void) const
	?managerVersion@QContactManager@QtMobility@@QBEHXZ @ 479 NONAME ; int QtMobility::QContactManager::managerVersion(void) const
	?match@QContactDisplayLabel@QtMobility@@SA?AVQContactFilter@2@ABVQString@@@Z @ 480 NONAME ; class QtMobility::QContactFilter QtMobility::QContactDisplayLabel::match(class QString const &)
	?match@QContactEmailAddress@QtMobility@@SA?AVQContactFilter@2@ABVQString@@@Z @ 481 NONAME ; class QtMobility::QContactFilter QtMobility::QContactEmailAddress::match(class QString const &)
	?match@QContactName@QtMobility@@SA?AVQContactFilter@2@ABVQString@@0@Z @ 482 NONAME ; class QtMobility::QContactFilter QtMobility::QContactName::match(class QString const &, class QString const &)
	?match@QContactName@QtMobility@@SA?AVQContactFilter@2@ABVQString@@@Z @ 483 NONAME ; class QtMobility::QContactFilter QtMobility::QContactName::match(class QString const &)
	?match@QContactPhoneNumber@QtMobility@@SA?AVQContactFilter@2@ABVQString@@@Z @ 484 NONAME ; class QtMobility::QContactFilter QtMobility::QContactPhoneNumber::match(class QString const &)
	?matchFlags@QContactDetailFilter@QtMobility@@QBE?AV?$QFlags@W4MatchFlag@QContactFilter@QtMobility@@@@XZ @ 485 NONAME ; class QFlags<enum QtMobility::QContactFilter::MatchFlag> QtMobility::QContactDetailFilter::matchFlags(void) const
	?matchFlags@QContactDetailRangeFilter@QtMobility@@QBE?AV?$QFlags@W4MatchFlag@QContactFilter@QtMobility@@@@XZ @ 486 NONAME ; class QFlags<enum QtMobility::QContactFilter::MatchFlag> QtMobility::QContactDetailRangeFilter::matchFlags(void) const
	?maxValue@QContactDetailRangeFilter@QtMobility@@QBE?AVQVariant@@XZ @ 487 NONAME ; class QVariant QtMobility::QContactDetailRangeFilter::maxValue(void) const
	?metaObject@QContactAbstractRequest@QtMobility@@UBEPBUQMetaObject@@XZ @ 488 NONAME ; struct QMetaObject const * QtMobility::QContactAbstractRequest::metaObject(void) const
	?metaObject@QContactAction@QtMobility@@UBEPBUQMetaObject@@XZ @ 489 NONAME ; struct QMetaObject const * QtMobility::QContactAction::metaObject(void) const
	?metaObject@QContactActionFactory@QtMobility@@UBEPBUQMetaObject@@XZ @ 490 NONAME ; struct QMetaObject const * QtMobility::QContactActionFactory::metaObject(void) const
	?metaObject@QContactDetailDefinitionFetchRequest@QtMobility@@UBEPBUQMetaObject@@XZ @ 491 NONAME ; struct QMetaObject const * QtMobility::QContactDetailDefinitionFetchRequest::metaObject(void) const
	?metaObject@QContactDetailDefinitionRemoveRequest@QtMobility@@UBEPBUQMetaObject@@XZ @ 492 NONAME ; struct QMetaObject const * QtMobility::QContactDetailDefinitionRemoveRequest::metaObject(void) const
	?metaObject@QContactDetailDefinitionSaveRequest@QtMobility@@UBEPBUQMetaObject@@XZ @ 493 NONAME ; struct QMetaObject const * QtMobility::QContactDetailDefinitionSaveRequest::metaObject(void) const
	?metaObject@QContactFetchRequest@QtMobility@@UBEPBUQMetaObject@@XZ @ 494 NONAME ; struct QMetaObject const * QtMobility::QContactFetchRequest::metaObject(void) const
	?metaObject@QContactLocalIdFetchRequest@QtMobility@@UBEPBUQMetaObject@@XZ @ 495 NONAME ; struct QMetaObject const * QtMobility::QContactLocalIdFetchRequest::metaObject(void) const
	?metaObject@QContactManager@QtMobility@@UBEPBUQMetaObject@@XZ @ 496 NONAME ; struct QMetaObject const * QtMobility::QContactManager::metaObject(void) const
	?metaObject@QContactManagerEngine@QtMobility@@UBEPBUQMetaObject@@XZ @ 497 NONAME ; struct QMetaObject const * QtMobility::QContactManagerEngine::metaObject(void) const
	?metaObject@QContactRelationshipFetchRequest@QtMobility@@UBEPBUQMetaObject@@XZ @ 498 NONAME ; struct QMetaObject const * QtMobility::QContactRelationshipFetchRequest::metaObject(void) const
	?metaObject@QContactRelationshipRemoveRequest@QtMobility@@UBEPBUQMetaObject@@XZ @ 499 NONAME ; struct QMetaObject const * QtMobility::QContactRelationshipRemoveRequest::metaObject(void) const
	?metaObject@QContactRelationshipSaveRequest@QtMobility@@UBEPBUQMetaObject@@XZ @ 500 NONAME ; struct QMetaObject const * QtMobility::QContactRelationshipSaveRequest::metaObject(void) const
	?metaObject@QContactRemoveRequest@QtMobility@@UBEPBUQMetaObject@@XZ @ 501 NONAME ; struct QMetaObject const * QtMobility::QContactRemoveRequest::metaObject(void) const
	?metaObject@QContactSaveRequest@QtMobility@@UBEPBUQMetaObject@@XZ @ 502 NONAME ; struct QMetaObject const * QtMobility::QContactSaveRequest::metaObject(void) const
	?middleName@QContactName@QtMobility@@QBE?AVQString@@XZ @ 503 NONAME ; class QString QtMobility::QContactName::middleName(void) const
	?minValue@QContactDetailRangeFilter@QtMobility@@QBE?AVQVariant@@XZ @ 504 NONAME ; class QVariant QtMobility::QContactDetailRangeFilter::minValue(void) const
	?name@QContactDetailDefinition@QtMobility@@QBE?AVQString@@XZ @ 505 NONAME ; class QString QtMobility::QContactDetailDefinition::name(void) const
	?name@QContactOrganization@QtMobility@@QBE?AVQString@@XZ @ 506 NONAME ; class QString QtMobility::QContactOrganization::name(void) const
	?nickname@QContactGlobalPresence@QtMobility@@QBE?AVQString@@XZ @ 507 NONAME ; class QString QtMobility::QContactGlobalPresence::nickname(void) const
	?nickname@QContactNickname@QtMobility@@QBE?AVQString@@XZ @ 508 NONAME ; class QString QtMobility::QContactNickname::nickname(void) const
	?nickname@QContactPresence@QtMobility@@QBE?AVQString@@XZ @ 509 NONAME ; class QString QtMobility::QContactPresence::nickname(void) const
	?note@QContactNote@QtMobility@@QBE?AVQString@@XZ @ 510 NONAME ; class QString QtMobility::QContactNote::note(void) const
	?number@QContactPhoneNumber@QtMobility@@QBE?AVQString@@XZ @ 511 NONAME ; class QString QtMobility::QContactPhoneNumber::number(void) const
	?oldAndNewSelfContactId@QContactChangeSet@QtMobility@@QBE?AU?$QPair@II@@XZ @ 512 NONAME ; struct QPair<unsigned int, unsigned int> QtMobility::QContactChangeSet::oldAndNewSelfContactId(void) const
	?optimizationHints@QContactFetchHint@QtMobility@@QBE?AV?$QFlags@W4OptimizationHint@QContactFetchHint@QtMobility@@@@XZ @ 513 NONAME ; class QFlags<enum QtMobility::QContactFetchHint::OptimizationHint> QtMobility::QContactFetchHint::optimizationHints(void) const
	?originalDate@QContactAnniversary@QtMobility@@QBE?AVQDate@@XZ @ 514 NONAME ; class QDate QtMobility::QContactAnniversary::originalDate(void) const
	?parseUri@QContactManager@QtMobility@@SA_NABVQString@@PAV3@PAV?$QMap@VQString@@V1@@@@Z @ 515 NONAME ; bool QtMobility::QContactManager::parseUri(class QString const &, class QString *, class QMap<class QString, class QString> *)
	?postOfficeBox@QContactAddress@QtMobility@@QBE?AVQString@@XZ @ 516 NONAME ; class QString QtMobility::QContactAddress::postOfficeBox(void) const
	?postcode@QContactAddress@QtMobility@@QBE?AVQString@@XZ @ 517 NONAME ; class QString QtMobility::QContactAddress::postcode(void) const
	?preferredDetail@QContact@QtMobility@@QBE?AVQContactDetail@2@ABVQString@@@Z @ 518 NONAME ; class QtMobility::QContactDetail QtMobility::QContact::preferredDetail(class QString const &) const
	?preferredDetails@QContact@QtMobility@@QBE?AV?$QMap@VQString@@VQContactDetail@QtMobility@@@@XZ @ 519 NONAME ; class QMap<class QString, class QtMobility::QContactDetail> QtMobility::QContact::preferredDetails(void) const
	?prefix@QContactName@QtMobility@@QBE?AVQString@@XZ @ 520 NONAME ; class QString QtMobility::QContactName::prefix(void) const
	?prepend@QContactIntersectionFilter@QtMobility@@QAEXABVQContactFilter@2@@Z @ 521 NONAME ; void QtMobility::QContactIntersectionFilter::prepend(class QtMobility::QContactFilter const &)
	?prepend@QContactUnionFilter@QtMobility@@QAEXABVQContactFilter@2@@Z @ 522 NONAME ; void QtMobility::QContactUnionFilter::prepend(class QtMobility::QContactFilter const &)
	?presenceState@QContactGlobalPresence@QtMobility@@QBE?AW4PresenceState@QContactPresence@2@XZ @ 523 NONAME ; enum QtMobility::QContactPresence::PresenceState QtMobility::QContactGlobalPresence::presenceState(void) const
	?presenceState@QContactPresence@QtMobility@@QBE?AW4PresenceState@12@XZ @ 524 NONAME ; enum QtMobility::QContactPresence::PresenceState QtMobility::QContactPresence::presenceState(void) const
	?presenceStateImageUrl@QContactGlobalPresence@QtMobility@@QBE?AVQUrl@@XZ @ 525 NONAME ; class QUrl QtMobility::QContactGlobalPresence::presenceStateImageUrl(void) const
	?presenceStateImageUrl@QContactPresence@QtMobility@@QBE?AVQUrl@@XZ @ 526 NONAME ; class QUrl QtMobility::QContactPresence::presenceStateImageUrl(void) const
	?presenceStateText@QContactGlobalPresence@QtMobility@@QBE?AVQString@@XZ @ 527 NONAME ; class QString QtMobility::QContactGlobalPresence::presenceStateText(void) const
	?presenceStateText@QContactPresence@QtMobility@@QBE?AVQString@@XZ @ 528 NONAME ; class QString QtMobility::QContactPresence::presenceStateText(void) const
	?qHash@QtMobility@@YAIABVQContact@1@@Z @ 529 NONAME ; unsigned int QtMobility::qHash(class QtMobility::QContact const &)
	?qHash@QtMobility@@YAIABVQContactActionDescriptor@1@@Z @ 530 NONAME ; unsigned int QtMobility::qHash(class QtMobility::QContactActionDescriptor const &)
	?qHash@QtMobility@@YAIABVQContactDetail@1@@Z @ 531 NONAME ; unsigned int QtMobility::qHash(class QtMobility::QContactDetail const &)
	?qHash@QtMobility@@YAIABVQContactId@1@@Z @ 532 NONAME ; unsigned int QtMobility::qHash(class QtMobility::QContactId const &)
	?qHash@QtMobility@@YAIABVQContactRelationship@1@@Z @ 533 NONAME ; unsigned int QtMobility::qHash(class QtMobility::QContactRelationship const &)
	?qt_metacall@QContactAbstractRequest@QtMobility@@UAEHW4Call@QMetaObject@@HPAPAX@Z @ 534 NONAME ; int QtMobility::QContactAbstractRequest::qt_metacall(enum QMetaObject::Call, int, void * *)
	?qt_metacall@QContactAction@QtMobility@@UAEHW4Call@QMetaObject@@HPAPAX@Z @ 535 NONAME ; int QtMobility::QContactAction::qt_metacall(enum QMetaObject::Call, int, void * *)
	?qt_metacall@QContactActionFactory@QtMobility@@UAEHW4Call@QMetaObject@@HPAPAX@Z @ 536 NONAME ; int QtMobility::QContactActionFactory::qt_metacall(enum QMetaObject::Call, int, void * *)
	?qt_metacall@QContactDetailDefinitionFetchRequest@QtMobility@@UAEHW4Call@QMetaObject@@HPAPAX@Z @ 537 NONAME ; int QtMobility::QContactDetailDefinitionFetchRequest::qt_metacall(enum QMetaObject::Call, int, void * *)
	?qt_metacall@QContactDetailDefinitionRemoveRequest@QtMobility@@UAEHW4Call@QMetaObject@@HPAPAX@Z @ 538 NONAME ; int QtMobility::QContactDetailDefinitionRemoveRequest::qt_metacall(enum QMetaObject::Call, int, void * *)
	?qt_metacall@QContactDetailDefinitionSaveRequest@QtMobility@@UAEHW4Call@QMetaObject@@HPAPAX@Z @ 539 NONAME ; int QtMobility::QContactDetailDefinitionSaveRequest::qt_metacall(enum QMetaObject::Call, int, void * *)
	?qt_metacall@QContactFetchRequest@QtMobility@@UAEHW4Call@QMetaObject@@HPAPAX@Z @ 540 NONAME ; int QtMobility::QContactFetchRequest::qt_metacall(enum QMetaObject::Call, int, void * *)
	?qt_metacall@QContactLocalIdFetchRequest@QtMobility@@UAEHW4Call@QMetaObject@@HPAPAX@Z @ 541 NONAME ; int QtMobility::QContactLocalIdFetchRequest::qt_metacall(enum QMetaObject::Call, int, void * *)
	?qt_metacall@QContactManager@QtMobility@@UAEHW4Call@QMetaObject@@HPAPAX@Z @ 542 NONAME ; int QtMobility::QContactManager::qt_metacall(enum QMetaObject::Call, int, void * *)
	?qt_metacall@QContactManagerEngine@QtMobility@@UAEHW4Call@QMetaObject@@HPAPAX@Z @ 543 NONAME ; int QtMobility::QContactManagerEngine::qt_metacall(enum QMetaObject::Call, int, void * *)
	?qt_metacall@QContactRelationshipFetchRequest@QtMobility@@UAEHW4Call@QMetaObject@@HPAPAX@Z @ 544 NONAME ; int QtMobility::QContactRelationshipFetchRequest::qt_metacall(enum QMetaObject::Call, int, void * *)
	?qt_metacall@QContactRelationshipRemoveRequest@QtMobility@@UAEHW4Call@QMetaObject@@HPAPAX@Z @ 545 NONAME ; int QtMobility::QContactRelationshipRemoveRequest::qt_metacall(enum QMetaObject::Call, int, void * *)
	?qt_metacall@QContactRelationshipSaveRequest@QtMobility@@UAEHW4Call@QMetaObject@@HPAPAX@Z @ 546 NONAME ; int QtMobility::QContactRelationshipSaveRequest::qt_metacall(enum QMetaObject::Call, int, void * *)
	?qt_metacall@QContactRemoveRequest@QtMobility@@UAEHW4Call@QMetaObject@@HPAPAX@Z @ 547 NONAME ; int QtMobility::QContactRemoveRequest::qt_metacall(enum QMetaObject::Call, int, void * *)
	?qt_metacall@QContactSaveRequest@QtMobility@@UAEHW4Call@QMetaObject@@HPAPAX@Z @ 548 NONAME ; int QtMobility::QContactSaveRequest::qt_metacall(enum QMetaObject::Call, int, void * *)
	?qt_metacast@QContactAbstractRequest@QtMobility@@UAEPAXPBD@Z @ 549 NONAME ; void * QtMobility::QContactAbstractRequest::qt_metacast(char const *)
	?qt_metacast@QContactAction@QtMobility@@UAEPAXPBD@Z @ 550 NONAME ; void * QtMobility::QContactAction::qt_metacast(char const *)
	?qt_metacast@QContactActionFactory@QtMobility@@UAEPAXPBD@Z @ 551 NONAME ; void * QtMobility::QContactActionFactory::qt_metacast(char const *)
	?qt_metacast@QContactDetailDefinitionFetchRequest@QtMobility@@UAEPAXPBD@Z @ 552 NONAME ; void * QtMobility::QContactDetailDefinitionFetchRequest::qt_metacast(char const *)
	?qt_metacast@QContactDetailDefinitionRemoveRequest@QtMobility@@UAEPAXPBD@Z @ 553 NONAME ; void * QtMobility::QContactDetailDefinitionRemoveRequest::qt_metacast(char const *)
	?qt_metacast@QContactDetailDefinitionSaveRequest@QtMobility@@UAEPAXPBD@Z @ 554 NONAME ; void * QtMobility::QContactDetailDefinitionSaveRequest::qt_metacast(char const *)
	?qt_metacast@QContactFetchRequest@QtMobility@@UAEPAXPBD@Z @ 555 NONAME ; void * QtMobility::QContactFetchRequest::qt_metacast(char const *)
	?qt_metacast@QContactLocalIdFetchRequest@QtMobility@@UAEPAXPBD@Z @ 556 NONAME ; void * QtMobility::QContactLocalIdFetchRequest::qt_metacast(char const *)
	?qt_metacast@QContactManager@QtMobility@@UAEPAXPBD@Z @ 557 NONAME ; void * QtMobility::QContactManager::qt_metacast(char const *)
	?qt_metacast@QContactManagerEngine@QtMobility@@UAEPAXPBD@Z @ 558 NONAME ; void * QtMobility::QContactManagerEngine::qt_metacast(char const *)
	?qt_metacast@QContactRelationshipFetchRequest@QtMobility@@UAEPAXPBD@Z @ 559 NONAME ; void * QtMobility::QContactRelationshipFetchRequest::qt_metacast(char const *)
	?qt_metacast@QContactRelationshipRemoveRequest@QtMobility@@UAEPAXPBD@Z @ 560 NONAME ; void * QtMobility::QContactRelationshipRemoveRequest::qt_metacast(char const *)
	?qt_metacast@QContactRelationshipSaveRequest@QtMobility@@UAEPAXPBD@Z @ 561 NONAME ; void * QtMobility::QContactRelationshipSaveRequest::qt_metacast(char const *)
	?qt_metacast@QContactRemoveRequest@QtMobility@@UAEPAXPBD@Z @ 562 NONAME ; void * QtMobility::QContactRemoveRequest::qt_metacast(char const *)
	?qt_metacast@QContactSaveRequest@QtMobility@@UAEPAXPBD@Z @ 563 NONAME ; void * QtMobility::QContactSaveRequest::qt_metacast(char const *)
	?rangeFlags@QContactDetailRangeFilter@QtMobility@@QBE?AV?$QFlags@W4RangeFlag@QContactDetailRangeFilter@QtMobility@@@@XZ @ 564 NONAME ; class QFlags<enum QtMobility::QContactDetailRangeFilter::RangeFlag> QtMobility::QContactDetailRangeFilter::rangeFlags(void) const
	?region@QContactAddress@QtMobility@@QBE?AVQString@@XZ @ 565 NONAME ; class QString QtMobility::QContactAddress::region(void) const
	?relatedContactId@QContactRelationshipFilter@QtMobility@@QBE?AVQContactId@2@XZ @ 566 NONAME ; class QtMobility::QContactId QtMobility::QContactRelationshipFilter::relatedContactId(void) const
	?relatedContactRole@QContactRelationshipFilter@QtMobility@@QBE?AW4Role@QContactRelationship@2@XZ @ 567 NONAME ; enum QtMobility::QContactRelationship::Role QtMobility::QContactRelationshipFilter::relatedContactRole(void) const
	?relatedContacts@QContact@QtMobility@@QBE?AV?$QList@VQContactId@QtMobility@@@@ABVQString@@W4Role@QContactRelationship@2@@Z @ 568 NONAME ; class QList<class QtMobility::QContactId> QtMobility::QContact::relatedContacts(class QString const &, enum QtMobility::QContactRelationship::Role) const
	?relationshipType@QContactRelationship@QtMobility@@QBE?AVQString@@XZ @ 569 NONAME ; class QString QtMobility::QContactRelationship::relationshipType(void) const
	?relationshipType@QContactRelationshipFetchRequest@QtMobility@@QBE?AVQString@@XZ @ 570 NONAME ; class QString QtMobility::QContactRelationshipFetchRequest::relationshipType(void) const
	?relationshipType@QContactRelationshipFilter@QtMobility@@QBE?AVQString@@XZ @ 571 NONAME ; class QString QtMobility::QContactRelationshipFilter::relationshipType(void) const
	?relationshipTypesHint@QContactFetchHint@QtMobility@@QBE?AVQStringList@@XZ @ 572 NONAME ; class QStringList QtMobility::QContactFetchHint::relationshipTypesHint(void) const
	?relationships@QContact@QtMobility@@QBE?AV?$QList@VQContactRelationship@QtMobility@@@@ABVQString@@@Z @ 573 NONAME ; class QList<class QtMobility::QContactRelationship> QtMobility::QContact::relationships(class QString const &) const
	?relationships@QContactManager@QtMobility@@QBE?AV?$QList@VQContactRelationship@QtMobility@@@@ABVQContactId@2@W4Role@QContactRelationship@2@@Z @ 574 NONAME ; class QList<class QtMobility::QContactRelationship> QtMobility::QContactManager::relationships(class QtMobility::QContactId const &, enum QtMobility::QContactRelationship::Role) const
	?relationships@QContactManager@QtMobility@@QBE?AV?$QList@VQContactRelationship@QtMobility@@@@ABVQString@@ABVQContactId@2@W4Role@QContactRelationship@2@@Z @ 575 NONAME ; class QList<class QtMobility::QContactRelationship> QtMobility::QContactManager::relationships(class QString const &, class QtMobility::QContactId const &, enum QtMobility::QContactRelationship::Role) const
	?relationships@QContactManagerEngine@QtMobility@@UBE?AV?$QList@VQContactRelationship@QtMobility@@@@ABVQString@@ABVQContactId@2@W4Role@QContactRelationship@2@PAW4Error@QContactManager@2@@Z @ 576 NONAME ; class QList<class QtMobility::QContactRelationship> QtMobility::QContactManagerEngine::relationships(class QString const &, class QtMobility::QContactId const &, enum QtMobility::QContactRelationship::Role, enum QtMobility::QContactManager::Error *) const
	?relationships@QContactRelationshipFetchRequest@QtMobility@@QBE?AV?$QList@VQContactRelationship@QtMobility@@@@XZ @ 577 NONAME ; class QList<class QtMobility::QContactRelationship> QtMobility::QContactRelationshipFetchRequest::relationships(void) const
	?relationships@QContactRelationshipRemoveRequest@QtMobility@@QBE?AV?$QList@VQContactRelationship@QtMobility@@@@XZ @ 578 NONAME ; class QList<class QtMobility::QContactRelationship> QtMobility::QContactRelationshipRemoveRequest::relationships(void) const
	?relationships@QContactRelationshipSaveRequest@QtMobility@@QBE?AV?$QList@VQContactRelationship@QtMobility@@@@XZ @ 579 NONAME ; class QList<class QtMobility::QContactRelationship> QtMobility::QContactRelationshipSaveRequest::relationships(void) const
	?relationshipsAdded@QContactManager@QtMobility@@IAEXABV?$QList@I@@@Z @ 580 NONAME ; void QtMobility::QContactManager::relationshipsAdded(class QList<unsigned int> const &)
	?relationshipsAdded@QContactManagerEngine@QtMobility@@IAEXABV?$QList@I@@@Z @ 581 NONAME ; void QtMobility::QContactManagerEngine::relationshipsAdded(class QList<unsigned int> const &)
	?relationshipsRemoved@QContactManager@QtMobility@@IAEXABV?$QList@I@@@Z @ 582 NONAME ; void QtMobility::QContactManager::relationshipsRemoved(class QList<unsigned int> const &)
	?relationshipsRemoved@QContactManagerEngine@QtMobility@@IAEXABV?$QList@I@@@Z @ 583 NONAME ; void QtMobility::QContactManagerEngine::relationshipsRemoved(class QList<unsigned int> const &)
	?remove@QContactIntersectionFilter@QtMobility@@QAEXABVQContactFilter@2@@Z @ 584 NONAME ; void QtMobility::QContactIntersectionFilter::remove(class QtMobility::QContactFilter const &)
	?remove@QContactUnionFilter@QtMobility@@QAEXABVQContactFilter@2@@Z @ 585 NONAME ; void QtMobility::QContactUnionFilter::remove(class QtMobility::QContactFilter const &)
	?removeContact@QContactManager@QtMobility@@QAE_NABI@Z @ 586 NONAME ; bool QtMobility::QContactManager::removeContact(unsigned int const &)
	?removeContact@QContactManagerEngine@QtMobility@@UAE_NABIPAW4Error@QContactManager@2@@Z @ 587 NONAME ; bool QtMobility::QContactManagerEngine::removeContact(unsigned int const &, enum QtMobility::QContactManager::Error *)
	?removeContacts@QContactManager@QtMobility@@QAE_NABV?$QList@I@@PAV?$QMap@HW4Error@QContactManager@QtMobility@@@@@Z @ 588 NONAME ; bool QtMobility::QContactManager::removeContacts(class QList<unsigned int> const &, class QMap<int, enum QtMobility::QContactManager::Error> *)
	?removeContacts@QContactManagerEngine@QtMobility@@UAE_NABV?$QList@I@@PAV?$QMap@HW4Error@QContactManager@QtMobility@@@@PAW4Error@QContactManager@2@@Z @ 589 NONAME ; bool QtMobility::QContactManagerEngine::removeContacts(class QList<unsigned int> const &, class QMap<int, enum QtMobility::QContactManager::Error> *, enum QtMobility::QContactManager::Error *)
	?removeDetail@QContact@QtMobility@@QAE_NPAVQContactDetail@2@@Z @ 590 NONAME ; bool QtMobility::QContact::removeDetail(class QtMobility::QContactDetail *)
	?removeDetailDefinition@QContactManager@QtMobility@@QAE_NABVQString@@0@Z @ 591 NONAME ; bool QtMobility::QContactManager::removeDetailDefinition(class QString const &, class QString const &)
	?removeDetailDefinition@QContactManagerEngine@QtMobility@@UAE_NABVQString@@0PAW4Error@QContactManager@2@@Z @ 592 NONAME ; bool QtMobility::QContactManagerEngine::removeDetailDefinition(class QString const &, class QString const &, enum QtMobility::QContactManager::Error *)
	?removeField@QContactDetailDefinition@QtMobility@@QAEXABVQString@@@Z @ 593 NONAME ; void QtMobility::QContactDetailDefinition::removeField(class QString const &)
	?removeRelationship@QContactManager@QtMobility@@QAE_NABVQContactRelationship@2@@Z @ 594 NONAME ; bool QtMobility::QContactManager::removeRelationship(class QtMobility::QContactRelationship const &)
	?removeRelationship@QContactManagerEngine@QtMobility@@UAE_NABVQContactRelationship@2@PAW4Error@QContactManager@2@@Z @ 595 NONAME ; bool QtMobility::QContactManagerEngine::removeRelationship(class QtMobility::QContactRelationship const &, enum QtMobility::QContactManager::Error *)
	?removeRelationships@QContactManager@QtMobility@@QAE_NABV?$QList@VQContactRelationship@QtMobility@@@@PAV?$QMap@HW4Error@QContactManager@QtMobility@@@@@Z @ 596 NONAME ; bool QtMobility::QContactManager::removeRelationships(class QList<class QtMobility::QContactRelationship> const &, class QMap<int, enum QtMobility::QContactManager::Error> *)
	?removeRelationships@QContactManagerEngine@QtMobility@@UAE_NABV?$QList@VQContactRelationship@QtMobility@@@@PAV?$QMap@HW4Error@QContactManager@QtMobility@@@@PAW4Error@QContactManager@2@@Z @ 597 NONAME ; bool QtMobility::QContactManagerEngine::removeRelationships(class QList<class QtMobility::QContactRelationship> const &, class QMap<int, enum QtMobility::QContactManager::Error> *, enum QtMobility::QContactManager::Error *)
	?removeValue@QContactDetail@QtMobility@@QAE_NABVQString@@@Z @ 598 NONAME ; bool QtMobility::QContactDetail::removeValue(class QString const &)
	?removeValue@QContactDetail@QtMobility@@QAE_NPBD@Z @ 599 NONAME ; bool QtMobility::QContactDetail::removeValue(char const *)
	?removedContacts@QContactChangeSet@QtMobility@@QBE?AV?$QSet@I@@XZ @ 600 NONAME ; class QSet<unsigned int> QtMobility::QContactChangeSet::removedContacts(void) const
	?removedRelationshipsContacts@QContactChangeSet@QtMobility@@QBE?AV?$QSet@I@@XZ @ 601 NONAME ; class QSet<unsigned int> QtMobility::QContactChangeSet::removedRelationshipsContacts(void) const
	?requestDestroyed@QContactManagerEngine@QtMobility@@UAEXPAVQContactAbstractRequest@2@@Z @ 602 NONAME ; void QtMobility::QContactManagerEngine::requestDestroyed(class QtMobility::QContactAbstractRequest *)
	?resetKey@QContactDetail@QtMobility@@QAEXXZ @ 603 NONAME ; void QtMobility::QContactDetail::resetKey(void)
	?resultsAvailable@QContactAbstractRequest@QtMobility@@IAEXXZ @ 604 NONAME ; void QtMobility::QContactAbstractRequest::resultsAvailable(void)
	?resultsAvailable@QContactAction@QtMobility@@IAEXXZ @ 605 NONAME ; void QtMobility::QContactAction::resultsAvailable(void)
	?role@QContactOrganization@QtMobility@@QBE?AVQString@@XZ @ 606 NONAME ; class QString QtMobility::QContactOrganization::role(void) const
	?saveContact@QContactManager@QtMobility@@QAE_NPAVQContact@2@@Z @ 607 NONAME ; bool QtMobility::QContactManager::saveContact(class QtMobility::QContact *)
	?saveContact@QContactManagerEngine@QtMobility@@UAE_NPAVQContact@2@PAW4Error@QContactManager@2@@Z @ 608 NONAME ; bool QtMobility::QContactManagerEngine::saveContact(class QtMobility::QContact *, enum QtMobility::QContactManager::Error *)
	?saveContacts@QContactManager@QtMobility@@QAE_NPAV?$QList@VQContact@QtMobility@@@@PAV?$QMap@HW4Error@QContactManager@QtMobility@@@@@Z @ 609 NONAME ; bool QtMobility::QContactManager::saveContacts(class QList<class QtMobility::QContact> *, class QMap<int, enum QtMobility::QContactManager::Error> *)
	?saveContacts@QContactManagerEngine@QtMobility@@UAE_NPAV?$QList@VQContact@QtMobility@@@@PAV?$QMap@HW4Error@QContactManager@QtMobility@@@@PAW4Error@QContactManager@2@@Z @ 610 NONAME ; bool QtMobility::QContactManagerEngine::saveContacts(class QList<class QtMobility::QContact> *, class QMap<int, enum QtMobility::QContactManager::Error> *, enum QtMobility::QContactManager::Error *)
	?saveDetail@QContact@QtMobility@@QAE_NPAVQContactDetail@2@@Z @ 611 NONAME ; bool QtMobility::QContact::saveDetail(class QtMobility::QContactDetail *)
	?saveDetailDefinition@QContactManager@QtMobility@@QAE_NABVQContactDetailDefinition@2@ABVQString@@@Z @ 612 NONAME ; bool QtMobility::QContactManager::saveDetailDefinition(class QtMobility::QContactDetailDefinition const &, class QString const &)
	?saveDetailDefinition@QContactManagerEngine@QtMobility@@UAE_NABVQContactDetailDefinition@2@ABVQString@@PAW4Error@QContactManager@2@@Z @ 613 NONAME ; bool QtMobility::QContactManagerEngine::saveDetailDefinition(class QtMobility::QContactDetailDefinition const &, class QString const &, enum QtMobility::QContactManager::Error *)
	?saveRelationship@QContactManager@QtMobility@@QAE_NPAVQContactRelationship@2@@Z @ 614 NONAME ; bool QtMobility::QContactManager::saveRelationship(class QtMobility::QContactRelationship *)
	?saveRelationship@QContactManagerEngine@QtMobility@@UAE_NPAVQContactRelationship@2@PAW4Error@QContactManager@2@@Z @ 615 NONAME ; bool QtMobility::QContactManagerEngine::saveRelationship(class QtMobility::QContactRelationship *, enum QtMobility::QContactManager::Error *)
	?saveRelationships@QContactManager@QtMobility@@QAE_NPAV?$QList@VQContactRelationship@QtMobility@@@@PAV?$QMap@HW4Error@QContactManager@QtMobility@@@@@Z @ 616 NONAME ; bool QtMobility::QContactManager::saveRelationships(class QList<class QtMobility::QContactRelationship> *, class QMap<int, enum QtMobility::QContactManager::Error> *)
	?saveRelationships@QContactManagerEngine@QtMobility@@UAE_NPAV?$QList@VQContactRelationship@QtMobility@@@@PAV?$QMap@HW4Error@QContactManager@QtMobility@@@@PAW4Error@QContactManager@2@@Z @ 617 NONAME ; bool QtMobility::QContactManagerEngine::saveRelationships(class QList<class QtMobility::QContactRelationship> *, class QMap<int, enum QtMobility::QContactManager::Error> *, enum QtMobility::QContactManager::Error *)
	?schemaDefinitions@QContactManagerEngine@QtMobility@@SA?AV?$QMap@VQString@@V?$QMap@VQString@@VQContactDetailDefinition@QtMobility@@@@@@XZ @ 618 NONAME ; class QMap<class QString, class QMap<class QString, class QtMobility::QContactDetailDefinition> > QtMobility::QContactManagerEngine::schemaDefinitions(void)
	?second@QContactRelationship@QtMobility@@QBE?AVQContactId@2@XZ @ 619 NONAME ; class QtMobility::QContactId QtMobility::QContactRelationship::second(void) const
	?second@QContactRelationshipFetchRequest@QtMobility@@QBE?AVQContactId@2@XZ @ 620 NONAME ; class QtMobility::QContactId QtMobility::QContactRelationshipFetchRequest::second(void) const
	?selfContactId@QContactManager@QtMobility@@QBEIXZ @ 621 NONAME ; unsigned int QtMobility::QContactManager::selfContactId(void) const
	?selfContactId@QContactManagerEngine@QtMobility@@UBEIPAW4Error@QContactManager@2@@Z @ 622 NONAME ; unsigned int QtMobility::QContactManagerEngine::selfContactId(enum QtMobility::QContactManager::Error *) const
	?selfContactIdChanged@QContactManager@QtMobility@@IAEXABI0@Z @ 623 NONAME ; void QtMobility::QContactManager::selfContactIdChanged(unsigned int const &, unsigned int const &)
	?selfContactIdChanged@QContactManagerEngine@QtMobility@@IAEXABI0@Z @ 624 NONAME ; void QtMobility::QContactManagerEngine::selfContactIdChanged(unsigned int const &, unsigned int const &)
	?serviceProvider@QContactOnlineAccount@QtMobility@@QBE?AVQString@@XZ @ 625 NONAME ; class QString QtMobility::QContactOnlineAccount::serviceProvider(void) const
	?setAccountUri@QContactOnlineAccount@QtMobility@@QAEXABVQString@@@Z @ 626 NONAME ; void QtMobility::QContactOnlineAccount::setAccountUri(class QString const &)
	?setAccuracy@QContactGeoLocation@QtMobility@@QAEXN@Z @ 627 NONAME ; void QtMobility::QContactGeoLocation::setAccuracy(double)
	?setActionName@QContactActionDescriptor@QtMobility@@QAEXABVQString@@@Z @ 628 NONAME ; void QtMobility::QContactActionDescriptor::setActionName(class QString const &)
	?setActionName@QContactActionFilter@QtMobility@@QAEXABVQString@@@Z @ 629 NONAME ; void QtMobility::QContactActionFilter::setActionName(class QString const &)
	?setAllowableValues@QContactDetailFieldDefinition@QtMobility@@QAEXV?$QList@VQVariant@@@@@Z @ 630 NONAME ; void QtMobility::QContactDetailFieldDefinition::setAllowableValues(class QList<class QVariant>)
	?setAltitude@QContactGeoLocation@QtMobility@@QAEXN@Z @ 631 NONAME ; void QtMobility::QContactGeoLocation::setAltitude(double)
	?setAltitudeAccuracy@QContactGeoLocation@QtMobility@@QAEXN@Z @ 632 NONAME ; void QtMobility::QContactGeoLocation::setAltitudeAccuracy(double)
	?setAssistantName@QContactOrganization@QtMobility@@QAEXABVQString@@@Z @ 633 NONAME ; void QtMobility::QContactOrganization::setAssistantName(class QString const &)
	?setAudioRingtoneUrl@QContactRingtone@QtMobility@@QAEXABVQUrl@@@Z @ 634 NONAME ; void QtMobility::QContactRingtone::setAudioRingtoneUrl(class QUrl const &)
	?setBlankPolicy@QContactSortOrder@QtMobility@@QAEXW4BlankPolicy@12@@Z @ 635 NONAME ; void QtMobility::QContactSortOrder::setBlankPolicy(enum QtMobility::QContactSortOrder::BlankPolicy)
	?setCalendarId@QContactAnniversary@QtMobility@@QAEXABVQString@@@Z @ 636 NONAME ; void QtMobility::QContactAnniversary::setCalendarId(class QString const &)
	?setCapabilities@QContactOnlineAccount@QtMobility@@QAEXABVQStringList@@@Z @ 637 NONAME ; void QtMobility::QContactOnlineAccount::setCapabilities(class QStringList const &)
	?setCaseSensitivity@QContactSortOrder@QtMobility@@QAEXW4CaseSensitivity@Qt@@@Z @ 638 NONAME ; void QtMobility::QContactSortOrder::setCaseSensitivity(enum Qt::CaseSensitivity)
	?setChildren@QContactFamily@QtMobility@@QAEXABVQStringList@@@Z @ 639 NONAME ; void QtMobility::QContactFamily::setChildren(class QStringList const &)
	?setContactDisplayLabel@QContactManagerEngine@QtMobility@@SAXPAVQContact@2@ABVQString@@@Z @ 640 NONAME ; void QtMobility::QContactManagerEngine::setContactDisplayLabel(class QtMobility::QContact *, class QString const &)
	?setContactIds@QContactRemoveRequest@QtMobility@@QAEXABV?$QList@I@@@Z @ 641 NONAME ; void QtMobility::QContactRemoveRequest::setContactIds(class QList<unsigned int> const &)
	?setContactRelationships@QContactManagerEngine@QtMobility@@SAXPAVQContact@2@ABV?$QList@VQContactRelationship@QtMobility@@@@@Z @ 642 NONAME ; void QtMobility::QContactManagerEngine::setContactRelationships(class QtMobility::QContact *, class QList<class QtMobility::QContactRelationship> const &)
	?setContactType@QContactDetailDefinitionFetchRequest@QtMobility@@QAEXABVQString@@@Z @ 643 NONAME ; void QtMobility::QContactDetailDefinitionFetchRequest::setContactType(class QString const &)
	?setContactType@QContactDetailDefinitionSaveRequest@QtMobility@@QAEXABVQString@@@Z @ 644 NONAME ; void QtMobility::QContactDetailDefinitionSaveRequest::setContactType(class QString const &)
	?setContacts@QContactSaveRequest@QtMobility@@QAEXABV?$QList@VQContact@QtMobility@@@@@Z @ 645 NONAME ; void QtMobility::QContactSaveRequest::setContacts(class QList<class QtMobility::QContact> const &)
	?setContexts@QContactDetail@QtMobility@@QAEXABVQString@@@Z @ 646 NONAME ; void QtMobility::QContactDetail::setContexts(class QString const &)
	?setContexts@QContactDetail@QtMobility@@QAEXABVQStringList@@@Z @ 647 NONAME ; void QtMobility::QContactDetail::setContexts(class QStringList const &)
	?setCountry@QContactAddress@QtMobility@@QAEXABVQString@@@Z @ 648 NONAME ; void QtMobility::QContactAddress::setCountry(class QString const &)
	?setCreated@QContactTimestamp@QtMobility@@QAEXABVQDateTime@@@Z @ 649 NONAME ; void QtMobility::QContactTimestamp::setCreated(class QDateTime const &)
	?setCustomLabel@QContactName@QtMobility@@QAEXABVQString@@@Z @ 650 NONAME ; void QtMobility::QContactName::setCustomLabel(class QString const &)
	?setCustomMessage@QContactGlobalPresence@QtMobility@@QAEXABVQString@@@Z @ 651 NONAME ; void QtMobility::QContactGlobalPresence::setCustomMessage(class QString const &)
	?setCustomMessage@QContactPresence@QtMobility@@QAEXABVQString@@@Z @ 652 NONAME ; void QtMobility::QContactPresence::setCustomMessage(class QString const &)
	?setDataChanged@QContactChangeSet@QtMobility@@QAEX_N@Z @ 653 NONAME ; void QtMobility::QContactChangeSet::setDataChanged(bool)
	?setDataType@QContactDetailFieldDefinition@QtMobility@@QAEXW4Type@QVariant@@@Z @ 654 NONAME ; void QtMobility::QContactDetailFieldDefinition::setDataType(enum QVariant::Type)
	?setDate@QContactBirthday@QtMobility@@QAEXABVQDate@@@Z @ 655 NONAME ; void QtMobility::QContactBirthday::setDate(class QDate const &)
	?setDefinitionNames@QContactDetailDefinitionFetchRequest@QtMobility@@QAEXABVQStringList@@@Z @ 656 NONAME ; void QtMobility::QContactDetailDefinitionFetchRequest::setDefinitionNames(class QStringList const &)
	?setDefinitionNames@QContactDetailDefinitionRemoveRequest@QtMobility@@QAEXABVQString@@ABVQStringList@@@Z @ 657 NONAME ; void QtMobility::QContactDetailDefinitionRemoveRequest::setDefinitionNames(class QString const &, class QStringList const &)
	?setDefinitions@QContactDetailDefinitionSaveRequest@QtMobility@@QAEXABV?$QList@VQContactDetailDefinition@QtMobility@@@@@Z @ 658 NONAME ; void QtMobility::QContactDetailDefinitionSaveRequest::setDefinitions(class QList<class QtMobility::QContactDetailDefinition> const &)
	?setDepartment@QContactOrganization@QtMobility@@QAEXABVQStringList@@@Z @ 659 NONAME ; void QtMobility::QContactOrganization::setDepartment(class QStringList const &)
	?setDetailAccessConstraints@QContactManagerEngine@QtMobility@@SAXPAVQContactDetail@2@V?$QFlags@W4AccessConstraint@QContactDetail@QtMobility@@@@@Z @ 660 NONAME ; void QtMobility::QContactManagerEngine::setDetailAccessConstraints(class QtMobility::QContactDetail *, class QFlags<enum QtMobility::QContactDetail::AccessConstraint>)
	?setDetailDefinitionName@QContactDetailFilter@QtMobility@@QAEXABVQString@@0@Z @ 661 NONAME ; void QtMobility::QContactDetailFilter::setDetailDefinitionName(class QString const &, class QString const &)
	?setDetailDefinitionName@QContactDetailRangeFilter@QtMobility@@QAEXABVQString@@0@Z @ 662 NONAME ; void QtMobility::QContactDetailRangeFilter::setDetailDefinitionName(class QString const &, class QString const &)
	?setDetailDefinitionName@QContactSortOrder@QtMobility@@QAEXABVQString@@0@Z @ 663 NONAME ; void QtMobility::QContactSortOrder::setDetailDefinitionName(class QString const &, class QString const &)
	?setDetailDefinitionsHint@QContactFetchHint@QtMobility@@QAEXABVQStringList@@@Z @ 664 NONAME ; void QtMobility::QContactFetchHint::setDetailDefinitionsHint(class QStringList const &)
	?setDetailUri@QContactDetail@QtMobility@@QAEXABVQString@@@Z @ 665 NONAME ; void QtMobility::QContactDetail::setDetailUri(class QString const &)
	?setDirection@QContactSortOrder@QtMobility@@QAEXW4SortOrder@Qt@@@Z @ 666 NONAME ; void QtMobility::QContactSortOrder::setDirection(enum Qt::SortOrder)
	?setEmailAddress@QContactEmailAddress@QtMobility@@QAEXABVQString@@@Z @ 667 NONAME ; void QtMobility::QContactEmailAddress::setEmailAddress(class QString const &)
	?setEvent@QContactAnniversary@QtMobility@@QAEXABVQString@@@Z @ 668 NONAME ; void QtMobility::QContactAnniversary::setEvent(class QString const &)
	?setEventType@QContactChangeLogFilter@QtMobility@@QAEXW4EventType@12@@Z @ 669 NONAME ; void QtMobility::QContactChangeLogFilter::setEventType(enum QtMobility::QContactChangeLogFilter::EventType)
	?setFetchHint@QContactFetchRequest@QtMobility@@QAEXABVQContactFetchHint@2@@Z @ 670 NONAME ; void QtMobility::QContactFetchRequest::setFetchHint(class QtMobility::QContactFetchHint const &)
	?setFields@QContactDetailDefinition@QtMobility@@QAEXABV?$QMap@VQString@@VQContactDetailFieldDefinition@QtMobility@@@@@Z @ 671 NONAME ; void QtMobility::QContactDetailDefinition::setFields(class QMap<class QString, class QtMobility::QContactDetailFieldDefinition> const &)
	?setFilter@QContactFetchRequest@QtMobility@@QAEXABVQContactFilter@2@@Z @ 672 NONAME ; void QtMobility::QContactFetchRequest::setFilter(class QtMobility::QContactFilter const &)
	?setFilter@QContactLocalIdFetchRequest@QtMobility@@QAEXABVQContactFilter@2@@Z @ 673 NONAME ; void QtMobility::QContactLocalIdFetchRequest::setFilter(class QtMobility::QContactFilter const &)
	?setFilters@QContactIntersectionFilter@QtMobility@@QAEXABV?$QList@VQContactFilter@QtMobility@@@@@Z @ 674 NONAME ; void QtMobility::QContactIntersectionFilter::setFilters(class QList<class QtMobility::QContactFilter> const &)
	?setFilters@QContactUnionFilter@QtMobility@@QAEXABV?$QList@VQContactFilter@QtMobility@@@@@Z @ 675 NONAME ; void QtMobility::QContactUnionFilter::setFilters(class QList<class QtMobility::QContactFilter> const &)
	?setFirst@QContactRelationship@QtMobility@@QAEXABVQContactId@2@@Z @ 676 NONAME ; void QtMobility::QContactRelationship::setFirst(class QtMobility::QContactId const &)
	?setFirst@QContactRelationshipFetchRequest@QtMobility@@QAEXABVQContactId@2@@Z @ 677 NONAME ; void QtMobility::QContactRelationshipFetchRequest::setFirst(class QtMobility::QContactId const &)
	?setFirstName@QContactName@QtMobility@@QAEXABVQString@@@Z @ 678 NONAME ; void QtMobility::QContactName::setFirstName(class QString const &)
	?setGender@QContactGender@QtMobility@@QAEXABVQString@@@Z @ 679 NONAME ; void QtMobility::QContactGender::setGender(class QString const &)
	?setGuid@QContactGuid@QtMobility@@QAEXABVQString@@@Z @ 680 NONAME ; void QtMobility::QContactGuid::setGuid(class QString const &)
	?setHeading@QContactGeoLocation@QtMobility@@QAEXN@Z @ 681 NONAME ; void QtMobility::QContactGeoLocation::setHeading(double)
	?setId@QContact@QtMobility@@QAEXABVQContactId@2@@Z @ 682 NONAME ; void QtMobility::QContact::setId(class QtMobility::QContactId const &)
	?setIds@QContactLocalIdFilter@QtMobility@@QAEXABV?$QList@I@@@Z @ 683 NONAME ; void QtMobility::QContactLocalIdFilter::setIds(class QList<unsigned int> const &)
	?setImageUrl@QContactAvatar@QtMobility@@QAEXABVQUrl@@@Z @ 684 NONAME ; void QtMobility::QContactAvatar::setImageUrl(class QUrl const &)
	?setImplementationVersion@QContactActionDescriptor@QtMobility@@QAEXH@Z @ 685 NONAME ; void QtMobility::QContactActionDescriptor::setImplementationVersion(int)
	?setLabel@QContactGeoLocation@QtMobility@@QAEXABVQString@@@Z @ 686 NONAME ; void QtMobility::QContactGeoLocation::setLabel(class QString const &)
	?setLastModified@QContactTimestamp@QtMobility@@QAEXABVQDateTime@@@Z @ 687 NONAME ; void QtMobility::QContactTimestamp::setLastModified(class QDateTime const &)
	?setLastName@QContactName@QtMobility@@QAEXABVQString@@@Z @ 688 NONAME ; void QtMobility::QContactName::setLastName(class QString const &)
	?setLatitude@QContactGeoLocation@QtMobility@@QAEXN@Z @ 689 NONAME ; void QtMobility::QContactGeoLocation::setLatitude(double)
	?setLinkedDetailUris@QContactDetail@QtMobility@@QAEXABVQString@@@Z @ 690 NONAME ; void QtMobility::QContactDetail::setLinkedDetailUris(class QString const &)
	?setLinkedDetailUris@QContactDetail@QtMobility@@QAEXABVQStringList@@@Z @ 691 NONAME ; void QtMobility::QContactDetail::setLinkedDetailUris(class QStringList const &)
	?setLocalId@QContactId@QtMobility@@QAEXABI@Z @ 692 NONAME ; void QtMobility::QContactId::setLocalId(unsigned int const &)
	?setLocality@QContactAddress@QtMobility@@QAEXABVQString@@@Z @ 693 NONAME ; void QtMobility::QContactAddress::setLocality(class QString const &)
	?setLocation@QContactOrganization@QtMobility@@QAEXABVQString@@@Z @ 694 NONAME ; void QtMobility::QContactOrganization::setLocation(class QString const &)
	?setLogoUrl@QContactOrganization@QtMobility@@QAEXABVQUrl@@@Z @ 695 NONAME ; void QtMobility::QContactOrganization::setLogoUrl(class QUrl const &)
	?setLongitude@QContactGeoLocation@QtMobility@@QAEXN@Z @ 696 NONAME ; void QtMobility::QContactGeoLocation::setLongitude(double)
	?setManager@QContactAbstractRequest@QtMobility@@QAEXPAVQContactManager@2@@Z @ 697 NONAME ; void QtMobility::QContactAbstractRequest::setManager(class QtMobility::QContactManager *)
	?setManagerUri@QContactId@QtMobility@@QAEXABVQString@@@Z @ 698 NONAME ; void QtMobility::QContactId::setManagerUri(class QString const &)
	?setMatchFlags@QContactDetailFilter@QtMobility@@QAEXV?$QFlags@W4MatchFlag@QContactFilter@QtMobility@@@@@Z @ 699 NONAME ; void QtMobility::QContactDetailFilter::setMatchFlags(class QFlags<enum QtMobility::QContactFilter::MatchFlag>)
	?setMatchFlags@QContactDetailRangeFilter@QtMobility@@QAEXV?$QFlags@W4MatchFlag@QContactFilter@QtMobility@@@@@Z @ 700 NONAME ; void QtMobility::QContactDetailRangeFilter::setMatchFlags(class QFlags<enum QtMobility::QContactFilter::MatchFlag>)
	?setMiddleName@QContactName@QtMobility@@QAEXABVQString@@@Z @ 701 NONAME ; void QtMobility::QContactName::setMiddleName(class QString const &)
	?setName@QContactDetailDefinition@QtMobility@@QAEXABVQString@@@Z @ 702 NONAME ; void QtMobility::QContactDetailDefinition::setName(class QString const &)
	?setName@QContactOrganization@QtMobility@@QAEXABVQString@@@Z @ 703 NONAME ; void QtMobility::QContactOrganization::setName(class QString const &)
	?setNickname@QContactGlobalPresence@QtMobility@@QAEXABVQString@@@Z @ 704 NONAME ; void QtMobility::QContactGlobalPresence::setNickname(class QString const &)
	?setNickname@QContactNickname@QtMobility@@QAEXABVQString@@@Z @ 705 NONAME ; void QtMobility::QContactNickname::setNickname(class QString const &)
	?setNickname@QContactPresence@QtMobility@@QAEXABVQString@@@Z @ 706 NONAME ; void QtMobility::QContactPresence::setNickname(class QString const &)
	?setNote@QContactNote@QtMobility@@QAEXABVQString@@@Z @ 707 NONAME ; void QtMobility::QContactNote::setNote(class QString const &)
	?setNumber@QContactPhoneNumber@QtMobility@@QAEXABVQString@@@Z @ 708 NONAME ; void QtMobility::QContactPhoneNumber::setNumber(class QString const &)
	?setOldAndNewSelfContactId@QContactChangeSet@QtMobility@@QAEXABU?$QPair@II@@@Z @ 709 NONAME ; void QtMobility::QContactChangeSet::setOldAndNewSelfContactId(struct QPair<unsigned int, unsigned int> const &)
	?setOptimizationHints@QContactFetchHint@QtMobility@@QAEXV?$QFlags@W4OptimizationHint@QContactFetchHint@QtMobility@@@@@Z @ 710 NONAME ; void QtMobility::QContactFetchHint::setOptimizationHints(class QFlags<enum QtMobility::QContactFetchHint::OptimizationHint>)
	?setOriginalDate@QContactAnniversary@QtMobility@@QAEXABVQDate@@@Z @ 711 NONAME ; void QtMobility::QContactAnniversary::setOriginalDate(class QDate const &)
	?setPostOfficeBox@QContactAddress@QtMobility@@QAEXABVQString@@@Z @ 712 NONAME ; void QtMobility::QContactAddress::setPostOfficeBox(class QString const &)
	?setPostcode@QContactAddress@QtMobility@@QAEXABVQString@@@Z @ 713 NONAME ; void QtMobility::QContactAddress::setPostcode(class QString const &)
	?setPreferredDetail@QContact@QtMobility@@QAE_NABVQString@@ABVQContactDetail@2@@Z @ 714 NONAME ; bool QtMobility::QContact::setPreferredDetail(class QString const &, class QtMobility::QContactDetail const &)
	?setPrefix@QContactName@QtMobility@@QAEXABVQString@@@Z @ 715 NONAME ; void QtMobility::QContactName::setPrefix(class QString const &)
	?setPresenceState@QContactGlobalPresence@QtMobility@@QAEXW4PresenceState@QContactPresence@2@@Z @ 716 NONAME ; void QtMobility::QContactGlobalPresence::setPresenceState(enum QtMobility::QContactPresence::PresenceState)
	?setPresenceState@QContactPresence@QtMobility@@QAEXW4PresenceState@12@@Z @ 717 NONAME ; void QtMobility::QContactPresence::setPresenceState(enum QtMobility::QContactPresence::PresenceState)
	?setPresenceStateImageUrl@QContactGlobalPresence@QtMobility@@QAEXABVQUrl@@@Z @ 718 NONAME ; void QtMobility::QContactGlobalPresence::setPresenceStateImageUrl(class QUrl const &)
	?setPresenceStateImageUrl@QContactPresence@QtMobility@@QAEXABVQUrl@@@Z @ 719 NONAME ; void QtMobility::QContactPresence::setPresenceStateImageUrl(class QUrl const &)
	?setPresenceStateText@QContactGlobalPresence@QtMobility@@QAEXABVQString@@@Z @ 720 NONAME ; void QtMobility::QContactGlobalPresence::setPresenceStateText(class QString const &)
	?setPresenceStateText@QContactPresence@QtMobility@@QAEXABVQString@@@Z @ 721 NONAME ; void QtMobility::QContactPresence::setPresenceStateText(class QString const &)
	?setRange@QContactDetailRangeFilter@QtMobility@@QAEXABVQVariant@@0V?$QFlags@W4RangeFlag@QContactDetailRangeFilter@QtMobility@@@@@Z @ 722 NONAME ; void QtMobility::QContactDetailRangeFilter::setRange(class QVariant const &, class QVariant const &, class QFlags<enum QtMobility::QContactDetailRangeFilter::RangeFlag>)
	?setRegion@QContactAddress@QtMobility@@QAEXABVQString@@@Z @ 723 NONAME ; void QtMobility::QContactAddress::setRegion(class QString const &)
	?setRelatedContactId@QContactRelationshipFilter@QtMobility@@QAEXABVQContactId@2@@Z @ 724 NONAME ; void QtMobility::QContactRelationshipFilter::setRelatedContactId(class QtMobility::QContactId const &)
	?setRelatedContactRole@QContactRelationshipFilter@QtMobility@@QAEXW4Role@QContactRelationship@2@@Z @ 725 NONAME ; void QtMobility::QContactRelationshipFilter::setRelatedContactRole(enum QtMobility::QContactRelationship::Role)
	?setRelationshipType@QContactRelationship@QtMobility@@QAEXABVQString@@@Z @ 726 NONAME ; void QtMobility::QContactRelationship::setRelationshipType(class QString const &)
	?setRelationshipType@QContactRelationshipFetchRequest@QtMobility@@QAEXABVQString@@@Z @ 727 NONAME ; void QtMobility::QContactRelationshipFetchRequest::setRelationshipType(class QString const &)
	?setRelationshipType@QContactRelationshipFilter@QtMobility@@QAEXABVQString@@@Z @ 728 NONAME ; void QtMobility::QContactRelationshipFilter::setRelationshipType(class QString const &)
	?setRelationshipTypesHint@QContactFetchHint@QtMobility@@QAEXABVQStringList@@@Z @ 729 NONAME ; void QtMobility::QContactFetchHint::setRelationshipTypesHint(class QStringList const &)
	?setRelationships@QContactRelationshipRemoveRequest@QtMobility@@QAEXABV?$QList@VQContactRelationship@QtMobility@@@@@Z @ 730 NONAME ; void QtMobility::QContactRelationshipRemoveRequest::setRelationships(class QList<class QtMobility::QContactRelationship> const &)
	?setRelationships@QContactRelationshipSaveRequest@QtMobility@@QAEXABV?$QList@VQContactRelationship@QtMobility@@@@@Z @ 731 NONAME ; void QtMobility::QContactRelationshipSaveRequest::setRelationships(class QList<class QtMobility::QContactRelationship> const &)
	?setRole@QContactOrganization@QtMobility@@QAEXABVQString@@@Z @ 732 NONAME ; void QtMobility::QContactOrganization::setRole(class QString const &)
	?setSecond@QContactRelationship@QtMobility@@QAEXABVQContactId@2@@Z @ 733 NONAME ; void QtMobility::QContactRelationship::setSecond(class QtMobility::QContactId const &)
	?setSecond@QContactRelationshipFetchRequest@QtMobility@@QAEXABVQContactId@2@@Z @ 734 NONAME ; void QtMobility::QContactRelationshipFetchRequest::setSecond(class QtMobility::QContactId const &)
	?setSelfContactId@QContactManager@QtMobility@@QAE_NABI@Z @ 735 NONAME ; bool QtMobility::QContactManager::setSelfContactId(unsigned int const &)
	?setSelfContactId@QContactManagerEngine@QtMobility@@UAE_NABIPAW4Error@QContactManager@2@@Z @ 736 NONAME ; bool QtMobility::QContactManagerEngine::setSelfContactId(unsigned int const &, enum QtMobility::QContactManager::Error *)
	?setServiceProvider@QContactOnlineAccount@QtMobility@@QAEXABVQString@@@Z @ 737 NONAME ; void QtMobility::QContactOnlineAccount::setServiceProvider(class QString const &)
	?setSince@QContactChangeLogFilter@QtMobility@@QAEXABVQDateTime@@@Z @ 738 NONAME ; void QtMobility::QContactChangeLogFilter::setSince(class QDateTime const &)
	?setSorting@QContactFetchRequest@QtMobility@@QAEXABV?$QList@VQContactSortOrder@QtMobility@@@@@Z @ 739 NONAME ; void QtMobility::QContactFetchRequest::setSorting(class QList<class QtMobility::QContactSortOrder> const &)
	?setSorting@QContactLocalIdFetchRequest@QtMobility@@QAEXABV?$QList@VQContactSortOrder@QtMobility@@@@@Z @ 740 NONAME ; void QtMobility::QContactLocalIdFetchRequest::setSorting(class QList<class QtMobility::QContactSortOrder> const &)
	?setSpeed@QContactGeoLocation@QtMobility@@QAEXN@Z @ 741 NONAME ; void QtMobility::QContactGeoLocation::setSpeed(double)
	?setSpouse@QContactFamily@QtMobility@@QAEXABVQString@@@Z @ 742 NONAME ; void QtMobility::QContactFamily::setSpouse(class QString const &)
	?setStreet@QContactAddress@QtMobility@@QAEXABVQString@@@Z @ 743 NONAME ; void QtMobility::QContactAddress::setStreet(class QString const &)
	?setSubType@QContactAnniversary@QtMobility@@QAEXABVQString@@@Z @ 744 NONAME ; void QtMobility::QContactAnniversary::setSubType(class QString const &)
	?setSubType@QContactUrl@QtMobility@@QAEXABVQString@@@Z @ 745 NONAME ; void QtMobility::QContactUrl::setSubType(class QString const &)
	?setSubTypes@QContactAddress@QtMobility@@QAEXABVQString@@@Z @ 746 NONAME ; void QtMobility::QContactAddress::setSubTypes(class QString const &)
	?setSubTypes@QContactAddress@QtMobility@@QAEXABVQStringList@@@Z @ 747 NONAME ; void QtMobility::QContactAddress::setSubTypes(class QStringList const &)
	?setSubTypes@QContactOnlineAccount@QtMobility@@QAEXABVQString@@@Z @ 748 NONAME ; void QtMobility::QContactOnlineAccount::setSubTypes(class QString const &)
	?setSubTypes@QContactOnlineAccount@QtMobility@@QAEXABVQStringList@@@Z @ 749 NONAME ; void QtMobility::QContactOnlineAccount::setSubTypes(class QStringList const &)
	?setSubTypes@QContactPhoneNumber@QtMobility@@QAEXABVQString@@@Z @ 750 NONAME ; void QtMobility::QContactPhoneNumber::setSubTypes(class QString const &)
	?setSubTypes@QContactPhoneNumber@QtMobility@@QAEXABVQStringList@@@Z @ 751 NONAME ; void QtMobility::QContactPhoneNumber::setSubTypes(class QStringList const &)
	?setSuffix@QContactName@QtMobility@@QAEXABVQString@@@Z @ 752 NONAME ; void QtMobility::QContactName::setSuffix(class QString const &)
	?setSyncTarget@QContactSyncTarget@QtMobility@@QAEXABVQString@@@Z @ 753 NONAME ; void QtMobility::QContactSyncTarget::setSyncTarget(class QString const &)
	?setTag@QContactTag@QtMobility@@QAEXABVQString@@@Z @ 754 NONAME ; void QtMobility::QContactTag::setTag(class QString const &)
	?setThumbnail@QContactThumbnail@QtMobility@@QAEXABVQImage@@@Z @ 755 NONAME ; void QtMobility::QContactThumbnail::setThumbnail(class QImage const &)
	?setTimestamp@QContactGeoLocation@QtMobility@@QAEXABVQDateTime@@@Z @ 756 NONAME ; void QtMobility::QContactGeoLocation::setTimestamp(class QDateTime const &)
	?setTimestamp@QContactGlobalPresence@QtMobility@@QAEXABVQDateTime@@@Z @ 757 NONAME ; void QtMobility::QContactGlobalPresence::setTimestamp(class QDateTime const &)
	?setTimestamp@QContactPresence@QtMobility@@QAEXABVQDateTime@@@Z @ 758 NONAME ; void QtMobility::QContactPresence::setTimestamp(class QDateTime const &)
	?setTitle@QContactOrganization@QtMobility@@QAEXABVQString@@@Z @ 759 NONAME ; void QtMobility::QContactOrganization::setTitle(class QString const &)
	?setType@QContact@QtMobility@@QAEXABVQContactType@2@@Z @ 760 NONAME ; void QtMobility::QContact::setType(class QtMobility::QContactType const &)
	?setType@QContact@QtMobility@@QAEXABVQString@@@Z @ 761 NONAME ; void QtMobility::QContact::setType(class QString const &)
	?setType@QContactType@QtMobility@@QAEXABVQString@@@Z @ 762 NONAME ; void QtMobility::QContactType::setType(class QString const &)
	?setUnique@QContactDetailDefinition@QtMobility@@QAEX_N@Z @ 763 NONAME ; void QtMobility::QContactDetailDefinition::setUnique(bool)
	?setUrl@QContactUrl@QtMobility@@QAEXABVQString@@@Z @ 764 NONAME ; void QtMobility::QContactUrl::setUrl(class QString const &)
	?setValue@QContactActionFilter@QtMobility@@QAEXABVQVariant@@@Z @ 765 NONAME ; void QtMobility::QContactActionFilter::setValue(class QVariant const &)
	?setValue@QContactDetail@QtMobility@@QAE_NABVQString@@ABVQVariant@@@Z @ 766 NONAME ; bool QtMobility::QContactDetail::setValue(class QString const &, class QVariant const &)
	?setValue@QContactDetail@QtMobility@@QAE_NPBDABVQVariant@@@Z @ 767 NONAME ; bool QtMobility::QContactDetail::setValue(char const *, class QVariant const &)
	?setValue@QContactDetailFilter@QtMobility@@QAEXABVQVariant@@@Z @ 768 NONAME ; void QtMobility::QContactDetailFilter::setValue(class QVariant const &)
	?setVendor@QContactActionFilter@QtMobility@@QAEXABVQString@@H@Z @ 769 NONAME ; void QtMobility::QContactActionFilter::setVendor(class QString const &, int)
	?setVendorName@QContactActionDescriptor@QtMobility@@QAEXABVQString@@@Z @ 770 NONAME ; void QtMobility::QContactActionDescriptor::setVendorName(class QString const &)
	?setVibrationRingtoneUrl@QContactRingtone@QtMobility@@QAEXABVQUrl@@@Z @ 771 NONAME ; void QtMobility::QContactRingtone::setVibrationRingtoneUrl(class QUrl const &)
	?setVideoRingtoneUrl@QContactRingtone@QtMobility@@QAEXABVQUrl@@@Z @ 772 NONAME ; void QtMobility::QContactRingtone::setVideoRingtoneUrl(class QUrl const &)
	?setVideoUrl@QContactAvatar@QtMobility@@QAEXABVQUrl@@@Z @ 773 NONAME ; void QtMobility::QContactAvatar::setVideoUrl(class QUrl const &)
	?since@QContactChangeLogFilter@QtMobility@@QBE?AVQDateTime@@XZ @ 774 NONAME ; class QDateTime QtMobility::QContactChangeLogFilter::since(void) const
	?sortContacts@QContactManagerEngine@QtMobility@@SA?AV?$QList@I@@ABV?$QList@VQContact@QtMobility@@@@ABV?$QList@VQContactSortOrder@QtMobility@@@@@Z @ 775 NONAME ; class QList<unsigned int> QtMobility::QContactManagerEngine::sortContacts(class QList<class QtMobility::QContact> const &, class QList<class QtMobility::QContactSortOrder> const &)
	?sorting@QContactFetchRequest@QtMobility@@QBE?AV?$QList@VQContactSortOrder@QtMobility@@@@XZ @ 776 NONAME ; class QList<class QtMobility::QContactSortOrder> QtMobility::QContactFetchRequest::sorting(void) const
	?sorting@QContactLocalIdFetchRequest@QtMobility@@QBE?AV?$QList@VQContactSortOrder@QtMobility@@@@XZ @ 777 NONAME ; class QList<class QtMobility::QContactSortOrder> QtMobility::QContactLocalIdFetchRequest::sorting(void) const
	?speed@QContactGeoLocation@QtMobility@@QBENXZ @ 778 NONAME ; double QtMobility::QContactGeoLocation::speed(void) const
	?spouse@QContactFamily@QtMobility@@QBE?AVQString@@XZ @ 779 NONAME ; class QString QtMobility::QContactFamily::spouse(void) const
	?start@QContactAbstractRequest@QtMobility@@QAE_NXZ @ 780 NONAME ; bool QtMobility::QContactAbstractRequest::start(void)
	?startRequest@QContactManagerEngine@QtMobility@@UAE_NPAVQContactAbstractRequest@2@@Z @ 781 NONAME ; bool QtMobility::QContactManagerEngine::startRequest(class QtMobility::QContactAbstractRequest *)
	?state@QContactAbstractRequest@QtMobility@@QBE?AW4State@12@XZ @ 782 NONAME ; enum QtMobility::QContactAbstractRequest::State QtMobility::QContactAbstractRequest::state(void) const
	?stateChanged@QContactAbstractRequest@QtMobility@@IAEXW4State@12@@Z @ 783 NONAME ; void QtMobility::QContactAbstractRequest::stateChanged(enum QtMobility::QContactAbstractRequest::State)
	?stateChanged@QContactAction@QtMobility@@IAEXW4State@12@@Z @ 784 NONAME ; void QtMobility::QContactAction::stateChanged(enum QtMobility::QContactAction::State)
	?street@QContactAddress@QtMobility@@QBE?AVQString@@XZ @ 785 NONAME ; class QString QtMobility::QContactAddress::street(void) const
	?subType@QContactAnniversary@QtMobility@@QBE?AVQString@@XZ @ 786 NONAME ; class QString QtMobility::QContactAnniversary::subType(void) const
	?subType@QContactUrl@QtMobility@@QBE?AVQString@@XZ @ 787 NONAME ; class QString QtMobility::QContactUrl::subType(void) const
	?subTypes@QContactAddress@QtMobility@@QBE?AVQStringList@@XZ @ 788 NONAME ; class QStringList QtMobility::QContactAddress::subTypes(void) const
	?subTypes@QContactOnlineAccount@QtMobility@@QBE?AVQStringList@@XZ @ 789 NONAME ; class QStringList QtMobility::QContactOnlineAccount::subTypes(void) const
	?subTypes@QContactPhoneNumber@QtMobility@@QBE?AVQStringList@@XZ @ 790 NONAME ; class QStringList QtMobility::QContactPhoneNumber::subTypes(void) const
	?suffix@QContactName@QtMobility@@QBE?AVQString@@XZ @ 791 NONAME ; class QString QtMobility::QContactName::suffix(void) const
	?supportedContactTypes@QContactManager@QtMobility@@QBE?AVQStringList@@XZ @ 792 NONAME ; class QStringList QtMobility::QContactManager::supportedContactTypes(void) const
	?supportedContactTypes@QContactManagerEngine@QtMobility@@UBE?AVQStringList@@XZ @ 793 NONAME ; class QStringList QtMobility::QContactManagerEngine::supportedContactTypes(void) const
	?supportedDataTypes@QContactManager@QtMobility@@QBE?AV?$QList@W4Type@QVariant@@@@XZ @ 794 NONAME ; class QList<enum QVariant::Type> QtMobility::QContactManager::supportedDataTypes(void) const
	?supportedDataTypes@QContactManagerEngine@QtMobility@@UBE?AV?$QList@W4Type@QVariant@@@@XZ @ 795 NONAME ; class QList<enum QVariant::Type> QtMobility::QContactManagerEngine::supportedDataTypes(void) const
	?supportedDetails@QContactAction@QtMobility@@UBE?AV?$QList@VQContactDetail@QtMobility@@@@ABVQContact@2@@Z @ 796 NONAME ; class QList<class QtMobility::QContactDetail> QtMobility::QContactAction::supportedDetails(class QtMobility::QContact const &) const
	?supportedImplementationVersions@QContactManagerEngineFactory@QtMobility@@UBE?AV?$QList@H@@XZ @ 797 NONAME ; class QList<int> QtMobility::QContactManagerEngineFactory::supportedImplementationVersions(void) const
	?syncTarget@QContactSyncTarget@QtMobility@@QBE?AVQString@@XZ @ 798 NONAME ; class QString QtMobility::QContactSyncTarget::syncTarget(void) const
	?synthesizedDisplayLabel@QContactManager@QtMobility@@QBE?AVQString@@ABVQContact@2@@Z @ 799 NONAME ; class QString QtMobility::QContactManager::synthesizedDisplayLabel(class QtMobility::QContact const &) const
	?synthesizedDisplayLabel@QContactManagerEngine@QtMobility@@UBE?AVQString@@ABVQContact@2@PAW4Error@QContactManager@2@@Z @ 800 NONAME ; class QString QtMobility::QContactManagerEngine::synthesizedDisplayLabel(class QtMobility::QContact const &, enum QtMobility::QContactManager::Error *) const
	?tag@QContactTag@QtMobility@@QBE?AVQString@@XZ @ 801 NONAME ; class QString QtMobility::QContactTag::tag(void) const
	?testFilter@QContactManagerEngine@QtMobility@@SA_NABVQContactFilter@2@ABVQContact@2@@Z @ 802 NONAME ; bool QtMobility::QContactManagerEngine::testFilter(class QtMobility::QContactFilter const &, class QtMobility::QContact const &)
	?thumbnail@QContactThumbnail@QtMobility@@QBE?AVQImage@@XZ @ 803 NONAME ; class QImage QtMobility::QContactThumbnail::thumbnail(void) const
	?timestamp@QContactGeoLocation@QtMobility@@QBE?AVQDateTime@@XZ @ 804 NONAME ; class QDateTime QtMobility::QContactGeoLocation::timestamp(void) const
	?timestamp@QContactGlobalPresence@QtMobility@@QBE?AVQDateTime@@XZ @ 805 NONAME ; class QDateTime QtMobility::QContactGlobalPresence::timestamp(void) const
	?timestamp@QContactPresence@QtMobility@@QBE?AVQDateTime@@XZ @ 806 NONAME ; class QDateTime QtMobility::QContactPresence::timestamp(void) const
	?title@QContactOrganization@QtMobility@@QBE?AVQString@@XZ @ 807 NONAME ; class QString QtMobility::QContactOrganization::title(void) const
	?tr@QContactAbstractRequest@QtMobility@@SA?AVQString@@PBD0@Z @ 808 NONAME ; class QString QtMobility::QContactAbstractRequest::tr(char const *, char const *)
	?tr@QContactAbstractRequest@QtMobility@@SA?AVQString@@PBD0H@Z @ 809 NONAME ; class QString QtMobility::QContactAbstractRequest::tr(char const *, char const *, int)
	?tr@QContactAction@QtMobility@@SA?AVQString@@PBD0@Z @ 810 NONAME ; class QString QtMobility::QContactAction::tr(char const *, char const *)
	?tr@QContactAction@QtMobility@@SA?AVQString@@PBD0H@Z @ 811 NONAME ; class QString QtMobility::QContactAction::tr(char const *, char const *, int)
	?tr@QContactActionFactory@QtMobility@@SA?AVQString@@PBD0@Z @ 812 NONAME ; class QString QtMobility::QContactActionFactory::tr(char const *, char const *)
	?tr@QContactActionFactory@QtMobility@@SA?AVQString@@PBD0H@Z @ 813 NONAME ; class QString QtMobility::QContactActionFactory::tr(char const *, char const *, int)
	?tr@QContactDetailDefinitionFetchRequest@QtMobility@@SA?AVQString@@PBD0@Z @ 814 NONAME ; class QString QtMobility::QContactDetailDefinitionFetchRequest::tr(char const *, char const *)
	?tr@QContactDetailDefinitionFetchRequest@QtMobility@@SA?AVQString@@PBD0H@Z @ 815 NONAME ; class QString QtMobility::QContactDetailDefinitionFetchRequest::tr(char const *, char const *, int)
	?tr@QContactDetailDefinitionRemoveRequest@QtMobility@@SA?AVQString@@PBD0@Z @ 816 NONAME ; class QString QtMobility::QContactDetailDefinitionRemoveRequest::tr(char const *, char const *)
	?tr@QContactDetailDefinitionRemoveRequest@QtMobility@@SA?AVQString@@PBD0H@Z @ 817 NONAME ; class QString QtMobility::QContactDetailDefinitionRemoveRequest::tr(char const *, char const *, int)
	?tr@QContactDetailDefinitionSaveRequest@QtMobility@@SA?AVQString@@PBD0@Z @ 818 NONAME ; class QString QtMobility::QContactDetailDefinitionSaveRequest::tr(char const *, char const *)
	?tr@QContactDetailDefinitionSaveRequest@QtMobility@@SA?AVQString@@PBD0H@Z @ 819 NONAME ; class QString QtMobility::QContactDetailDefinitionSaveRequest::tr(char const *, char const *, int)
	?tr@QContactFetchRequest@QtMobility@@SA?AVQString@@PBD0@Z @ 820 NONAME ; class QString QtMobility::QContactFetchRequest::tr(char const *, char const *)
	?tr@QContactFetchRequest@QtMobility@@SA?AVQString@@PBD0H@Z @ 821 NONAME ; class QString QtMobility::QContactFetchRequest::tr(char const *, char const *, int)
	?tr@QContactLocalIdFetchRequest@QtMobility@@SA?AVQString@@PBD0@Z @ 822 NONAME ; class QString QtMobility::QContactLocalIdFetchRequest::tr(char const *, char const *)
	?tr@QContactLocalIdFetchRequest@QtMobility@@SA?AVQString@@PBD0H@Z @ 823 NONAME ; class QString QtMobility::QContactLocalIdFetchRequest::tr(char const *, char const *, int)
	?tr@QContactManager@QtMobility@@SA?AVQString@@PBD0@Z @ 824 NONAME ; class QString QtMobility::QContactManager::tr(char const *, char const *)
	?tr@QContactManager@QtMobility@@SA?AVQString@@PBD0H@Z @ 825 NONAME ; class QString QtMobility::QContactManager::tr(char const *, char const *, int)
	?tr@QContactManagerEngine@QtMobility@@SA?AVQString@@PBD0@Z @ 826 NONAME ; class QString QtMobility::QContactManagerEngine::tr(char const *, char const *)
	?tr@QContactManagerEngine@QtMobility@@SA?AVQString@@PBD0H@Z @ 827 NONAME ; class QString QtMobility::QContactManagerEngine::tr(char const *, char const *, int)
	?tr@QContactRelationshipFetchRequest@QtMobility@@SA?AVQString@@PBD0@Z @ 828 NONAME ; class QString QtMobility::QContactRelationshipFetchRequest::tr(char const *, char const *)
	?tr@QContactRelationshipFetchRequest@QtMobility@@SA?AVQString@@PBD0H@Z @ 829 NONAME ; class QString QtMobility::QContactRelationshipFetchRequest::tr(char const *, char const *, int)
	?tr@QContactRelationshipRemoveRequest@QtMobility@@SA?AVQString@@PBD0@Z @ 830 NONAME ; class QString QtMobility::QContactRelationshipRemoveRequest::tr(char const *, char const *)
	?tr@QContactRelationshipRemoveRequest@QtMobility@@SA?AVQString@@PBD0H@Z @ 831 NONAME ; class QString QtMobility::QContactRelationshipRemoveRequest::tr(char const *, char const *, int)
	?tr@QContactRelationshipSaveRequest@QtMobility@@SA?AVQString@@PBD0@Z @ 832 NONAME ; class QString QtMobility::QContactRelationshipSaveRequest::tr(char const *, char const *)
	?tr@QContactRelationshipSaveRequest@QtMobility@@SA?AVQString@@PBD0H@Z @ 833 NONAME ; class QString QtMobility::QContactRelationshipSaveRequest::tr(char const *, char const *, int)
	?tr@QContactRemoveRequest@QtMobility@@SA?AVQString@@PBD0@Z @ 834 NONAME ; class QString QtMobility::QContactRemoveRequest::tr(char const *, char const *)
	?tr@QContactRemoveRequest@QtMobility@@SA?AVQString@@PBD0H@Z @ 835 NONAME ; class QString QtMobility::QContactRemoveRequest::tr(char const *, char const *, int)
	?tr@QContactSaveRequest@QtMobility@@SA?AVQString@@PBD0@Z @ 836 NONAME ; class QString QtMobility::QContactSaveRequest::tr(char const *, char const *)
	?tr@QContactSaveRequest@QtMobility@@SA?AVQString@@PBD0H@Z @ 837 NONAME ; class QString QtMobility::QContactSaveRequest::tr(char const *, char const *, int)
	?trUtf8@QContactAbstractRequest@QtMobility@@SA?AVQString@@PBD0@Z @ 838 NONAME ; class QString QtMobility::QContactAbstractRequest::trUtf8(char const *, char const *)
	?trUtf8@QContactAbstractRequest@QtMobility@@SA?AVQString@@PBD0H@Z @ 839 NONAME ; class QString QtMobility::QContactAbstractRequest::trUtf8(char const *, char const *, int)
	?trUtf8@QContactAction@QtMobility@@SA?AVQString@@PBD0@Z @ 840 NONAME ; class QString QtMobility::QContactAction::trUtf8(char const *, char const *)
	?trUtf8@QContactAction@QtMobility@@SA?AVQString@@PBD0H@Z @ 841 NONAME ; class QString QtMobility::QContactAction::trUtf8(char const *, char const *, int)
	?trUtf8@QContactActionFactory@QtMobility@@SA?AVQString@@PBD0@Z @ 842 NONAME ; class QString QtMobility::QContactActionFactory::trUtf8(char const *, char const *)
	?trUtf8@QContactActionFactory@QtMobility@@SA?AVQString@@PBD0H@Z @ 843 NONAME ; class QString QtMobility::QContactActionFactory::trUtf8(char const *, char const *, int)
	?trUtf8@QContactDetailDefinitionFetchRequest@QtMobility@@SA?AVQString@@PBD0@Z @ 844 NONAME ; class QString QtMobility::QContactDetailDefinitionFetchRequest::trUtf8(char const *, char const *)
	?trUtf8@QContactDetailDefinitionFetchRequest@QtMobility@@SA?AVQString@@PBD0H@Z @ 845 NONAME ; class QString QtMobility::QContactDetailDefinitionFetchRequest::trUtf8(char const *, char const *, int)
	?trUtf8@QContactDetailDefinitionRemoveRequest@QtMobility@@SA?AVQString@@PBD0@Z @ 846 NONAME ; class QString QtMobility::QContactDetailDefinitionRemoveRequest::trUtf8(char const *, char const *)
	?trUtf8@QContactDetailDefinitionRemoveRequest@QtMobility@@SA?AVQString@@PBD0H@Z @ 847 NONAME ; class QString QtMobility::QContactDetailDefinitionRemoveRequest::trUtf8(char const *, char const *, int)
	?trUtf8@QContactDetailDefinitionSaveRequest@QtMobility@@SA?AVQString@@PBD0@Z @ 848 NONAME ; class QString QtMobility::QContactDetailDefinitionSaveRequest::trUtf8(char const *, char const *)
	?trUtf8@QContactDetailDefinitionSaveRequest@QtMobility@@SA?AVQString@@PBD0H@Z @ 849 NONAME ; class QString QtMobility::QContactDetailDefinitionSaveRequest::trUtf8(char const *, char const *, int)
	?trUtf8@QContactFetchRequest@QtMobility@@SA?AVQString@@PBD0@Z @ 850 NONAME ; class QString QtMobility::QContactFetchRequest::trUtf8(char const *, char const *)
	?trUtf8@QContactFetchRequest@QtMobility@@SA?AVQString@@PBD0H@Z @ 851 NONAME ; class QString QtMobility::QContactFetchRequest::trUtf8(char const *, char const *, int)
	?trUtf8@QContactLocalIdFetchRequest@QtMobility@@SA?AVQString@@PBD0@Z @ 852 NONAME ; class QString QtMobility::QContactLocalIdFetchRequest::trUtf8(char const *, char const *)
	?trUtf8@QContactLocalIdFetchRequest@QtMobility@@SA?AVQString@@PBD0H@Z @ 853 NONAME ; class QString QtMobility::QContactLocalIdFetchRequest::trUtf8(char const *, char const *, int)
	?trUtf8@QContactManager@QtMobility@@SA?AVQString@@PBD0@Z @ 854 NONAME ; class QString QtMobility::QContactManager::trUtf8(char const *, char const *)
	?trUtf8@QContactManager@QtMobility@@SA?AVQString@@PBD0H@Z @ 855 NONAME ; class QString QtMobility::QContactManager::trUtf8(char const *, char const *, int)
	?trUtf8@QContactManagerEngine@QtMobility@@SA?AVQString@@PBD0@Z @ 856 NONAME ; class QString QtMobility::QContactManagerEngine::trUtf8(char const *, char const *)
	?trUtf8@QContactManagerEngine@QtMobility@@SA?AVQString@@PBD0H@Z @ 857 NONAME ; class QString QtMobility::QContactManagerEngine::trUtf8(char const *, char const *, int)
	?trUtf8@QContactRelationshipFetchRequest@QtMobility@@SA?AVQString@@PBD0@Z @ 858 NONAME ; class QString QtMobility::QContactRelationshipFetchRequest::trUtf8(char const *, char const *)
	?trUtf8@QContactRelationshipFetchRequest@QtMobility@@SA?AVQString@@PBD0H@Z @ 859 NONAME ; class QString QtMobility::QContactRelationshipFetchRequest::trUtf8(char const *, char const *, int)
	?trUtf8@QContactRelationshipRemoveRequest@QtMobility@@SA?AVQString@@PBD0@Z @ 860 NONAME ; class QString QtMobility::QContactRelationshipRemoveRequest::trUtf8(char const *, char const *)
	?trUtf8@QContactRelationshipRemoveRequest@QtMobility@@SA?AVQString@@PBD0H@Z @ 861 NONAME ; class QString QtMobility::QContactRelationshipRemoveRequest::trUtf8(char const *, char const *, int)
	?trUtf8@QContactRelationshipSaveRequest@QtMobility@@SA?AVQString@@PBD0@Z @ 862 NONAME ; class QString QtMobility::QContactRelationshipSaveRequest::trUtf8(char const *, char const *)
	?trUtf8@QContactRelationshipSaveRequest@QtMobility@@SA?AVQString@@PBD0H@Z @ 863 NONAME ; class QString QtMobility::QContactRelationshipSaveRequest::trUtf8(char const *, char const *, int)
	?trUtf8@QContactRemoveRequest@QtMobility@@SA?AVQString@@PBD0@Z @ 864 NONAME ; class QString QtMobility::QContactRemoveRequest::trUtf8(char const *, char const *)
	?trUtf8@QContactRemoveRequest@QtMobility@@SA?AVQString@@PBD0H@Z @ 865 NONAME ; class QString QtMobility::QContactRemoveRequest::trUtf8(char const *, char const *, int)
	?trUtf8@QContactSaveRequest@QtMobility@@SA?AVQString@@PBD0@Z @ 866 NONAME ; class QString QtMobility::QContactSaveRequest::trUtf8(char const *, char const *)
	?trUtf8@QContactSaveRequest@QtMobility@@SA?AVQString@@PBD0H@Z @ 867 NONAME ; class QString QtMobility::QContactSaveRequest::trUtf8(char const *, char const *, int)
	?type@QContact@QtMobility@@QBE?AVQString@@XZ @ 868 NONAME ; class QString QtMobility::QContact::type(void) const
	?type@QContactAbstractRequest@QtMobility@@QBE?AW4RequestType@12@XZ @ 869 NONAME ; enum QtMobility::QContactAbstractRequest::RequestType QtMobility::QContactAbstractRequest::type(void) const
	?type@QContactFilter@QtMobility@@QBE?AW4FilterType@12@XZ @ 870 NONAME ; enum QtMobility::QContactFilter::FilterType QtMobility::QContactFilter::type(void) const
	?type@QContactType@QtMobility@@QBE?AVQString@@XZ @ 871 NONAME ; class QString QtMobility::QContactType::type(void) const
	?updateContactFetchRequest@QContactManagerEngine@QtMobility@@SAXPAVQContactFetchRequest@2@ABV?$QList@VQContact@QtMobility@@@@W4Error@QContactManager@2@W4State@QContactAbstractRequest@2@@Z @ 872 NONAME ; void QtMobility::QContactManagerEngine::updateContactFetchRequest(class QtMobility::QContactFetchRequest *, class QList<class QtMobility::QContact> const &, enum QtMobility::QContactManager::Error, enum QtMobility::QContactAbstractRequest::State)
	?updateContactLocalIdFetchRequest@QContactManagerEngine@QtMobility@@SAXPAVQContactLocalIdFetchRequest@2@ABV?$QList@I@@W4Error@QContactManager@2@W4State@QContactAbstractRequest@2@@Z @ 873 NONAME ; void QtMobility::QContactManagerEngine::updateContactLocalIdFetchRequest(class QtMobility::QContactLocalIdFetchRequest *, class QList<unsigned int> const &, enum QtMobility::QContactManager::Error, enum QtMobility::QContactAbstractRequest::State)
	?updateContactRemoveRequest@QContactManagerEngine@QtMobility@@SAXPAVQContactRemoveRequest@2@W4Error@QContactManager@2@ABV?$QMap@HW4Error@QContactManager@QtMobility@@@@W4State@QContactAbstractRequest@2@@Z @ 874 NONAME ; void QtMobility::QContactManagerEngine::updateContactRemoveRequest(class QtMobility::QContactRemoveRequest *, enum QtMobility::QContactManager::Error, class QMap<int, enum QtMobility::QContactManager::Error> const &, enum QtMobility::QContactAbstractRequest::State)
	?updateContactSaveRequest@QContactManagerEngine@QtMobility@@SAXPAVQContactSaveRequest@2@ABV?$QList@VQContact@QtMobility@@@@W4Error@QContactManager@2@ABV?$QMap@HW4Error@QContactManager@QtMobility@@@@W4State@QContactAbstractRequest@2@@Z @ 875 NONAME ; void QtMobility::QContactManagerEngine::updateContactSaveRequest(class QtMobility::QContactSaveRequest *, class QList<class QtMobility::QContact> const &, enum QtMobility::QContactManager::Error, class QMap<int, enum QtMobility::QContactManager::Error> const &, enum QtMobility::QContactAbstractRequest::State)
	?updateDefinitionFetchRequest@QContactManagerEngine@QtMobility@@SAXPAVQContactDetailDefinitionFetchRequest@2@ABV?$QMap@VQString@@VQContactDetailDefinition@QtMobility@@@@W4Error@QContactManager@2@ABV?$QMap@HW4Error@QContactManager@QtMobility@@@@W4State@QContactAbstractRequest@2@@Z @ 876 NONAME ; void QtMobility::QContactManagerEngine::updateDefinitionFetchRequest(class QtMobility::QContactDetailDefinitionFetchRequest *, class QMap<class QString, class QtMobility::QContactDetailDefinition> const &, enum QtMobility::QContactManager::Error, class QMap<int, enum QtMobility::QContactManager::Error> const &, enum QtMobility::QContactAbstractRequest::State)
	?updateDefinitionRemoveRequest@QContactManagerEngine@QtMobility@@SAXPAVQContactDetailDefinitionRemoveRequest@2@W4Error@QContactManager@2@ABV?$QMap@HW4Error@QContactManager@QtMobility@@@@W4State@QContactAbstractRequest@2@@Z @ 877 NONAME ; void QtMobility::QContactManagerEngine::updateDefinitionRemoveRequest(class QtMobility::QContactDetailDefinitionRemoveRequest *, enum QtMobility::QContactManager::Error, class QMap<int, enum QtMobility::QContactManager::Error> const &, enum QtMobility::QContactAbstractRequest::State)
	?updateDefinitionSaveRequest@QContactManagerEngine@QtMobility@@SAXPAVQContactDetailDefinitionSaveRequest@2@ABV?$QList@VQContactDetailDefinition@QtMobility@@@@W4Error@QContactManager@2@ABV?$QMap@HW4Error@QContactManager@QtMobility@@@@W4State@QContactAbstractRequest@2@@Z @ 878 NONAME ; void QtMobility::QContactManagerEngine::updateDefinitionSaveRequest(class QtMobility::QContactDetailDefinitionSaveRequest *, class QList<class QtMobility::QContactDetailDefinition> const &, enum QtMobility::QContactManager::Error, class QMap<int, enum QtMobility::QContactManager::Error> const &, enum QtMobility::QContactAbstractRequest::State)
	?updateRelationshipFetchRequest@QContactManagerEngine@QtMobility@@SAXPAVQContactRelationshipFetchRequest@2@ABV?$QList@VQContactRelationship@QtMobility@@@@W4Error@QContactManager@2@W4State@QContactAbstractRequest@2@@Z @ 879 NONAME ; void QtMobility::QContactManagerEngine::updateRelationshipFetchRequest(class QtMobility::QContactRelationshipFetchRequest *, class QList<class QtMobility::QContactRelationship> const &, enum QtMobility::QContactManager::Error, enum QtMobility::QContactAbstractRequest::State)
	?updateRelationshipRemoveRequest@QContactManagerEngine@QtMobility@@SAXPAVQContactRelationshipRemoveRequest@2@W4Error@QContactManager@2@ABV?$QMap@HW4Error@QContactManager@QtMobility@@@@W4State@QContactAbstractRequest@2@@Z @ 880 NONAME ; void QtMobility::QContactManagerEngine::updateRelationshipRemoveRequest(class QtMobility::QContactRelationshipRemoveRequest *, enum QtMobility::QContactManager::Error, class QMap<int, enum QtMobility::QContactManager::Error> const &, enum QtMobility::QContactAbstractRequest::State)
	?updateRelationshipSaveRequest@QContactManagerEngine@QtMobility@@SAXPAVQContactRelationshipSaveRequest@2@ABV?$QList@VQContactRelationship@QtMobility@@@@W4Error@QContactManager@2@ABV?$QMap@HW4Error@QContactManager@QtMobility@@@@W4State@QContactAbstractRequest@2@@Z @ 881 NONAME ; void QtMobility::QContactManagerEngine::updateRelationshipSaveRequest(class QtMobility::QContactRelationshipSaveRequest *, class QList<class QtMobility::QContactRelationship> const &, enum QtMobility::QContactManager::Error, class QMap<int, enum QtMobility::QContactManager::Error> const &, enum QtMobility::QContactAbstractRequest::State)
	?updateRequestState@QContactManagerEngine@QtMobility@@SAXPAVQContactAbstractRequest@2@W4State@32@@Z @ 882 NONAME ; void QtMobility::QContactManagerEngine::updateRequestState(class QtMobility::QContactAbstractRequest *, enum QtMobility::QContactAbstractRequest::State)
	?url@QContactUrl@QtMobility@@QBE?AVQString@@XZ @ 883 NONAME ; class QString QtMobility::QContactUrl::url(void) const
	?validateActionFilter@QContactManagerEngine@QtMobility@@SA_NABVQContactFilter@2@@Z @ 884 NONAME ; bool QtMobility::QContactManagerEngine::validateActionFilter(class QtMobility::QContactFilter const &)
	?validateContact@QContactManagerEngine@QtMobility@@UBE_NABVQContact@2@PAW4Error@QContactManager@2@@Z @ 885 NONAME ; bool QtMobility::QContactManagerEngine::validateContact(class QtMobility::QContact const &, enum QtMobility::QContactManager::Error *) const
	?validateDefinition@QContactManagerEngine@QtMobility@@UBE_NABVQContactDetailDefinition@2@PAW4Error@QContactManager@2@@Z @ 886 NONAME ; bool QtMobility::QContactManagerEngine::validateDefinition(class QtMobility::QContactDetailDefinition const &, enum QtMobility::QContactManager::Error *) const
	?value@QContactActionFilter@QtMobility@@QBE?AVQVariant@@XZ @ 887 NONAME ; class QVariant QtMobility::QContactActionFilter::value(void) const
	?value@QContactDetail@QtMobility@@QBE?AVQString@@ABV3@@Z @ 888 NONAME ; class QString QtMobility::QContactDetail::value(class QString const &) const
	?value@QContactDetail@QtMobility@@QBE?AVQString@@PBD@Z @ 889 NONAME ; class QString QtMobility::QContactDetail::value(char const *) const
	?value@QContactDetailFilter@QtMobility@@QBE?AVQVariant@@XZ @ 890 NONAME ; class QVariant QtMobility::QContactDetailFilter::value(void) const
	?variantValue@QContactDetail@QtMobility@@QBE?AVQVariant@@ABVQString@@@Z @ 891 NONAME ; class QVariant QtMobility::QContactDetail::variantValue(class QString const &) const
	?variantValue@QContactDetail@QtMobility@@QBE?AVQVariant@@PBD@Z @ 892 NONAME ; class QVariant QtMobility::QContactDetail::variantValue(char const *) const
	?variantValues@QContactDetail@QtMobility@@QBE?AV?$QMap@VQString@@VQVariant@@@@XZ @ 893 NONAME ; class QMap<class QString, class QVariant> QtMobility::QContactDetail::variantValues(void) const
	?vendorName@QContactActionDescriptor@QtMobility@@QBE?AVQString@@XZ @ 894 NONAME ; class QString QtMobility::QContactActionDescriptor::vendorName(void) const
	?vendorName@QContactActionFilter@QtMobility@@QBE?AVQString@@XZ @ 895 NONAME ; class QString QtMobility::QContactActionFilter::vendorName(void) const
	?vibrationRingtoneUrl@QContactRingtone@QtMobility@@QBE?AVQUrl@@XZ @ 896 NONAME ; class QUrl QtMobility::QContactRingtone::vibrationRingtoneUrl(void) const
	?videoRingtoneUrl@QContactRingtone@QtMobility@@QBE?AVQUrl@@XZ @ 897 NONAME ; class QUrl QtMobility::QContactRingtone::videoRingtoneUrl(void) const
	?videoUrl@QContactAvatar@QtMobility@@QBE?AVQUrl@@XZ @ 898 NONAME ; class QUrl QtMobility::QContactAvatar::videoUrl(void) const
	?waitForFinished@QContactAbstractRequest@QtMobility@@QAE_NH@Z @ 899 NONAME ; bool QtMobility::QContactAbstractRequest::waitForFinished(int)
	?waitForRequestFinished@QContactManagerEngine@QtMobility@@UAE_NPAVQContactAbstractRequest@2@H@Z @ 900 NONAME ; bool QtMobility::QContactManagerEngine::waitForRequestFinished(class QtMobility::QContactAbstractRequest *, int)
	?SubTypeImpp@QContactOnlineAccount@QtMobility@@2U?$QLatin1Constant@$04@2@B @ 901 NONAME ; struct QtMobility::QLatin1Constant<5> const QtMobility::QContactOnlineAccount::SubTypeImpp
	?DefinitionName@QContactSyncTarget@QtMobility@@2U?$QLatin1Constant@$0L@@2@B @ 902 NONAME ; struct QtMobility::QLatin1Constant<11> const QtMobility::QContactSyncTarget::DefinitionName
	?GenderFemale@QContactGender@QtMobility@@2U?$QLatin1Constant@$06@2@B @ 903 NONAME ; struct QtMobility::QLatin1Constant<7> const QtMobility::QContactGender::GenderFemale
	?SubTypeVideoShare@QContactOnlineAccount@QtMobility@@2U?$QLatin1Constant@$0L@@2@B @ 904 NONAME ; struct QtMobility::QLatin1Constant<11> const QtMobility::QContactOnlineAccount::SubTypeVideoShare
	?SubTypeMemorial@QContactAnniversary@QtMobility@@2U?$QLatin1Constant@$08@2@B @ 905 NONAME ; struct QtMobility::QLatin1Constant<9> const QtMobility::QContactAnniversary::SubTypeMemorial
	?DefinitionName@QContactGeoLocation@QtMobility@@2U?$QLatin1Constant@$0M@@2@B @ 906 NONAME ; struct QtMobility::QLatin1Constant<12> const QtMobility::QContactGeoLocation::DefinitionName
	?DefinitionName@QContactAddress@QtMobility@@2U?$QLatin1Constant@$07@2@B @ 907 NONAME ; struct QtMobility::QLatin1Constant<8> const QtMobility::QContactAddress::DefinitionName
	?FieldDepartment@QContactOrganization@QtMobility@@2U?$QLatin1Constant@$0L@@2@B @ 908 NONAME ; struct QtMobility::QLatin1Constant<11> const QtMobility::QContactOrganization::FieldDepartment
	?FieldNote@QContactNote@QtMobility@@2U?$QLatin1Constant@$04@2@B @ 909 NONAME ; struct QtMobility::QLatin1Constant<5> const QtMobility::QContactNote::FieldNote
	?FieldNickname@QContactGlobalPresence@QtMobility@@2U?$QLatin1Constant@$08@2@B @ 910 NONAME ; struct QtMobility::QLatin1Constant<9> const QtMobility::QContactGlobalPresence::FieldNickname
	?DefinitionName@QContactUrl@QtMobility@@2U?$QLatin1Constant@$03@2@B @ 911 NONAME ; struct QtMobility::QLatin1Constant<4> const QtMobility::QContactUrl::DefinitionName
	?SubTypeEmployment@QContactAnniversary@QtMobility@@2U?$QLatin1Constant@$0L@@2@B @ 912 NONAME ; struct QtMobility::QLatin1Constant<11> const QtMobility::QContactAnniversary::SubTypeEmployment
	?SubTypeLandline@QContactPhoneNumber@QtMobility@@2U?$QLatin1Constant@$08@2@B @ 913 NONAME ; struct QtMobility::QLatin1Constant<9> const QtMobility::QContactPhoneNumber::SubTypeLandline
	?HasManager@QContactRelationship@QtMobility@@2U?$QLatin1Constant@$0L@@2@B @ 914 NONAME ; struct QtMobility::QLatin1Constant<11> const QtMobility::QContactRelationship::HasManager
	?FieldDetailUri@QContactDetail@QtMobility@@2U?$QLatin1Constant@$09@2@B @ 915 NONAME ; struct QtMobility::QLatin1Constant<10> const QtMobility::QContactDetail::FieldDetailUri
	?ContextOther@QContactDetail@QtMobility@@2U?$QLatin1Constant@$05@2@B @ 916 NONAME ; struct QtMobility::QLatin1Constant<6> const QtMobility::QContactDetail::ContextOther
	?FieldOriginalDate@QContactAnniversary@QtMobility@@2U?$QLatin1Constant@$0N@@2@B @ 917 NONAME ; struct QtMobility::QLatin1Constant<13> const QtMobility::QContactAnniversary::FieldOriginalDate
	?DefinitionName@QContactType@QtMobility@@2U?$QLatin1Constant@$04@2@B @ 918 NONAME ; struct QtMobility::QLatin1Constant<5> const QtMobility::QContactType::DefinitionName
	?FieldNumber@QContactPhoneNumber@QtMobility@@2U?$QLatin1Constant@$0M@@2@B @ 919 NONAME ; struct QtMobility::QLatin1Constant<12> const QtMobility::QContactPhoneNumber::FieldNumber
	?FieldPresenceStateText@QContactPresence@QtMobility@@2U?$QLatin1Constant@$0BC@@2@B @ 920 NONAME ; struct QtMobility::QLatin1Constant<18> const QtMobility::QContactPresence::FieldPresenceStateText
	?SubTypeHouse@QContactAnniversary@QtMobility@@2U?$QLatin1Constant@$05@2@B @ 921 NONAME ; struct QtMobility::QLatin1Constant<6> const QtMobility::QContactAnniversary::SubTypeHouse
	?SubTypeHomePage@QContactUrl@QtMobility@@2U?$QLatin1Constant@$08@2@B @ 922 NONAME ; struct QtMobility::QLatin1Constant<9> const QtMobility::QContactUrl::SubTypeHomePage
	?FieldGuid@QContactGuid@QtMobility@@2U?$QLatin1Constant@$04@2@B @ 923 NONAME ; struct QtMobility::QLatin1Constant<5> const QtMobility::QContactGuid::FieldGuid
	?staticMetaObject@QContactRelationshipSaveRequest@QtMobility@@2UQMetaObject@@B @ 924 NONAME ; struct QMetaObject const QtMobility::QContactRelationshipSaveRequest::staticMetaObject
	?TypeGroup@QContactType@QtMobility@@2U?$QLatin1Constant@$05@2@B @ 925 NONAME ; struct QtMobility::QLatin1Constant<6> const QtMobility::QContactType::TypeGroup
	?DefinitionName@QContactGlobalPresence@QtMobility@@2U?$QLatin1Constant@$0P@@2@B @ 926 NONAME ; struct QtMobility::QLatin1Constant<15> const QtMobility::QContactGlobalPresence::DefinitionName
	?SubTypeDtmfMenu@QContactPhoneNumber@QtMobility@@2U?$QLatin1Constant@$08@2@B @ 927 NONAME ; struct QtMobility::QLatin1Constant<9> const QtMobility::QContactPhoneNumber::SubTypeDtmfMenu
	?FieldThumbnail@QContactThumbnail@QtMobility@@2U?$QLatin1Constant@$09@2@B @ 928 NONAME ; struct QtMobility::QLatin1Constant<10> const QtMobility::QContactThumbnail::FieldThumbnail
	?staticMetaObject@QContactDetailDefinitionFetchRequest@QtMobility@@2UQMetaObject@@B @ 929 NONAME ; struct QMetaObject const QtMobility::QContactDetailDefinitionFetchRequest::staticMetaObject
	?FieldLocation@QContactOrganization@QtMobility@@2U?$QLatin1Constant@$08@2@B @ 930 NONAME ; struct QtMobility::QLatin1Constant<9> const QtMobility::QContactOrganization::FieldLocation
	?FieldPrefix@QContactName@QtMobility@@2U?$QLatin1Constant@$06@2@B @ 931 NONAME ; struct QtMobility::QLatin1Constant<7> const QtMobility::QContactName::FieldPrefix
	?HasSpouse@QContactRelationship@QtMobility@@2U?$QLatin1Constant@$09@2@B @ 932 NONAME ; struct QtMobility::QLatin1Constant<10> const QtMobility::QContactRelationship::HasSpouse
	?DefinitionName@QContactOrganization@QtMobility@@2U?$QLatin1Constant@$0N@@2@B @ 933 NONAME ; struct QtMobility::QLatin1Constant<13> const QtMobility::QContactOrganization::DefinitionName
	?FieldAccountUri@QContactOnlineAccount@QtMobility@@2U?$QLatin1Constant@$0L@@2@B @ 934 NONAME ; struct QtMobility::QLatin1Constant<11> const QtMobility::QContactOnlineAccount::FieldAccountUri
	?FieldPresenceStateImageUrl@QContactPresence@QtMobility@@2U?$QLatin1Constant@$0BG@@2@B @ 935 NONAME ; struct QtMobility::QLatin1Constant<22> const QtMobility::QContactPresence::FieldPresenceStateImageUrl
	?FieldPresenceState@QContactPresence@QtMobility@@2U?$QLatin1Constant@$0O@@2@B @ 936 NONAME ; struct QtMobility::QLatin1Constant<14> const QtMobility::QContactPresence::FieldPresenceState
	?SubTypeMessagingCapable@QContactPhoneNumber@QtMobility@@2U?$QLatin1Constant@$0BB@@2@B @ 937 NONAME ; struct QtMobility::QLatin1Constant<17> const QtMobility::QContactPhoneNumber::SubTypeMessagingCapable
	?FieldSubTypes@QContactAddress@QtMobility@@2U?$QLatin1Constant@$08@2@B @ 938 NONAME ; struct QtMobility::QLatin1Constant<9> const QtMobility::QContactAddress::FieldSubTypes
	?DefinitionName@QContactFamily@QtMobility@@2U?$QLatin1Constant@$06@2@B @ 939 NONAME ; struct QtMobility::QLatin1Constant<7> const QtMobility::QContactFamily::DefinitionName
	?SubTypeCar@QContactPhoneNumber@QtMobility@@2U?$QLatin1Constant@$03@2@B @ 940 NONAME ; struct QtMobility::QLatin1Constant<4> const QtMobility::QContactPhoneNumber::SubTypeCar
	?ContextWork@QContactDetail@QtMobility@@2U?$QLatin1Constant@$04@2@B @ 941 NONAME ; struct QtMobility::QLatin1Constant<5> const QtMobility::QContactDetail::ContextWork
	?SubTypePager@QContactPhoneNumber@QtMobility@@2U?$QLatin1Constant@$05@2@B @ 942 NONAME ; struct QtMobility::QLatin1Constant<6> const QtMobility::QContactPhoneNumber::SubTypePager
	?FieldCountry@QContactAddress@QtMobility@@2U?$QLatin1Constant@$07@2@B @ 943 NONAME ; struct QtMobility::QLatin1Constant<8> const QtMobility::QContactAddress::FieldCountry
	?FieldSuffix@QContactName@QtMobility@@2U?$QLatin1Constant@$06@2@B @ 944 NONAME ; struct QtMobility::QLatin1Constant<7> const QtMobility::QContactName::FieldSuffix
	?FieldChildren@QContactFamily@QtMobility@@2U?$QLatin1Constant@$08@2@B @ 945 NONAME ; struct QtMobility::QLatin1Constant<9> const QtMobility::QContactFamily::FieldChildren
	?DefinitionName@QContactNote@QtMobility@@2U?$QLatin1Constant@$04@2@B @ 946 NONAME ; struct QtMobility::QLatin1Constant<5> const QtMobility::QContactNote::DefinitionName
	?staticMetaObject@QContactDetailDefinitionSaveRequest@QtMobility@@2UQMetaObject@@B @ 947 NONAME ; struct QMetaObject const QtMobility::QContactDetailDefinitionSaveRequest::staticMetaObject
	?GenderUnspecified@QContactGender@QtMobility@@2U?$QLatin1Constant@$0M@@2@B @ 948 NONAME ; struct QtMobility::QLatin1Constant<12> const QtMobility::QContactGender::GenderUnspecified
	?FieldSpouse@QContactFamily@QtMobility@@2U?$QLatin1Constant@$06@2@B @ 949 NONAME ; struct QtMobility::QLatin1Constant<7> const QtMobility::QContactFamily::FieldSpouse
	?FieldSubTypes@QContactOnlineAccount@QtMobility@@2U?$QLatin1Constant@$08@2@B @ 950 NONAME ; struct QtMobility::QLatin1Constant<9> const QtMobility::QContactOnlineAccount::FieldSubTypes
	?FieldAccuracy@QContactGeoLocation@QtMobility@@2U?$QLatin1Constant@$08@2@B @ 951 NONAME ; struct QtMobility::QLatin1Constant<9> const QtMobility::QContactGeoLocation::FieldAccuracy
	?HasAssistant@QContactRelationship@QtMobility@@2U?$QLatin1Constant@$0N@@2@B @ 952 NONAME ; struct QtMobility::QLatin1Constant<13> const QtMobility::QContactRelationship::HasAssistant
	?FieldLabel@QContactDisplayLabel@QtMobility@@2U?$QLatin1Constant@$05@2@B @ 953 NONAME ; struct QtMobility::QLatin1Constant<6> const QtMobility::QContactDisplayLabel::FieldLabel
	?SubTypeWedding@QContactAnniversary@QtMobility@@2U?$QLatin1Constant@$07@2@B @ 954 NONAME ; struct QtMobility::QLatin1Constant<8> const QtMobility::QContactAnniversary::SubTypeWedding
	?FieldVideoUrl@QContactAvatar@QtMobility@@2U?$QLatin1Constant@$08@2@B @ 955 NONAME ; struct QtMobility::QLatin1Constant<9> const QtMobility::QContactAvatar::FieldVideoUrl
	?SubTypeParcel@QContactAddress@QtMobility@@2U?$QLatin1Constant@$06@2@B @ 956 NONAME ; struct QtMobility::QLatin1Constant<7> const QtMobility::QContactAddress::SubTypeParcel
	?TypeContact@QContactType@QtMobility@@2U?$QLatin1Constant@$07@2@B @ 957 NONAME ; struct QtMobility::QLatin1Constant<8> const QtMobility::QContactType::TypeContact
	?staticMetaObject@QContactRelationshipRemoveRequest@QtMobility@@2UQMetaObject@@B @ 958 NONAME ; struct QMetaObject const QtMobility::QContactRelationshipRemoveRequest::staticMetaObject
	?FieldSpeed@QContactGeoLocation@QtMobility@@2U?$QLatin1Constant@$05@2@B @ 959 NONAME ; struct QtMobility::QLatin1Constant<6> const QtMobility::QContactGeoLocation::FieldSpeed
	?SubTypeModem@QContactPhoneNumber@QtMobility@@2U?$QLatin1Constant@$05@2@B @ 960 NONAME ; struct QtMobility::QLatin1Constant<6> const QtMobility::QContactPhoneNumber::SubTypeModem
	?DefinitionName@QContactEmailAddress@QtMobility@@2U?$QLatin1Constant@$0N@@2@B @ 961 NONAME ; struct QtMobility::QLatin1Constant<13> const QtMobility::QContactEmailAddress::DefinitionName
	?DefinitionName@QContactRingtone@QtMobility@@2U?$QLatin1Constant@$08@2@B @ 962 NONAME ; struct QtMobility::QLatin1Constant<9> const QtMobility::QContactRingtone::DefinitionName
	?DefinitionName@QContactPresence@QtMobility@@2U?$QLatin1Constant@$08@2@B @ 963 NONAME ; struct QtMobility::QLatin1Constant<9> const QtMobility::QContactPresence::DefinitionName
	?FieldEmailAddress@QContactEmailAddress@QtMobility@@2U?$QLatin1Constant@$0N@@2@B @ 964 NONAME ; struct QtMobility::QLatin1Constant<13> const QtMobility::QContactEmailAddress::FieldEmailAddress
	?SubTypeMobile@QContactPhoneNumber@QtMobility@@2U?$QLatin1Constant@$06@2@B @ 965 NONAME ; struct QtMobility::QLatin1Constant<7> const QtMobility::QContactPhoneNumber::SubTypeMobile
	?IsSameAs@QContactRelationship@QtMobility@@2U?$QLatin1Constant@$08@2@B @ 966 NONAME ; struct QtMobility::QLatin1Constant<9> const QtMobility::QContactRelationship::IsSameAs
	?FieldUrl@QContactUrl@QtMobility@@2U?$QLatin1Constant@$03@2@B @ 967 NONAME ; struct QtMobility::QLatin1Constant<4> const QtMobility::QContactUrl::FieldUrl
	?SubTypeAssistant@QContactPhoneNumber@QtMobility@@2U?$QLatin1Constant@$09@2@B @ 968 NONAME ; struct QtMobility::QLatin1Constant<10> const QtMobility::QContactPhoneNumber::SubTypeAssistant
	?FieldFirstName@QContactName@QtMobility@@2U?$QLatin1Constant@$09@2@B @ 969 NONAME ; struct QtMobility::QLatin1Constant<10> const QtMobility::QContactName::FieldFirstName
	?staticMetaObject@QContactRemoveRequest@QtMobility@@2UQMetaObject@@B @ 970 NONAME ; struct QMetaObject const QtMobility::QContactRemoveRequest::staticMetaObject
	?Aggregates@QContactRelationship@QtMobility@@2U?$QLatin1Constant@$0L@@2@B @ 971 NONAME ; struct QtMobility::QLatin1Constant<11> const QtMobility::QContactRelationship::Aggregates
	?FieldAltitude@QContactGeoLocation@QtMobility@@2U?$QLatin1Constant@$08@2@B @ 972 NONAME ; struct QtMobility::QLatin1Constant<9> const QtMobility::QContactGeoLocation::FieldAltitude
	?FieldServiceProvider@QContactOnlineAccount@QtMobility@@2U?$QLatin1Constant@$0BA@@2@B @ 973 NONAME ; struct QtMobility::QLatin1Constant<16> const QtMobility::QContactOnlineAccount::FieldServiceProvider
	?GenderMale@QContactGender@QtMobility@@2U?$QLatin1Constant@$04@2@B @ 974 NONAME ; struct QtMobility::QLatin1Constant<5> const QtMobility::QContactGender::GenderMale
	?FieldPresenceState@QContactGlobalPresence@QtMobility@@2U?$QLatin1Constant@$0O@@2@B @ 975 NONAME ; struct QtMobility::QLatin1Constant<14> const QtMobility::QContactGlobalPresence::FieldPresenceState
	?DefinitionName@QContactNickname@QtMobility@@2U?$QLatin1Constant@$08@2@B @ 976 NONAME ; struct QtMobility::QLatin1Constant<9> const QtMobility::QContactNickname::DefinitionName
	?FieldHeading@QContactGeoLocation@QtMobility@@2U?$QLatin1Constant@$07@2@B @ 977 NONAME ; struct QtMobility::QLatin1Constant<8> const QtMobility::QContactGeoLocation::FieldHeading
	?SubTypeSipVoip@QContactOnlineAccount@QtMobility@@2U?$QLatin1Constant@$07@2@B @ 978 NONAME ; struct QtMobility::QLatin1Constant<8> const QtMobility::QContactOnlineAccount::SubTypeSipVoip
	?FieldCustomMessage@QContactGlobalPresence@QtMobility@@2U?$QLatin1Constant@$0O@@2@B @ 979 NONAME ; struct QtMobility::QLatin1Constant<14> const QtMobility::QContactGlobalPresence::FieldCustomMessage
	?FieldCalendarId@QContactAnniversary@QtMobility@@2U?$QLatin1Constant@$0L@@2@B @ 980 NONAME ; struct QtMobility::QLatin1Constant<11> const QtMobility::QContactAnniversary::FieldCalendarId
	?FieldAltitudeAccuracy@QContactGeoLocation@QtMobility@@2U?$QLatin1Constant@$0BB@@2@B @ 981 NONAME ; struct QtMobility::QLatin1Constant<17> const QtMobility::QContactGeoLocation::FieldAltitudeAccuracy
	?HasMember@QContactRelationship@QtMobility@@2U?$QLatin1Constant@$09@2@B @ 982 NONAME ; struct QtMobility::QLatin1Constant<10> const QtMobility::QContactRelationship::HasMember
	?FieldName@QContactOrganization@QtMobility@@2U?$QLatin1Constant@$04@2@B @ 983 NONAME ; struct QtMobility::QLatin1Constant<5> const QtMobility::QContactOrganization::FieldName
	?FieldStreet@QContactAddress@QtMobility@@2U?$QLatin1Constant@$06@2@B @ 984 NONAME ; struct QtMobility::QLatin1Constant<7> const QtMobility::QContactAddress::FieldStreet
	?SubTypeFax@QContactPhoneNumber@QtMobility@@2U?$QLatin1Constant@$03@2@B @ 985 NONAME ; struct QtMobility::QLatin1Constant<4> const QtMobility::QContactPhoneNumber::SubTypeFax
	?FieldTimestamp@QContactGlobalPresence@QtMobility@@2U?$QLatin1Constant@$09@2@B @ 986 NONAME ; struct QtMobility::QLatin1Constant<10> const QtMobility::QContactGlobalPresence::FieldTimestamp
	?FieldLatitude@QContactGeoLocation@QtMobility@@2U?$QLatin1Constant@$08@2@B @ 987 NONAME ; struct QtMobility::QLatin1Constant<9> const QtMobility::QContactGeoLocation::FieldLatitude
	?FieldLogoUrl@QContactOrganization@QtMobility@@2U?$QLatin1Constant@$07@2@B @ 988 NONAME ; struct QtMobility::QLatin1Constant<8> const QtMobility::QContactOrganization::FieldLogoUrl
	?DefinitionName@QContactDisplayLabel@QtMobility@@2U?$QLatin1Constant@$0N@@2@B @ 989 NONAME ; struct QtMobility::QLatin1Constant<13> const QtMobility::QContactDisplayLabel::DefinitionName
	?staticMetaObject@QContactFetchRequest@QtMobility@@2UQMetaObject@@B @ 990 NONAME ; struct QMetaObject const QtMobility::QContactFetchRequest::staticMetaObject
	?FieldRole@QContactOrganization@QtMobility@@2U?$QLatin1Constant@$04@2@B @ 991 NONAME ; struct QtMobility::QLatin1Constant<5> const QtMobility::QContactOrganization::FieldRole
	?FieldNickname@QContactPresence@QtMobility@@2U?$QLatin1Constant@$08@2@B @ 992 NONAME ; struct QtMobility::QLatin1Constant<9> const QtMobility::QContactPresence::FieldNickname
	?FieldTimestamp@QContactGeoLocation@QtMobility@@2U?$QLatin1Constant@$09@2@B @ 993 NONAME ; struct QtMobility::QLatin1Constant<10> const QtMobility::QContactGeoLocation::FieldTimestamp
	?DefinitionName@QContactThumbnail@QtMobility@@2U?$QLatin1Constant@$09@2@B @ 994 NONAME ; struct QtMobility::QLatin1Constant<10> const QtMobility::QContactThumbnail::DefinitionName
	?SubTypeVideo@QContactPhoneNumber@QtMobility@@2U?$QLatin1Constant@$05@2@B @ 995 NONAME ; struct QtMobility::QLatin1Constant<6> const QtMobility::QContactPhoneNumber::SubTypeVideo
	?FieldCustomMessage@QContactPresence@QtMobility@@2U?$QLatin1Constant@$0O@@2@B @ 996 NONAME ; struct QtMobility::QLatin1Constant<14> const QtMobility::QContactPresence::FieldCustomMessage
	?SubTypeVoice@QContactPhoneNumber@QtMobility@@2U?$QLatin1Constant@$05@2@B @ 997 NONAME ; struct QtMobility::QLatin1Constant<6> const QtMobility::QContactPhoneNumber::SubTypeVoice
	?DefinitionName@QContactAnniversary@QtMobility@@2U?$QLatin1Constant@$0M@@2@B @ 998 NONAME ; struct QtMobility::QLatin1Constant<12> const QtMobility::QContactAnniversary::DefinitionName
	?FieldAudioRingtoneUrl@QContactRingtone@QtMobility@@2U?$QLatin1Constant@$0BB@@2@B @ 999 NONAME ; struct QtMobility::QLatin1Constant<17> const QtMobility::QContactRingtone::FieldAudioRingtoneUrl
	?FieldTimestamp@QContactPresence@QtMobility@@2U?$QLatin1Constant@$09@2@B @ 1000 NONAME ; struct QtMobility::QLatin1Constant<10> const QtMobility::QContactPresence::FieldTimestamp
	?FieldAssistantName@QContactOrganization@QtMobility@@2U?$QLatin1Constant@$0O@@2@B @ 1001 NONAME ; struct QtMobility::QLatin1Constant<14> const QtMobility::QContactOrganization::FieldAssistantName
	?FieldCustomLabel@QContactName@QtMobility@@2U?$QLatin1Constant@$0M@@2@B @ 1002 NONAME ; struct QtMobility::QLatin1Constant<12> const QtMobility::QContactName::FieldCustomLabel
	?SubTypeInternational@QContactAddress@QtMobility@@2U?$QLatin1Constant@$0O@@2@B @ 1003 NONAME ; struct QtMobility::QLatin1Constant<14> const QtMobility::QContactAddress::SubTypeInternational
	?SubTypeEngagement@QContactAnniversary@QtMobility@@2U?$QLatin1Constant@$0L@@2@B @ 1004 NONAME ; struct QtMobility::QLatin1Constant<11> const QtMobility::QContactAnniversary::SubTypeEngagement
	?FieldCreationTimestamp@QContactTimestamp@QtMobility@@2U?$QLatin1Constant@$0BC@@2@B @ 1005 NONAME ; struct QtMobility::QLatin1Constant<18> const QtMobility::QContactTimestamp::FieldCreationTimestamp
	?DefinitionName@QContactGuid@QtMobility@@2U?$QLatin1Constant@$04@2@B @ 1006 NONAME ; struct QtMobility::QLatin1Constant<5> const QtMobility::QContactGuid::DefinitionName
	?FieldSyncTarget@QContactSyncTarget@QtMobility@@2U?$QLatin1Constant@$0L@@2@B @ 1007 NONAME ; struct QtMobility::QLatin1Constant<11> const QtMobility::QContactSyncTarget::FieldSyncTarget
	?FieldLastName@QContactName@QtMobility@@2U?$QLatin1Constant@$08@2@B @ 1008 NONAME ; struct QtMobility::QLatin1Constant<9> const QtMobility::QContactName::FieldLastName
	?FieldNickname@QContactNickname@QtMobility@@2U?$QLatin1Constant@$08@2@B @ 1009 NONAME ; struct QtMobility::QLatin1Constant<9> const QtMobility::QContactNickname::FieldNickname
	?DefinitionName@QContactTag@QtMobility@@2U?$QLatin1Constant@$03@2@B @ 1010 NONAME ; struct QtMobility::QLatin1Constant<4> const QtMobility::QContactTag::DefinitionName
	?FieldMiddleName@QContactName@QtMobility@@2U?$QLatin1Constant@$0L@@2@B @ 1011 NONAME ; struct QtMobility::QLatin1Constant<11> const QtMobility::QContactName::FieldMiddleName
	?FieldType@QContactType@QtMobility@@2U?$QLatin1Constant@$04@2@B @ 1012 NONAME ; struct QtMobility::QLatin1Constant<5> const QtMobility::QContactType::FieldType
	?DefinitionName@QContactOnlineAccount@QtMobility@@2U?$QLatin1Constant@$0O@@2@B @ 1013 NONAME ; struct QtMobility::QLatin1Constant<14> const QtMobility::QContactOnlineAccount::DefinitionName
	?DefinitionName@QContactTimestamp@QtMobility@@2U?$QLatin1Constant@$09@2@B @ 1014 NONAME ; struct QtMobility::QLatin1Constant<10> const QtMobility::QContactTimestamp::DefinitionName
	?FieldTag@QContactTag@QtMobility@@2U?$QLatin1Constant@$03@2@B @ 1015 NONAME ; struct QtMobility::QLatin1Constant<4> const QtMobility::QContactTag::FieldTag
	?FieldContext@QContactDetail@QtMobility@@2U?$QLatin1Constant@$07@2@B @ 1016 NONAME ; struct QtMobility::QLatin1Constant<8> const QtMobility::QContactDetail::FieldContext
	?SubTypeFavourite@QContactUrl@QtMobility@@2U?$QLatin1Constant@$09@2@B @ 1017 NONAME ; struct QtMobility::QLatin1Constant<10> const QtMobility::QContactUrl::SubTypeFavourite
	?FieldSubType@QContactAnniversary@QtMobility@@2U?$QLatin1Constant@$07@2@B @ 1018 NONAME ; struct QtMobility::QLatin1Constant<8> const QtMobility::QContactAnniversary::FieldSubType
	?FieldModificationTimestamp@QContactTimestamp@QtMobility@@2U?$QLatin1Constant@$0BG@@2@B @ 1019 NONAME ; struct QtMobility::QLatin1Constant<22> const QtMobility::QContactTimestamp::FieldModificationTimestamp
	?FieldGender@QContactGender@QtMobility@@2U?$QLatin1Constant@$06@2@B @ 1020 NONAME ; struct QtMobility::QLatin1Constant<7> const QtMobility::QContactGender::FieldGender
	?staticMetaObject@QContactLocalIdFetchRequest@QtMobility@@2UQMetaObject@@B @ 1021 NONAME ; struct QMetaObject const QtMobility::QContactLocalIdFetchRequest::staticMetaObject
	?FieldSubType@QContactUrl@QtMobility@@2U?$QLatin1Constant@$07@2@B @ 1022 NONAME ; struct QtMobility::QLatin1Constant<8> const QtMobility::QContactUrl::FieldSubType
	?SubTypeBulletinBoardSystem@QContactPhoneNumber@QtMobility@@2U?$QLatin1Constant@$0BE@@2@B @ 1023 NONAME ; struct QtMobility::QLatin1Constant<20> const QtMobility::QContactPhoneNumber::SubTypeBulletinBoardSystem
	?FieldEvent@QContactAnniversary@QtMobility@@2U?$QLatin1Constant@$05@2@B @ 1024 NONAME ; struct QtMobility::QLatin1Constant<6> const QtMobility::QContactAnniversary::FieldEvent
	?staticMetaObject@QContactSaveRequest@QtMobility@@2UQMetaObject@@B @ 1025 NONAME ; struct QMetaObject const QtMobility::QContactSaveRequest::staticMetaObject
	?FieldSubTypes@QContactPhoneNumber@QtMobility@@2U?$QLatin1Constant@$08@2@B @ 1026 NONAME ; struct QtMobility::QLatin1Constant<9> const QtMobility::QContactPhoneNumber::FieldSubTypes
	?SubTypeDomestic@QContactAddress@QtMobility@@2U?$QLatin1Constant@$08@2@B @ 1027 NONAME ; struct QtMobility::QLatin1Constant<9> const QtMobility::QContactAddress::SubTypeDomestic
	?FieldLinkedDetailUris@QContactDetail@QtMobility@@2U?$QLatin1Constant@$0BB@@2@B @ 1028 NONAME ; struct QtMobility::QLatin1Constant<17> const QtMobility::QContactDetail::FieldLinkedDetailUris
	?DefinitionName@QContactGender@QtMobility@@2U?$QLatin1Constant@$06@2@B @ 1029 NONAME ; struct QtMobility::QLatin1Constant<7> const QtMobility::QContactGender::DefinitionName
	?FieldCapabilities@QContactOnlineAccount@QtMobility@@2U?$QLatin1Constant@$0N@@2@B @ 1030 NONAME ; struct QtMobility::QLatin1Constant<13> const QtMobility::QContactOnlineAccount::FieldCapabilities
	?FieldPresenceStateImageUrl@QContactGlobalPresence@QtMobility@@2U?$QLatin1Constant@$0BG@@2@B @ 1031 NONAME ; struct QtMobility::QLatin1Constant<22> const QtMobility::QContactGlobalPresence::FieldPresenceStateImageUrl
	?FieldLocality@QContactAddress@QtMobility@@2U?$QLatin1Constant@$08@2@B @ 1032 NONAME ; struct QtMobility::QLatin1Constant<9> const QtMobility::QContactAddress::FieldLocality
	?staticMetaObject@QContactManager@QtMobility@@2UQMetaObject@@B @ 1033 NONAME ; struct QMetaObject const QtMobility::QContactManager::staticMetaObject
	?SubTypeSip@QContactOnlineAccount@QtMobility@@2U?$QLatin1Constant@$03@2@B @ 1034 NONAME ; struct QtMobility::QLatin1Constant<4> const QtMobility::QContactOnlineAccount::SubTypeSip
	?staticMetaObject@QContactRelationshipFetchRequest@QtMobility@@2UQMetaObject@@B @ 1035 NONAME ; struct QMetaObject const QtMobility::QContactRelationshipFetchRequest::staticMetaObject
	?DefinitionName@QContactBirthday@QtMobility@@2U?$QLatin1Constant@$08@2@B @ 1036 NONAME ; struct QtMobility::QLatin1Constant<9> const QtMobility::QContactBirthday::DefinitionName
	?FieldBirthday@QContactBirthday@QtMobility@@2U?$QLatin1Constant@$08@2@B @ 1037 NONAME ; struct QtMobility::QLatin1Constant<9> const QtMobility::QContactBirthday::FieldBirthday
	?FieldLabel@QContactGeoLocation@QtMobility@@2U?$QLatin1Constant@$05@2@B @ 1038 NONAME ; struct QtMobility::QLatin1Constant<6> const QtMobility::QContactGeoLocation::FieldLabel
	?FieldImageUrl@QContactAvatar@QtMobility@@2U?$QLatin1Constant@$08@2@B @ 1039 NONAME ; struct QtMobility::QLatin1Constant<9> const QtMobility::QContactAvatar::FieldImageUrl
	?staticMetaObject@QContactManagerEngine@QtMobility@@2UQMetaObject@@B @ 1040 NONAME ; struct QMetaObject const QtMobility::QContactManagerEngine::staticMetaObject
	?staticMetaObject@QContactAbstractRequest@QtMobility@@2UQMetaObject@@B @ 1041 NONAME ; struct QMetaObject const QtMobility::QContactAbstractRequest::staticMetaObject
	?FieldTitle@QContactOrganization@QtMobility@@2U?$QLatin1Constant@$05@2@B @ 1042 NONAME ; struct QtMobility::QLatin1Constant<6> const QtMobility::QContactOrganization::FieldTitle
	?staticMetaObject@QContactActionFactory@QtMobility@@2UQMetaObject@@B @ 1043 NONAME ; struct QMetaObject const QtMobility::QContactActionFactory::staticMetaObject
	?FieldLongitude@QContactGeoLocation@QtMobility@@2U?$QLatin1Constant@$09@2@B @ 1044 NONAME ; struct QtMobility::QLatin1Constant<10> const QtMobility::QContactGeoLocation::FieldLongitude
	?FieldPresenceStateText@QContactGlobalPresence@QtMobility@@2U?$QLatin1Constant@$0BC@@2@B @ 1045 NONAME ; struct QtMobility::QLatin1Constant<18> const QtMobility::QContactGlobalPresence::FieldPresenceStateText
	?FieldRegion@QContactAddress@QtMobility@@2U?$QLatin1Constant@$06@2@B @ 1046 NONAME ; struct QtMobility::QLatin1Constant<7> const QtMobility::QContactAddress::FieldRegion
	?SubTypePostal@QContactAddress@QtMobility@@2U?$QLatin1Constant@$06@2@B @ 1047 NONAME ; struct QtMobility::QLatin1Constant<7> const QtMobility::QContactAddress::SubTypePostal
	?DefinitionName@QContactAvatar@QtMobility@@2U?$QLatin1Constant@$06@2@B @ 1048 NONAME ; struct QtMobility::QLatin1Constant<7> const QtMobility::QContactAvatar::DefinitionName
	?FieldVibrationRingtoneUrl@QContactRingtone@QtMobility@@2U?$QLatin1Constant@$0BF@@2@B @ 1049 NONAME ; struct QtMobility::QLatin1Constant<21> const QtMobility::QContactRingtone::FieldVibrationRingtoneUrl
	?staticMetaObject@QContactAction@QtMobility@@2UQMetaObject@@B @ 1050 NONAME ; struct QMetaObject const QtMobility::QContactAction::staticMetaObject
	?ContextHome@QContactDetail@QtMobility@@2U?$QLatin1Constant@$04@2@B @ 1051 NONAME ; struct QtMobility::QLatin1Constant<5> const QtMobility::QContactDetail::ContextHome
	?FieldPostcode@QContactAddress@QtMobility@@2U?$QLatin1Constant@$08@2@B @ 1052 NONAME ; struct QtMobility::QLatin1Constant<9> const QtMobility::QContactAddress::FieldPostcode
	?staticMetaObject@QContactDetailDefinitionRemoveRequest@QtMobility@@2UQMetaObject@@B @ 1053 NONAME ; struct QMetaObject const QtMobility::QContactDetailDefinitionRemoveRequest::staticMetaObject
	?FieldVideoRingtoneUrl@QContactRingtone@QtMobility@@2U?$QLatin1Constant@$0BB@@2@B @ 1054 NONAME ; struct QtMobility::QLatin1Constant<17> const QtMobility::QContactRingtone::FieldVideoRingtoneUrl
	?DefinitionName@QContactName@QtMobility@@2U?$QLatin1Constant@$04@2@B @ 1055 NONAME ; struct QtMobility::QLatin1Constant<5> const QtMobility::QContactName::DefinitionName
	?FieldPostOfficeBox@QContactAddress@QtMobility@@2U?$QLatin1Constant@$0O@@2@B @ 1056 NONAME ; struct QtMobility::QLatin1Constant<14> const QtMobility::QContactAddress::FieldPostOfficeBox
	?DefinitionName@QContactPhoneNumber@QtMobility@@2U?$QLatin1Constant@$0M@@2@B @ 1057 NONAME ; struct QtMobility::QLatin1Constant<12> const QtMobility::QContactPhoneNumber::DefinitionName

