EXPORTS
	?serviceName@QBluetoothServiceInfo@QtMobility@@QBE?AVQString@@XZ @ 1 NONAME ; class QString QtMobility::QBluetoothServiceInfo::serviceName(void) const
	?qt_metacall@QNearFieldTarget@QtMobility@@UAEHW4Call@QMetaObject@@HPAPAX@Z @ 2 NONAME ; int QtMobility::QNearFieldTarget::qt_metacall(enum QMetaObject::Call, int, void * *)
	??0QNearFieldTagType4@QtMobility@@QAE@PAVQObject@@@Z @ 3 NONAME ; QtMobility::QNearFieldTagType4::QNearFieldTagType4(class QObject *)
	?minimumSize@QBluetoothUuid@QtMobility@@QBEHXZ @ 4 NONAME ; int QtMobility::QBluetoothUuid::minimumSize(void) const
	?error@QBluetoothLocalDevice@QtMobility@@IAEXW4Error@12@@Z @ 5 NONAME ; void QtMobility::QBluetoothLocalDevice::error(enum QtMobility::QBluetoothLocalDevice::Error)
	??_EQBluetoothTransferReply@QtMobility@@UAE@I@Z @ 6 NONAME ; QtMobility::QBluetoothTransferReply::~QBluetoothTransferReply(unsigned int)
	?serverAddress@QRfcommServer@QtMobility@@QBE?AVQBluetoothAddress@2@XZ @ 7 NONAME ; class QtMobility::QBluetoothAddress QtMobility::QRfcommServer::serverAddress(void) const
	??1QBluetoothTransferManager@QtMobility@@UAE@XZ @ 8 NONAME ; QtMobility::QBluetoothTransferManager::~QBluetoothTransferManager(void)
	?toUInt128@QBluetoothUuid@QtMobility@@QBE?AUquint128@2@XZ @ 9 NONAME ; struct QtMobility::quint128 QtMobility::QBluetoothUuid::toUInt128(void) const
	?metaObject@QNearFieldTagType2@QtMobility@@UBEPBUQMetaObject@@XZ @ 10 NONAME ; struct QMetaObject const * QtMobility::QNearFieldTagType2::metaObject(void) const
	?writeServiceData@QNearFieldTagType3@QtMobility@@UAE?AVRequestId@QNearFieldTarget@2@GABVQByteArray@@@Z @ 11 NONAME ; class QtMobility::QNearFieldTarget::RequestId QtMobility::QNearFieldTagType3::writeServiceData(unsigned short, class QByteArray const &)
	?trUtf8@QBluetoothSocket@QtMobility@@SA?AVQString@@PBD0@Z @ 12 NONAME ; class QString QtMobility::QBluetoothSocket::trUtf8(char const *, char const *)
	?services@QNearFieldTagType3@QtMobility@@QAE?AV?$QList@G@@XZ @ 13 NONAME ; class QList<unsigned short> QtMobility::QNearFieldTagType3::services(void)
	?readBlock@QNearFieldTagType2@QtMobility@@UAE?AVRequestId@QNearFieldTarget@2@E@Z @ 14 NONAME ; class QtMobility::QNearFieldTarget::RequestId QtMobility::QNearFieldTagType2::readBlock(unsigned char)
	??1QBluetoothUuid@QtMobility@@QAE@XZ @ 15 NONAME ; QtMobility::QBluetoothUuid::~QBluetoothUuid(void)
	?d_func@QBluetoothServiceInfo@QtMobility@@ABEPBVQBluetoothServiceInfoPrivate@2@XZ @ 16 NONAME ; class QtMobility::QBluetoothServiceInfoPrivate const * QtMobility::QBluetoothServiceInfo::d_func(void) const
	??1QNearFieldTarget@QtMobility@@UAE@XZ @ 17 NONAME ; QtMobility::QNearFieldTarget::~QNearFieldTarget(void)
	?setSecurityFlags@QL2capServer@QtMobility@@QAEXV?$QFlags@W4Security@QBluetooth@QtMobility@@@@@Z @ 18 NONAME ; void QtMobility::QL2capServer::setSecurityFlags(class QFlags<enum QtMobility::QBluetooth::Security>)
	??_EQNdefMessage@QtMobility@@QAE@I@Z @ 19 NONAME ; QtMobility::QNdefMessage::~QNdefMessage(unsigned int)
	?readDatagram@QLlcpSocket@QtMobility@@QAE_JPAD_JPAPAVQNearFieldTarget@2@PAE@Z @ 20 NONAME ; long long QtMobility::QLlcpSocket::readDatagram(char *, long long, class QtMobility::QNearFieldTarget * *, unsigned char *)
	?getAddress@QBluetoothHostInfo@QtMobility@@QBE?AVQBluetoothAddress@2@XZ @ 21 NONAME ; class QtMobility::QBluetoothAddress QtMobility::QBluetoothHostInfo::getAddress(void) const
	?d_func@QBluetoothSocket@QtMobility@@AAEPAVQBluetoothSocketPrivate@2@XZ @ 22 NONAME ; class QtMobility::QBluetoothSocketPrivate * QtMobility::QBluetoothSocket::d_func(void)
	??0QNearFieldManager@QtMobility@@QAE@PAVQObject@@@Z @ 23 NONAME ; QtMobility::QNearFieldManager::QNearFieldManager(class QObject *)
	?setLocale@QNdefNfcTextRecord@QtMobility@@QAEXABVQString@@@Z @ 24 NONAME ; void QtMobility::QNdefNfcTextRecord::setLocale(class QString const &)
	?connected@QLlcpSocket@QtMobility@@IAEXXZ @ 25 NONAME ; void QtMobility::QLlcpSocket::connected(void)
	?writeData@QBluetoothSocket@QtMobility@@MAE_JPBD_J@Z @ 26 NONAME ; long long QtMobility::QBluetoothSocket::writeData(char const *, long long)
	?type@QNearFieldTagType4@QtMobility@@UBE?AW4Type@QNearFieldTarget@2@XZ @ 27 NONAME ; enum QtMobility::QNearFieldTarget::Type QtMobility::QNearFieldTagType4::type(void) const
	?tr@QNearFieldTagType2@QtMobility@@SA?AVQString@@PBD0H@Z @ 28 NONAME ; class QString QtMobility::QNearFieldTagType2::tr(char const *, char const *, int)
	?setPayload@QNdefRecord@QtMobility@@QAEXABVQByteArray@@@Z @ 29 NONAME ; void QtMobility::QNdefRecord::setPayload(class QByteArray const &)
	?staticMetaObject@QNearFieldTagType3@QtMobility@@2UQMetaObject@@B @ 30 NONAME ; struct QMetaObject const QtMobility::QNearFieldTagType3::staticMetaObject
	?d_func@QBluetoothDeviceDiscoveryAgent@QtMobility@@AAEPAVQBluetoothDeviceDiscoveryAgentPrivate@2@XZ @ 31 NONAME ; class QtMobility::QBluetoothDeviceDiscoveryAgentPrivate * QtMobility::QBluetoothDeviceDiscoveryAgent::d_func(void)
	?trUtf8@QBluetoothDeviceDiscoveryAgent@QtMobility@@SA?AVQString@@PBD0H@Z @ 32 NONAME ; class QString QtMobility::QBluetoothDeviceDiscoveryAgent::trUtf8(char const *, char const *, int)
	?pairingConfirmation@QBluetoothLocalDevice@QtMobility@@QAEX_N@Z @ 33 NONAME ; void QtMobility::QBluetoothLocalDevice::pairingConfirmation(bool)
	?hasPendingConnections@QLlcpServer@QtMobility@@UBE_NXZ @ 34 NONAME ; bool QtMobility::QLlcpServer::hasPendingConnections(void) const
	?handleResponse@QNearFieldTagType2@QtMobility@@MAE_NABVRequestId@QNearFieldTarget@2@ABVQByteArray@@@Z @ 35 NONAME ; bool QtMobility::QNearFieldTagType2::handleResponse(class QtMobility::QNearFieldTarget::RequestId const &, class QByteArray const &)
	??1QBluetoothSocket@QtMobility@@UAE@XZ @ 36 NONAME ; QtMobility::QBluetoothSocket::~QBluetoothSocket(void)
	?tr@QBluetoothTransferReply@QtMobility@@SA?AVQString@@PBD0@Z @ 37 NONAME ; class QString QtMobility::QBluetoothTransferReply::tr(char const *, char const *)
	?writeBlock@QNearFieldTagType2@QtMobility@@UAE?AVRequestId@QNearFieldTarget@2@EABVQByteArray@@@Z @ 38 NONAME ; class QtMobility::QNearFieldTarget::RequestId QtMobility::QNearFieldTagType2::writeBlock(unsigned char, class QByteArray const &)
	?d_func@QBluetoothTransferManager@QtMobility@@ABEPBVQBluetoothTranferManagerPrivate@2@XZ @ 39 NONAME ; class QtMobility::QBluetoothTranferManagerPrivate const * QtMobility::QBluetoothTransferManager::d_func(void) const
	??_EQNearFieldTagType2@QtMobility@@UAE@I@Z @ 40 NONAME ; QtMobility::QNearFieldTagType2::~QNearFieldTagType2(unsigned int)
	??4RequestId@QNearFieldTarget@QtMobility@@QAEAAV012@ABV012@@Z @ 41 NONAME ; class QtMobility::QNearFieldTarget::RequestId & QtMobility::QNearFieldTarget::RequestId::operator=(class QtMobility::QNearFieldTarget::RequestId const &)
	?recordCount@QNdefFilter@QtMobility@@QBEHXZ @ 42 NONAME ; int QtMobility::QNdefFilter::recordCount(void) const
	?setAddress@QBluetoothHostInfo@QtMobility@@QAEXABVQBluetoothAddress@2@@Z @ 43 NONAME ; void QtMobility::QBluetoothHostInfo::setAddress(class QtMobility::QBluetoothAddress const &)
	?metaObject@QLlcpSocket@QtMobility@@UBEPBUQMetaObject@@XZ @ 44 NONAME ; struct QMetaObject const * QtMobility::QLlcpSocket::metaObject(void) const
	?staticMetaObject@QLlcpServer@QtMobility@@2UQMetaObject@@B @ 45 NONAME ; struct QMetaObject const QtMobility::QLlcpServer::staticMetaObject
	?hasPendingDatagrams@QLlcpSocket@QtMobility@@QBE_NXZ @ 46 NONAME ; bool QtMobility::QLlcpSocket::hasPendingDatagrams(void) const
	?stop@QBluetoothServiceDiscoveryAgent@QtMobility@@QAEXXZ @ 47 NONAME ; void QtMobility::QBluetoothServiceDiscoveryAgent::stop(void)
	??0RequestId@QNearFieldTarget@QtMobility@@QAE@ABV012@@Z @ 48 NONAME ; QtMobility::QNearFieldTarget::RequestId::RequestId(class QtMobility::QNearFieldTarget::RequestId const &)
	??1QNearFieldTagType4@QtMobility@@UAE@XZ @ 49 NONAME ; QtMobility::QNearFieldTagType4::~QNearFieldTagType4(void)
	?waitForRequestCompleted@QNearFieldTarget@QtMobility@@UAE_NABVRequestId@12@H@Z @ 50 NONAME ; bool QtMobility::QNearFieldTarget::waitForRequestCompleted(class QtMobility::QNearFieldTarget::RequestId const &, int)
	?uploadProgress@QBluetoothTransferReply@QtMobility@@IAEX_J0@Z @ 51 NONAME ; void QtMobility::QBluetoothTransferReply::uploadProgress(long long, long long)
	?errorString@QBluetoothServiceDiscoveryAgent@QtMobility@@QBE?AVQString@@XZ @ 52 NONAME ; class QString QtMobility::QBluetoothServiceDiscoveryAgent::errorString(void) const
	?writeNdefMessages@QNearFieldTarget@QtMobility@@UAEXABV?$QList@VQNdefMessage@QtMobility@@@@@Z @ 53 NONAME ; void QtMobility::QNearFieldTarget::writeNdefMessages(class QList<class QtMobility::QNdefMessage> const &)
	?writeDatagram@QLlcpSocket@QtMobility@@QAE_JABVQByteArray@@PAVQNearFieldTarget@2@E@Z @ 54 NONAME ; long long QtMobility::QLlcpSocket::writeDatagram(class QByteArray const &, class QtMobility::QNearFieldTarget *, unsigned char)
	??0QBluetoothTransferRequest@QtMobility@@QAE@ABV01@@Z @ 55 NONAME ; QtMobility::QBluetoothTransferRequest::QBluetoothTransferRequest(class QtMobility::QBluetoothTransferRequest const &)
	?selectSector@QNearFieldTagType2@QtMobility@@UAE?AVRequestId@QNearFieldTarget@2@E@Z @ 56 NONAME ; class QtMobility::QNearFieldTarget::RequestId QtMobility::QNearFieldTagType2::selectSector(unsigned char)
	?getStaticMetaObject@QBluetoothTransferManager@QtMobility@@SAABUQMetaObject@@XZ @ 57 NONAME ; struct QMetaObject const & QtMobility::QBluetoothTransferManager::getStaticMetaObject(void)
	?getStaticMetaObject@QNearFieldTagType4@QtMobility@@SAABUQMetaObject@@XZ @ 58 NONAME ; struct QMetaObject const & QtMobility::QNearFieldTagType4::getStaticMetaObject(void)
	?setSocketError@QBluetoothSocket@QtMobility@@IAEXW4SocketError@12@@Z @ 59 NONAME ; void QtMobility::QBluetoothSocket::setSocketError(enum QtMobility::QBluetoothSocket::SocketError)
	?appendRecord@QNdefFilter@QtMobility@@QAEXABURecord@12@@Z @ 60 NONAME ; void QtMobility::QNdefFilter::appendRecord(struct QtMobility::QNdefFilter::Record const &)
	?connectToService@QLlcpSocket@QtMobility@@QAEXPAVQNearFieldTarget@2@ABVQString@@@Z @ 61 NONAME ; void QtMobility::QLlcpSocket::connectToService(class QtMobility::QNearFieldTarget *, class QString const &)
	?attribute@QBluetoothTransferReply@QtMobility@@QBE?AVQVariant@@W4Attribute@QBluetoothTransferRequest@2@@Z @ 62 NONAME ; class QVariant QtMobility::QBluetoothTransferReply::attribute(enum QtMobility::QBluetoothTransferRequest::Attribute) const
	?toString@QBluetoothAddress@QtMobility@@QBE?AVQString@@XZ @ 63 NONAME ; class QString QtMobility::QBluetoothAddress::toString(void) const
	?error@QBluetoothSocket@QtMobility@@QBE?AW4SocketError@12@XZ @ 64 NONAME ; enum QtMobility::QBluetoothSocket::SocketError QtMobility::QBluetoothSocket::error(void) const
	?readData@QBluetoothSocket@QtMobility@@MAE_JPAD_J@Z @ 65 NONAME ; long long QtMobility::QBluetoothSocket::readData(char *, long long)
	?trUtf8@QL2capServer@QtMobility@@SA?AVQString@@PBD0@Z @ 66 NONAME ; class QString QtMobility::QL2capServer::trUtf8(char const *, char const *)
	?close@QL2capServer@QtMobility@@QAEXXZ @ 67 NONAME ; void QtMobility::QL2capServer::close(void)
	?setServiceUuids@QBluetoothDeviceInfo@QtMobility@@QAEXABV?$QList@VQBluetoothUuid@QtMobility@@@@W4DataCompleteness@12@@Z @ 68 NONAME ; void QtMobility::QBluetoothDeviceInfo::setServiceUuids(class QList<class QtMobility::QBluetoothUuid> const &, enum QtMobility::QBluetoothDeviceInfo::DataCompleteness)
	?nextPendingConnection@QLlcpServer@QtMobility@@UAEPAVQLlcpSocket@2@XZ @ 69 NONAME ; class QtMobility::QLlcpSocket * QtMobility::QLlcpServer::nextPendingConnection(void)
	??0QL2capServer@QtMobility@@QAE@PAVQObject@@@Z @ 70 NONAME ; QtMobility::QL2capServer::QL2capServer(class QObject *)
	?registerService@QBluetoothServiceInfo@QtMobility@@QBE_NXZ @ 71 NONAME ; bool QtMobility::QBluetoothServiceInfo::registerService(void) const
	?errorString@QBluetoothSocket@QtMobility@@QBE?AVQString@@XZ @ 72 NONAME ; class QString QtMobility::QBluetoothSocket::errorString(void) const
	?maxPendingConnections@QL2capServer@QtMobility@@QBEHXZ @ 73 NONAME ; int QtMobility::QL2capServer::maxPendingConnections(void) const
	?id@QNdefRecord@QtMobility@@QBE?AVQByteArray@@XZ @ 74 NONAME ; class QByteArray QtMobility::QNdefRecord::id(void) const
	?d_func@QBluetoothTransferRequest@QtMobility@@AAEPAVQBluetoothTransferRequestPrivate@2@XZ @ 75 NONAME ; class QtMobility::QBluetoothTransferRequestPrivate * QtMobility::QBluetoothTransferRequest::d_func(void)
	?trUtf8@QRfcommServer@QtMobility@@SA?AVQString@@PBD0@Z @ 76 NONAME ; class QString QtMobility::QRfcommServer::trUtf8(char const *, char const *)
	?trUtf8@QNearFieldManager@QtMobility@@SA?AVQString@@PBD0H@Z @ 77 NONAME ; class QString QtMobility::QNearFieldManager::trUtf8(char const *, char const *, int)
	??0QBluetoothDeviceInfo@QtMobility@@QAE@XZ @ 78 NONAME ; QtMobility::QBluetoothDeviceInfo::QBluetoothDeviceInfo(void)
	?serviceDiscovered@QBluetoothSocket@QtMobility@@AAEXABVQBluetoothServiceInfo@2@@Z @ 79 NONAME ; void QtMobility::QBluetoothSocket::serviceDiscovered(class QtMobility::QBluetoothServiceInfo const &)
	?tr@QBluetoothDeviceDiscoveryAgent@QtMobility@@SA?AVQString@@PBD0H@Z @ 80 NONAME ; class QString QtMobility::QBluetoothDeviceDiscoveryAgent::tr(char const *, char const *, int)
	?tr@QNearFieldManager@QtMobility@@SA?AVQString@@PBD0@Z @ 81 NONAME ; class QString QtMobility::QNearFieldManager::tr(char const *, char const *)
	?bytesAvailable@QBluetoothSocket@QtMobility@@UBE_JXZ @ 82 NONAME ; long long QtMobility::QBluetoothSocket::bytesAvailable(void) const
	??_EQBluetoothServiceDiscoveryAgent@QtMobility@@UAE@I@Z @ 83 NONAME ; QtMobility::QBluetoothServiceDiscoveryAgent::~QBluetoothServiceDiscoveryAgent(unsigned int)
	??1QBluetoothServiceDiscoveryAgent@QtMobility@@UAE@XZ @ 84 NONAME ; QtMobility::QBluetoothServiceDiscoveryAgent::~QBluetoothServiceDiscoveryAgent(void)
	??0QNdefRecord@QtMobility@@QAE@ABV01@@Z @ 85 NONAME ; QtMobility::QNdefRecord::QNdefRecord(class QtMobility::QNdefRecord const &)
	??0QNdefFilter@QtMobility@@QAE@ABV01@@Z @ 86 NONAME ; QtMobility::QNdefFilter::QNdefFilter(class QtMobility::QNdefFilter const &)
	?qt_metacast@QNearFieldTagType1@QtMobility@@UAEPAXPBD@Z @ 87 NONAME ; void * QtMobility::QNearFieldTagType1::qt_metacast(char const *)
	??1QNearFieldTagType3@QtMobility@@UAE@XZ @ 88 NONAME ; QtMobility::QNearFieldTagType3::~QNearFieldTagType3(void)
	?tr@QBluetoothSocket@QtMobility@@SA?AVQString@@PBD0@Z @ 89 NONAME ; class QString QtMobility::QBluetoothSocket::tr(char const *, char const *)
	?ndefMessageRead@QNearFieldTarget@QtMobility@@IAEXABVQNdefMessage@2@@Z @ 90 NONAME ; void QtMobility::QNearFieldTarget::ndefMessageRead(class QtMobility::QNdefMessage const &)
	?setAttribute@QBluetoothServiceInfo@QtMobility@@QAEXGABVSequence@12@@Z @ 91 NONAME ; void QtMobility::QBluetoothServiceInfo::setAttribute(unsigned short, class QtMobility::QBluetoothServiceInfo::Sequence const &)
	?qt_metacast@QNearFieldTarget@QtMobility@@UAEPAXPBD@Z @ 92 NONAME ; void * QtMobility::QNearFieldTarget::qt_metacast(char const *)
	?staticMetaObject@QLlcpSocket@QtMobility@@2UQMetaObject@@B @ 93 NONAME ; struct QMetaObject const QtMobility::QLlcpSocket::staticMetaObject
	?d_func@QNearFieldManager@QtMobility@@AAEPAVQNearFieldManagerPrivate@2@XZ @ 94 NONAME ; class QtMobility::QNearFieldManagerPrivate * QtMobility::QNearFieldManager::d_func(void)
	?qt_metacast@QBluetoothTransferReply@QtMobility@@UAEPAXPBD@Z @ 95 NONAME ; void * QtMobility::QBluetoothTransferReply::qt_metacast(char const *)
	?uuidFilter@QBluetoothServiceDiscoveryAgent@QtMobility@@QBE?AV?$QList@VQBluetoothUuid@QtMobility@@@@XZ @ 96 NONAME ; class QList<class QtMobility::QBluetoothUuid> QtMobility::QBluetoothServiceDiscoveryAgent::uuidFilter(void) const
	?registerNdefMessageHandler@QNearFieldManager@QtMobility@@QAEHW4TypeNameFormat@QNdefRecord@2@ABVQByteArray@@PAVQObject@@PBD@Z @ 97 NONAME ; int QtMobility::QNearFieldManager::registerNdefMessageHandler(enum QtMobility::QNdefRecord::TypeNameFormat, class QByteArray const &, class QObject *, char const *)
	?select@QNearFieldTagType4@QtMobility@@UAE?AVRequestId@QNearFieldTarget@2@G@Z @ 98 NONAME ; class QtMobility::QNearFieldTarget::RequestId QtMobility::QNearFieldTagType4::select(unsigned short)
	?pairingDisplayConfirmation@QBluetoothLocalDevice@QtMobility@@IAEXABVQBluetoothAddress@2@VQString@@@Z @ 99 NONAME ; void QtMobility::QBluetoothLocalDevice::pairingDisplayConfirmation(class QtMobility::QBluetoothAddress const &, class QString)
	?minorDeviceClass@QBluetoothDeviceInfo@QtMobility@@QBEEXZ @ 100 NONAME ; unsigned char QtMobility::QBluetoothDeviceInfo::minorDeviceClass(void) const
	?qt_metacall@QNearFieldTagType1@QtMobility@@UAEHW4Call@QMetaObject@@HPAPAX@Z @ 101 NONAME ; int QtMobility::QNearFieldTagType1::qt_metacall(enum QMetaObject::Call, int, void * *)
	?trUtf8@QBluetoothTransferReply@QtMobility@@SA?AVQString@@PBD0H@Z @ 102 NONAME ; class QString QtMobility::QBluetoothTransferReply::trUtf8(char const *, char const *, int)
	?maxPendingConnections@QRfcommServer@QtMobility@@QBEHXZ @ 103 NONAME ; int QtMobility::QRfcommServer::maxPendingConnections(void) const
	??0QNdefNfcTextRecord@QtMobility@@QAE@XZ @ 104 NONAME ; QtMobility::QNdefNfcTextRecord::QNdefNfcTextRecord(void)
	?sendCommand@QNearFieldTarget@QtMobility@@UAE?AVRequestId@12@ABVQByteArray@@@Z @ 105 NONAME ; class QtMobility::QNearFieldTarget::RequestId QtMobility::QNearFieldTarget::sendCommand(class QByteArray const &)
	??0QNearFieldTarget@QtMobility@@QAE@PAVQObject@@@Z @ 106 NONAME ; QtMobility::QNearFieldTarget::QNearFieldTarget(class QObject *)
	??1QNearFieldTagType2@QtMobility@@UAE@XZ @ 107 NONAME ; QtMobility::QNearFieldTagType2::~QNearFieldTagType2(void)
	?writeNdefMessages@QNearFieldTagType1@QtMobility@@UAEXABV?$QList@VQNdefMessage@QtMobility@@@@@Z @ 108 NONAME ; void QtMobility::QNearFieldTagType1::writeNdefMessages(class QList<class QtMobility::QNdefMessage> const &)
	?newConnection@QLlcpServer@QtMobility@@IAEXXZ @ 109 NONAME ; void QtMobility::QLlcpServer::newConnection(void)
	?device@QBluetoothServiceInfo@QtMobility@@QBE?AVQBluetoothDeviceInfo@2@XZ @ 110 NONAME ; class QtMobility::QBluetoothDeviceInfo QtMobility::QBluetoothServiceInfo::device(void) const
	?qt_metacall@QBluetoothServiceDiscoveryAgent@QtMobility@@UAEHW4Call@QMetaObject@@HPAPAX@Z @ 111 NONAME ; int QtMobility::QBluetoothServiceDiscoveryAgent::qt_metacall(enum QMetaObject::Call, int, void * *)
	??1QLlcpServer@QtMobility@@UAE@XZ @ 112 NONAME ; QtMobility::QLlcpServer::~QLlcpServer(void)
	?setText@QNdefNfcTextRecord@QtMobility@@QAEXVQString@@@Z @ 113 NONAME ; void QtMobility::QNdefNfcTextRecord::setText(class QString)
	??0QBluetoothServiceDiscoveryAgent@QtMobility@@QAE@ABVQBluetoothAddress@1@PAVQObject@@@Z @ 114 NONAME ; QtMobility::QBluetoothServiceDiscoveryAgent::QBluetoothServiceDiscoveryAgent(class QtMobility::QBluetoothAddress const &, class QObject *)
	?tr@QL2capServer@QtMobility@@SA?AVQString@@PBD0@Z @ 115 NONAME ; class QString QtMobility::QL2capServer::tr(char const *, char const *)
	?qt_metacall@QL2capServer@QtMobility@@UAEHW4Call@QMetaObject@@HPAPAX@Z @ 116 NONAME ; int QtMobility::QL2capServer::qt_metacall(enum QMetaObject::Call, int, void * *)
	??0RequestId@QNearFieldTarget@QtMobility@@QAE@XZ @ 117 NONAME ; QtMobility::QNearFieldTarget::RequestId::RequestId(void)
	?tr@QBluetoothSocket@QtMobility@@SA?AVQString@@PBD0H@Z @ 118 NONAME ; class QString QtMobility::QBluetoothSocket::tr(char const *, char const *, int)
	?serviceUuid@QBluetoothServiceInfo@QtMobility@@QBE?AVQBluetoothUuid@2@XZ @ 119 NONAME ; class QtMobility::QBluetoothUuid QtMobility::QBluetoothServiceInfo::serviceUuid(void) const
	?tr@QBluetoothLocalDevice@QtMobility@@SA?AVQString@@PBD0H@Z @ 120 NONAME ; class QString QtMobility::QBluetoothLocalDevice::tr(char const *, char const *, int)
	?d_func@QBluetoothSocket@QtMobility@@ABEPBVQBluetoothSocketPrivate@2@XZ @ 121 NONAME ; class QtMobility::QBluetoothSocketPrivate const * QtMobility::QBluetoothSocket::d_func(void) const
	?allDevices@QBluetoothLocalDevice@QtMobility@@SA?AV?$QList@VQBluetoothHostInfo@QtMobility@@@@XZ @ 122 NONAME ; class QList<class QtMobility::QBluetoothHostInfo> QtMobility::QBluetoothLocalDevice::allDevices(void)
	?readByte@QNearFieldTagType1@QtMobility@@UAE?AVRequestId@QNearFieldTarget@2@E@Z @ 123 NONAME ; class QtMobility::QNearFieldTarget::RequestId QtMobility::QNearFieldTagType1::readByte(unsigned char)
	?d_func@QBluetoothDeviceInfo@QtMobility@@ABEPBVQBluetoothDeviceInfoPrivate@2@XZ @ 124 NONAME ; class QtMobility::QBluetoothDeviceInfoPrivate const * QtMobility::QBluetoothDeviceInfo::d_func(void) const
	?abort@QBluetoothTransferReply@QtMobility@@QAEXXZ @ 125 NONAME ; void QtMobility::QBluetoothTransferReply::abort(void)
	?ndefMessagesWritten@QNearFieldTarget@QtMobility@@IAEXXZ @ 126 NONAME ; void QtMobility::QNearFieldTarget::ndefMessagesWritten(void)
	?localPort@QBluetoothSocket@QtMobility@@QBEGXZ @ 127 NONAME ; unsigned short QtMobility::QBluetoothSocket::localPort(void) const
	?trUtf8@QNearFieldTagType2@QtMobility@@SA?AVQString@@PBD0H@Z @ 128 NONAME ; class QString QtMobility::QNearFieldTagType2::trUtf8(char const *, char const *, int)
	?staticMetaObject@QBluetoothLocalDevice@QtMobility@@2UQMetaObject@@B @ 129 NONAME ; struct QMetaObject const QtMobility::QBluetoothLocalDevice::staticMetaObject
	??0QBluetoothAddress@QtMobility@@QAE@XZ @ 130 NONAME ; QtMobility::QBluetoothAddress::QBluetoothAddress(void)
	??1QNearFieldTagType1@QtMobility@@UAE@XZ @ 131 NONAME ; QtMobility::QNearFieldTagType1::~QNearFieldTagType1(void)
	?write@QNearFieldTagType4@QtMobility@@UAE?AVRequestId@QNearFieldTarget@2@ABVQByteArray@@G@Z @ 132 NONAME ; class QtMobility::QNearFieldTarget::RequestId QtMobility::QNearFieldTagType4::write(class QByteArray const &, unsigned short)
	?type@QNearFieldTagType3@QtMobility@@UBE?AW4Type@QNearFieldTarget@2@XZ @ 133 NONAME ; enum QtMobility::QNearFieldTarget::Type QtMobility::QNearFieldTagType3::type(void) const
	?hasNdefMessage@QNearFieldTagType1@QtMobility@@UAE_NXZ @ 134 NONAME ; bool QtMobility::QNearFieldTagType1::hasNdefMessage(void)
	?setType@QNdefRecord@QtMobility@@QAEXABVQByteArray@@@Z @ 135 NONAME ; void QtMobility::QNdefRecord::setType(class QByteArray const &)
	??0QBluetoothHostInfo@QtMobility@@QAE@ABV01@@Z @ 136 NONAME ; QtMobility::QBluetoothHostInfo::QBluetoothHostInfo(class QtMobility::QBluetoothHostInfo const &)
	?staticMetaObject@QBluetoothSocket@QtMobility@@2UQMetaObject@@B @ 137 NONAME ; struct QMetaObject const QtMobility::QBluetoothSocket::staticMetaObject
	??8QNdefMessage@QtMobility@@QBE_NABV01@@Z @ 138 NONAME ; bool QtMobility::QNdefMessage::operator==(class QtMobility::QNdefMessage const &) const
	??0QBluetoothAddress@QtMobility@@QAE@_K@Z @ 139 NONAME ; QtMobility::QBluetoothAddress::QBluetoothAddress(unsigned long long)
	??_EQNearFieldTagType4@QtMobility@@UAE@I@Z @ 140 NONAME ; QtMobility::QNearFieldTagType4::~QNearFieldTagType4(unsigned int)
	?trUtf8@QLlcpSocket@QtMobility@@SA?AVQString@@PBD0@Z @ 141 NONAME ; class QString QtMobility::QLlcpSocket::trUtf8(char const *, char const *)
	??0QNdefNfcUriRecord@QtMobility@@QAE@ABVQNdefRecord@1@@Z @ 142 NONAME ; QtMobility::QNdefNfcUriRecord::QNdefNfcUriRecord(class QtMobility::QNdefRecord const &)
	?setId@QNdefRecord@QtMobility@@QAEXABVQByteArray@@@Z @ 143 NONAME ; void QtMobility::QNdefRecord::setId(class QByteArray const &)
	??4QNdefFilter@QtMobility@@QAEAAV01@ABV01@@Z @ 144 NONAME ; class QtMobility::QNdefFilter & QtMobility::QNdefFilter::operator=(class QtMobility::QNdefFilter const &)
	??0QLlcpServer@QtMobility@@QAE@PAVQObject@@@Z @ 145 NONAME ; QtMobility::QLlcpServer::QLlcpServer(class QObject *)
	?waitForConnected@QLlcpSocket@QtMobility@@UAE_NH@Z @ 146 NONAME ; bool QtMobility::QLlcpSocket::waitForConnected(int)
	?setAttribute@QBluetoothTransferRequest@QtMobility@@QAEXW4Attribute@12@ABVQVariant@@@Z @ 147 NONAME ; void QtMobility::QBluetoothTransferRequest::setAttribute(enum QtMobility::QBluetoothTransferRequest::Attribute, class QVariant const &)
	??0QRfcommServer@QtMobility@@QAE@PAVQObject@@@Z @ 148 NONAME ; QtMobility::QRfcommServer::QRfcommServer(class QObject *)
	??0QBluetoothSocket@QtMobility@@QAE@W4SocketType@01@PAVQObject@@@Z @ 149 NONAME ; QtMobility::QBluetoothSocket::QBluetoothSocket(enum QtMobility::QBluetoothSocket::SocketType, class QObject *)
	?startTargetDetection@QNearFieldManager@QtMobility@@QAE_NW4Type@QNearFieldTarget@2@@Z @ 150 NONAME ; bool QtMobility::QNearFieldManager::startTargetDetection(enum QtMobility::QNearFieldTarget::Type)
	?tr@QLlcpServer@QtMobility@@SA?AVQString@@PBD0@Z @ 151 NONAME ; class QString QtMobility::QLlcpServer::tr(char const *, char const *)
	?tr@QNearFieldTagType2@QtMobility@@SA?AVQString@@PBD0@Z @ 152 NONAME ; class QString QtMobility::QNearFieldTagType2::tr(char const *, char const *)
	?getStaticMetaObject@QBluetoothTransferReply@QtMobility@@SAABUQMetaObject@@XZ @ 153 NONAME ; struct QMetaObject const & QtMobility::QBluetoothTransferReply::getStaticMetaObject(void)
	?transactionDetected@QNearFieldManager@QtMobility@@IAEXABVQByteArray@@@Z @ 154 NONAME ; void QtMobility::QNearFieldManager::transactionDetected(class QByteArray const &)
	?metaObject@QBluetoothDeviceDiscoveryAgent@QtMobility@@UBEPBUQMetaObject@@XZ @ 155 NONAME ; struct QMetaObject const * QtMobility::QBluetoothDeviceDiscoveryAgent::metaObject(void) const
	?qt_metacast@QLlcpSocket@QtMobility@@UAEPAXPBD@Z @ 156 NONAME ; void * QtMobility::QLlcpSocket::qt_metacast(char const *)
	?setResponseForRequest@QNearFieldTarget@QtMobility@@QAEXABVRequestId@12@ABVQVariant@@_N@Z @ 157 NONAME ; void QtMobility::QNearFieldTarget::setResponseForRequest(class QtMobility::QNearFieldTarget::RequestId const &, class QVariant const &, bool)
	?d_func@QBluetoothTransferRequest@QtMobility@@ABEPBVQBluetoothTransferRequestPrivate@2@XZ @ 158 NONAME ; class QtMobility::QBluetoothTransferRequestPrivate const * QtMobility::QBluetoothTransferRequest::d_func(void) const
	?staticMetaObject@QBluetoothServiceDiscoveryAgent@QtMobility@@2UQMetaObject@@B @ 159 NONAME ; struct QMetaObject const QtMobility::QBluetoothServiceDiscoveryAgent::staticMetaObject
	?setServiceUuid@QBluetoothServiceInfo@QtMobility@@QAEXABVQBluetoothUuid@2@@Z @ 160 NONAME ; void QtMobility::QBluetoothServiceInfo::setServiceUuid(class QtMobility::QBluetoothUuid const &)
	??0QBluetoothAddress@QtMobility@@QAE@ABVQString@@@Z @ 161 NONAME ; QtMobility::QBluetoothAddress::QBluetoothAddress(class QString const &)
	?trUtf8@QBluetoothLocalDevice@QtMobility@@SA?AVQString@@PBD0@Z @ 162 NONAME ; class QString QtMobility::QBluetoothLocalDevice::trUtf8(char const *, char const *)
	?setServiceDescription@QBluetoothServiceInfo@QtMobility@@QAEXABVQString@@@Z @ 163 NONAME ; void QtMobility::QBluetoothServiceInfo::setServiceDescription(class QString const &)
	??0QBluetoothTransferManager@QtMobility@@QAE@PAVQObject@@@Z @ 164 NONAME ; QtMobility::QBluetoothTransferManager::QBluetoothTransferManager(class QObject *)
	?d_func@QNearFieldManager@QtMobility@@ABEPBVQNearFieldManagerPrivate@2@XZ @ 165 NONAME ; class QtMobility::QNearFieldManagerPrivate const * QtMobility::QNearFieldManager::d_func(void) const
	?stopTargetDetection@QNearFieldManager@QtMobility@@QAEXXZ @ 166 NONAME ; void QtMobility::QNearFieldManager::stopTargetDetection(void)
	??0QNdefRecord@QtMobility@@IAE@ABV01@W4TypeNameFormat@01@ABVQByteArray@@@Z @ 167 NONAME ; QtMobility::QNdefRecord::QNdefRecord(class QtMobility::QNdefRecord const &, enum QtMobility::QNdefRecord::TypeNameFormat, class QByteArray const &)
	?pairingFinished@QBluetoothLocalDevice@QtMobility@@IAEXABVQBluetoothAddress@2@W4Pairing@12@@Z @ 168 NONAME ; void QtMobility::QBluetoothLocalDevice::pairingFinished(class QtMobility::QBluetoothAddress const &, enum QtMobility::QBluetoothLocalDevice::Pairing)
	?disconnectFromService@QLlcpSocket@QtMobility@@QAEXXZ @ 169 NONAME ; void QtMobility::QLlcpSocket::disconnectFromService(void)
	?metaObject@QNearFieldTagType4@QtMobility@@UBEPBUQMetaObject@@XZ @ 170 NONAME ; struct QMetaObject const * QtMobility::QNearFieldTagType4::metaObject(void) const
	??1QBluetoothServiceInfo@QtMobility@@QAE@XZ @ 171 NONAME ; QtMobility::QBluetoothServiceInfo::~QBluetoothServiceInfo(void)
	?doDeviceDiscovery@QBluetoothSocket@QtMobility@@IAEXABVQBluetoothServiceInfo@2@V?$QFlags@W4OpenModeFlag@QIODevice@@@@@Z @ 172 NONAME ; void QtMobility::QBluetoothSocket::doDeviceDiscovery(class QtMobility::QBluetoothServiceInfo const &, class QFlags<enum QIODevice::OpenModeFlag>)
	??_EQBluetoothHostInfo@QtMobility@@QAE@I@Z @ 173 NONAME ; QtMobility::QBluetoothHostInfo::~QBluetoothHostInfo(unsigned int)
	?setEncoding@QNdefNfcTextRecord@QtMobility@@QAEXW4Encoding@12@@Z @ 174 NONAME ; void QtMobility::QNdefNfcTextRecord::setEncoding(enum QtMobility::QNdefNfcTextRecord::Encoding)
	??0QBluetoothDeviceInfo@QtMobility@@QAE@ABV01@@Z @ 175 NONAME ; QtMobility::QBluetoothDeviceInfo::QBluetoothDeviceInfo(class QtMobility::QBluetoothDeviceInfo const &)
	?readNdefMessages@QNearFieldTarget@QtMobility@@UAEXXZ @ 176 NONAME ; void QtMobility::QNearFieldTarget::readNdefMessages(void)
	?toUInt64@QBluetoothAddress@QtMobility@@QBE_KXZ @ 177 NONAME ; unsigned long long QtMobility::QBluetoothAddress::toUInt64(void) const
	?localAddress@QBluetoothSocket@QtMobility@@QBE?AVQBluetoothAddress@2@XZ @ 178 NONAME ; class QtMobility::QBluetoothAddress QtMobility::QBluetoothSocket::localAddress(void) const
	?clear@QNdefFilter@QtMobility@@QAEXXZ @ 179 NONAME ; void QtMobility::QNdefFilter::clear(void)
	?tr@QRfcommServer@QtMobility@@SA?AVQString@@PBD0H@Z @ 180 NONAME ; class QString QtMobility::QRfcommServer::tr(char const *, char const *, int)
	?start@QBluetoothServiceDiscoveryAgent@QtMobility@@QAEXW4DiscoveryMode@12@@Z @ 181 NONAME ; void QtMobility::QBluetoothServiceDiscoveryAgent::start(enum QtMobility::QBluetoothServiceDiscoveryAgent::DiscoveryMode)
	??4QBluetoothTransferRequest@QtMobility@@QAEAAV01@ABV01@@Z @ 182 NONAME ; class QtMobility::QBluetoothTransferRequest & QtMobility::QBluetoothTransferRequest::operator=(class QtMobility::QBluetoothTransferRequest const &)
	?readData@QLlcpSocket@QtMobility@@MAE_JPAD_J@Z @ 183 NONAME ; long long QtMobility::QLlcpSocket::readData(char *, long long)
	?setServiceName@QBluetoothServiceInfo@QtMobility@@QAEXABVQString@@@Z @ 184 NONAME ; void QtMobility::QBluetoothServiceInfo::setServiceName(class QString const &)
	?metaObject@QLlcpServer@QtMobility@@UBEPBUQMetaObject@@XZ @ 185 NONAME ; struct QMetaObject const * QtMobility::QLlcpServer::metaObject(void) const
	?tr@QNearFieldTagType4@QtMobility@@SA?AVQString@@PBD0H@Z @ 186 NONAME ; class QString QtMobility::QNearFieldTagType4::tr(char const *, char const *, int)
	?qt_metacast@QBluetoothSocket@QtMobility@@UAEPAXPBD@Z @ 187 NONAME ; void * QtMobility::QBluetoothSocket::qt_metacast(char const *)
	?getStaticMetaObject@QBluetoothDeviceDiscoveryAgent@QtMobility@@SAABUQMetaObject@@XZ @ 188 NONAME ; struct QMetaObject const & QtMobility::QBluetoothDeviceDiscoveryAgent::getStaticMetaObject(void)
	??1QNdefMessage@QtMobility@@QAE@XZ @ 189 NONAME ; QtMobility::QNdefMessage::~QNdefMessage(void)
	?getStaticMetaObject@QLlcpServer@QtMobility@@SAABUQMetaObject@@XZ @ 190 NONAME ; struct QMetaObject const & QtMobility::QLlcpServer::getStaticMetaObject(void)
	?attribute@QBluetoothTransferRequest@QtMobility@@QBE?AVQVariant@@W4Attribute@12@ABV3@@Z @ 191 NONAME ; class QVariant QtMobility::QBluetoothTransferRequest::attribute(enum QtMobility::QBluetoothTransferRequest::Attribute, class QVariant const &) const
	?trUtf8@QBluetoothTransferReply@QtMobility@@SA?AVQString@@PBD0@Z @ 192 NONAME ; class QString QtMobility::QBluetoothTransferReply::trUtf8(char const *, char const *)
	?handleResponse@QNearFieldTagType3@QtMobility@@MAE_NABVRequestId@QNearFieldTarget@2@ABVQByteArray@@@Z @ 193 NONAME ; bool QtMobility::QNearFieldTagType3::handleResponse(class QtMobility::QNearFieldTarget::RequestId const &, class QByteArray const &)
	?setUuidFilter@QBluetoothServiceDiscoveryAgent@QtMobility@@QAEXABV?$QList@VQBluetoothUuid@QtMobility@@@@@Z @ 194 NONAME ; void QtMobility::QBluetoothServiceDiscoveryAgent::setUuidFilter(class QList<class QtMobility::QBluetoothUuid> const &)
	??0QBluetoothAddress@QtMobility@@QAE@ABV01@@Z @ 195 NONAME ; QtMobility::QBluetoothAddress::QBluetoothAddress(class QtMobility::QBluetoothAddress const &)
	??0QNdefMessage@QtMobility@@QAE@ABV?$QList@VQNdefRecord@QtMobility@@@@@Z @ 196 NONAME ; QtMobility::QNdefMessage::QNdefMessage(class QList<class QtMobility::QNdefRecord> const &)
	??_EQRfcommServer@QtMobility@@UAE@I@Z @ 197 NONAME ; QtMobility::QRfcommServer::~QRfcommServer(unsigned int)
	?disconnected@QLlcpSocket@QtMobility@@IAEXXZ @ 198 NONAME ; void QtMobility::QLlcpSocket::disconnected(void)
	?localName@QBluetoothSocket@QtMobility@@QBE?AVQString@@XZ @ 199 NONAME ; class QString QtMobility::QBluetoothSocket::localName(void) const
	?qt_metacast@QNearFieldTagType4@QtMobility@@UAEPAXPBD@Z @ 200 NONAME ; void * QtMobility::QNearFieldTagType4::qt_metacast(char const *)
	?qt_metacall@QNearFieldTagType4@QtMobility@@UAEHW4Call@QMetaObject@@HPAPAX@Z @ 201 NONAME ; int QtMobility::QNearFieldTagType4::qt_metacall(enum QMetaObject::Call, int, void * *)
	?toUInt16@QBluetoothUuid@QtMobility@@QBEGPA_N@Z @ 202 NONAME ; unsigned short QtMobility::QBluetoothUuid::toUInt16(bool *) const
	?trUtf8@QBluetoothTransferManager@QtMobility@@SA?AVQString@@PBD0@Z @ 203 NONAME ; class QString QtMobility::QBluetoothTransferManager::trUtf8(char const *, char const *)
	??1QNdefRecord@QtMobility@@QAE@XZ @ 204 NONAME ; QtMobility::QNdefRecord::~QNdefRecord(void)
	?getStaticMetaObject@QL2capServer@QtMobility@@SAABUQMetaObject@@XZ @ 205 NONAME ; struct QMetaObject const & QtMobility::QL2capServer::getStaticMetaObject(void)
	?metaObject@QBluetoothTransferReply@QtMobility@@UBEPBUQMetaObject@@XZ @ 206 NONAME ; struct QMetaObject const * QtMobility::QBluetoothTransferReply::metaObject(void) const
	?start@QBluetoothDeviceDiscoveryAgent@QtMobility@@QAEXXZ @ 207 NONAME ; void QtMobility::QBluetoothDeviceDiscoveryAgent::start(void)
	??0QBluetoothUuid@QtMobility@@QAE@W4ProtocolUuid@01@@Z @ 208 NONAME ; QtMobility::QBluetoothUuid::QBluetoothUuid(enum QtMobility::QBluetoothUuid::ProtocolUuid)
	?serverAddress@QL2capServer@QtMobility@@QBE?AVQBluetoothAddress@2@XZ @ 209 NONAME ; class QtMobility::QBluetoothAddress QtMobility::QL2capServer::serverAddress(void) const
	?serverPort@QRfcommServer@QtMobility@@QBEGXZ @ 210 NONAME ; unsigned short QtMobility::QRfcommServer::serverPort(void) const
	?targetAccessModes@QNearFieldManager@QtMobility@@QBE?AV?$QFlags@W4TargetAccessMode@QNearFieldManager@QtMobility@@@@XZ @ 211 NONAME ; class QFlags<enum QtMobility::QNearFieldManager::TargetAccessMode> QtMobility::QNearFieldManager::targetAccessModes(void) const
	?error@QLlcpSocket@QtMobility@@QBE?AW4SocketError@12@XZ @ 212 NONAME ; enum QtMobility::QLlcpSocket::SocketError QtMobility::QLlcpSocket::error(void) const
	?trUtf8@QBluetoothServiceDiscoveryAgent@QtMobility@@SA?AVQString@@PBD0H@Z @ 213 NONAME ; class QString QtMobility::QBluetoothServiceDiscoveryAgent::trUtf8(char const *, char const *, int)
	??9QBluetoothAddress@QtMobility@@QBE_NABV01@@Z @ 214 NONAME ; bool QtMobility::QBluetoothAddress::operator!=(class QtMobility::QBluetoothAddress const &) const
	?d_func@QL2capServer@QtMobility@@ABEPBVQL2capServerPrivate@2@XZ @ 215 NONAME ; class QtMobility::QL2capServerPrivate const * QtMobility::QL2capServer::d_func(void) const
	?setMaxPendingConnections@QRfcommServer@QtMobility@@QAEXH@Z @ 216 NONAME ; void QtMobility::QRfcommServer::setMaxPendingConnections(int)
	??8RequestId@QNearFieldTarget@QtMobility@@QBE_NABV012@@Z @ 217 NONAME ; bool QtMobility::QNearFieldTarget::RequestId::operator==(class QtMobility::QNearFieldTarget::RequestId const &) const
	?finished@QBluetoothDeviceDiscoveryAgent@QtMobility@@IAEXXZ @ 218 NONAME ; void QtMobility::QBluetoothDeviceDiscoveryAgent::finished(void)
	?tr@QNearFieldTagType4@QtMobility@@SA?AVQString@@PBD0@Z @ 219 NONAME ; class QString QtMobility::QNearFieldTagType4::tr(char const *, char const *)
	?trUtf8@QNearFieldTarget@QtMobility@@SA?AVQString@@PBD0H@Z @ 220 NONAME ; class QString QtMobility::QNearFieldTarget::trUtf8(char const *, char const *, int)
	?close@QLlcpServer@QtMobility@@QAEXXZ @ 221 NONAME ; void QtMobility::QLlcpServer::close(void)
	??_EQBluetoothDeviceDiscoveryAgent@QtMobility@@UAE@I@Z @ 222 NONAME ; QtMobility::QBluetoothDeviceDiscoveryAgent::~QBluetoothDeviceDiscoveryAgent(unsigned int)
	?serviceClasses@QBluetoothDeviceInfo@QtMobility@@QBE?AV?$QFlags@W4ServiceClass@QBluetoothDeviceInfo@QtMobility@@@@XZ @ 223 NONAME ; class QFlags<enum QtMobility::QBluetoothDeviceInfo::ServiceClass> QtMobility::QBluetoothDeviceInfo::serviceClasses(void) const
	?d_func@QNearFieldTarget@QtMobility@@AAEPAVQNearFieldTargetPrivate@2@XZ @ 224 NONAME ; class QtMobility::QNearFieldTargetPrivate * QtMobility::QNearFieldTarget::d_func(void)
	?staticMetaObject@QNearFieldManager@QtMobility@@2UQMetaObject@@B @ 225 NONAME ; struct QMetaObject const QtMobility::QNearFieldManager::staticMetaObject
	?isValid@QBluetoothServiceInfo@QtMobility@@QBE_NXZ @ 226 NONAME ; bool QtMobility::QBluetoothServiceInfo::isValid(void) const
	?setHostMode@QBluetoothLocalDevice@QtMobility@@QAEXW4HostMode@12@@Z @ 227 NONAME ; void QtMobility::QBluetoothLocalDevice::setHostMode(enum QtMobility::QBluetoothLocalDevice::HostMode)
	?type@QNearFieldTagType2@QtMobility@@UBE?AW4Type@QNearFieldTarget@2@XZ @ 228 NONAME ; enum QtMobility::QNearFieldTarget::Type QtMobility::QNearFieldTagType2::type(void) const
	?setManufacturerSpecificData@QBluetoothDeviceInfo@QtMobility@@QAEXABVQByteArray@@@Z @ 229 NONAME ; void QtMobility::QBluetoothDeviceInfo::setManufacturerSpecificData(class QByteArray const &)
	??0QBluetoothUuid@QtMobility@@QAE@Uquint128@1@@Z @ 230 NONAME ; QtMobility::QBluetoothUuid::QBluetoothUuid(struct QtMobility::quint128)
	?metaObject@QNearFieldTagType1@QtMobility@@UBEPBUQMetaObject@@XZ @ 231 NONAME ; struct QMetaObject const * QtMobility::QNearFieldTagType1::metaObject(void) const
	?trUtf8@QL2capServer@QtMobility@@SA?AVQString@@PBD0H@Z @ 232 NONAME ; class QString QtMobility::QL2capServer::trUtf8(char const *, char const *, int)
	?d_func@QBluetoothTransferManager@QtMobility@@AAEPAVQBluetoothTranferManagerPrivate@2@XZ @ 233 NONAME ; class QtMobility::QBluetoothTranferManagerPrivate * QtMobility::QBluetoothTransferManager::d_func(void)
	?d_func@QBluetoothServiceInfo@QtMobility@@AAEPAVQBluetoothServiceInfoPrivate@2@XZ @ 234 NONAME ; class QtMobility::QBluetoothServiceInfoPrivate * QtMobility::QBluetoothServiceInfo::d_func(void)
	?getStaticMetaObject@QNearFieldTagType1@QtMobility@@SAABUQMetaObject@@XZ @ 235 NONAME ; struct QMetaObject const & QtMobility::QNearFieldTagType1::getStaticMetaObject(void)
	?typeNameFormat@QNdefRecord@QtMobility@@QBE?AW4TypeNameFormat@12@XZ @ 236 NONAME ; enum QtMobility::QNdefRecord::TypeNameFormat QtMobility::QNdefRecord::typeNameFormat(void) const
	?setUuidFilter@QBluetoothServiceDiscoveryAgent@QtMobility@@QAEXABVQBluetoothUuid@2@@Z @ 237 NONAME ; void QtMobility::QBluetoothServiceDiscoveryAgent::setUuidFilter(class QtMobility::QBluetoothUuid const &)
	?handleResponse@QNearFieldTarget@QtMobility@@MAE_NABVRequestId@12@ABVQByteArray@@@Z @ 238 NONAME ; bool QtMobility::QNearFieldTarget::handleResponse(class QtMobility::QNearFieldTarget::RequestId const &, class QByteArray const &)
	??0QNearFieldTagType1@QtMobility@@QAE@PAVQObject@@@Z @ 239 NONAME ; QtMobility::QNearFieldTagType1::QNearFieldTagType1(class QObject *)
	?tr@QNearFieldTagType1@QtMobility@@SA?AVQString@@PBD0H@Z @ 240 NONAME ; class QString QtMobility::QNearFieldTagType1::tr(char const *, char const *, int)
	??1QNearFieldManager@QtMobility@@UAE@XZ @ 241 NONAME ; QtMobility::QNearFieldManager::~QNearFieldManager(void)
	?finished@QBluetoothTransferManager@QtMobility@@IAEXPAVQBluetoothTransferReply@2@@Z @ 242 NONAME ; void QtMobility::QBluetoothTransferManager::finished(class QtMobility::QBluetoothTransferReply *)
	?serviceClassUuids@QBluetoothServiceInfo@QtMobility@@QBE?AV?$QList@VQBluetoothUuid@QtMobility@@@@XZ @ 243 NONAME ; class QList<class QtMobility::QBluetoothUuid> QtMobility::QBluetoothServiceInfo::serviceClassUuids(void) const
	?memorySize@QNearFieldTagType1@QtMobility@@UAEHXZ @ 244 NONAME ; int QtMobility::QNearFieldTagType1::memorySize(void)
	??1QRfcommServer@QtMobility@@UAE@XZ @ 245 NONAME ; QtMobility::QRfcommServer::~QRfcommServer(void)
	?isListening@QRfcommServer@QtMobility@@QBE_NXZ @ 246 NONAME ; bool QtMobility::QRfcommServer::isListening(void) const
	?isSequential@QBluetoothSocket@QtMobility@@UBE_NXZ @ 247 NONAME ; bool QtMobility::QBluetoothSocket::isSequential(void) const
	??0QNdefMessage@QtMobility@@QAE@ABVQNdefRecord@1@@Z @ 248 NONAME ; QtMobility::QNdefMessage::QNdefMessage(class QtMobility::QNdefRecord const &)
	?staticMetaObject@QNearFieldTagType2@QtMobility@@2UQMetaObject@@B @ 249 NONAME ; struct QMetaObject const QtMobility::QNearFieldTagType2::staticMetaObject
	?setDevice@QBluetoothServiceInfo@QtMobility@@QAEXABVQBluetoothDeviceInfo@2@@Z @ 250 NONAME ; void QtMobility::QBluetoothServiceInfo::setDevice(class QtMobility::QBluetoothDeviceInfo const &)
	?setAttribute@QBluetoothServiceInfo@QtMobility@@QAEXGABVQVariant@@@Z @ 251 NONAME ; void QtMobility::QBluetoothServiceInfo::setAttribute(unsigned short, class QVariant const &)
	?setServiceProvider@QBluetoothServiceInfo@QtMobility@@QAEXABVQString@@@Z @ 252 NONAME ; void QtMobility::QBluetoothServiceInfo::setServiceProvider(class QString const &)
	?payload@QNdefRecord@QtMobility@@QBE?AVQByteArray@@XZ @ 253 NONAME ; class QByteArray QtMobility::QNdefRecord::payload(void) const
	?trUtf8@QNearFieldTagType2@QtMobility@@SA?AVQString@@PBD0@Z @ 254 NONAME ; class QString QtMobility::QNearFieldTagType2::trUtf8(char const *, char const *)
	?refCount@RequestId@QNearFieldTarget@QtMobility@@QBEHXZ @ 255 NONAME ; int QtMobility::QNearFieldTarget::RequestId::refCount(void) const
	??0QBluetoothUuid@QtMobility@@QAE@ABUQUuid@@@Z @ 256 NONAME ; QtMobility::QBluetoothUuid::QBluetoothUuid(struct QUuid const &)
	?text@QNdefNfcTextRecord@QtMobility@@QBE?AVQString@@XZ @ 257 NONAME ; class QString QtMobility::QNdefNfcTextRecord::text(void) const
	?qt_metacall@QLlcpSocket@QtMobility@@UAEHW4Call@QMetaObject@@HPAPAX@Z @ 258 NONAME ; int QtMobility::QLlcpSocket::qt_metacall(enum QMetaObject::Call, int, void * *)
	??1QBluetoothTransferReply@QtMobility@@UAE@XZ @ 259 NONAME ; QtMobility::QBluetoothTransferReply::~QBluetoothTransferReply(void)
	??6QtMobility@@YA?AVQDebug@@V1@W4SocketState@QBluetoothSocket@0@@Z @ 260 NONAME ; class QDebug QtMobility::operator<<(class QDebug, enum QtMobility::QBluetoothSocket::SocketState)
	?isValid@QBluetoothDeviceInfo@QtMobility@@QBE_NXZ @ 261 NONAME ; bool QtMobility::QBluetoothDeviceInfo::isValid(void) const
	?stop@QBluetoothDeviceDiscoveryAgent@QtMobility@@QAEXXZ @ 262 NONAME ; void QtMobility::QBluetoothDeviceDiscoveryAgent::stop(void)
	?peerPort@QBluetoothSocket@QtMobility@@QBEGXZ @ 263 NONAME ; unsigned short QtMobility::QBluetoothSocket::peerPort(void) const
	?tr@QBluetoothDeviceDiscoveryAgent@QtMobility@@SA?AVQString@@PBD0@Z @ 264 NONAME ; class QString QtMobility::QBluetoothDeviceDiscoveryAgent::tr(char const *, char const *)
	?trUtf8@QNearFieldTagType4@QtMobility@@SA?AVQString@@PBD0H@Z @ 265 NONAME ; class QString QtMobility::QNearFieldTagType4::trUtf8(char const *, char const *, int)
	??0QBluetoothUuid@QtMobility@@QAE@XZ @ 266 NONAME ; QtMobility::QBluetoothUuid::QBluetoothUuid(void)
	?socketType@QBluetoothSocket@QtMobility@@QBE?AW4SocketType@12@XZ @ 267 NONAME ; enum QtMobility::QBluetoothSocket::SocketType QtMobility::QBluetoothSocket::socketType(void) const
	??MQBluetoothAddress@QtMobility@@QBE_NABV01@@Z @ 268 NONAME ; bool QtMobility::QBluetoothAddress::operator<(class QtMobility::QBluetoothAddress const &) const
	?serviceAvailability@QBluetoothServiceInfo@QtMobility@@QBEEXZ @ 269 NONAME ; unsigned char QtMobility::QBluetoothServiceInfo::serviceAvailability(void) const
	?securityFlags@QRfcommServer@QtMobility@@QBE?AV?$QFlags@W4Security@QBluetooth@QtMobility@@@@XZ @ 270 NONAME ; class QFlags<enum QtMobility::QBluetooth::Security> QtMobility::QRfcommServer::securityFlags(void) const
	?d_func@QL2capServer@QtMobility@@AAEPAVQL2capServerPrivate@2@XZ @ 271 NONAME ; class QtMobility::QL2capServerPrivate * QtMobility::QL2capServer::d_func(void)
	?staticMetaObject@QBluetoothTransferManager@QtMobility@@2UQMetaObject@@B @ 272 NONAME ; struct QMetaObject const QtMobility::QBluetoothTransferManager::staticMetaObject
	?registerNdefMessageHandler@QNearFieldManager@QtMobility@@QAEHABVQNdefFilter@2@PAVQObject@@PBD@Z @ 273 NONAME ; int QtMobility::QNearFieldManager::registerNdefMessageHandler(class QtMobility::QNdefFilter const &, class QObject *, char const *)
	?memorySize@QNearFieldTagType2@QtMobility@@QAEHXZ @ 274 NONAME ; int QtMobility::QNearFieldTagType2::memorySize(void)
	?setTargetAccessModes@QNearFieldManager@QtMobility@@QAEXV?$QFlags@W4TargetAccessMode@QNearFieldManager@QtMobility@@@@@Z @ 275 NONAME ; void QtMobility::QNearFieldManager::setTargetAccessModes(class QFlags<enum QtMobility::QNearFieldManager::TargetAccessMode>)
	??0QNearFieldTagType3@QtMobility@@QAE@PAVQObject@@@Z @ 276 NONAME ; QtMobility::QNearFieldTagType3::QNearFieldTagType3(class QObject *)
	?address@QBluetoothTransferRequest@QtMobility@@QBE?AVQBluetoothAddress@2@XZ @ 277 NONAME ; class QtMobility::QBluetoothAddress QtMobility::QBluetoothTransferRequest::address(void) const
	??_EQNearFieldTagType1@QtMobility@@UAE@I@Z @ 278 NONAME ; QtMobility::QNearFieldTagType1::~QNearFieldTagType1(unsigned int)
	?serviceDescription@QBluetoothServiceInfo@QtMobility@@QBE?AVQString@@XZ @ 279 NONAME ; class QString QtMobility::QBluetoothServiceInfo::serviceDescription(void) const
	?d_func@QBluetoothDeviceDiscoveryAgent@QtMobility@@ABEPBVQBluetoothDeviceDiscoveryAgentPrivate@2@XZ @ 280 NONAME ; class QtMobility::QBluetoothDeviceDiscoveryAgentPrivate const * QtMobility::QBluetoothDeviceDiscoveryAgent::d_func(void) const
	?fromByteArray@QNdefMessage@QtMobility@@SA?AV12@ABVQByteArray@@@Z @ 281 NONAME ; class QtMobility::QNdefMessage QtMobility::QNdefMessage::fromByteArray(class QByteArray const &)
	??0QBluetoothSocket@QtMobility@@QAE@PAVQObject@@@Z @ 282 NONAME ; QtMobility::QBluetoothSocket::QBluetoothSocket(class QObject *)
	?stateChanged@QBluetoothSocket@QtMobility@@IAEXW4SocketState@12@@Z @ 283 NONAME ; void QtMobility::QBluetoothSocket::stateChanged(enum QtMobility::QBluetoothSocket::SocketState)
	?readSegment@QNearFieldTagType1@QtMobility@@UAE?AVRequestId@QNearFieldTarget@2@E@Z @ 284 NONAME ; class QtMobility::QNearFieldTarget::RequestId QtMobility::QNearFieldTagType1::readSegment(unsigned char)
	?setOrderMatch@QNdefFilter@QtMobility@@QAEX_N@Z @ 285 NONAME ; void QtMobility::QNdefFilter::setOrderMatch(bool)
	?tr@QBluetoothLocalDevice@QtMobility@@SA?AVQString@@PBD0@Z @ 286 NONAME ; class QString QtMobility::QBluetoothLocalDevice::tr(char const *, char const *)
	?getStaticMetaObject@QBluetoothLocalDevice@QtMobility@@SAABUQMetaObject@@XZ @ 287 NONAME ; struct QMetaObject const & QtMobility::QBluetoothLocalDevice::getStaticMetaObject(void)
	?metaObject@QRfcommServer@QtMobility@@UBEPBUQMetaObject@@XZ @ 288 NONAME ; struct QMetaObject const * QtMobility::QRfcommServer::metaObject(void) const
	?d_func@QBluetoothServiceDiscoveryAgent@QtMobility@@AAEPAVQBluetoothServiceDiscoveryAgentPrivate@2@XZ @ 289 NONAME ; class QtMobility::QBluetoothServiceDiscoveryAgentPrivate * QtMobility::QBluetoothServiceDiscoveryAgent::d_func(void)
	?name@QBluetoothLocalDevice@QtMobility@@QBE?AVQString@@XZ @ 290 NONAME ; class QString QtMobility::QBluetoothLocalDevice::name(void) const
	?qNfcChecksum@QtMobility@@YAGPBDI@Z @ 291 NONAME ; unsigned short QtMobility::qNfcChecksum(char const *, unsigned int)
	?attributes@QBluetoothServiceInfo@QtMobility@@QBE?AV?$QList@G@@XZ @ 292 NONAME ; class QList<unsigned short> QtMobility::QBluetoothServiceInfo::attributes(void) const
	?getStaticMetaObject@QNearFieldTarget@QtMobility@@SAABUQMetaObject@@XZ @ 293 NONAME ; struct QMetaObject const & QtMobility::QNearFieldTarget::getStaticMetaObject(void)
	?qt_metacall@QBluetoothLocalDevice@QtMobility@@UAEHW4Call@QMetaObject@@HPAPAX@Z @ 294 NONAME ; int QtMobility::QBluetoothLocalDevice::qt_metacall(enum QMetaObject::Call, int, void * *)
	?peerAddress@QBluetoothSocket@QtMobility@@QBE?AVQBluetoothAddress@2@XZ @ 295 NONAME ; class QtMobility::QBluetoothAddress QtMobility::QBluetoothSocket::peerAddress(void) const
	??0QBluetoothServiceInfo@QtMobility@@QAE@ABV01@@Z @ 296 NONAME ; QtMobility::QBluetoothServiceInfo::QBluetoothServiceInfo(class QtMobility::QBluetoothServiceInfo const &)
	?listen@QLlcpServer@QtMobility@@QAE_NABVQString@@@Z @ 297 NONAME ; bool QtMobility::QLlcpServer::listen(class QString const &)
	?uri@QNdefNfcUriRecord@QtMobility@@QBE?AVQUrl@@XZ @ 298 NONAME ; class QUrl QtMobility::QNdefNfcUriRecord::uri(void) const
	??8QBluetoothTransferRequest@QtMobility@@QBE_NABV01@@Z @ 299 NONAME ; bool QtMobility::QBluetoothTransferRequest::operator==(class QtMobility::QBluetoothTransferRequest const &) const
	?d_func@QBluetoothLocalDevice@QtMobility@@ABEPBVQBluetoothLocalDevicePrivate@2@XZ @ 300 NONAME ; class QtMobility::QBluetoothLocalDevicePrivate const * QtMobility::QBluetoothLocalDevice::d_func(void) const
	?d_func@QNearFieldTagType2@QtMobility@@AAEPAVQNearFieldTagType2Private@2@XZ @ 301 NONAME ; class QtMobility::QNearFieldTagType2Private * QtMobility::QNearFieldTagType2::d_func(void)
	??1QNdefFilter@QtMobility@@QAE@XZ @ 302 NONAME ; QtMobility::QNdefFilter::~QNdefFilter(void)
	?inquiryType@QBluetoothDeviceDiscoveryAgent@QtMobility@@QBE?AW4InquiryType@12@XZ @ 303 NONAME ; enum QtMobility::QBluetoothDeviceDiscoveryAgent::InquiryType QtMobility::QBluetoothDeviceDiscoveryAgent::inquiryType(void) const
	?errorString@QBluetoothDeviceDiscoveryAgent@QtMobility@@QBE?AVQString@@XZ @ 304 NONAME ; class QString QtMobility::QBluetoothDeviceDiscoveryAgent::errorString(void) const
	?isValid@RequestId@QNearFieldTarget@QtMobility@@QBE_NXZ @ 305 NONAME ; bool QtMobility::QNearFieldTarget::RequestId::isValid(void) const
	?setOperation@QBluetoothTransferReply@QtMobility@@IAEXW4Operation@QBluetoothTransferManager@2@@Z @ 306 NONAME ; void QtMobility::QBluetoothTransferReply::setOperation(enum QtMobility::QBluetoothTransferManager::Operation)
	?pairingStatus@QBluetoothLocalDevice@QtMobility@@QBE?AW4Pairing@12@ABVQBluetoothAddress@2@@Z @ 307 NONAME ; enum QtMobility::QBluetoothLocalDevice::Pairing QtMobility::QBluetoothLocalDevice::pairingStatus(class QtMobility::QBluetoothAddress const &) const
	?qt_metacast@QNearFieldTagType2@QtMobility@@UAEPAXPBD@Z @ 308 NONAME ; void * QtMobility::QNearFieldTagType2::qt_metacast(char const *)
	?tr@QRfcommServer@QtMobility@@SA?AVQString@@PBD0@Z @ 309 NONAME ; class QString QtMobility::QRfcommServer::tr(char const *, char const *)
	?trUtf8@QBluetoothServiceDiscoveryAgent@QtMobility@@SA?AVQString@@PBD0@Z @ 310 NONAME ; class QString QtMobility::QBluetoothServiceDiscoveryAgent::trUtf8(char const *, char const *)
	??1QBluetoothDeviceInfo@QtMobility@@QAE@XZ @ 311 NONAME ; QtMobility::QBluetoothDeviceInfo::~QBluetoothDeviceInfo(void)
	?getStaticMetaObject@QNearFieldTagType3@QtMobility@@SAABUQMetaObject@@XZ @ 312 NONAME ; struct QMetaObject const & QtMobility::QNearFieldTagType3::getStaticMetaObject(void)
	?manager@QBluetoothTransferReply@QtMobility@@QBEPAVQBluetoothTransferManager@2@XZ @ 313 NONAME ; class QtMobility::QBluetoothTransferManager * QtMobility::QBluetoothTransferReply::manager(void) const
	??0QBluetoothHostInfo@QtMobility@@QAE@XZ @ 314 NONAME ; QtMobility::QBluetoothHostInfo::QBluetoothHostInfo(void)
	?d_func@QNearFieldTarget@QtMobility@@ABEPBVQNearFieldTargetPrivate@2@XZ @ 315 NONAME ; class QtMobility::QNearFieldTargetPrivate const * QtMobility::QNearFieldTarget::d_func(void) const
	?getStaticMetaObject@QBluetoothServiceDiscoveryAgent@QtMobility@@SAABUQMetaObject@@XZ @ 316 NONAME ; struct QMetaObject const & QtMobility::QBluetoothServiceDiscoveryAgent::getStaticMetaObject(void)
	?error@QBluetoothServiceDiscoveryAgent@QtMobility@@IAEXW4Error@12@@Z @ 317 NONAME ; void QtMobility::QBluetoothServiceDiscoveryAgent::error(enum QtMobility::QBluetoothServiceDiscoveryAgent::Error)
	?metaObject@QBluetoothServiceDiscoveryAgent@QtMobility@@UBEPBUQMetaObject@@XZ @ 318 NONAME ; struct QMetaObject const * QtMobility::QBluetoothServiceDiscoveryAgent::metaObject(void) const
	?readBlock@QNearFieldTagType1@QtMobility@@UAE?AVRequestId@QNearFieldTarget@2@E@Z @ 319 NONAME ; class QtMobility::QNearFieldTarget::RequestId QtMobility::QNearFieldTagType1::readBlock(unsigned char)
	??1QBluetoothHostInfo@QtMobility@@QAE@XZ @ 320 NONAME ; QtMobility::QBluetoothHostInfo::~QBluetoothHostInfo(void)
	?attribute@QBluetoothServiceInfo@QtMobility@@QBE?AVQVariant@@G@Z @ 321 NONAME ; class QVariant QtMobility::QBluetoothServiceInfo::attribute(unsigned short) const
	?select@QNearFieldTagType4@QtMobility@@UAE?AVRequestId@QNearFieldTarget@2@ABVQByteArray@@@Z @ 322 NONAME ; class QtMobility::QNearFieldTarget::RequestId QtMobility::QNearFieldTagType4::select(class QByteArray const &)
	?serviceData@QNearFieldTagType3@QtMobility@@UAE?AVRequestId@QNearFieldTarget@2@G@Z @ 323 NONAME ; class QtMobility::QNearFieldTarget::RequestId QtMobility::QNearFieldTagType3::serviceData(unsigned short)
	?writeDatagram@QLlcpSocket@QtMobility@@QAE_JABVQByteArray@@@Z @ 324 NONAME ; long long QtMobility::QLlcpSocket::writeDatagram(class QByteArray const &)
	?qt_metacall@QNearFieldTagType2@QtMobility@@UAEHW4Call@QMetaObject@@HPAPAX@Z @ 325 NONAME ; int QtMobility::QNearFieldTagType2::qt_metacall(enum QMetaObject::Call, int, void * *)
	?error@QNearFieldTarget@QtMobility@@IAEXW4Error@12@ABVRequestId@12@@Z @ 326 NONAME ; void QtMobility::QNearFieldTarget::error(enum QtMobility::QNearFieldTarget::Error, class QtMobility::QNearFieldTarget::RequestId const &)
	?requestPairing@QBluetoothLocalDevice@QtMobility@@QAEXABVQBluetoothAddress@2@W4Pairing@12@@Z @ 327 NONAME ; void QtMobility::QBluetoothLocalDevice::requestPairing(class QtMobility::QBluetoothAddress const &, enum QtMobility::QBluetoothLocalDevice::Pairing)
	?trUtf8@QNearFieldManager@QtMobility@@SA?AVQString@@PBD0@Z @ 328 NONAME ; class QString QtMobility::QNearFieldManager::trUtf8(char const *, char const *)
	?qt_metacast@QBluetoothLocalDevice@QtMobility@@UAEPAXPBD@Z @ 329 NONAME ; void * QtMobility::QBluetoothLocalDevice::qt_metacast(char const *)
	?isActive@QBluetoothServiceDiscoveryAgent@QtMobility@@QBE_NXZ @ 330 NONAME ; bool QtMobility::QBluetoothServiceDiscoveryAgent::isActive(void) const
	?writeBlock@QNearFieldTagType1@QtMobility@@UAE?AVRequestId@QNearFieldTarget@2@EABVQByteArray@@W4WriteMode@12@@Z @ 331 NONAME ; class QtMobility::QNearFieldTarget::RequestId QtMobility::QNearFieldTagType1::writeBlock(unsigned char, class QByteArray const &, enum QtMobility::QNearFieldTagType1::WriteMode)
	?state@QBluetoothSocket@QtMobility@@QBE?AW4SocketState@12@XZ @ 332 NONAME ; enum QtMobility::QBluetoothSocket::SocketState QtMobility::QBluetoothSocket::state(void) const
	?type@QNearFieldTagType1@QtMobility@@UBE?AW4Type@QNearFieldTarget@2@XZ @ 333 NONAME ; enum QtMobility::QNearFieldTarget::Type QtMobility::QNearFieldTagType1::type(void) const
	?trUtf8@QNearFieldTagType4@QtMobility@@SA?AVQString@@PBD0@Z @ 334 NONAME ; class QString QtMobility::QNearFieldTagType4::trUtf8(char const *, char const *)
	?metaObject@QNearFieldTarget@QtMobility@@UBEPBUQMetaObject@@XZ @ 335 NONAME ; struct QMetaObject const * QtMobility::QNearFieldTarget::metaObject(void) const
	?handleResponse@QNearFieldTagType4@QtMobility@@MAE_NABVRequestId@QNearFieldTarget@2@ABVQByteArray@@@Z @ 336 NONAME ; bool QtMobility::QNearFieldTagType4::handleResponse(class QtMobility::QNearFieldTarget::RequestId const &, class QByteArray const &)
	?setCached@QBluetoothDeviceInfo@QtMobility@@QAEX_N@Z @ 337 NONAME ; void QtMobility::QBluetoothDeviceInfo::setCached(bool)
	??4QBluetoothDeviceInfo@QtMobility@@QAEAAV01@ABV01@@Z @ 338 NONAME ; class QtMobility::QBluetoothDeviceInfo & QtMobility::QBluetoothDeviceInfo::operator=(class QtMobility::QBluetoothDeviceInfo const &)
	??1RequestId@QNearFieldTarget@QtMobility@@QAE@XZ @ 339 NONAME ; QtMobility::QNearFieldTarget::RequestId::~RequestId(void)
	?qt_metacast@QL2capServer@QtMobility@@UAEPAXPBD@Z @ 340 NONAME ; void * QtMobility::QL2capServer::qt_metacast(char const *)
	??MRequestId@QNearFieldTarget@QtMobility@@QBE_NABV012@@Z @ 341 NONAME ; bool QtMobility::QNearFieldTarget::RequestId::operator<(class QtMobility::QNearFieldTarget::RequestId const &) const
	?staticMetaObject@QRfcommServer@QtMobility@@2UQMetaObject@@B @ 342 NONAME ; struct QMetaObject const QtMobility::QRfcommServer::staticMetaObject
	?recordAt@QNdefFilter@QtMobility@@QBE?AURecord@12@H@Z @ 343 NONAME ; struct QtMobility::QNdefFilter::Record QtMobility::QNdefFilter::recordAt(int) const
	?trUtf8@QNearFieldTagType1@QtMobility@@SA?AVQString@@PBD0H@Z @ 344 NONAME ; class QString QtMobility::QNearFieldTagType1::trUtf8(char const *, char const *, int)
	?check@QNearFieldTagType3@QtMobility@@UAE?AVRequestId@QNearFieldTarget@2@ABV?$QMap@GV?$QList@G@@@@@Z @ 345 NONAME ; class QtMobility::QNearFieldTarget::RequestId QtMobility::QNearFieldTagType3::check(class QMap<unsigned short, class QList<unsigned short> > const &)
	?hostMode@QBluetoothLocalDevice@QtMobility@@QBE?AW4HostMode@12@XZ @ 346 NONAME ; enum QtMobility::QBluetoothLocalDevice::HostMode QtMobility::QBluetoothLocalDevice::hostMode(void) const
	?discoveredServices@QBluetoothServiceDiscoveryAgent@QtMobility@@QBE?AV?$QList@VQBluetoothServiceInfo@QtMobility@@@@XZ @ 347 NONAME ; class QList<class QtMobility::QBluetoothServiceInfo> QtMobility::QBluetoothServiceDiscoveryAgent::discoveredServices(void) const
	??8QBluetoothDeviceInfo@QtMobility@@QBE_NABV01@@Z @ 348 NONAME ; bool QtMobility::QBluetoothDeviceInfo::operator==(class QtMobility::QBluetoothDeviceInfo const &) const
	?unregisterService@QBluetoothServiceInfo@QtMobility@@QBE_NXZ @ 349 NONAME ; bool QtMobility::QBluetoothServiceInfo::unregisterService(void) const
	??0QNearFieldManager@QtMobility@@QAE@PAVQNearFieldManagerPrivate@1@PAVQObject@@@Z @ 350 NONAME ; QtMobility::QNearFieldManager::QNearFieldManager(class QtMobility::QNearFieldManagerPrivate *, class QObject *)
	?readNdefMessages@QNearFieldTagType2@QtMobility@@UAEXXZ @ 351 NONAME ; void QtMobility::QNearFieldTagType2::readNdefMessages(void)
	?trUtf8@QBluetoothLocalDevice@QtMobility@@SA?AVQString@@PBD0H@Z @ 352 NONAME ; class QString QtMobility::QBluetoothLocalDevice::trUtf8(char const *, char const *, int)
	?d_func@QRfcommServer@QtMobility@@ABEPBVQRfcommServerPrivate@2@XZ @ 353 NONAME ; class QtMobility::QRfcommServerPrivate const * QtMobility::QRfcommServer::d_func(void) const
	?close@QBluetoothSocket@QtMobility@@UAEXXZ @ 354 NONAME ; void QtMobility::QBluetoothSocket::close(void)
	?tr@QBluetoothServiceDiscoveryAgent@QtMobility@@SA?AVQString@@PBD0@Z @ 355 NONAME ; class QString QtMobility::QBluetoothServiceDiscoveryAgent::tr(char const *, char const *)
	?qt_metacall@QLlcpServer@QtMobility@@UAEHW4Call@QMetaObject@@HPAPAX@Z @ 356 NONAME ; int QtMobility::QLlcpServer::qt_metacall(enum QMetaObject::Call, int, void * *)
	?serverPort@QL2capServer@QtMobility@@QBEGXZ @ 357 NONAME ; unsigned short QtMobility::QL2capServer::serverPort(void) const
	?qt_metacast@QNearFieldManager@QtMobility@@UAEPAXPBD@Z @ 358 NONAME ; void * QtMobility::QNearFieldManager::qt_metacast(char const *)
	?tr@QBluetoothServiceDiscoveryAgent@QtMobility@@SA?AVQString@@PBD0H@Z @ 359 NONAME ; class QString QtMobility::QBluetoothServiceDiscoveryAgent::tr(char const *, char const *, int)
	?appendRecord@QNdefFilter@QtMobility@@QAEXW4TypeNameFormat@QNdefRecord@2@ABVQByteArray@@II@Z @ 360 NONAME ; void QtMobility::QNdefFilter::appendRecord(enum QtMobility::QNdefRecord::TypeNameFormat, class QByteArray const &, unsigned int, unsigned int)
	?put@QBluetoothTransferManager@QtMobility@@QAEPAVQBluetoothTransferReply@2@ABVQBluetoothTransferRequest@2@PAVQIODevice@@@Z @ 361 NONAME ; class QtMobility::QBluetoothTransferReply * QtMobility::QBluetoothTransferManager::put(class QtMobility::QBluetoothTransferRequest const &, class QIODevice *)
	?tr@QBluetoothTransferManager@QtMobility@@SA?AVQString@@PBD0H@Z @ 362 NONAME ; class QString QtMobility::QBluetoothTransferManager::tr(char const *, char const *, int)
	?disconnected@QNearFieldTarget@QtMobility@@IAEXXZ @ 363 NONAME ; void QtMobility::QNearFieldTarget::disconnected(void)
	?d_func@QLlcpSocket@QtMobility@@AAEPAVQLlcpSocketPrivate@2@XZ @ 364 NONAME ; class QtMobility::QLlcpSocketPrivate * QtMobility::QLlcpSocket::d_func(void)
	??0QBluetoothLocalDevice@QtMobility@@QAE@PAVQObject@@@Z @ 365 NONAME ; QtMobility::QBluetoothLocalDevice::QBluetoothLocalDevice(class QObject *)
	?qt_metacall@QBluetoothTransferReply@QtMobility@@UAEHW4Call@QMetaObject@@HPAPAX@Z @ 366 NONAME ; int QtMobility::QBluetoothTransferReply::qt_metacall(enum QMetaObject::Call, int, void * *)
	?update@QNearFieldTagType3@QtMobility@@UAE?AVRequestId@QNearFieldTarget@2@ABV?$QMap@GV?$QList@G@@@@ABVQByteArray@@@Z @ 367 NONAME ; class QtMobility::QNearFieldTarget::RequestId QtMobility::QNearFieldTagType3::update(class QMap<unsigned short, class QList<unsigned short> > const &, class QByteArray const &)
	?trUtf8@QBluetoothSocket@QtMobility@@SA?AVQString@@PBD0H@Z @ 368 NONAME ; class QString QtMobility::QBluetoothSocket::trUtf8(char const *, char const *, int)
	?writeDatagram@QLlcpSocket@QtMobility@@QAE_JPBD_JPAVQNearFieldTarget@2@E@Z @ 369 NONAME ; long long QtMobility::QLlcpSocket::writeDatagram(char const *, long long, class QtMobility::QNearFieldTarget *, unsigned char)
	??0QBluetoothServiceInfo@QtMobility@@QAE@XZ @ 370 NONAME ; QtMobility::QBluetoothServiceInfo::QBluetoothServiceInfo(void)
	?unregisterNdefMessageHandler@QNearFieldManager@QtMobility@@QAE_NH@Z @ 371 NONAME ; bool QtMobility::QNearFieldManager::unregisterNdefMessageHandler(int)
	?connected@QBluetoothSocket@QtMobility@@IAEXXZ @ 372 NONAME ; void QtMobility::QBluetoothSocket::connected(void)
	??_EQNearFieldManager@QtMobility@@UAE@I@Z @ 373 NONAME ; QtMobility::QNearFieldManager::~QNearFieldManager(unsigned int)
	?d_func@QLlcpServer@QtMobility@@AAEPAVQLlcpServerPrivate@2@XZ @ 374 NONAME ; class QtMobility::QLlcpServerPrivate * QtMobility::QLlcpServer::d_func(void)
	??0QBluetoothServiceDiscoveryAgent@QtMobility@@QAE@PAVQObject@@@Z @ 375 NONAME ; QtMobility::QBluetoothServiceDiscoveryAgent::QBluetoothServiceDiscoveryAgent(class QObject *)
	?systemCode@QNearFieldTagType3@QtMobility@@QAEGXZ @ 376 NONAME ; unsigned short QtMobility::QNearFieldTagType3::systemCode(void)
	?newConnection@QRfcommServer@QtMobility@@IAEXXZ @ 377 NONAME ; void QtMobility::QRfcommServer::newConnection(void)
	?qt_metacast@QRfcommServer@QtMobility@@UAEPAXPBD@Z @ 378 NONAME ; void * QtMobility::QRfcommServer::qt_metacast(char const *)
	?setUri@QNdefNfcUriRecord@QtMobility@@QAEXABVQUrl@@@Z @ 379 NONAME ; void QtMobility::QNdefNfcUriRecord::setUri(class QUrl const &)
	??_EQBluetoothTransferManager@QtMobility@@UAE@I@Z @ 380 NONAME ; QtMobility::QBluetoothTransferManager::~QBluetoothTransferManager(unsigned int)
	?close@QRfcommServer@QtMobility@@QAEXXZ @ 381 NONAME ; void QtMobility::QRfcommServer::close(void)
	?readNdefMessages@QNearFieldTagType1@QtMobility@@UAEXXZ @ 382 NONAME ; void QtMobility::QNearFieldTagType1::readNdefMessages(void)
	?setAttribute@QBluetoothServiceInfo@QtMobility@@QAEXGABVQBluetoothUuid@2@@Z @ 383 NONAME ; void QtMobility::QBluetoothServiceInfo::setAttribute(unsigned short, class QtMobility::QBluetoothUuid const &)
	??0QBluetoothUuid@QtMobility@@QAE@W4ServiceClassUuid@01@@Z @ 384 NONAME ; QtMobility::QBluetoothUuid::QBluetoothUuid(enum QtMobility::QBluetoothUuid::ServiceClassUuid)
	??0QBluetoothUuid@QtMobility@@QAE@ABV01@@Z @ 385 NONAME ; QtMobility::QBluetoothUuid::QBluetoothUuid(class QtMobility::QBluetoothUuid const &)
	??0QBluetoothDeviceDiscoveryAgent@QtMobility@@QAE@PAVQObject@@@Z @ 386 NONAME ; QtMobility::QBluetoothDeviceDiscoveryAgent::QBluetoothDeviceDiscoveryAgent(class QObject *)
	?disconnected@QBluetoothSocket@QtMobility@@IAEXXZ @ 387 NONAME ; void QtMobility::QBluetoothSocket::disconnected(void)
	?serverPort@QLlcpServer@QtMobility@@QBEEXZ @ 388 NONAME ; unsigned char QtMobility::QLlcpServer::serverPort(void) const
	?setMaxPendingConnections@QL2capServer@QtMobility@@QAEXH@Z @ 389 NONAME ; void QtMobility::QL2capServer::setMaxPendingConnections(int)
	?setSecurityFlags@QRfcommServer@QtMobility@@QAEXV?$QFlags@W4Security@QBluetooth@QtMobility@@@@@Z @ 390 NONAME ; void QtMobility::QRfcommServer::setSecurityFlags(class QFlags<enum QtMobility::QBluetooth::Security>)
	??8QNdefRecord@QtMobility@@QBE_NABV01@@Z @ 391 NONAME ; bool QtMobility::QNdefRecord::operator==(class QtMobility::QNdefRecord const &) const
	??0QBluetoothTransferRequest@QtMobility@@QAE@ABVQBluetoothAddress@1@@Z @ 392 NONAME ; QtMobility::QBluetoothTransferRequest::QBluetoothTransferRequest(class QtMobility::QBluetoothAddress const &)
	?qt_metacall@QRfcommServer@QtMobility@@UAEHW4Call@QMetaObject@@HPAPAX@Z @ 393 NONAME ; int QtMobility::QRfcommServer::qt_metacall(enum QMetaObject::Call, int, void * *)
	?setInquiryType@QBluetoothDeviceDiscoveryAgent@QtMobility@@QAEXW4InquiryType@12@@Z @ 394 NONAME ; void QtMobility::QBluetoothDeviceDiscoveryAgent::setInquiryType(enum QtMobility::QBluetoothDeviceDiscoveryAgent::InquiryType)
	??_EQNearFieldTagType3@QtMobility@@UAE@I@Z @ 395 NONAME ; QtMobility::QNearFieldTagType3::~QNearFieldTagType3(unsigned int)
	?listen@QL2capServer@QtMobility@@QAE_NABVQBluetoothAddress@2@G@Z @ 396 NONAME ; bool QtMobility::QL2capServer::listen(class QtMobility::QBluetoothAddress const &, unsigned short)
	?metaObject@QNearFieldTagType3@QtMobility@@UBEPBUQMetaObject@@XZ @ 397 NONAME ; struct QMetaObject const * QtMobility::QNearFieldTagType3::metaObject(void) const
	??9QNdefRecord@QtMobility@@QBE_NABV01@@Z @ 398 NONAME ; bool QtMobility::QNdefRecord::operator!=(class QtMobility::QNdefRecord const &) const
	?isValid@QBluetoothLocalDevice@QtMobility@@QBE_NXZ @ 399 NONAME ; bool QtMobility::QBluetoothLocalDevice::isValid(void) const
	?setSocketDescriptor@QBluetoothSocket@QtMobility@@QAE_NHW4SocketType@12@W4SocketState@12@V?$QFlags@W4OpenModeFlag@QIODevice@@@@@Z @ 400 NONAME ; bool QtMobility::QBluetoothSocket::setSocketDescriptor(int, enum QtMobility::QBluetoothSocket::SocketType, enum QtMobility::QBluetoothSocket::SocketState, class QFlags<enum QIODevice::OpenModeFlag>)
	?bytesToWrite@QBluetoothSocket@QtMobility@@UBE_JXZ @ 401 NONAME ; long long QtMobility::QBluetoothSocket::bytesToWrite(void) const
	?waitForRequestCompleted@QNearFieldTagType2@QtMobility@@UAE_NABVRequestId@QNearFieldTarget@2@H@Z @ 402 NONAME ; bool QtMobility::QNearFieldTagType2::waitForRequestCompleted(class QtMobility::QNearFieldTarget::RequestId const &, int)
	?trUtf8@QLlcpSocket@QtMobility@@SA?AVQString@@PBD0H@Z @ 403 NONAME ; class QString QtMobility::QLlcpSocket::trUtf8(char const *, char const *, int)
	?getStaticMetaObject@QBluetoothSocket@QtMobility@@SAABUQMetaObject@@XZ @ 404 NONAME ; struct QMetaObject const & QtMobility::QBluetoothSocket::getStaticMetaObject(void)
	?listen@QRfcommServer@QtMobility@@QAE_NABVQBluetoothAddress@2@G@Z @ 405 NONAME ; bool QtMobility::QRfcommServer::listen(class QtMobility::QBluetoothAddress const &, unsigned short)
	?d_func@QNearFieldTagType2@QtMobility@@ABEPBVQNearFieldTagType2Private@2@XZ @ 406 NONAME ; class QtMobility::QNearFieldTagType2Private const * QtMobility::QNearFieldTagType2::d_func(void) const
	?staticMetaObject@QNearFieldTagType4@QtMobility@@2UQMetaObject@@B @ 407 NONAME ; struct QMetaObject const QtMobility::QNearFieldTagType4::staticMetaObject
	?tr@QNearFieldTagType3@QtMobility@@SA?AVQString@@PBD0H@Z @ 408 NONAME ; class QString QtMobility::QNearFieldTagType3::tr(char const *, char const *, int)
	??0QLlcpSocket@QtMobility@@AAE@PAVQLlcpSocketPrivate@1@PAVQObject@@@Z @ 409 NONAME ; QtMobility::QLlcpSocket::QLlcpSocket(class QtMobility::QLlcpSocketPrivate *, class QObject *)
	?serviceMemorySize@QNearFieldTagType3@QtMobility@@QAEHG@Z @ 410 NONAME ; int QtMobility::QNearFieldTagType3::serviceMemorySize(unsigned short)
	?rssi@QBluetoothDeviceInfo@QtMobility@@QBEFXZ @ 411 NONAME ; short QtMobility::QBluetoothDeviceInfo::rssi(void) const
	?tr@QNearFieldTagType1@QtMobility@@SA?AVQString@@PBD0@Z @ 412 NONAME ; class QString QtMobility::QNearFieldTagType1::tr(char const *, char const *)
	?canReadLine@QBluetoothSocket@QtMobility@@UBE_NXZ @ 413 NONAME ; bool QtMobility::QBluetoothSocket::canReadLine(void) const
	?bind@QLlcpSocket@QtMobility@@QAE_NE@Z @ 414 NONAME ; bool QtMobility::QLlcpSocket::bind(unsigned char)
	??_EQL2capServer@QtMobility@@UAE@I@Z @ 415 NONAME ; QtMobility::QL2capServer::~QL2capServer(unsigned int)
	?error@QBluetoothServiceDiscoveryAgent@QtMobility@@QBE?AW4Error@12@XZ @ 416 NONAME ; enum QtMobility::QBluetoothServiceDiscoveryAgent::Error QtMobility::QBluetoothServiceDiscoveryAgent::error(void) const
	?writeNdefMessages@QNearFieldTagType2@QtMobility@@UAEXABV?$QList@VQNdefMessage@QtMobility@@@@@Z @ 417 NONAME ; void QtMobility::QNearFieldTagType2::writeNdefMessages(class QList<class QtMobility::QNdefMessage> const &)
	??_EQLlcpServer@QtMobility@@UAE@I@Z @ 418 NONAME ; QtMobility::QLlcpServer::~QLlcpServer(unsigned int)
	??4QNdefRecord@QtMobility@@QAEAAV01@ABV01@@Z @ 419 NONAME ; class QtMobility::QNdefRecord & QtMobility::QNdefRecord::operator=(class QtMobility::QNdefRecord const &)
	?metaObject@QL2capServer@QtMobility@@UBEPBUQMetaObject@@XZ @ 420 NONAME ; struct QMetaObject const * QtMobility::QL2capServer::metaObject(void) const
	?toUInt32@QBluetoothUuid@QtMobility@@QBEIPA_N@Z @ 421 NONAME ; unsigned int QtMobility::QBluetoothUuid::toUInt32(bool *) const
	??0QBluetoothDeviceInfo@QtMobility@@QAE@ABVQBluetoothAddress@1@ABVQString@@I@Z @ 422 NONAME ; QtMobility::QBluetoothDeviceInfo::QBluetoothDeviceInfo(class QtMobility::QBluetoothAddress const &, class QString const &, unsigned int)
	?connectToService@QBluetoothSocket@QtMobility@@QAEXABVQBluetoothServiceInfo@2@V?$QFlags@W4OpenModeFlag@QIODevice@@@@@Z @ 423 NONAME ; void QtMobility::QBluetoothSocket::connectToService(class QtMobility::QBluetoothServiceInfo const &, class QFlags<enum QIODevice::OpenModeFlag>)
	?timerEvent@QNearFieldTagType2@QtMobility@@UAEXPAVQTimerEvent@@@Z @ 424 NONAME ; void QtMobility::QNearFieldTagType2::timerEvent(class QTimerEvent *)
	?tr@QBluetoothTransferManager@QtMobility@@SA?AVQString@@PBD0@Z @ 425 NONAME ; class QString QtMobility::QBluetoothTransferManager::tr(char const *, char const *)
	?trUtf8@QBluetoothTransferManager@QtMobility@@SA?AVQString@@PBD0H@Z @ 426 NONAME ; class QString QtMobility::QBluetoothTransferManager::trUtf8(char const *, char const *, int)
	?setSocketState@QBluetoothSocket@QtMobility@@IAEXW4SocketState@12@@Z @ 427 NONAME ; void QtMobility::QBluetoothSocket::setSocketState(enum QtMobility::QBluetoothSocket::SocketState)
	?getName@QBluetoothHostInfo@QtMobility@@QBE?AVQString@@XZ @ 428 NONAME ; class QString QtMobility::QBluetoothHostInfo::getName(void) const
	?version@QNearFieldTagType4@QtMobility@@QAEEXZ @ 429 NONAME ; unsigned char QtMobility::QNearFieldTagType4::version(void)
	?requestCompleted@QNearFieldTarget@QtMobility@@IAEXABVRequestId@12@@Z @ 430 NONAME ; void QtMobility::QNearFieldTarget::requestCompleted(class QtMobility::QNearFieldTarget::RequestId const &)
	?trUtf8@QLlcpServer@QtMobility@@SA?AVQString@@PBD0@Z @ 431 NONAME ; class QString QtMobility::QLlcpServer::trUtf8(char const *, char const *)
	?setTypeNameFormat@QNdefRecord@QtMobility@@QAEXW4TypeNameFormat@12@@Z @ 432 NONAME ; void QtMobility::QNdefRecord::setTypeNameFormat(enum QtMobility::QNdefRecord::TypeNameFormat)
	?d_func@QNearFieldTagType1@QtMobility@@AAEPAVQNearFieldTagType1Private@2@XZ @ 433 NONAME ; class QtMobility::QNearFieldTagType1Private * QtMobility::QNearFieldTagType1::d_func(void)
	?name@QBluetoothDeviceInfo@QtMobility@@QBE?AVQString@@XZ @ 434 NONAME ; class QString QtMobility::QBluetoothDeviceInfo::name(void) const
	?serverChannel@QBluetoothServiceInfo@QtMobility@@QBEHXZ @ 435 NONAME ; int QtMobility::QBluetoothServiceInfo::serverChannel(void) const
	?tr@QLlcpSocket@QtMobility@@SA?AVQString@@PBD0H@Z @ 436 NONAME ; class QString QtMobility::QLlcpSocket::tr(char const *, char const *, int)
	??0QBluetoothUuid@QtMobility@@QAE@G@Z @ 437 NONAME ; QtMobility::QBluetoothUuid::QBluetoothUuid(unsigned short)
	?waitForBytesWritten@QLlcpSocket@QtMobility@@UAE_NH@Z @ 438 NONAME ; bool QtMobility::QLlcpSocket::waitForBytesWritten(int)
	??1QBluetoothTransferRequest@QtMobility@@QAE@XZ @ 439 NONAME ; QtMobility::QBluetoothTransferRequest::~QBluetoothTransferRequest(void)
	?hasPendingConnections@QRfcommServer@QtMobility@@QBE_NXZ @ 440 NONAME ; bool QtMobility::QRfcommServer::hasPendingConnections(void) const
	?writeDatagram@QLlcpSocket@QtMobility@@QAE_JPBD_J@Z @ 441 NONAME ; long long QtMobility::QLlcpSocket::writeDatagram(char const *, long long)
	?encoding@QNdefNfcTextRecord@QtMobility@@QBE?AW4Encoding@12@XZ @ 442 NONAME ; enum QtMobility::QNdefNfcTextRecord::Encoding QtMobility::QNdefNfcTextRecord::encoding(void) const
	?getStaticMetaObject@QNearFieldManager@QtMobility@@SAABUQMetaObject@@XZ @ 443 NONAME ; struct QMetaObject const & QtMobility::QNearFieldManager::getStaticMetaObject(void)
	??0QNdefRecord@QtMobility@@IAE@W4TypeNameFormat@01@ABVQByteArray@@@Z @ 444 NONAME ; QtMobility::QNdefRecord::QNdefRecord(enum QtMobility::QNdefRecord::TypeNameFormat, class QByteArray const &)
	?hasPendingConnections@QL2capServer@QtMobility@@QBE_NXZ @ 445 NONAME ; bool QtMobility::QL2capServer::hasPendingConnections(void) const
	??6QtMobility@@YA?AVQDebug@@V1@ABVQBluetoothServiceInfo@0@@Z @ 446 NONAME ; class QDebug QtMobility::operator<<(class QDebug, class QtMobility::QBluetoothServiceInfo const &)
	?nextPendingConnection@QL2capServer@QtMobility@@QAEPAVQBluetoothSocket@2@XZ @ 447 NONAME ; class QtMobility::QBluetoothSocket * QtMobility::QL2capServer::nextPendingConnection(void)
	?tr@QLlcpSocket@QtMobility@@SA?AVQString@@PBD0@Z @ 448 NONAME ; class QString QtMobility::QLlcpSocket::tr(char const *, char const *)
	?finished@QBluetoothTransferReply@QtMobility@@IAEXPAV12@@Z @ 449 NONAME ; void QtMobility::QBluetoothTransferReply::finished(class QtMobility::QBluetoothTransferReply *)
	?powerOn@QBluetoothLocalDevice@QtMobility@@QAEXXZ @ 450 NONAME ; void QtMobility::QBluetoothLocalDevice::powerOn(void)
	??8QBluetoothUuid@QtMobility@@QBE_NABV01@@Z @ 451 NONAME ; bool QtMobility::QBluetoothUuid::operator==(class QtMobility::QBluetoothUuid const &) const
	??8QBluetoothAddress@QtMobility@@QBE_NABV01@@Z @ 452 NONAME ; bool QtMobility::QBluetoothAddress::operator==(class QtMobility::QBluetoothAddress const &) const
	?qt_metacast@QBluetoothDeviceDiscoveryAgent@QtMobility@@UAEPAXPBD@Z @ 453 NONAME ; void * QtMobility::QBluetoothDeviceDiscoveryAgent::qt_metacast(char const *)
	?removeAttribute@QBluetoothServiceInfo@QtMobility@@QAEXG@Z @ 454 NONAME ; void QtMobility::QBluetoothServiceInfo::removeAttribute(unsigned short)
	?writeByte@QNearFieldTagType1@QtMobility@@UAE?AVRequestId@QNearFieldTarget@2@EEW4WriteMode@12@@Z @ 455 NONAME ; class QtMobility::QNearFieldTarget::RequestId QtMobility::QNearFieldTagType1::writeByte(unsigned char, unsigned char, enum QtMobility::QNearFieldTagType1::WriteMode)
	??0RequestId@QNearFieldTarget@QtMobility@@QAE@PAVRequestIdPrivate@12@@Z @ 456 NONAME ; QtMobility::QNearFieldTarget::RequestId::RequestId(class QtMobility::QNearFieldTarget::RequestIdPrivate *)
	?qt_metacast@QBluetoothTransferManager@QtMobility@@UAEPAXPBD@Z @ 457 NONAME ; void * QtMobility::QBluetoothTransferManager::qt_metacast(char const *)
	?trUtf8@QRfcommServer@QtMobility@@SA?AVQString@@PBD0H@Z @ 458 NONAME ; class QString QtMobility::QRfcommServer::trUtf8(char const *, char const *, int)
	?clear@QBluetoothServiceDiscoveryAgent@QtMobility@@QAEXXZ @ 459 NONAME ; void QtMobility::QBluetoothServiceDiscoveryAgent::clear(void)
	??0QBluetoothLocalDevice@QtMobility@@QAE@ABVQBluetoothAddress@1@PAVQObject@@@Z @ 460 NONAME ; QtMobility::QBluetoothLocalDevice::QBluetoothLocalDevice(class QtMobility::QBluetoothAddress const &, class QObject *)
	?orderMatch@QNdefFilter@QtMobility@@QBE_NXZ @ 461 NONAME ; bool QtMobility::QNdefFilter::orderMatch(void) const
	?url@QNearFieldTarget@QtMobility@@UBE?AVQUrl@@XZ @ 462 NONAME ; class QUrl QtMobility::QNearFieldTarget::url(void) const
	??0QNdefRecord@QtMobility@@QAE@XZ @ 463 NONAME ; QtMobility::QNdefRecord::QNdefRecord(void)
	?serviceProvider@QBluetoothServiceInfo@QtMobility@@QBE?AVQString@@XZ @ 464 NONAME ; class QString QtMobility::QBluetoothServiceInfo::serviceProvider(void) const
	??6QtMobility@@YA?AVQDebug@@V1@W4SocketError@QBluetoothSocket@0@@Z @ 465 NONAME ; class QDebug QtMobility::operator<<(class QDebug, enum QtMobility::QBluetoothSocket::SocketError)
	??0QBluetoothUuid@QtMobility@@QAE@ABVQString@@@Z @ 466 NONAME ; QtMobility::QBluetoothUuid::QBluetoothUuid(class QString const &)
	??0QNdefMessage@QtMobility@@QAE@XZ @ 467 NONAME ; QtMobility::QNdefMessage::QNdefMessage(void)
	?d_func@QBluetoothServiceDiscoveryAgent@QtMobility@@ABEPBVQBluetoothServiceDiscoveryAgentPrivate@2@XZ @ 468 NONAME ; class QtMobility::QBluetoothServiceDiscoveryAgentPrivate const * QtMobility::QBluetoothServiceDiscoveryAgent::d_func(void) const
	?setName@QBluetoothHostInfo@QtMobility@@QAEXABVQString@@@Z @ 469 NONAME ; void QtMobility::QBluetoothHostInfo::setName(class QString const &)
	?getStaticMetaObject@QRfcommServer@QtMobility@@SAABUQMetaObject@@XZ @ 470 NONAME ; struct QMetaObject const & QtMobility::QRfcommServer::getStaticMetaObject(void)
	?isComplete@QBluetoothServiceInfo@QtMobility@@QBE_NXZ @ 471 NONAME ; bool QtMobility::QBluetoothServiceInfo::isComplete(void) const
	?error@QBluetoothDeviceDiscoveryAgent@QtMobility@@QBE?AW4Error@12@XZ @ 472 NONAME ; enum QtMobility::QBluetoothDeviceDiscoveryAgent::Error QtMobility::QBluetoothDeviceDiscoveryAgent::error(void) const
	?hostModeStateChanged@QBluetoothLocalDevice@QtMobility@@IAEXW4HostMode@12@@Z @ 473 NONAME ; void QtMobility::QBluetoothLocalDevice::hostModeStateChanged(enum QtMobility::QBluetoothLocalDevice::HostMode)
	?registerNdefMessageHandler@QNearFieldManager@QtMobility@@QAEHPAVQObject@@PBD@Z @ 474 NONAME ; int QtMobility::QNearFieldManager::registerNdefMessageHandler(class QObject *, char const *)
	?requestResponse@QNearFieldTarget@QtMobility@@QAE?AVQVariant@@ABVRequestId@12@@Z @ 475 NONAME ; class QVariant QtMobility::QNearFieldTarget::requestResponse(class QtMobility::QNearFieldTarget::RequestId const &)
	?d_func@QBluetoothDeviceInfo@QtMobility@@AAEPAVQBluetoothDeviceInfoPrivate@2@XZ @ 476 NONAME ; class QtMobility::QBluetoothDeviceInfoPrivate * QtMobility::QBluetoothDeviceInfo::d_func(void)
	?serverError@QLlcpServer@QtMobility@@QBE?AW4SocketError@QLlcpSocket@2@XZ @ 477 NONAME ; enum QtMobility::QLlcpSocket::SocketError QtMobility::QLlcpServer::serverError(void) const
	?pairingDisplayPinCode@QBluetoothLocalDevice@QtMobility@@IAEXABVQBluetoothAddress@2@VQString@@@Z @ 478 NONAME ; void QtMobility::QBluetoothLocalDevice::pairingDisplayPinCode(class QtMobility::QBluetoothAddress const &, class QString)
	??0QBluetoothTransferReply@QtMobility@@IAE@PAVQObject@@@Z @ 479 NONAME ; QtMobility::QBluetoothTransferReply::QBluetoothTransferReply(class QObject *)
	?qt_metacall@QBluetoothTransferManager@QtMobility@@UAEHW4Call@QMetaObject@@HPAPAX@Z @ 480 NONAME ; int QtMobility::QBluetoothTransferManager::qt_metacall(enum QMetaObject::Call, int, void * *)
	?majorDeviceClass@QBluetoothDeviceInfo@QtMobility@@QBE?AW4MajorDeviceClass@12@XZ @ 481 NONAME ; enum QtMobility::QBluetoothDeviceInfo::MajorDeviceClass QtMobility::QBluetoothDeviceInfo::majorDeviceClass(void) const
	?trUtf8@QBluetoothDeviceDiscoveryAgent@QtMobility@@SA?AVQString@@PBD0@Z @ 482 NONAME ; class QString QtMobility::QBluetoothDeviceDiscoveryAgent::trUtf8(char const *, char const *)
	?contains@QBluetoothServiceInfo@QtMobility@@QBE_NG@Z @ 483 NONAME ; bool QtMobility::QBluetoothServiceInfo::contains(unsigned short) const
	?securityFlags@QL2capServer@QtMobility@@QBE?AV?$QFlags@W4Security@QBluetooth@QtMobility@@@@XZ @ 484 NONAME ; class QFlags<enum QtMobility::QBluetooth::Security> QtMobility::QL2capServer::securityFlags(void) const
	??4QBluetoothServiceInfo@QtMobility@@QAEAAV01@ABV01@@Z @ 485 NONAME ; class QtMobility::QBluetoothServiceInfo & QtMobility::QBluetoothServiceInfo::operator=(class QtMobility::QBluetoothServiceInfo const &)
	?isCached@QBluetoothDeviceInfo@QtMobility@@QBE_NXZ @ 486 NONAME ; bool QtMobility::QBluetoothDeviceInfo::isCached(void) const
	?metaObject@QBluetoothSocket@QtMobility@@UBEPBUQMetaObject@@XZ @ 487 NONAME ; struct QMetaObject const * QtMobility::QBluetoothSocket::metaObject(void) const
	?isListening@QL2capServer@QtMobility@@QBE_NXZ @ 488 NONAME ; bool QtMobility::QL2capServer::isListening(void) const
	?qt_metacall@QNearFieldManager@QtMobility@@UAEHW4Call@QMetaObject@@HPAPAX@Z @ 489 NONAME ; int QtMobility::QNearFieldManager::qt_metacall(enum QMetaObject::Call, int, void * *)
	?hasNdefMessage@QNearFieldTagType2@QtMobility@@UAE_NXZ @ 490 NONAME ; bool QtMobility::QNearFieldTagType2::hasNdefMessage(void)
	?staticMetaObject@QNearFieldTagType1@QtMobility@@2UQMetaObject@@B @ 491 NONAME ; struct QMetaObject const QtMobility::QNearFieldTagType1::staticMetaObject
	?handleResponse@QNearFieldTagType1@QtMobility@@MAE_NABVRequestId@QNearFieldTarget@2@ABVQByteArray@@@Z @ 492 NONAME ; bool QtMobility::QNearFieldTagType1::handleResponse(class QtMobility::QNearFieldTarget::RequestId const &, class QByteArray const &)
	?tr@QL2capServer@QtMobility@@SA?AVQString@@PBD0H@Z @ 493 NONAME ; class QString QtMobility::QL2capServer::tr(char const *, char const *, int)
	?address@QBluetoothDeviceInfo@QtMobility@@QBE?AVQBluetoothAddress@2@XZ @ 494 NONAME ; class QtMobility::QBluetoothAddress QtMobility::QBluetoothDeviceInfo::address(void) const
	?version@QNearFieldTagType2@QtMobility@@QAEEXZ @ 495 NONAME ; unsigned char QtMobility::QNearFieldTagType2::version(void)
	?tr@QNearFieldTagType3@QtMobility@@SA?AVQString@@PBD0@Z @ 496 NONAME ; class QString QtMobility::QNearFieldTagType3::tr(char const *, char const *)
	?hasNdefMessage@QNearFieldTarget@QtMobility@@UAE_NXZ @ 497 NONAME ; bool QtMobility::QNearFieldTarget::hasNdefMessage(void)
	?waitForReadyRead@QLlcpSocket@QtMobility@@UAE_NH@Z @ 498 NONAME ; bool QtMobility::QLlcpSocket::waitForReadyRead(int)
	?connectToService@QBluetoothSocket@QtMobility@@QAEXABVQBluetoothAddress@2@GV?$QFlags@W4OpenModeFlag@QIODevice@@@@@Z @ 499 NONAME ; void QtMobility::QBluetoothSocket::connectToService(class QtMobility::QBluetoothAddress const &, unsigned short, class QFlags<enum QIODevice::OpenModeFlag>)
	?getStaticMetaObject@QLlcpSocket@QtMobility@@SAABUQMetaObject@@XZ @ 500 NONAME ; struct QMetaObject const & QtMobility::QLlcpSocket::getStaticMetaObject(void)
	?state@QLlcpSocket@QtMobility@@QBE?AW4SocketState@12@XZ @ 501 NONAME ; enum QtMobility::QLlcpSocket::SocketState QtMobility::QLlcpSocket::state(void) const
	??_EQBluetoothSocket@QtMobility@@UAE@I@Z @ 502 NONAME ; QtMobility::QBluetoothSocket::~QBluetoothSocket(unsigned int)
	?metaObject@QBluetoothLocalDevice@QtMobility@@UBEPBUQMetaObject@@XZ @ 503 NONAME ; struct QMetaObject const * QtMobility::QBluetoothLocalDevice::metaObject(void) const
	?trUtf8@QNearFieldTagType3@QtMobility@@SA?AVQString@@PBD0H@Z @ 504 NONAME ; class QString QtMobility::QNearFieldTagType3::trUtf8(char const *, char const *, int)
	?stateChanged@QLlcpSocket@QtMobility@@IAEXW4SocketState@12@@Z @ 505 NONAME ; void QtMobility::QLlcpSocket::stateChanged(enum QtMobility::QLlcpSocket::SocketState)
	?tr@QBluetoothTransferReply@QtMobility@@SA?AVQString@@PBD0H@Z @ 506 NONAME ; class QString QtMobility::QBluetoothTransferReply::tr(char const *, char const *, int)
	?qt_metacast@QLlcpServer@QtMobility@@UAEPAXPBD@Z @ 507 NONAME ; void * QtMobility::QLlcpServer::qt_metacast(char const *)
	?readIdentification@QNearFieldTagType1@QtMobility@@UAE?AVRequestId@QNearFieldTarget@2@XZ @ 508 NONAME ; class QtMobility::QNearFieldTarget::RequestId QtMobility::QNearFieldTagType1::readIdentification(void)
	?startTargetDetection@QNearFieldManager@QtMobility@@QAE_NABV?$QList@W4Type@QNearFieldTarget@QtMobility@@@@@Z @ 509 NONAME ; bool QtMobility::QNearFieldManager::startTargetDetection(class QList<enum QtMobility::QNearFieldTarget::Type> const &)
	??_EQNearFieldTarget@QtMobility@@UAE@I@Z @ 510 NONAME ; QtMobility::QNearFieldTarget::~QNearFieldTarget(unsigned int)
	?waitForDisconnected@QLlcpSocket@QtMobility@@UAE_NH@Z @ 511 NONAME ; bool QtMobility::QLlcpSocket::waitForDisconnected(int)
	?d_func@QLlcpSocket@QtMobility@@ABEPBVQLlcpSocketPrivate@2@XZ @ 512 NONAME ; class QtMobility::QLlcpSocketPrivate const * QtMobility::QLlcpSocket::d_func(void) const
	?readAll@QNearFieldTagType1@QtMobility@@UAE?AVRequestId@QNearFieldTarget@2@XZ @ 513 NONAME ; class QtMobility::QNearFieldTarget::RequestId QtMobility::QNearFieldTagType1::readAll(void)
	?isRegistered@QBluetoothServiceInfo@QtMobility@@QBE_NXZ @ 514 NONAME ; bool QtMobility::QBluetoothServiceInfo::isRegistered(void) const
	?isActive@QBluetoothDeviceDiscoveryAgent@QtMobility@@QBE_NXZ @ 515 NONAME ; bool QtMobility::QBluetoothDeviceDiscoveryAgent::isActive(void) const
	?metaObject@QNearFieldManager@QtMobility@@UBEPBUQMetaObject@@XZ @ 516 NONAME ; struct QMetaObject const * QtMobility::QNearFieldManager::metaObject(void) const
	?version@QNearFieldTagType1@QtMobility@@QAEEXZ @ 517 NONAME ; unsigned char QtMobility::QNearFieldTagType1::version(void)
	?deviceDiscovered@QBluetoothDeviceDiscoveryAgent@QtMobility@@IAEXABVQBluetoothDeviceInfo@2@@Z @ 518 NONAME ; void QtMobility::QBluetoothDeviceDiscoveryAgent::deviceDiscovered(class QtMobility::QBluetoothDeviceInfo const &)
	?d_func@QLlcpServer@QtMobility@@ABEPBVQLlcpServerPrivate@2@XZ @ 519 NONAME ; class QtMobility::QLlcpServerPrivate const * QtMobility::QLlcpServer::d_func(void) const
	?staticMetaObject@QL2capServer@QtMobility@@2UQMetaObject@@B @ 520 NONAME ; struct QMetaObject const QtMobility::QL2capServer::staticMetaObject
	?trUtf8@QNearFieldTarget@QtMobility@@SA?AVQString@@PBD0@Z @ 521 NONAME ; class QString QtMobility::QNearFieldTarget::trUtf8(char const *, char const *)
	?type@QNdefRecord@QtMobility@@QBE?AVQByteArray@@XZ @ 522 NONAME ; class QByteArray QtMobility::QNdefRecord::type(void) const
	?pendingDatagramSize@QLlcpSocket@QtMobility@@QBE_JXZ @ 523 NONAME ; long long QtMobility::QLlcpSocket::pendingDatagramSize(void) const
	?trUtf8@QNearFieldTagType1@QtMobility@@SA?AVQString@@PBD0@Z @ 524 NONAME ; class QString QtMobility::QNearFieldTagType1::trUtf8(char const *, char const *)
	?connectToService@QBluetoothSocket@QtMobility@@QAEXABVQBluetoothAddress@2@ABVQBluetoothUuid@2@V?$QFlags@W4OpenModeFlag@QIODevice@@@@@Z @ 525 NONAME ; void QtMobility::QBluetoothSocket::connectToService(class QtMobility::QBluetoothAddress const &, class QtMobility::QBluetoothUuid const &, class QFlags<enum QIODevice::OpenModeFlag>)
	?protocolServiceMultiplexer@QBluetoothServiceInfo@QtMobility@@QBEHXZ @ 526 NONAME ; int QtMobility::QBluetoothServiceInfo::protocolServiceMultiplexer(void) const
	?qt_metacast@QBluetoothServiceDiscoveryAgent@QtMobility@@UAEPAXPBD@Z @ 527 NONAME ; void * QtMobility::QBluetoothServiceDiscoveryAgent::qt_metacast(char const *)
	?setAttribute@QBluetoothServiceInfo@QtMobility@@QAEXGABVAlternative@12@@Z @ 528 NONAME ; void QtMobility::QBluetoothServiceInfo::setAttribute(unsigned short, class QtMobility::QBluetoothServiceInfo::Alternative const &)
	?operation@QBluetoothTransferReply@QtMobility@@QBE?AW4Operation@QBluetoothTransferManager@2@XZ @ 529 NONAME ; enum QtMobility::QBluetoothTransferManager::Operation QtMobility::QBluetoothTransferReply::operation(void) const
	?finished@QBluetoothServiceDiscoveryAgent@QtMobility@@IAEXXZ @ 530 NONAME ; void QtMobility::QBluetoothServiceDiscoveryAgent::finished(void)
	?d_func@QBluetoothLocalDevice@QtMobility@@AAEPAVQBluetoothLocalDevicePrivate@2@XZ @ 531 NONAME ; class QtMobility::QBluetoothLocalDevicePrivate * QtMobility::QBluetoothLocalDevice::d_func(void)
	?staticMetaObject@QBluetoothDeviceDiscoveryAgent@QtMobility@@2UQMetaObject@@B @ 532 NONAME ; struct QMetaObject const QtMobility::QBluetoothDeviceDiscoveryAgent::staticMetaObject
	?trUtf8@QLlcpServer@QtMobility@@SA?AVQString@@PBD0H@Z @ 533 NONAME ; class QString QtMobility::QLlcpServer::trUtf8(char const *, char const *, int)
	?clear@QBluetoothAddress@QtMobility@@QAEXXZ @ 534 NONAME ; void QtMobility::QBluetoothAddress::clear(void)
	??0QNdefNfcUriRecord@QtMobility@@QAE@XZ @ 535 NONAME ; QtMobility::QNdefNfcUriRecord::QNdefNfcUriRecord(void)
	?manufacturerSpecificData@QBluetoothDeviceInfo@QtMobility@@QBE?AVQByteArray@@PA_N@Z @ 536 NONAME ; class QByteArray QtMobility::QBluetoothDeviceInfo::manufacturerSpecificData(bool *) const
	??_EQBluetoothLocalDevice@QtMobility@@UAE@I@Z @ 537 NONAME ; QtMobility::QBluetoothLocalDevice::~QBluetoothLocalDevice(unsigned int)
	?d_func@QNearFieldTagType1@QtMobility@@ABEPBVQNearFieldTagType1Private@2@XZ @ 538 NONAME ; class QtMobility::QNearFieldTagType1Private const * QtMobility::QNearFieldTagType1::d_func(void) const
	?nextPendingConnection@QRfcommServer@QtMobility@@QAEPAVQBluetoothSocket@2@XZ @ 539 NONAME ; class QtMobility::QBluetoothSocket * QtMobility::QRfcommServer::nextPendingConnection(void)
	??1QBluetoothDeviceDiscoveryAgent@QtMobility@@UAE@XZ @ 540 NONAME ; QtMobility::QBluetoothDeviceDiscoveryAgent::~QBluetoothDeviceDiscoveryAgent(void)
	??0QLlcpSocket@QtMobility@@QAE@PAVQObject@@@Z @ 541 NONAME ; QtMobility::QLlcpSocket::QLlcpSocket(class QObject *)
	?locale@QNdefNfcTextRecord@QtMobility@@QBE?AVQString@@XZ @ 542 NONAME ; class QString QtMobility::QNdefNfcTextRecord::locale(void) const
	?setServiceAvailability@QBluetoothServiceInfo@QtMobility@@QAEXE@Z @ 543 NONAME ; void QtMobility::QBluetoothServiceInfo::setServiceAvailability(unsigned char)
	?isEmpty@QNdefRecord@QtMobility@@QBE_NXZ @ 544 NONAME ; bool QtMobility::QNdefRecord::isEmpty(void) const
	??1QBluetoothLocalDevice@QtMobility@@UAE@XZ @ 545 NONAME ; QtMobility::QBluetoothLocalDevice::~QBluetoothLocalDevice(void)
	?isProcessingCommand@QNearFieldTarget@QtMobility@@QBE_NXZ @ 546 NONAME ; bool QtMobility::QNearFieldTarget::isProcessingCommand(void) const
	??0QNdefMessage@QtMobility@@QAE@ABV01@@Z @ 547 NONAME ; QtMobility::QNdefMessage::QNdefMessage(class QtMobility::QNdefMessage const &)
	?targetDetected@QNearFieldManager@QtMobility@@IAEXPAVQNearFieldTarget@2@@Z @ 548 NONAME ; void QtMobility::QNearFieldManager::targetDetected(class QtMobility::QNearFieldTarget *)
	?downloadProgress@QBluetoothTransferReply@QtMobility@@IAEX_J0@Z @ 549 NONAME ; void QtMobility::QBluetoothTransferReply::downloadProgress(long long, long long)
	??4QBluetoothAddress@QtMobility@@QAEAAV01@ABV01@@Z @ 550 NONAME ; class QtMobility::QBluetoothAddress & QtMobility::QBluetoothAddress::operator=(class QtMobility::QBluetoothAddress const &)
	?address@QBluetoothLocalDevice@QtMobility@@QBE?AVQBluetoothAddress@2@XZ @ 551 NONAME ; class QtMobility::QBluetoothAddress QtMobility::QBluetoothLocalDevice::address(void) const
	??_EQLlcpSocket@QtMobility@@UAE@I@Z @ 552 NONAME ; QtMobility::QLlcpSocket::~QLlcpSocket(unsigned int)
	?sendCommands@QNearFieldTarget@QtMobility@@UAE?AVRequestId@12@ABV?$QList@VQByteArray@@@@@Z @ 553 NONAME ; class QtMobility::QNearFieldTarget::RequestId QtMobility::QNearFieldTarget::sendCommands(class QList<class QByteArray> const &)
	??0QNdefNfcTextRecord@QtMobility@@QAE@ABVQNdefRecord@1@@Z @ 554 NONAME ; QtMobility::QNdefNfcTextRecord::QNdefNfcTextRecord(class QtMobility::QNdefRecord const &)
	?qt_metacast@QNearFieldTagType3@QtMobility@@UAEPAXPBD@Z @ 555 NONAME ; void * QtMobility::QNearFieldTagType3::qt_metacast(char const *)
	??0QBluetoothUuid@QtMobility@@QAE@I@Z @ 556 NONAME ; QtMobility::QBluetoothUuid::QBluetoothUuid(unsigned int)
	?isNull@QBluetoothAddress@QtMobility@@QBE_NXZ @ 557 NONAME ; bool QtMobility::QBluetoothAddress::isNull(void) const
	?tr@QNearFieldManager@QtMobility@@SA?AVQString@@PBD0H@Z @ 558 NONAME ; class QString QtMobility::QNearFieldManager::tr(char const *, char const *, int)
	?qt_metacall@QNearFieldTagType3@QtMobility@@UAEHW4Call@QMetaObject@@HPAPAX@Z @ 559 NONAME ; int QtMobility::QNearFieldTagType3::qt_metacall(enum QMetaObject::Call, int, void * *)
	?staticMetaObject@QBluetoothTransferReply@QtMobility@@2UQMetaObject@@B @ 560 NONAME ; struct QMetaObject const QtMobility::QBluetoothTransferReply::staticMetaObject
	?bytesAvailable@QLlcpSocket@QtMobility@@UBE_JXZ @ 561 NONAME ; long long QtMobility::QLlcpSocket::bytesAvailable(void) const
	?serviceDiscovered@QBluetoothServiceDiscoveryAgent@QtMobility@@IAEXABVQBluetoothServiceInfo@2@@Z @ 562 NONAME ; void QtMobility::QBluetoothServiceDiscoveryAgent::serviceDiscovered(class QtMobility::QBluetoothServiceInfo const &)
	?newConnection@QL2capServer@QtMobility@@IAEXXZ @ 563 NONAME ; void QtMobility::QL2capServer::newConnection(void)
	??0QNearFieldTagType2@QtMobility@@QAE@PAVQObject@@@Z @ 564 NONAME ; QtMobility::QNearFieldTagType2::QNearFieldTagType2(class QObject *)
	?tr@QNearFieldTarget@QtMobility@@SA?AVQString@@PBD0H@Z @ 565 NONAME ; class QString QtMobility::QNearFieldTarget::tr(char const *, char const *, int)
	?abort@QBluetoothSocket@QtMobility@@QAEXXZ @ 566 NONAME ; void QtMobility::QBluetoothSocket::abort(void)
	?isSequential@QLlcpSocket@QtMobility@@UBE_NXZ @ 567 NONAME ; bool QtMobility::QLlcpSocket::isSequential(void) const
	?protocolDescriptor@QBluetoothServiceInfo@QtMobility@@QBE?AVSequence@12@W4ProtocolUuid@QBluetoothUuid@2@@Z @ 568 NONAME ; class QtMobility::QBluetoothServiceInfo::Sequence QtMobility::QBluetoothServiceInfo::protocolDescriptor(enum QtMobility::QBluetoothUuid::ProtocolUuid) const
	?disconnectFromService@QBluetoothSocket@QtMobility@@QAEXXZ @ 569 NONAME ; void QtMobility::QBluetoothSocket::disconnectFromService(void)
	??0QNdefFilter@QtMobility@@QAE@XZ @ 570 NONAME ; QtMobility::QNdefFilter::QNdefFilter(void)
	?discoveryFinished@QBluetoothSocket@QtMobility@@AAEXXZ @ 571 NONAME ; void QtMobility::QBluetoothSocket::discoveryFinished(void)
	?socketDescriptor@QBluetoothSocket@QtMobility@@QBEHXZ @ 572 NONAME ; int QtMobility::QBluetoothSocket::socketDescriptor(void) const
	?targetLost@QNearFieldManager@QtMobility@@IAEXPAVQNearFieldTarget@2@@Z @ 573 NONAME ; void QtMobility::QNearFieldManager::targetLost(class QtMobility::QNearFieldTarget *)
	?qt_metacall@QBluetoothSocket@QtMobility@@UAEHW4Call@QMetaObject@@HPAPAX@Z @ 574 NONAME ; int QtMobility::QBluetoothSocket::qt_metacall(enum QMetaObject::Call, int, void * *)
	?tr@QLlcpServer@QtMobility@@SA?AVQString@@PBD0H@Z @ 575 NONAME ; class QString QtMobility::QLlcpServer::tr(char const *, char const *, int)
	?error@QLlcpSocket@QtMobility@@IAEXW4SocketError@12@@Z @ 576 NONAME ; void QtMobility::QLlcpSocket::error(enum QtMobility::QLlcpSocket::SocketError)
	?socketProtocol@QBluetoothServiceInfo@QtMobility@@QBE?AW4Protocol@12@XZ @ 577 NONAME ; enum QtMobility::QBluetoothServiceInfo::Protocol QtMobility::QBluetoothServiceInfo::socketProtocol(void) const
	?discoveredDevices@QBluetoothDeviceDiscoveryAgent@QtMobility@@QBE?AV?$QList@VQBluetoothDeviceInfo@QtMobility@@@@XZ @ 578 NONAME ; class QList<class QtMobility::QBluetoothDeviceInfo> QtMobility::QBluetoothDeviceDiscoveryAgent::discoveredDevices(void) const
	?metaObject@QBluetoothTransferManager@QtMobility@@UBEPBUQMetaObject@@XZ @ 579 NONAME ; struct QMetaObject const * QtMobility::QBluetoothTransferManager::metaObject(void) const
	?getStaticMetaObject@QNearFieldTagType2@QtMobility@@SAABUQMetaObject@@XZ @ 580 NONAME ; struct QMetaObject const & QtMobility::QNearFieldTagType2::getStaticMetaObject(void)
	?tr@QNearFieldTarget@QtMobility@@SA?AVQString@@PBD0@Z @ 581 NONAME ; class QString QtMobility::QNearFieldTarget::tr(char const *, char const *)
	?d_func@QRfcommServer@QtMobility@@AAEPAVQRfcommServerPrivate@2@XZ @ 582 NONAME ; class QtMobility::QRfcommServerPrivate * QtMobility::QRfcommServer::d_func(void)
	?writeData@QLlcpSocket@QtMobility@@MAE_JPBD_J@Z @ 583 NONAME ; long long QtMobility::QLlcpSocket::writeData(char const *, long long)
	?read@QNearFieldTagType4@QtMobility@@UAE?AVRequestId@QNearFieldTarget@2@GG@Z @ 584 NONAME ; class QtMobility::QNearFieldTarget::RequestId QtMobility::QNearFieldTagType4::read(unsigned short, unsigned short)
	?setRssi@QBluetoothDeviceInfo@QtMobility@@QAEXF@Z @ 585 NONAME ; void QtMobility::QBluetoothDeviceInfo::setRssi(short)
	?error@QBluetoothSocket@QtMobility@@IAEXW4SocketError@12@@Z @ 586 NONAME ; void QtMobility::QBluetoothSocket::error(enum QtMobility::QBluetoothSocket::SocketError)
	?serviceUuids@QBluetoothDeviceInfo@QtMobility@@QBE?AV?$QList@VQBluetoothUuid@QtMobility@@@@PAW4DataCompleteness@12@@Z @ 587 NONAME ; class QList<class QtMobility::QBluetoothUuid> QtMobility::QBluetoothDeviceInfo::serviceUuids(enum QtMobility::QBluetoothDeviceInfo::DataCompleteness *) const
	?isListening@QLlcpServer@QtMobility@@QBE_NXZ @ 588 NONAME ; bool QtMobility::QLlcpServer::isListening(void) const
	?serviceUri@QLlcpServer@QtMobility@@QBE?AVQString@@XZ @ 589 NONAME ; class QString QtMobility::QLlcpServer::serviceUri(void) const
	?peerName@QBluetoothSocket@QtMobility@@QBE?AVQString@@XZ @ 590 NONAME ; class QString QtMobility::QBluetoothSocket::peerName(void) const
	?error@QBluetoothDeviceDiscoveryAgent@QtMobility@@IAEXW4Error@12@@Z @ 591 NONAME ; void QtMobility::QBluetoothDeviceDiscoveryAgent::error(enum QtMobility::QBluetoothDeviceDiscoveryAgent::Error)
	??1QL2capServer@QtMobility@@UAE@XZ @ 592 NONAME ; QtMobility::QL2capServer::~QL2capServer(void)
	?serviceUuidsCompleteness@QBluetoothDeviceInfo@QtMobility@@QBE?AW4DataCompleteness@12@XZ @ 593 NONAME ; enum QtMobility::QBluetoothDeviceInfo::DataCompleteness QtMobility::QBluetoothDeviceInfo::serviceUuidsCompleteness(void) const
	?qt_metacall@QBluetoothDeviceDiscoveryAgent@QtMobility@@UAEHW4Call@QMetaObject@@HPAPAX@Z @ 594 NONAME ; int QtMobility::QBluetoothDeviceDiscoveryAgent::qt_metacall(enum QMetaObject::Call, int, void * *)
	?staticMetaObject@QNearFieldTarget@QtMobility@@2UQMetaObject@@B @ 595 NONAME ; struct QMetaObject const QtMobility::QNearFieldTarget::staticMetaObject
	?toByteArray@QNdefMessage@QtMobility@@QBE?AVQByteArray@@XZ @ 596 NONAME ; class QByteArray QtMobility::QNdefMessage::toByteArray(void) const
	?trUtf8@QNearFieldTagType3@QtMobility@@SA?AVQString@@PBD0@Z @ 597 NONAME ; class QString QtMobility::QNearFieldTagType3::trUtf8(char const *, char const *)
	??9QBluetoothTransferRequest@QtMobility@@QBE_NABV01@@Z @ 598 NONAME ; bool QtMobility::QBluetoothTransferRequest::operator!=(class QtMobility::QBluetoothTransferRequest const &) const
	??1QLlcpSocket@QtMobility@@UAE@XZ @ 599 NONAME ; QtMobility::QLlcpSocket::~QLlcpSocket(void)

