EXPORTS
	?duration@QFeedbackFileEffect@QtMobility@@UBEHXZ @ 1 NONAME ; int QtMobility::QFeedbackFileEffect::duration(void) const
	?trUtf8@QFeedbackEffect@QtMobility@@SA?AVQString@@PBD0H@Z @ 2 NONAME ; class QString QtMobility::QFeedbackEffect::trUtf8(char const *, char const *, int)
	?actuators@QFeedbackActuator@QtMobility@@SA?AV?$QList@PAVQFeedbackActuator@QtMobility@@@@XZ @ 3 NONAME ; class QList<class QtMobility::QFeedbackActuator *> QtMobility::QFeedbackActuator::actuators(void)
	?setAttackIntensity@QFeedbackHapticsEffect@QtMobility@@QAEXM@Z @ 4 NONAME ; void QtMobility::QFeedbackHapticsEffect::setAttackIntensity(float)
	?getStaticMetaObject@QFeedbackHapticsEffect@QtMobility@@SAABUQMetaObject@@XZ @ 5 NONAME ; struct QMetaObject const & QtMobility::QFeedbackHapticsEffect::getStaticMetaObject(void)
	?error@QFeedbackEffect@QtMobility@@IBEXW4ErrorType@12@@Z @ 6 NONAME ; void QtMobility::QFeedbackEffect::error(enum QtMobility::QFeedbackEffect::ErrorType) const
	?unload@QFeedbackFileEffect@QtMobility@@QAEXXZ @ 7 NONAME ; void QtMobility::QFeedbackFileEffect::unload(void)
	?trUtf8@QFeedbackFileEffect@QtMobility@@SA?AVQString@@PBD0H@Z @ 8 NONAME ; class QString QtMobility::QFeedbackFileEffect::trUtf8(char const *, char const *, int)
	?playThemeEffect@QFeedbackEffect@QtMobility@@SA_NW4ThemeEffect@12@@Z @ 9 NONAME ; bool QtMobility::QFeedbackEffect::playThemeEffect(enum QtMobility::QFeedbackEffect::ThemeEffect)
	?setState@QFeedbackHapticsEffect@QtMobility@@MAEXW4State@QFeedbackEffect@2@@Z @ 10 NONAME ; void QtMobility::QFeedbackHapticsEffect::setState(enum QtMobility::QFeedbackEffect::State)
	?reportError@QFeedbackInterface@QtMobility@@KAXPBVQFeedbackEffect@2@W4ErrorType@32@@Z @ 11 NONAME ; void QtMobility::QFeedbackInterface::reportError(class QtMobility::QFeedbackEffect const *, enum QtMobility::QFeedbackEffect::ErrorType)
	?tr@QFeedbackActuator@QtMobility@@SA?AVQString@@PBD0@Z @ 12 NONAME ; class QString QtMobility::QFeedbackActuator::tr(char const *, char const *)
	?getStaticMetaObject@QFeedbackActuator@QtMobility@@SAABUQMetaObject@@XZ @ 13 NONAME ; struct QMetaObject const & QtMobility::QFeedbackActuator::getStaticMetaObject(void)
	??1QFeedbackFileInterface@QtMobility@@UAE@XZ @ 14 NONAME ; QtMobility::QFeedbackFileInterface::~QFeedbackFileInterface(void)
	?reportLoadFinished@QFeedbackFileInterface@QtMobility@@KAXPAVQFeedbackFileEffect@2@_N@Z @ 15 NONAME ; void QtMobility::QFeedbackFileInterface::reportLoadFinished(class QtMobility::QFeedbackFileEffect *, bool)
	?tr@QFeedbackFileEffect@QtMobility@@SA?AVQString@@PBD0@Z @ 16 NONAME ; class QString QtMobility::QFeedbackFileEffect::tr(char const *, char const *)
	?isEnabled@QFeedbackActuator@QtMobility@@QBE_NXZ @ 17 NONAME ; bool QtMobility::QFeedbackActuator::isEnabled(void) const
	??0QFeedbackActuator@QtMobility@@QAE@PAVQObject@@@Z @ 18 NONAME ; QtMobility::QFeedbackActuator::QFeedbackActuator(class QObject *)
	?setLoaded@QFeedbackFileEffect@QtMobility@@QAEX_N@Z @ 19 NONAME ; void QtMobility::QFeedbackFileEffect::setLoaded(bool)
	?setSource@QFeedbackFileEffect@QtMobility@@QAEXABVQUrl@@@Z @ 20 NONAME ; void QtMobility::QFeedbackFileEffect::setSource(class QUrl const &)
	?tr@QFeedbackFileEffect@QtMobility@@SA?AVQString@@PBD0H@Z @ 21 NONAME ; class QString QtMobility::QFeedbackFileEffect::tr(char const *, char const *, int)
	?setDuration@QFeedbackHapticsEffect@QtMobility@@QAEXH@Z @ 22 NONAME ; void QtMobility::QFeedbackHapticsEffect::setDuration(int)
	??1QFeedbackHapticsInterface@QtMobility@@UAE@XZ @ 23 NONAME ; QtMobility::QFeedbackHapticsInterface::~QFeedbackHapticsInterface(void)
	?metaObject@QFeedbackHapticsEffect@QtMobility@@UBEPBUQMetaObject@@XZ @ 24 NONAME ; struct QMetaObject const * QtMobility::QFeedbackHapticsEffect::metaObject(void) const
	?stop@QFeedbackEffect@QtMobility@@QAEXXZ @ 25 NONAME ; void QtMobility::QFeedbackEffect::stop(void)
	??_EQFeedbackActuator@QtMobility@@UAE@I@Z @ 26 NONAME ; QtMobility::QFeedbackActuator::~QFeedbackActuator(unsigned int)
	?fadeTime@QFeedbackHapticsEffect@QtMobility@@QBEHXZ @ 27 NONAME ; int QtMobility::QFeedbackHapticsEffect::fadeTime(void) const
	?tr@QFeedbackHapticsEffect@QtMobility@@SA?AVQString@@PBD0@Z @ 28 NONAME ; class QString QtMobility::QFeedbackHapticsEffect::tr(char const *, char const *)
	?name@QFeedbackActuator@QtMobility@@QBE?AVQString@@XZ @ 29 NONAME ; class QString QtMobility::QFeedbackActuator::name(void) const
	?staticMetaObject@QFeedbackFileEffect@QtMobility@@2UQMetaObject@@B @ 30 NONAME ; struct QMetaObject const QtMobility::QFeedbackFileEffect::staticMetaObject
	?actuator@QFeedbackHapticsEffect@QtMobility@@QBEPAVQFeedbackActuator@2@XZ @ 31 NONAME ; class QtMobility::QFeedbackActuator * QtMobility::QFeedbackHapticsEffect::actuator(void) const
	?qt_metacall@QFeedbackActuator@QtMobility@@UAEHW4Call@QMetaObject@@HPAPAX@Z @ 32 NONAME ; int QtMobility::QFeedbackActuator::qt_metacall(enum QMetaObject::Call, int, void * *)
	?getStaticMetaObject@QFeedbackEffect@QtMobility@@SAABUQMetaObject@@XZ @ 33 NONAME ; struct QMetaObject const & QtMobility::QFeedbackEffect::getStaticMetaObject(void)
	?state@QFeedbackActuator@QtMobility@@QBE?AW4State@12@XZ @ 34 NONAME ; enum QtMobility::QFeedbackActuator::State QtMobility::QFeedbackActuator::state(void) const
	??1QFeedbackEffect@QtMobility@@UAE@XZ @ 35 NONAME ; QtMobility::QFeedbackEffect::~QFeedbackEffect(void)
	??_EQFeedbackFileInterface@QtMobility@@UAE@I@Z @ 36 NONAME ; QtMobility::QFeedbackFileInterface::~QFeedbackFileInterface(unsigned int)
	?tr@QFeedbackActuator@QtMobility@@SA?AVQString@@PBD0H@Z @ 37 NONAME ; class QString QtMobility::QFeedbackActuator::tr(char const *, char const *, int)
	?attackIntensity@QFeedbackHapticsEffect@QtMobility@@QBEMXZ @ 38 NONAME ; float QtMobility::QFeedbackHapticsEffect::attackIntensity(void) const
	?pause@QFeedbackEffect@QtMobility@@QAEXXZ @ 39 NONAME ; void QtMobility::QFeedbackEffect::pause(void)
	?metaObject@QFeedbackEffect@QtMobility@@UBEPBUQMetaObject@@XZ @ 40 NONAME ; struct QMetaObject const * QtMobility::QFeedbackEffect::metaObject(void) const
	??1QFeedbackActuator@QtMobility@@UAE@XZ @ 41 NONAME ; QtMobility::QFeedbackActuator::~QFeedbackActuator(void)
	?state@QFeedbackFileEffect@QtMobility@@UBE?AW4State@QFeedbackEffect@2@XZ @ 42 NONAME ; enum QtMobility::QFeedbackEffect::State QtMobility::QFeedbackFileEffect::state(void) const
	?setState@QFeedbackFileEffect@QtMobility@@MAEXW4State@QFeedbackEffect@2@@Z @ 43 NONAME ; void QtMobility::QFeedbackFileEffect::setState(enum QtMobility::QFeedbackEffect::State)
	?trUtf8@QFeedbackEffect@QtMobility@@SA?AVQString@@PBD0@Z @ 44 NONAME ; class QString QtMobility::QFeedbackEffect::trUtf8(char const *, char const *)
	?isCapabilitySupported@QFeedbackActuator@QtMobility@@QBE_NW4Capability@12@@Z @ 45 NONAME ; bool QtMobility::QFeedbackActuator::isCapabilitySupported(enum QtMobility::QFeedbackActuator::Capability) const
	??8QFeedbackActuator@QtMobility@@QBE_NABV01@@Z @ 46 NONAME ; bool QtMobility::QFeedbackActuator::operator==(class QtMobility::QFeedbackActuator const &) const
	?source@QFeedbackFileEffect@QtMobility@@QBE?AVQUrl@@XZ @ 47 NONAME ; class QUrl QtMobility::QFeedbackFileEffect::source(void) const
	?trUtf8@QFeedbackFileEffect@QtMobility@@SA?AVQString@@PBD0@Z @ 48 NONAME ; class QString QtMobility::QFeedbackFileEffect::trUtf8(char const *, char const *)
	?metaObject@QFeedbackFileEffect@QtMobility@@UBEPBUQMetaObject@@XZ @ 49 NONAME ; struct QMetaObject const * QtMobility::QFeedbackFileEffect::metaObject(void) const
	??0QFeedbackActuator@QtMobility@@AAE@PAVQObject@@H@Z @ 50 NONAME ; QtMobility::QFeedbackActuator::QFeedbackActuator(class QObject *, int)
	?trUtf8@QFeedbackHapticsEffect@QtMobility@@SA?AVQString@@PBD0@Z @ 51 NONAME ; class QString QtMobility::QFeedbackHapticsEffect::trUtf8(char const *, char const *)
	?id@QFeedbackActuator@QtMobility@@QBEHXZ @ 52 NONAME ; int QtMobility::QFeedbackActuator::id(void) const
	?isLoaded@QFeedbackFileEffect@QtMobility@@QBE_NXZ @ 53 NONAME ; bool QtMobility::QFeedbackFileEffect::isLoaded(void) const
	?stateChanged@QFeedbackEffect@QtMobility@@IAEXXZ @ 54 NONAME ; void QtMobility::QFeedbackEffect::stateChanged(void)
	??1QFeedbackHapticsEffect@QtMobility@@UAE@XZ @ 55 NONAME ; QtMobility::QFeedbackHapticsEffect::~QFeedbackHapticsEffect(void)
	?qt_metacall@QFeedbackFileEffect@QtMobility@@UAEHW4Call@QMetaObject@@HPAPAX@Z @ 56 NONAME ; int QtMobility::QFeedbackFileEffect::qt_metacall(enum QMetaObject::Call, int, void * *)
	?qt_metacast@QFeedbackFileEffect@QtMobility@@UAEPAXPBD@Z @ 57 NONAME ; void * QtMobility::QFeedbackFileEffect::qt_metacast(char const *)
	?trUtf8@QFeedbackActuator@QtMobility@@SA?AVQString@@PBD0@Z @ 58 NONAME ; class QString QtMobility::QFeedbackActuator::trUtf8(char const *, char const *)
	?staticMetaObject@QFeedbackHapticsEffect@QtMobility@@2UQMetaObject@@B @ 59 NONAME ; struct QMetaObject const QtMobility::QFeedbackHapticsEffect::staticMetaObject
	??0QFeedbackHapticsEffect@QtMobility@@QAE@PAVQObject@@@Z @ 60 NONAME ; QtMobility::QFeedbackHapticsEffect::QFeedbackHapticsEffect(class QObject *)
	?isValid@QFeedbackActuator@QtMobility@@QBE_NXZ @ 61 NONAME ; bool QtMobility::QFeedbackActuator::isValid(void) const
	?qt_metacall@QFeedbackHapticsEffect@QtMobility@@UAEHW4Call@QMetaObject@@HPAPAX@Z @ 62 NONAME ; int QtMobility::QFeedbackHapticsEffect::qt_metacall(enum QMetaObject::Call, int, void * *)
	?duration@QFeedbackHapticsEffect@QtMobility@@UBEHXZ @ 63 NONAME ; int QtMobility::QFeedbackHapticsEffect::duration(void) const
	?staticMetaObject@QFeedbackActuator@QtMobility@@2UQMetaObject@@B @ 64 NONAME ; struct QMetaObject const QtMobility::QFeedbackActuator::staticMetaObject
	?fadeIntensity@QFeedbackHapticsEffect@QtMobility@@QBEMXZ @ 65 NONAME ; float QtMobility::QFeedbackHapticsEffect::fadeIntensity(void) const
	?setEnabled@QFeedbackActuator@QtMobility@@QAEX_N@Z @ 66 NONAME ; void QtMobility::QFeedbackActuator::setEnabled(bool)
	?setActuator@QFeedbackHapticsEffect@QtMobility@@QAEXPAVQFeedbackActuator@2@@Z @ 67 NONAME ; void QtMobility::QFeedbackHapticsEffect::setActuator(class QtMobility::QFeedbackActuator *)
	?enabledChanged@QFeedbackActuator@QtMobility@@IAEXXZ @ 68 NONAME ; void QtMobility::QFeedbackActuator::enabledChanged(void)
	?state@QFeedbackHapticsEffect@QtMobility@@UBE?AW4State@QFeedbackEffect@2@XZ @ 69 NONAME ; enum QtMobility::QFeedbackEffect::State QtMobility::QFeedbackHapticsEffect::state(void) const
	?getStaticMetaObject@QFeedbackFileEffect@QtMobility@@SAABUQMetaObject@@XZ @ 70 NONAME ; struct QMetaObject const & QtMobility::QFeedbackFileEffect::getStaticMetaObject(void)
	?tr@QFeedbackHapticsEffect@QtMobility@@SA?AVQString@@PBD0H@Z @ 71 NONAME ; class QString QtMobility::QFeedbackHapticsEffect::tr(char const *, char const *, int)
	?trUtf8@QFeedbackHapticsEffect@QtMobility@@SA?AVQString@@PBD0H@Z @ 72 NONAME ; class QString QtMobility::QFeedbackHapticsEffect::trUtf8(char const *, char const *, int)
	?qt_metacall@QFeedbackEffect@QtMobility@@UAEHW4Call@QMetaObject@@HPAPAX@Z @ 73 NONAME ; int QtMobility::QFeedbackEffect::qt_metacall(enum QMetaObject::Call, int, void * *)
	??_EQFeedbackFileEffect@QtMobility@@UAE@I@Z @ 74 NONAME ; QtMobility::QFeedbackFileEffect::~QFeedbackFileEffect(unsigned int)
	?instance@QFeedbackHapticsInterface@QtMobility@@SAPAV12@XZ @ 75 NONAME ; class QtMobility::QFeedbackHapticsInterface * QtMobility::QFeedbackHapticsInterface::instance(void)
	?metaObject@QFeedbackActuator@QtMobility@@UBEPBUQMetaObject@@XZ @ 76 NONAME ; struct QMetaObject const * QtMobility::QFeedbackActuator::metaObject(void) const
	?qt_metacast@QFeedbackHapticsEffect@QtMobility@@UAEPAXPBD@Z @ 77 NONAME ; void * QtMobility::QFeedbackHapticsEffect::qt_metacast(char const *)
	??_EQFeedbackHapticsInterface@QtMobility@@UAE@I@Z @ 78 NONAME ; QtMobility::QFeedbackHapticsInterface::~QFeedbackHapticsInterface(unsigned int)
	?qt_metacast@QFeedbackActuator@QtMobility@@UAEPAXPBD@Z @ 79 NONAME ; void * QtMobility::QFeedbackActuator::qt_metacast(char const *)
	?qt_metacast@QFeedbackEffect@QtMobility@@UAEPAXPBD@Z @ 80 NONAME ; void * QtMobility::QFeedbackEffect::qt_metacast(char const *)
	?setFadeIntensity@QFeedbackHapticsEffect@QtMobility@@QAEXM@Z @ 81 NONAME ; void QtMobility::QFeedbackHapticsEffect::setFadeIntensity(float)
	?setIntensity@QFeedbackHapticsEffect@QtMobility@@QAEXM@Z @ 82 NONAME ; void QtMobility::QFeedbackHapticsEffect::setIntensity(float)
	?setFadeTime@QFeedbackHapticsEffect@QtMobility@@QAEXH@Z @ 83 NONAME ; void QtMobility::QFeedbackHapticsEffect::setFadeTime(int)
	??_EQFeedbackHapticsEffect@QtMobility@@UAE@I@Z @ 84 NONAME ; QtMobility::QFeedbackHapticsEffect::~QFeedbackHapticsEffect(unsigned int)
	?createFeedbackActuator@QFeedbackHapticsInterface@QtMobility@@IAEPAVQFeedbackActuator@2@PAVQObject@@H@Z @ 85 NONAME ; class QtMobility::QFeedbackActuator * QtMobility::QFeedbackHapticsInterface::createFeedbackActuator(class QObject *, int)
	??0QFeedbackEffect@QtMobility@@QAE@PAVQObject@@@Z @ 86 NONAME ; QtMobility::QFeedbackEffect::QFeedbackEffect(class QObject *)
	?load@QFeedbackFileEffect@QtMobility@@QAEXXZ @ 87 NONAME ; void QtMobility::QFeedbackFileEffect::load(void)
	?tr@QFeedbackEffect@QtMobility@@SA?AVQString@@PBD0@Z @ 88 NONAME ; class QString QtMobility::QFeedbackEffect::tr(char const *, char const *)
	?trUtf8@QFeedbackActuator@QtMobility@@SA?AVQString@@PBD0H@Z @ 89 NONAME ; class QString QtMobility::QFeedbackActuator::trUtf8(char const *, char const *, int)
	?start@QFeedbackEffect@QtMobility@@QAEXXZ @ 90 NONAME ; void QtMobility::QFeedbackEffect::start(void)
	?intensity@QFeedbackHapticsEffect@QtMobility@@QBEMXZ @ 91 NONAME ; float QtMobility::QFeedbackHapticsEffect::intensity(void) const
	?instance@QFeedbackFileInterface@QtMobility@@SAPAV12@XZ @ 92 NONAME ; class QtMobility::QFeedbackFileInterface * QtMobility::QFeedbackFileInterface::instance(void)
	?tr@QFeedbackEffect@QtMobility@@SA?AVQString@@PBD0H@Z @ 93 NONAME ; class QString QtMobility::QFeedbackEffect::tr(char const *, char const *, int)
	?period@QFeedbackHapticsEffect@QtMobility@@QBEHXZ @ 94 NONAME ; int QtMobility::QFeedbackHapticsEffect::period(void) const
	??0QFeedbackFileEffect@QtMobility@@QAE@PAVQObject@@@Z @ 95 NONAME ; QtMobility::QFeedbackFileEffect::QFeedbackFileEffect(class QObject *)
	?supportsThemeEffect@QFeedbackEffect@QtMobility@@SA_NXZ @ 96 NONAME ; bool QtMobility::QFeedbackEffect::supportsThemeEffect(void)
	??1QFeedbackFileEffect@QtMobility@@UAE@XZ @ 97 NONAME ; QtMobility::QFeedbackFileEffect::~QFeedbackFileEffect(void)
	?attackTime@QFeedbackHapticsEffect@QtMobility@@QBEHXZ @ 98 NONAME ; int QtMobility::QFeedbackHapticsEffect::attackTime(void) const
	?setAttackTime@QFeedbackHapticsEffect@QtMobility@@QAEXH@Z @ 99 NONAME ; void QtMobility::QFeedbackHapticsEffect::setAttackTime(int)
	?supportedMimeTypes@QFeedbackFileEffect@QtMobility@@SA?AVQStringList@@XZ @ 100 NONAME ; class QStringList QtMobility::QFeedbackFileEffect::supportedMimeTypes(void)
	?setPeriod@QFeedbackHapticsEffect@QtMobility@@QAEXH@Z @ 101 NONAME ; void QtMobility::QFeedbackHapticsEffect::setPeriod(int)
	?staticMetaObject@QFeedbackEffect@QtMobility@@2UQMetaObject@@B @ 102 NONAME ; struct QMetaObject const QtMobility::QFeedbackEffect::staticMetaObject
	??_EQFeedbackEffect@QtMobility@@UAE@I@Z @ 103 NONAME ; QtMobility::QFeedbackEffect::~QFeedbackEffect(unsigned int)

