EXPORTS
	?errorString@QGalleryAbstractResponse@QtMobility@@QBE?AVQString@@XZ @ 1 NONAME ; class QString QtMobility::QGalleryAbstractResponse::errorString(void) const
	?trUtf8@QDocumentGallery@QtMobility@@SA?AVQString@@PBD0H@Z @ 2 NONAME ; class QString QtMobility::QDocumentGallery::trUtf8(char const *, char const *, int)
	??0QGalleryFilter@QtMobility@@QAE@XZ @ 3 NONAME ; QtMobility::QGalleryFilter::QGalleryFilter(void)
	??0QGalleryResource@QtMobility@@QAE@ABVQUrl@@@Z @ 4 NONAME ; QtMobility::QGalleryResource::QGalleryResource(class QUrl const &)
	??0QGalleryFilter@QtMobility@@QAE@ABVQGalleryUnionFilter@1@@Z @ 5 NONAME ; QtMobility::QGalleryFilter::QGalleryFilter(class QtMobility::QGalleryUnionFilter const &)
	?currentIndexChanged@QGalleryResultSet@QtMobility@@IAEXH@Z @ 6 NONAME ; void QtMobility::QGalleryResultSet::currentIndexChanged(int)
	?metaObject@QGalleryQueryRequest@QtMobility@@UBEPBUQMetaObject@@XZ @ 7 NONAME ; struct QMetaObject const * QtMobility::QGalleryQueryRequest::metaObject(void) const
	?lastPlayed@QDocumentGallery@QtMobility@@2UQGalleryProperty@2@B @ 8 NONAME ; struct QtMobility::QGalleryProperty const QtMobility::QDocumentGallery::lastPlayed
	?scopeChanged@QGalleryQueryModel@QtMobility@@IAEXXZ @ 9 NONAME ; void QtMobility::QGalleryQueryModel::scopeChanged(void)
	?insert@QGalleryIntersectionFilter@QtMobility@@QAEXHABV12@@Z @ 10 NONAME ; void QtMobility::QGalleryIntersectionFilter::insert(int, class QtMobility::QGalleryIntersectionFilter const &)
	?getStaticMetaObject@QGalleryItemRequest@QtMobility@@SAABUQMetaObject@@XZ @ 11 NONAME ; struct QMetaObject const & QtMobility::QGalleryItemRequest::getStaticMetaObject(void)
	?startsWith@QGalleryProperty@QtMobility@@QBE?AVQGalleryMetaDataFilter@2@ABVQString@@@Z @ 12 NONAME ; class QtMobility::QGalleryMetaDataFilter QtMobility::QGalleryProperty::startsWith(class QString const &) const
	?currentItemChanged@QGalleryQueryRequest@QtMobility@@IAEXXZ @ 13 NONAME ; void QtMobility::QGalleryQueryRequest::currentItemChanged(void)
	??0QGalleryIntersectionFilter@QtMobility@@QAE@ABVQGalleryUnionFilter@1@@Z @ 14 NONAME ; QtMobility::QGalleryIntersectionFilter::QGalleryIntersectionFilter(class QtMobility::QGalleryUnionFilter const &)
	?channelCount@QDocumentGallery@QtMobility@@2UQGalleryProperty@2@B @ 15 NONAME ; struct QtMobility::QGalleryProperty const QtMobility::QDocumentGallery::channelCount
	??4QGalleryResource@QtMobility@@QAEAAV01@ABV01@@Z @ 16 NONAME ; class QtMobility::QGalleryResource & QtMobility::QGalleryResource::operator=(class QtMobility::QGalleryResource const &)
	??0QGalleryResource@QtMobility@@QAE@XZ @ 17 NONAME ; QtMobility::QGalleryResource::QGalleryResource(void)
	?trUtf8@QGalleryAbstractRequest@QtMobility@@SA?AVQString@@PBD0@Z @ 18 NONAME ; class QString QtMobility::QGalleryAbstractRequest::trUtf8(char const *, char const *)
	?replace@QGalleryUnionFilter@QtMobility@@QAEXHABVQGalleryMetaDataFilter@2@@Z @ 19 NONAME ; void QtMobility::QGalleryUnionFilter::replace(int, class QtMobility::QGalleryMetaDataFilter const &)
	?tr@QGalleryTypeRequest@QtMobility@@SA?AVQString@@PBD0H@Z @ 20 NONAME ; class QString QtMobility::QGalleryTypeRequest::tr(char const *, char const *, int)
	?trUtf8@QGalleryAbstractRequest@QtMobility@@SA?AVQString@@PBD0H@Z @ 21 NONAME ; class QString QtMobility::QGalleryAbstractRequest::trUtf8(char const *, char const *, int)
	?staticMetaObject@QGalleryAbstractResponse@QtMobility@@2UQMetaObject@@B @ 22 NONAME ; struct QMetaObject const QtMobility::QGalleryAbstractResponse::staticMetaObject
	??0QGalleryAbstractRequest@QtMobility@@QAE@PAVQAbstractGallery@1@W4RequestType@01@PAVQObject@@@Z @ 23 NONAME ; QtMobility::QGalleryAbstractRequest::QGalleryAbstractRequest(class QtMobility::QAbstractGallery *, enum QtMobility::QGalleryAbstractRequest::RequestType, class QObject *)
	?filters@QGalleryUnionFilter@QtMobility@@QBE?AV?$QList@VQGalleryFilter@QtMobility@@@@XZ @ 24 NONAME ; class QList<class QtMobility::QGalleryFilter> QtMobility::QGalleryUnionFilter::filters(void) const
	?sortPropertyNames@QGalleryQueryRequest@QtMobility@@QBE?AVQStringList@@XZ @ 25 NONAME ; class QStringList QtMobility::QGalleryQueryRequest::sortPropertyNames(void) const
	?rootItemChanged@QGalleryQueryRequest@QtMobility@@IAEXXZ @ 26 NONAME ; void QtMobility::QGalleryQueryRequest::rootItemChanged(void)
	?filter@QGalleryQueryRequest@QtMobility@@QBE?AVQGalleryFilter@2@XZ @ 27 NONAME ; class QtMobility::QGalleryFilter QtMobility::QGalleryQueryRequest::filter(void) const
	?d_func@QGalleryTypeRequest@QtMobility@@AAEPAVQGalleryTypeRequestPrivate@2@XZ @ 28 NONAME ; class QtMobility::QGalleryTypeRequestPrivate * QtMobility::QGalleryTypeRequest::d_func(void)
	?itemTypeChanged@QGalleryTypeRequest@QtMobility@@IAEXXZ @ 29 NONAME ; void QtMobility::QGalleryTypeRequest::itemTypeChanged(void)
	?sortPropertyNamesChanged@QGalleryQueryRequest@QtMobility@@IAEXXZ @ 30 NONAME ; void QtMobility::QGalleryQueryRequest::sortPropertyNamesChanged(void)
	??0QGalleryIntersectionFilter@QtMobility@@QAE@ABV01@@Z @ 31 NONAME ; QtMobility::QGalleryIntersectionFilter::QGalleryIntersectionFilter(class QtMobility::QGalleryIntersectionFilter const &)
	?autoUpdateChanged@QGalleryTypeRequest@QtMobility@@IAEXXZ @ 32 NONAME ; void QtMobility::QGalleryTypeRequest::autoUpdateChanged(void)
	??1QGalleryItemRequest@QtMobility@@UAE@XZ @ 33 NONAME ; QtMobility::QGalleryItemRequest::~QGalleryItemRequest(void)
	?trUtf8@QGalleryResultSet@QtMobility@@SA?AVQString@@PBD0@Z @ 34 NONAME ; class QString QtMobility::QGalleryResultSet::trUtf8(char const *, char const *)
	?Audio@QDocumentGallery@QtMobility@@2UQGalleryType@2@B @ 35 NONAME ; struct QtMobility::QGalleryType const QtMobility::QDocumentGallery::Audio
	?rootTypeChanged@QGalleryQueryModel@QtMobility@@IAEXXZ @ 36 NONAME ; void QtMobility::QGalleryQueryModel::rootTypeChanged(void)
	?finished@QGalleryAbstractResponse@QtMobility@@IAEXXZ @ 37 NONAME ; void QtMobility::QGalleryAbstractResponse::finished(void)
	?comments@QDocumentGallery@QtMobility@@2UQGalleryProperty@2@B @ 38 NONAME ; struct QtMobility::QGalleryProperty const QtMobility::QDocumentGallery::comments
	?offsetChanged@QGalleryQueryRequest@QtMobility@@IAEXXZ @ 39 NONAME ; void QtMobility::QGalleryQueryRequest::offsetChanged(void)
	?getStaticMetaObject@QGalleryTypeRequest@QtMobility@@SAABUQMetaObject@@XZ @ 40 NONAME ; struct QMetaObject const & QtMobility::QGalleryTypeRequest::getStaticMetaObject(void)
	?finished@QGalleryQueryModel@QtMobility@@IAEXXZ @ 41 NONAME ; void QtMobility::QGalleryQueryModel::finished(void)
	?itemTypePropertyNames@QDocumentGallery@QtMobility@@QBE?AVQStringList@@ABVQString@@@Z @ 42 NONAME ; class QStringList QtMobility::QDocumentGallery::itemTypePropertyNames(class QString const &) const
	?setMetaData@QGalleryItemRequest@QtMobility@@QAE_NABVQString@@ABVQVariant@@@Z @ 43 NONAME ; bool QtMobility::QGalleryItemRequest::setMetaData(class QString const &, class QVariant const &)
	?setAutoUpdate@QGalleryItemRequest@QtMobility@@QAEX_N@Z @ 44 NONAME ; void QtMobility::QGalleryItemRequest::setAutoUpdate(bool)
	??_EQGalleryQueryRequest@QtMobility@@UAE@I@Z @ 45 NONAME ; QtMobility::QGalleryQueryRequest::~QGalleryQueryRequest(unsigned int)
	?qt_metacast@QGalleryQueryModel@QtMobility@@UAEPAXPBD@Z @ 46 NONAME ; void * QtMobility::QGalleryQueryModel::qt_metacast(char const *)
	?prepend@QGalleryIntersectionFilter@QtMobility@@QAEXABVQGalleryUnionFilter@2@@Z @ 47 NONAME ; void QtMobility::QGalleryIntersectionFilter::prepend(class QtMobility::QGalleryUnionFilter const &)
	??1QAbstractGallery@QtMobility@@UAE@XZ @ 48 NONAME ; QtMobility::QAbstractGallery::~QAbstractGallery(void)
	?fetchNext@QGalleryResultSet@QtMobility@@UAE_NXZ @ 49 NONAME ; bool QtMobility::QGalleryResultSet::fetchNext(void)
	?d_func@QDocumentGallery@QtMobility@@AAEPAVQDocumentGalleryPrivate@2@XZ @ 50 NONAME ; class QtMobility::QDocumentGalleryPrivate * QtMobility::QDocumentGallery::d_func(void)
	?replace@QGalleryUnionFilter@QtMobility@@QAEXHABVQGalleryIntersectionFilter@2@@Z @ 51 NONAME ; void QtMobility::QGalleryUnionFilter::replace(int, class QtMobility::QGalleryIntersectionFilter const &)
	?getStaticMetaObject@QAbstractGallery@QtMobility@@SAABUQMetaObject@@XZ @ 52 NONAME ; struct QMetaObject const & QtMobility::QAbstractGallery::getStaticMetaObject(void)
	??8QGalleryResource@QtMobility@@QBE_NABV01@@Z @ 53 NONAME ; bool QtMobility::QGalleryResource::operator==(class QtMobility::QGalleryResource const &) const
	?replace@QGalleryIntersectionFilter@QtMobility@@QAEXHABVQGalleryUnionFilter@2@@Z @ 54 NONAME ; void QtMobility::QGalleryIntersectionFilter::replace(int, class QtMobility::QGalleryUnionFilter const &)
	?filters@QGalleryIntersectionFilter@QtMobility@@QBE?AV?$QList@VQGalleryFilter@QtMobility@@@@XZ @ 55 NONAME ; class QList<class QtMobility::QGalleryFilter> QtMobility::QGalleryIntersectionFilter::filters(void) const
	??0QDocumentGallery@QtMobility@@QAE@PAVQObject@@@Z @ 56 NONAME ; QtMobility::QDocumentGallery::QDocumentGallery(class QObject *)
	?setSortPropertyNames@QGalleryQueryModel@QtMobility@@QAEXABVQStringList@@@Z @ 57 NONAME ; void QtMobility::QGalleryQueryModel::setSortPropertyNames(class QStringList const &)
	?itemIdChanged@QGalleryItemRequest@QtMobility@@IAEXXZ @ 58 NONAME ; void QtMobility::QGalleryItemRequest::itemIdChanged(void)
	?tr@QGalleryAbstractResponse@QtMobility@@SA?AVQString@@PBD0@Z @ 59 NONAME ; class QString QtMobility::QGalleryAbstractResponse::tr(char const *, char const *)
	?qt_metacast@QGalleryResultSet@QtMobility@@UAEPAXPBD@Z @ 60 NONAME ; void * QtMobility::QGalleryResultSet::qt_metacast(char const *)
	?trUtf8@QGalleryQueryModel@QtMobility@@SA?AVQString@@PBD0H@Z @ 61 NONAME ; class QString QtMobility::QGalleryQueryModel::trUtf8(char const *, char const *, int)
	?metaData@QGalleryQueryRequest@QtMobility@@QBE?AVQVariant@@H@Z @ 62 NONAME ; class QVariant QtMobility::QGalleryQueryRequest::metaData(int) const
	?isRequestSupported@QDocumentGallery@QtMobility@@UBE_NW4RequestType@QGalleryAbstractRequest@2@@Z @ 63 NONAME ; bool QtMobility::QDocumentGallery::isRequestSupported(enum QtMobility::QGalleryAbstractRequest::RequestType) const
	?itemsMoved@QGalleryResultSet@QtMobility@@IAEXHHH@Z @ 64 NONAME ; void QtMobility::QGalleryResultSet::itemsMoved(int, int, int)
	?sampleRate@QDocumentGallery@QtMobility@@2UQGalleryProperty@2@B @ 65 NONAME ; struct QtMobility::QGalleryProperty const QtMobility::QDocumentGallery::sampleRate
	?createResponse@QDocumentGallery@QtMobility@@MAEPAVQGalleryAbstractResponse@2@PAVQGalleryAbstractRequest@2@@Z @ 66 NONAME ; class QtMobility::QGalleryAbstractResponse * QtMobility::QDocumentGallery::createResponse(class QtMobility::QGalleryAbstractRequest *)
	??0QAbstractGallery@QtMobility@@QAE@PAVQObject@@@Z @ 67 NONAME ; QtMobility::QAbstractGallery::QAbstractGallery(class QObject *)
	?progressChanged@QGalleryAbstractRequest@QtMobility@@IAEXHH@Z @ 68 NONAME ; void QtMobility::QGalleryAbstractRequest::progressChanged(int, int)
	?resumePosition@QDocumentGallery@QtMobility@@2UQGalleryProperty@2@B @ 69 NONAME ; struct QtMobility::QGalleryProperty const QtMobility::QDocumentGallery::resumePosition
	?autoUpdate@QGalleryTypeRequest@QtMobility@@QBE_NXZ @ 70 NONAME ; bool QtMobility::QGalleryTypeRequest::autoUpdate(void) const
	??0QGalleryTypeRequest@QtMobility@@QAE@PAVQAbstractGallery@1@PAVQObject@@@Z @ 71 NONAME ; QtMobility::QGalleryTypeRequest::QGalleryTypeRequest(class QtMobility::QAbstractGallery *, class QObject *)
	?qt_metacast@QGalleryAbstractResponse@QtMobility@@UAEPAXPBD@Z @ 72 NONAME ; void * QtMobility::QGalleryAbstractResponse::qt_metacast(char const *)
	?itemId@QGalleryQueryRequest@QtMobility@@QBE?AVQVariant@@XZ @ 73 NONAME ; class QVariant QtMobility::QGalleryQueryRequest::itemId(void) const
	?propertyNames@QGalleryQueryRequest@QtMobility@@QBE?AVQStringList@@XZ @ 74 NONAME ; class QStringList QtMobility::QGalleryQueryRequest::propertyNames(void) const
	?clear@QGalleryIntersectionFilter@QtMobility@@QAEXXZ @ 75 NONAME ; void QtMobility::QGalleryIntersectionFilter::clear(void)
	?setMetaData@QGalleryQueryRequest@QtMobility@@QAE_NABVQString@@ABVQVariant@@@Z @ 76 NONAME ; bool QtMobility::QGalleryQueryRequest::setMetaData(class QString const &, class QVariant const &)
	?qt_metacall@QGalleryQueryModel@QtMobility@@UAEHW4Call@QMetaObject@@HPAPAX@Z @ 77 NONAME ; int QtMobility::QGalleryQueryModel::qt_metacall(enum QMetaObject::Call, int, void * *)
	?metaObject@QDocumentGallery@QtMobility@@UBEPBUQMetaObject@@XZ @ 78 NONAME ; struct QMetaObject const * QtMobility::QDocumentGallery::metaObject(void) const
	?setPropertyName@QGalleryMetaDataFilter@QtMobility@@QAEXABVQString@@@Z @ 79 NONAME ; void QtMobility::QGalleryMetaDataFilter::setPropertyName(class QString const &)
	?metaData@QGalleryItemRequest@QtMobility@@QBE?AVQVariant@@ABVQString@@@Z @ 80 NONAME ; class QVariant QtMobility::QGalleryItemRequest::metaData(class QString const &) const
	?propertyKey@QGalleryTypeRequest@QtMobility@@QBEHABVQString@@@Z @ 81 NONAME ; int QtMobility::QGalleryTypeRequest::propertyKey(class QString const &) const
	??1QGalleryAbstractResponse@QtMobility@@UAE@XZ @ 82 NONAME ; QtMobility::QGalleryAbstractResponse::~QGalleryAbstractResponse(void)
	?removeColumn@QGalleryQueryModel@QtMobility@@QAEXH@Z @ 83 NONAME ; void QtMobility::QGalleryQueryModel::removeColumn(int)
	??0QGalleryQueryRequest@QtMobility@@QAE@PAVQObject@@@Z @ 84 NONAME ; QtMobility::QGalleryQueryRequest::QGalleryQueryRequest(class QObject *)
	?staticMetaObject@QGalleryTypeRequest@QtMobility@@2UQMetaObject@@B @ 85 NONAME ; struct QMetaObject const QtMobility::QGalleryTypeRequest::staticMetaObject
	??0QGalleryTypeRequest@QtMobility@@QAE@PAVQObject@@@Z @ 86 NONAME ; QtMobility::QGalleryTypeRequest::QGalleryTypeRequest(class QObject *)
	??0QGalleryUnionFilter@QtMobility@@QAE@XZ @ 87 NONAME ; QtMobility::QGalleryUnionFilter::QGalleryUnionFilter(void)
	?frameRate@QDocumentGallery@QtMobility@@2UQGalleryProperty@2@B @ 88 NONAME ; struct QtMobility::QGalleryProperty const QtMobility::QDocumentGallery::frameRate
	?qt_metacall@QDocumentGallery@QtMobility@@UAEHW4Call@QMetaObject@@HPAPAX@Z @ 89 NONAME ; int QtMobility::QDocumentGallery::qt_metacall(enum QMetaObject::Call, int, void * *)
	?getStaticMetaObject@QGalleryQueryModel@QtMobility@@SAABUQMetaObject@@XZ @ 90 NONAME ; struct QMetaObject const & QtMobility::QGalleryQueryModel::getStaticMetaObject(void)
	??0QGalleryIntersectionFilter@QtMobility@@AAE@W4Type@QGalleryFilter@1@@Z @ 91 NONAME ; QtMobility::QGalleryIntersectionFilter::QGalleryIntersectionFilter(enum QtMobility::QGalleryFilter::Type)
	?propertyType@QGalleryTypeRequest@QtMobility@@QBE?AW4Type@QVariant@@H@Z @ 92 NONAME ; enum QVariant::Type QtMobility::QGalleryTypeRequest::propertyType(int) const
	?tr@QGalleryItemRequest@QtMobility@@SA?AVQString@@PBD0@Z @ 93 NONAME ; class QString QtMobility::QGalleryItemRequest::tr(char const *, char const *)
	?trUtf8@QAbstractGallery@QtMobility@@SA?AVQString@@PBD0H@Z @ 94 NONAME ; class QString QtMobility::QAbstractGallery::trUtf8(char const *, char const *, int)
	?setComparator@QGalleryMetaDataFilter@QtMobility@@QAEXW4Comparator@QGalleryFilter@2@@Z @ 95 NONAME ; void QtMobility::QGalleryMetaDataFilter::setComparator(enum QtMobility::QGalleryFilter::Comparator)
	?qt_metacall@QGalleryAbstractResponse@QtMobility@@UAEHW4Call@QMetaObject@@HPAPAX@Z @ 96 NONAME ; int QtMobility::QGalleryAbstractResponse::qt_metacall(enum QMetaObject::Call, int, void * *)
	?metaObject@QGalleryAbstractRequest@QtMobility@@UBEPBUQMetaObject@@XZ @ 97 NONAME ; struct QMetaObject const * QtMobility::QGalleryAbstractRequest::metaObject(void) const
	?d_func@QGalleryItemRequest@QtMobility@@AAEPAVQGalleryItemRequestPrivate@2@XZ @ 98 NONAME ; class QtMobility::QGalleryItemRequestPrivate * QtMobility::QGalleryItemRequest::d_func(void)
	?staticMetaObject@QDocumentGallery@QtMobility@@2UQMetaObject@@B @ 99 NONAME ; struct QMetaObject const QtMobility::QDocumentGallery::staticMetaObject
	?description@QDocumentGallery@QtMobility@@2UQGalleryProperty@2@B @ 100 NONAME ; struct QtMobility::QGalleryProperty const QtMobility::QDocumentGallery::description
	?galleryChanged@QGalleryQueryModel@QtMobility@@IAEXXZ @ 101 NONAME ; void QtMobility::QGalleryQueryModel::galleryChanged(void)
	?append@QGalleryIntersectionFilter@QtMobility@@QAEXABV12@@Z @ 102 NONAME ; void QtMobility::QGalleryIntersectionFilter::append(class QtMobility::QGalleryIntersectionFilter const &)
	?append@QGalleryIntersectionFilter@QtMobility@@QAEXABVQGalleryUnionFilter@2@@Z @ 103 NONAME ; void QtMobility::QGalleryIntersectionFilter::append(class QtMobility::QGalleryUnionFilter const &)
	?url@QDocumentGallery@QtMobility@@2UQGalleryProperty@2@B @ 104 NONAME ; struct QtMobility::QGalleryProperty const QtMobility::QDocumentGallery::url
	?isValid@QGalleryIntersectionFilter@QtMobility@@QBE_NXZ @ 105 NONAME ; bool QtMobility::QGalleryIntersectionFilter::isValid(void) const
	?resultSet@QGalleryItemRequest@QtMobility@@QBEPAVQGalleryResultSet@2@XZ @ 106 NONAME ; class QtMobility::QGalleryResultSet * QtMobility::QGalleryItemRequest::resultSet(void) const
	?copyright@QDocumentGallery@QtMobility@@2UQGalleryProperty@2@B @ 107 NONAME ; struct QtMobility::QGalleryProperty const QtMobility::QDocumentGallery::copyright
	?metaData@QGalleryTypeRequest@QtMobility@@QBE?AVQVariant@@H@Z @ 108 NONAME ; class QVariant QtMobility::QGalleryTypeRequest::metaData(int) const
	?albumTitle@QDocumentGallery@QtMobility@@2UQGalleryProperty@2@B @ 109 NONAME ; struct QtMobility::QGalleryProperty const QtMobility::QDocumentGallery::albumTitle
	??_EQGalleryItemRequest@QtMobility@@UAE@I@Z @ 110 NONAME ; QtMobility::QGalleryItemRequest::~QGalleryItemRequest(unsigned int)
	?trackNumber@QDocumentGallery@QtMobility@@2UQGalleryProperty@2@B @ 111 NONAME ; struct QtMobility::QGalleryProperty const QtMobility::QDocumentGallery::trackNumber
	?audioBitRate@QDocumentGallery@QtMobility@@2UQGalleryProperty@2@B @ 112 NONAME ; struct QtMobility::QGalleryProperty const QtMobility::QDocumentGallery::audioBitRate
	?remove@QGalleryIntersectionFilter@QtMobility@@QAEXH@Z @ 113 NONAME ; void QtMobility::QGalleryIntersectionFilter::remove(int)
	??4QGalleryFilter@QtMobility@@QAEAAV01@ABV01@@Z @ 114 NONAME ; class QtMobility::QGalleryFilter & QtMobility::QGalleryFilter::operator=(class QtMobility::QGalleryFilter const &)
	?d_func@QGalleryResultSet@QtMobility@@AAEPAVQGalleryResultSetPrivate@2@XZ @ 115 NONAME ; class QtMobility::QGalleryResultSetPrivate * QtMobility::QGalleryResultSet::d_func(void)
	?Album@QDocumentGallery@QtMobility@@2UQGalleryType@2@B @ 116 NONAME ; struct QtMobility::QGalleryType const QtMobility::QDocumentGallery::Album
	??1QGalleryResultSet@QtMobility@@UAE@XZ @ 117 NONAME ; QtMobility::QGalleryResultSet::~QGalleryResultSet(void)
	?qt_metacast@QGalleryQueryRequest@QtMobility@@UAEPAXPBD@Z @ 118 NONAME ; void * QtMobility::QGalleryQueryRequest::qt_metacast(char const *)
	?d_func@QDocumentGallery@QtMobility@@ABEPBVQDocumentGalleryPrivate@2@XZ @ 119 NONAME ; class QtMobility::QDocumentGalleryPrivate const * QtMobility::QDocumentGallery::d_func(void) const
	?tr@QGalleryTypeRequest@QtMobility@@SA?AVQString@@PBD0@Z @ 120 NONAME ; class QString QtMobility::QGalleryTypeRequest::tr(char const *, char const *)
	?getStaticMetaObject@QGalleryResultSet@QtMobility@@SAABUQMetaObject@@XZ @ 121 NONAME ; struct QMetaObject const & QtMobility::QGalleryResultSet::getStaticMetaObject(void)
	?isValid@QGalleryResultSet@QtMobility@@UBE_NXZ @ 122 NONAME ; bool QtMobility::QGalleryResultSet::isValid(void) const
	?insertColumn@QGalleryQueryModel@QtMobility@@QAEXHABVQString@@H@Z @ 123 NONAME ; void QtMobility::QGalleryQueryModel::insertColumn(int, class QString const &, int)
	?trUtf8@QGalleryItemRequest@QtMobility@@SA?AVQString@@PBD0H@Z @ 124 NONAME ; class QString QtMobility::QGalleryItemRequest::trUtf8(char const *, char const *, int)
	?setHeaderData@QGalleryQueryModel@QtMobility@@UAE_NHW4Orientation@Qt@@ABVQVariant@@H@Z @ 125 NONAME ; bool QtMobility::QGalleryQueryModel::setHeaderData(int, enum Qt::Orientation, class QVariant const &, int)
	??1QGalleryIntersectionFilter@QtMobility@@QAE@XZ @ 126 NONAME ; QtMobility::QGalleryIntersectionFilter::~QGalleryIntersectionFilter(void)
	?currentIndex@QGalleryQueryRequest@QtMobility@@QBEHXZ @ 127 NONAME ; int QtMobility::QGalleryQueryRequest::currentIndex(void) const
	?composer@QDocumentGallery@QtMobility@@2UQGalleryProperty@2@B @ 128 NONAME ; struct QtMobility::QGalleryProperty const QtMobility::QDocumentGallery::composer
	?headerData@QGalleryQueryModel@QtMobility@@UBE?AVQVariant@@HW4Orientation@Qt@@H@Z @ 129 NONAME ; class QVariant QtMobility::QGalleryQueryModel::headerData(int, enum Qt::Orientation, int) const
	?prepend@QGalleryIntersectionFilter@QtMobility@@QAEXABV12@@Z @ 130 NONAME ; void QtMobility::QGalleryIntersectionFilter::prepend(class QtMobility::QGalleryIntersectionFilter const &)
	?galleryChanged@QGalleryAbstractRequest@QtMobility@@IAEXXZ @ 131 NONAME ; void QtMobility::QGalleryAbstractRequest::galleryChanged(void)
	?setItemId@QGalleryItemRequest@QtMobility@@QAEXABVQVariant@@@Z @ 132 NONAME ; void QtMobility::QGalleryItemRequest::setItemId(class QVariant const &)
	??8QtMobility@@YA_NABVQGalleryFilter@0@0@Z @ 133 NONAME ; bool QtMobility::operator==(class QtMobility::QGalleryFilter const &, class QtMobility::QGalleryFilter const &)
	??0QGalleryQueryRequest@QtMobility@@QAE@PAVQAbstractGallery@1@PAVQObject@@@Z @ 134 NONAME ; QtMobility::QGalleryQueryRequest::QGalleryQueryRequest(class QtMobility::QAbstractGallery *, class QObject *)
	?setFilter@QGalleryQueryModel@QtMobility@@QAEXABVQGalleryFilter@2@@Z @ 135 NONAME ; void QtMobility::QGalleryQueryModel::setFilter(class QtMobility::QGalleryFilter const &)
	?qt_metacall@QAbstractGallery@QtMobility@@UAEHW4Call@QMetaObject@@HPAPAX@Z @ 136 NONAME ; int QtMobility::QAbstractGallery::qt_metacall(enum QMetaObject::Call, int, void * *)
	?performer@QDocumentGallery@QtMobility@@2UQGalleryProperty@2@B @ 137 NONAME ; struct QtMobility::QGalleryProperty const QtMobility::QDocumentGallery::performer
	?append@QGalleryUnionFilter@QtMobility@@QAEXABV12@@Z @ 138 NONAME ; void QtMobility::QGalleryUnionFilter::append(class QtMobility::QGalleryUnionFilter const &)
	?setOffset@QGalleryQueryRequest@QtMobility@@QAEXH@Z @ 139 NONAME ; void QtMobility::QGalleryQueryRequest::setOffset(int)
	??0QGalleryQueryModel@QtMobility@@QAE@PAVQAbstractGallery@1@PAVQObject@@@Z @ 140 NONAME ; QtMobility::QGalleryQueryModel::QGalleryQueryModel(class QtMobility::QAbstractGallery *, class QObject *)
	?rating@QDocumentGallery@QtMobility@@2UQGalleryProperty@2@B @ 141 NONAME ; struct QtMobility::QGalleryProperty const QtMobility::QDocumentGallery::rating
	?Video@QDocumentGallery@QtMobility@@2UQGalleryType@2@B @ 142 NONAME ; struct QtMobility::QGalleryType const QtMobility::QDocumentGallery::Video
	?orientation@QDocumentGallery@QtMobility@@2UQGalleryProperty@2@B @ 143 NONAME ; struct QtMobility::QGalleryProperty const QtMobility::QDocumentGallery::orientation
	??0QGalleryItemRequest@QtMobility@@QAE@PAVQAbstractGallery@1@PAVQObject@@@Z @ 144 NONAME ; QtMobility::QGalleryItemRequest::QGalleryItemRequest(class QtMobility::QAbstractGallery *, class QObject *)
	?d_func@QGalleryQueryRequest@QtMobility@@AAEPAVQGalleryQueryRequestPrivate@2@XZ @ 145 NONAME ; class QtMobility::QGalleryQueryRequestPrivate * QtMobility::QGalleryQueryRequest::d_func(void)
	?setRootType@QGalleryQueryRequest@QtMobility@@QAEXABVQString@@@Z @ 146 NONAME ; void QtMobility::QGalleryQueryRequest::setRootType(class QString const &)
	?meteringMode@QDocumentGallery@QtMobility@@2UQGalleryProperty@2@B @ 147 NONAME ; struct QtMobility::QGalleryProperty const QtMobility::QDocumentGallery::meteringMode
	?progressChanged@QGalleryAbstractResponse@QtMobility@@IAEXHH@Z @ 148 NONAME ; void QtMobility::QGalleryAbstractResponse::progressChanged(int, int)
	?autoUpdateChanged@QGalleryQueryModel@QtMobility@@IAEXXZ @ 149 NONAME ; void QtMobility::QGalleryQueryModel::autoUpdateChanged(void)
	??MQGalleryProperty@QtMobility@@QBE?AVQGalleryMetaDataFilter@1@ABVQVariant@@@Z @ 150 NONAME ; class QtMobility::QGalleryMetaDataFilter QtMobility::QGalleryProperty::operator<(class QVariant const &) const
	?d_func@QGalleryTypeRequest@QtMobility@@ABEPBVQGalleryTypeRequestPrivate@2@XZ @ 151 NONAME ; class QtMobility::QGalleryTypeRequestPrivate const * QtMobility::QGalleryTypeRequest::d_func(void) const
	?trUtf8@QGalleryQueryRequest@QtMobility@@SA?AVQString@@PBD0@Z @ 152 NONAME ; class QString QtMobility::QGalleryQueryRequest::trUtf8(char const *, char const *)
	?toUnionFilter@QGalleryFilter@QtMobility@@QBE?AVQGalleryUnionFilter@2@XZ @ 153 NONAME ; class QtMobility::QGalleryUnionFilter QtMobility::QGalleryFilter::toUnionFilter(void) const
	?resultSet@QGalleryTypeRequest@QtMobility@@QBEPAVQGalleryResultSet@2@XZ @ 154 NONAME ; class QtMobility::QGalleryResultSet * QtMobility::QGalleryTypeRequest::resultSet(void) const
	?trUtf8@QDocumentGallery@QtMobility@@SA?AVQString@@PBD0@Z @ 155 NONAME ; class QString QtMobility::QDocumentGallery::trUtf8(char const *, char const *)
	?remove@QGalleryUnionFilter@QtMobility@@QAEXH@Z @ 156 NONAME ; void QtMobility::QGalleryUnionFilter::remove(int)
	?Document@QDocumentGallery@QtMobility@@2UQGalleryType@2@B @ 157 NONAME ; struct QtMobility::QGalleryType const QtMobility::QDocumentGallery::Document
	?waitForFinished@QGalleryAbstractResponse@QtMobility@@UAE_NH@Z @ 158 NONAME ; bool QtMobility::QGalleryAbstractResponse::waitForFinished(int)
	?sortPropertyNames@QGalleryQueryModel@QtMobility@@QBE?AVQStringList@@XZ @ 159 NONAME ; class QStringList QtMobility::QGalleryQueryModel::sortPropertyNames(void) const
	?artist@QDocumentGallery@QtMobility@@2UQGalleryProperty@2@B @ 160 NONAME ; struct QtMobility::QGalleryProperty const QtMobility::QDocumentGallery::artist
	?addColumn@QGalleryQueryModel@QtMobility@@QAEXABV?$QHash@HVQString@@@@@Z @ 161 NONAME ; void QtMobility::QGalleryQueryModel::addColumn(class QHash<int, class QString> const &)
	?errorString@QGalleryQueryModel@QtMobility@@QBE?AVQString@@XZ @ 162 NONAME ; class QString QtMobility::QGalleryQueryModel::errorString(void) const
	?cameraModel@QDocumentGallery@QtMobility@@2UQGalleryProperty@2@B @ 163 NONAME ; struct QtMobility::QGalleryProperty const QtMobility::QDocumentGallery::cameraModel
	?d_func@QGalleryAbstractRequest@QtMobility@@AAEPAVQGalleryAbstractRequestPrivate@2@XZ @ 164 NONAME ; class QtMobility::QGalleryAbstractRequestPrivate * QtMobility::QGalleryAbstractRequest::d_func(void)
	??0QGalleryFilter@QtMobility@@QAE@ABVQGalleryMetaDataFilter@1@@Z @ 165 NONAME ; QtMobility::QGalleryFilter::QGalleryFilter(class QtMobility::QGalleryMetaDataFilter const &)
	?focalLength@QDocumentGallery@QtMobility@@2UQGalleryProperty@2@B @ 166 NONAME ; struct QtMobility::QGalleryProperty const QtMobility::QDocumentGallery::focalLength
	?trackCount@QDocumentGallery@QtMobility@@2UQGalleryProperty@2@B @ 167 NONAME ; struct QtMobility::QGalleryProperty const QtMobility::QDocumentGallery::trackCount
	?author@QDocumentGallery@QtMobility@@2UQGalleryProperty@2@B @ 168 NONAME ; struct QtMobility::QGalleryProperty const QtMobility::QDocumentGallery::author
	?autoUpdateChanged@QGalleryItemRequest@QtMobility@@IAEXXZ @ 169 NONAME ; void QtMobility::QGalleryItemRequest::autoUpdateChanged(void)
	?itemUrl@QGalleryItemRequest@QtMobility@@QBE?AVQUrl@@XZ @ 170 NONAME ; class QUrl QtMobility::QGalleryItemRequest::itemUrl(void) const
	?metaObject@QGalleryResultSet@QtMobility@@UBEPBUQMetaObject@@XZ @ 171 NONAME ; struct QMetaObject const * QtMobility::QGalleryResultSet::metaObject(void) const
	?index@QGalleryQueryModel@QtMobility@@UBE?AVQModelIndex@@HHABV3@@Z @ 172 NONAME ; class QModelIndex QtMobility::QGalleryQueryModel::index(int, int, class QModelIndex const &) const
	?itemsInserted@QGalleryResultSet@QtMobility@@IAEXHH@Z @ 173 NONAME ; void QtMobility::QGalleryResultSet::itemsInserted(int, int)
	?trUtf8@QGalleryItemRequest@QtMobility@@SA?AVQString@@PBD0@Z @ 174 NONAME ; class QString QtMobility::QGalleryItemRequest::trUtf8(char const *, char const *)
	??1QGalleryMetaDataFilter@QtMobility@@QAE@XZ @ 175 NONAME ; QtMobility::QGalleryMetaDataFilter::~QGalleryMetaDataFilter(void)
	?attribute@QGalleryResource@QtMobility@@QBE?AVQVariant@@H@Z @ 176 NONAME ; class QVariant QtMobility::QGalleryResource::attribute(int) const
	?fileSize@QDocumentGallery@QtMobility@@2UQGalleryProperty@2@B @ 177 NONAME ; struct QtMobility::QGalleryProperty const QtMobility::QDocumentGallery::fileSize
	?sortPropertyNamesChanged@QGalleryQueryModel@QtMobility@@IAEXXZ @ 178 NONAME ; void QtMobility::QGalleryQueryModel::sortPropertyNamesChanged(void)
	?setRootItem@QGalleryQueryModel@QtMobility@@QAEXABVQVariant@@@Z @ 179 NONAME ; void QtMobility::QGalleryQueryModel::setRootItem(class QVariant const &)
	?supportedChanged@QGalleryAbstractRequest@QtMobility@@IAEXXZ @ 180 NONAME ; void QtMobility::QGalleryAbstractRequest::supportedChanged(void)
	??VQtMobility@@YA?AVQGalleryIntersectionFilter@0@ABV10@0@Z @ 181 NONAME ; class QtMobility::QGalleryIntersectionFilter QtMobility::operator&&(class QtMobility::QGalleryIntersectionFilter const &, class QtMobility::QGalleryIntersectionFilter const &)
	?d_func@QGalleryResultSet@QtMobility@@ABEPBVQGalleryResultSetPrivate@2@XZ @ 182 NONAME ; class QtMobility::QGalleryResultSetPrivate const * QtMobility::QGalleryResultSet::d_func(void) const
	?parent@QGalleryQueryModel@QtMobility@@UBE?AVQModelIndex@@ABV3@@Z @ 183 NONAME ; class QModelIndex QtMobility::QGalleryQueryModel::parent(class QModelIndex const &) const
	?url@QGalleryResource@QtMobility@@QBE?AVQUrl@@XZ @ 184 NONAME ; class QUrl QtMobility::QGalleryResource::url(void) const
	?autoUpdateChanged@QGalleryQueryRequest@QtMobility@@IAEXXZ @ 185 NONAME ; void QtMobility::QGalleryQueryRequest::autoUpdateChanged(void)
	??9QGalleryResource@QtMobility@@QBE_NABV01@@Z @ 186 NONAME ; bool QtMobility::QGalleryResource::operator!=(class QtMobility::QGalleryResource const &) const
	??1QGalleryUnionFilter@QtMobility@@QAE@XZ @ 187 NONAME ; QtMobility::QGalleryUnionFilter::~QGalleryUnionFilter(void)
	?state@QGalleryAbstractRequest@QtMobility@@QBE?AW4State@12@XZ @ 188 NONAME ; enum QtMobility::QGalleryAbstractRequest::State QtMobility::QGalleryAbstractRequest::state(void) const
	?staticMetaObject@QGalleryItemRequest@QtMobility@@2UQMetaObject@@B @ 189 NONAME ; struct QMetaObject const QtMobility::QGalleryItemRequest::staticMetaObject
	?Folder@QDocumentGallery@QtMobility@@2UQGalleryType@2@B @ 190 NONAME ; struct QtMobility::QGalleryType const QtMobility::QDocumentGallery::Folder
	?attributes@QGalleryResource@QtMobility@@QBE?AV?$QMap@HVQVariant@@@@XZ @ 191 NONAME ; class QMap<int, class QVariant> QtMobility::QGalleryResource::attributes(void) const
	?insert@QGalleryIntersectionFilter@QtMobility@@QAEXHABVQGalleryMetaDataFilter@2@@Z @ 192 NONAME ; void QtMobility::QGalleryIntersectionFilter::insert(int, class QtMobility::QGalleryMetaDataFilter const &)
	?trUtf8@QGalleryTypeRequest@QtMobility@@SA?AVQString@@PBD0H@Z @ 193 NONAME ; class QString QtMobility::QGalleryTypeRequest::trUtf8(char const *, char const *, int)
	?metaObject@QAbstractGallery@QtMobility@@UBEPBUQMetaObject@@XZ @ 194 NONAME ; struct QMetaObject const * QtMobility::QAbstractGallery::metaObject(void) const
	??6QGalleryIntersectionFilter@QtMobility@@QAEAAV01@ABV01@@Z @ 195 NONAME ; class QtMobility::QGalleryIntersectionFilter & QtMobility::QGalleryIntersectionFilter::operator<<(class QtMobility::QGalleryIntersectionFilter const &)
	?setLimit@QGalleryQueryRequest@QtMobility@@QAEXH@Z @ 196 NONAME ; void QtMobility::QGalleryQueryRequest::setLimit(int)
	??4QGalleryMetaDataFilter@QtMobility@@QAEAAV01@ABV01@@Z @ 197 NONAME ; class QtMobility::QGalleryMetaDataFilter & QtMobility::QGalleryMetaDataFilter::operator=(class QtMobility::QGalleryMetaDataFilter const &)
	?qt_metacast@QDocumentGallery@QtMobility@@UAEPAXPBD@Z @ 198 NONAME ; void * QtMobility::QDocumentGallery::qt_metacast(char const *)
	?regExp@QGalleryProperty@QtMobility@@QBE?AVQGalleryMetaDataFilter@2@ABVQRegExp@@@Z @ 199 NONAME ; class QtMobility::QGalleryMetaDataFilter QtMobility::QGalleryProperty::regExp(class QRegExp const &) const
	?type@QGalleryFilter@QtMobility@@QBE?AW4Type@12@XZ @ 200 NONAME ; enum QtMobility::QGalleryFilter::Type QtMobility::QGalleryFilter::type(void) const
	?rootItem@QGalleryQueryRequest@QtMobility@@QBE?AVQVariant@@XZ @ 201 NONAME ; class QVariant QtMobility::QGalleryQueryRequest::rootItem(void) const
	?currentItemChanged@QGalleryResultSet@QtMobility@@IAEXXZ @ 202 NONAME ; void QtMobility::QGalleryResultSet::currentItemChanged(void)
	?clear@QGalleryAbstractRequest@QtMobility@@QAEXXZ @ 203 NONAME ; void QtMobility::QGalleryAbstractRequest::clear(void)
	??0QGalleryMetaDataFilter@QtMobility@@QAE@XZ @ 204 NONAME ; QtMobility::QGalleryMetaDataFilter::QGalleryMetaDataFilter(void)
	?getStaticMetaObject@QGalleryAbstractResponse@QtMobility@@SAABUQMetaObject@@XZ @ 205 NONAME ; struct QMetaObject const & QtMobility::QGalleryAbstractResponse::getStaticMetaObject(void)
	?prepend@QGalleryIntersectionFilter@QtMobility@@QAEXABVQGalleryMetaDataFilter@2@@Z @ 206 NONAME ; void QtMobility::QGalleryIntersectionFilter::prepend(class QtMobility::QGalleryMetaDataFilter const &)
	?trUtf8@QGalleryTypeRequest@QtMobility@@SA?AVQString@@PBD0@Z @ 207 NONAME ; class QString QtMobility::QGalleryTypeRequest::trUtf8(char const *, char const *)
	?error@QGalleryAbstractRequest@QtMobility@@IAEXHABVQString@@@Z @ 208 NONAME ; void QtMobility::QGalleryAbstractRequest::error(int, class QString const &)
	??8QGalleryProperty@QtMobility@@QBE?AVQGalleryMetaDataFilter@1@ABVQVariant@@@Z @ 209 NONAME ; class QtMobility::QGalleryMetaDataFilter QtMobility::QGalleryProperty::operator==(class QVariant const &) const
	?tr@QDocumentGallery@QtMobility@@SA?AVQString@@PBD0@Z @ 210 NONAME ; class QString QtMobility::QDocumentGallery::tr(char const *, char const *)
	?itemType@QGalleryItemRequest@QtMobility@@QBE?AVQString@@XZ @ 211 NONAME ; class QString QtMobility::QGalleryItemRequest::itemType(void) const
	?resources@QGalleryQueryRequest@QtMobility@@QBE?AV?$QList@VQGalleryResource@QtMobility@@@@XZ @ 212 NONAME ; class QList<class QtMobility::QGalleryResource> QtMobility::QGalleryQueryRequest::resources(void) const
	?propertyKey@QGalleryItemRequest@QtMobility@@QBEHABVQString@@@Z @ 213 NONAME ; int QtMobility::QGalleryItemRequest::propertyKey(class QString const &) const
	??6QGalleryUnionFilter@QtMobility@@QAEAAV01@ABV01@@Z @ 214 NONAME ; class QtMobility::QGalleryUnionFilter & QtMobility::QGalleryUnionFilter::operator<<(class QtMobility::QGalleryUnionFilter const &)
	?isIdle@QGalleryAbstractResponse@QtMobility@@QBE_NXZ @ 215 NONAME ; bool QtMobility::QGalleryAbstractResponse::isIdle(void) const
	?tr@QGalleryResultSet@QtMobility@@SA?AVQString@@PBD0H@Z @ 216 NONAME ; class QString QtMobility::QGalleryResultSet::tr(char const *, char const *, int)
	?language@QDocumentGallery@QtMobility@@2UQGalleryProperty@2@B @ 217 NONAME ; struct QtMobility::QGalleryProperty const QtMobility::QDocumentGallery::language
	??NQGalleryProperty@QtMobility@@QBE?AVQGalleryMetaDataFilter@1@ABVQVariant@@@Z @ 218 NONAME ; class QtMobility::QGalleryMetaDataFilter QtMobility::QGalleryProperty::operator<=(class QVariant const &) const
	??0QGalleryItemRequest@QtMobility@@QAE@PAVQObject@@@Z @ 219 NONAME ; QtMobility::QGalleryItemRequest::QGalleryItemRequest(class QObject *)
	?trUtf8@QGalleryQueryRequest@QtMobility@@SA?AVQString@@PBD0H@Z @ 220 NONAME ; class QString QtMobility::QGalleryQueryRequest::trUtf8(char const *, char const *, int)
	?cancel@QGalleryAbstractResponse@QtMobility@@UAEXXZ @ 221 NONAME ; void QtMobility::QGalleryAbstractResponse::cancel(void)
	?AlbumArtist@QDocumentGallery@QtMobility@@2UQGalleryType@2@B @ 222 NONAME ; struct QtMobility::QGalleryType const QtMobility::QDocumentGallery::AlbumArtist
	??0QGalleryAbstractResponse@QtMobility@@IAE@PAVQObject@@@Z @ 223 NONAME ; QtMobility::QGalleryAbstractResponse::QGalleryAbstractResponse(class QObject *)
	?stateChanged@QGalleryQueryModel@QtMobility@@IAEXW4State@QGalleryAbstractRequest@2@@Z @ 224 NONAME ; void QtMobility::QGalleryQueryModel::stateChanged(enum QtMobility::QGalleryAbstractRequest::State)
	?scope@QGalleryQueryModel@QtMobility@@QBE?AW4Scope@QGalleryQueryRequest@2@XZ @ 225 NONAME ; enum QtMobility::QGalleryQueryRequest::Scope QtMobility::QGalleryQueryModel::scope(void) const
	?videoBitRate@QDocumentGallery@QtMobility@@2UQGalleryProperty@2@B @ 226 NONAME ; struct QtMobility::QGalleryProperty const QtMobility::QDocumentGallery::videoBitRate
	??_EQGalleryQueryModel@QtMobility@@UAE@I@Z @ 227 NONAME ; QtMobility::QGalleryQueryModel::~QGalleryQueryModel(unsigned int)
	??BQGalleryProperty@QtMobility@@QBE?AVQString@@XZ @ 228 NONAME ; QtMobility::QGalleryProperty::operator class QString(void) const
	?isValid@QGalleryItemRequest@QtMobility@@QBE_NXZ @ 229 NONAME ; bool QtMobility::QGalleryItemRequest::isValid(void) const
	?metaData@QGalleryTypeRequest@QtMobility@@QBE?AVQVariant@@ABVQString@@@Z @ 230 NONAME ; class QVariant QtMobility::QGalleryTypeRequest::metaData(class QString const &) const
	??0QGalleryQueryModel@QtMobility@@QAE@PAVQObject@@@Z @ 231 NONAME ; QtMobility::QGalleryQueryModel::QGalleryQueryModel(class QObject *)
	?trUtf8@QGalleryAbstractResponse@QtMobility@@SA?AVQString@@PBD0@Z @ 232 NONAME ; class QString QtMobility::QGalleryAbstractResponse::trUtf8(char const *, char const *)
	?setValue@QGalleryMetaDataFilter@QtMobility@@QAEXABVQVariant@@@Z @ 233 NONAME ; void QtMobility::QGalleryMetaDataFilter::setValue(class QVariant const &)
	?autoUpdate@QGalleryQueryRequest@QtMobility@@QBE_NXZ @ 234 NONAME ; bool QtMobility::QGalleryQueryRequest::autoUpdate(void) const
	?Artist@QDocumentGallery@QtMobility@@2UQGalleryType@2@B @ 235 NONAME ; struct QtMobility::QGalleryType const QtMobility::QDocumentGallery::Artist
	?itemUrl@QGalleryQueryModel@QtMobility@@QBE?AVQUrl@@ABVQModelIndex@@@Z @ 236 NONAME ; class QUrl QtMobility::QGalleryQueryModel::itemUrl(class QModelIndex const &) const
	?d_func@QGalleryAbstractResponse@QtMobility@@ABEPBVQGalleryAbstractResponsePrivate@2@XZ @ 237 NONAME ; class QtMobility::QGalleryAbstractResponsePrivate const * QtMobility::QGalleryAbstractResponse::d_func(void) const
	?d_func@QGalleryItemRequest@QtMobility@@ABEPBVQGalleryItemRequestPrivate@2@XZ @ 238 NONAME ; class QtMobility::QGalleryItemRequestPrivate const * QtMobility::QGalleryItemRequest::d_func(void) const
	?itemCount@QGalleryQueryRequest@QtMobility@@QBEHXZ @ 239 NONAME ; int QtMobility::QGalleryQueryRequest::itemCount(void) const
	?isActive@QGalleryAbstractResponse@QtMobility@@QBE_NXZ @ 240 NONAME ; bool QtMobility::QGalleryAbstractResponse::isActive(void) const
	?tr@QGalleryQueryModel@QtMobility@@SA?AVQString@@PBD0@Z @ 241 NONAME ; class QString QtMobility::QGalleryQueryModel::tr(char const *, char const *)
	?subject@QDocumentGallery@QtMobility@@2UQGalleryProperty@2@B @ 242 NONAME ; struct QtMobility::QGalleryProperty const QtMobility::QDocumentGallery::subject
	?errorChanged@QGalleryQueryModel@QtMobility@@IAEXXZ @ 243 NONAME ; void QtMobility::QGalleryQueryModel::errorChanged(void)
	?first@QGalleryQueryRequest@QtMobility@@QAE_NXZ @ 244 NONAME ; bool QtMobility::QGalleryQueryRequest::first(void)
	?clear@QGalleryQueryModel@QtMobility@@QAEXXZ @ 245 NONAME ; void QtMobility::QGalleryQueryModel::clear(void)
	?setGallery@QGalleryAbstractRequest@QtMobility@@QAEXPAVQAbstractGallery@2@@Z @ 246 NONAME ; void QtMobility::QGalleryAbstractRequest::setGallery(class QtMobility::QAbstractGallery *)
	?trUtf8@QAbstractGallery@QtMobility@@SA?AVQString@@PBD0@Z @ 247 NONAME ; class QString QtMobility::QAbstractGallery::trUtf8(char const *, char const *)
	?rowCount@QGalleryQueryModel@QtMobility@@UBEHABVQModelIndex@@@Z @ 248 NONAME ; int QtMobility::QGalleryQueryModel::rowCount(class QModelIndex const &) const
	?fetchLast@QGalleryResultSet@QtMobility@@UAE_NXZ @ 249 NONAME ; bool QtMobility::QGalleryResultSet::fetchLast(void)
	?metaDataChanged@QGalleryResultSet@QtMobility@@IAEXHHABV?$QList@H@@@Z @ 250 NONAME ; void QtMobility::QGalleryResultSet::metaDataChanged(int, int, class QList<int> const &)
	?scope@QGalleryQueryRequest@QtMobility@@QBE?AW4Scope@12@XZ @ 251 NONAME ; enum QtMobility::QGalleryQueryRequest::Scope QtMobility::QGalleryQueryRequest::scope(void) const
	?replace@QGalleryIntersectionFilter@QtMobility@@QAEXHABVQGalleryMetaDataFilter@2@@Z @ 252 NONAME ; void QtMobility::QGalleryIntersectionFilter::replace(int, class QtMobility::QGalleryMetaDataFilter const &)
	?insertColumn@QGalleryQueryModel@QtMobility@@QAEXHABV?$QHash@HVQString@@@@@Z @ 253 NONAME ; void QtMobility::QGalleryQueryModel::insertColumn(int, class QHash<int, class QString> const &)
	?d_func@QGalleryQueryModel@QtMobility@@AAEPAVQGalleryQueryModelPrivate@2@XZ @ 254 NONAME ; class QtMobility::QGalleryQueryModelPrivate * QtMobility::QGalleryQueryModel::d_func(void)
	?setOffset@QGalleryQueryModel@QtMobility@@QAEXH@Z @ 255 NONAME ; void QtMobility::QGalleryQueryModel::setOffset(int)
	?mimeType@QDocumentGallery@QtMobility@@2UQGalleryProperty@2@B @ 256 NONAME ; struct QtMobility::QGalleryProperty const QtMobility::QDocumentGallery::mimeType
	?resume@QGalleryAbstractResponse@QtMobility@@IAEXXZ @ 257 NONAME ; void QtMobility::QGalleryAbstractResponse::resume(void)
	?cancel@QGalleryAbstractRequest@QtMobility@@QAEXXZ @ 258 NONAME ; void QtMobility::QGalleryAbstractRequest::cancel(void)
	?setMetaData@QGalleryItemRequest@QtMobility@@QAE_NHABVQVariant@@@Z @ 259 NONAME ; bool QtMobility::QGalleryItemRequest::setMetaData(int, class QVariant const &)
	??0QGalleryAbstractResponse@QtMobility@@IAE@AAVQGalleryAbstractResponsePrivate@1@PAVQObject@@@Z @ 260 NONAME ; QtMobility::QGalleryAbstractResponse::QGalleryAbstractResponse(class QtMobility::QGalleryAbstractResponsePrivate &, class QObject *)
	?filter@QGalleryQueryModel@QtMobility@@QBE?AVQGalleryFilter@2@XZ @ 261 NONAME ; class QtMobility::QGalleryFilter QtMobility::QGalleryQueryModel::filter(void) const
	?resources@QGalleryResultSet@QtMobility@@UBE?AV?$QList@VQGalleryResource@QtMobility@@@@XZ @ 262 NONAME ; class QList<class QtMobility::QGalleryResource> QtMobility::QGalleryResultSet::resources(void) const
	?flags@QGalleryQueryModel@QtMobility@@UBE?AV?$QFlags@W4ItemFlag@Qt@@@@ABVQModelIndex@@@Z @ 263 NONAME ; class QFlags<enum Qt::ItemFlag> QtMobility::QGalleryQueryModel::flags(class QModelIndex const &) const
	?setItemType@QGalleryTypeRequest@QtMobility@@QAEXABVQString@@@Z @ 264 NONAME ; void QtMobility::QGalleryTypeRequest::setItemType(class QString const &)
	??4QGalleryIntersectionFilter@QtMobility@@QAEAAV01@ABV01@@Z @ 265 NONAME ; class QtMobility::QGalleryIntersectionFilter & QtMobility::QGalleryIntersectionFilter::operator=(class QtMobility::QGalleryIntersectionFilter const &)
	?setAutoUpdate@QGalleryQueryModel@QtMobility@@QAEX_N@Z @ 266 NONAME ; void QtMobility::QGalleryQueryModel::setAutoUpdate(bool)
	??1QGalleryQueryModel@QtMobility@@UAE@XZ @ 267 NONAME ; QtMobility::QGalleryQueryModel::~QGalleryQueryModel(void)
	?setScope@QGalleryQueryRequest@QtMobility@@QAEXW4Scope@12@@Z @ 268 NONAME ; void QtMobility::QGalleryQueryRequest::setScope(enum QtMobility::QGalleryQueryRequest::Scope)
	?exposureTime@QDocumentGallery@QtMobility@@2UQGalleryProperty@2@B @ 269 NONAME ; struct QtMobility::QGalleryProperty const QtMobility::QDocumentGallery::exposureTime
	?error@QGalleryAbstractRequest@QtMobility@@QBEHXZ @ 270 NONAME ; int QtMobility::QGalleryAbstractRequest::error(void) const
	?roleProperties@QGalleryQueryModel@QtMobility@@QBE?AV?$QHash@HVQString@@@@H@Z @ 271 NONAME ; class QHash<int, class QString> QtMobility::QGalleryQueryModel::roleProperties(int) const
	?trUtf8@QGalleryAbstractResponse@QtMobility@@SA?AVQString@@PBD0H@Z @ 272 NONAME ; class QString QtMobility::QGalleryAbstractResponse::trUtf8(char const *, char const *, int)
	?next@QGalleryQueryRequest@QtMobility@@QAE_NXZ @ 273 NONAME ; bool QtMobility::QGalleryQueryRequest::next(void)
	?columnCount@QGalleryQueryModel@QtMobility@@UBEHABVQModelIndex@@@Z @ 274 NONAME ; int QtMobility::QGalleryQueryModel::columnCount(class QModelIndex const &) const
	?propertyNames@QGalleryItemRequest@QtMobility@@QBE?AVQStringList@@XZ @ 275 NONAME ; class QStringList QtMobility::QGalleryItemRequest::propertyNames(void) const
	?path@QDocumentGallery@QtMobility@@2UQGalleryProperty@2@B @ 276 NONAME ; struct QtMobility::QGalleryProperty const QtMobility::QDocumentGallery::path
	?qt_metacast@QGalleryItemRequest@QtMobility@@UAEPAXPBD@Z @ 277 NONAME ; void * QtMobility::QGalleryItemRequest::qt_metacast(char const *)
	?toMetaDataFilter@QGalleryFilter@QtMobility@@QBE?AVQGalleryMetaDataFilter@2@XZ @ 278 NONAME ; class QtMobility::QGalleryMetaDataFilter QtMobility::QGalleryFilter::toMetaDataFilter(void) const
	??1QGalleryFilter@QtMobility@@QAE@XZ @ 279 NONAME ; QtMobility::QGalleryFilter::~QGalleryFilter(void)
	?insert@QGalleryUnionFilter@QtMobility@@QAEXHABVQGalleryIntersectionFilter@2@@Z @ 280 NONAME ; void QtMobility::QGalleryUnionFilter::insert(int, class QtMobility::QGalleryIntersectionFilter const &)
	?tr@QDocumentGallery@QtMobility@@SA?AVQString@@PBD0H@Z @ 281 NONAME ; class QString QtMobility::QDocumentGallery::tr(char const *, char const *, int)
	?errorChanged@QGalleryAbstractRequest@QtMobility@@IAEXXZ @ 282 NONAME ; void QtMobility::QGalleryAbstractRequest::errorChanged(void)
	?AudioGenre@QDocumentGallery@QtMobility@@2UQGalleryType@2@B @ 283 NONAME ; struct QtMobility::QGalleryType const QtMobility::QDocumentGallery::AudioGenre
	?rootType@QGalleryQueryModel@QtMobility@@QBE?AVQString@@XZ @ 284 NONAME ; class QString QtMobility::QGalleryQueryModel::rootType(void) const
	?wildcard@QGalleryProperty@QtMobility@@QBE?AVQGalleryMetaDataFilter@2@ABVQString@@@Z @ 285 NONAME ; class QtMobility::QGalleryMetaDataFilter QtMobility::QGalleryProperty::wildcard(class QString const &) const
	??1QGalleryAbstractRequest@QtMobility@@UAE@XZ @ 286 NONAME ; QtMobility::QGalleryAbstractRequest::~QGalleryAbstractRequest(void)
	?insert@QGalleryIntersectionFilter@QtMobility@@QAEXHABVQGalleryUnionFilter@2@@Z @ 287 NONAME ; void QtMobility::QGalleryIntersectionFilter::insert(int, class QtMobility::QGalleryUnionFilter const &)
	?qt_metacall@QGalleryResultSet@QtMobility@@UAEHW4Call@QMetaObject@@HPAPAX@Z @ 288 NONAME ; int QtMobility::QGalleryResultSet::qt_metacall(enum QMetaObject::Call, int, void * *)
	??OQGalleryProperty@QtMobility@@QBE?AVQGalleryMetaDataFilter@1@ABVQVariant@@@Z @ 289 NONAME ; class QtMobility::QGalleryMetaDataFilter QtMobility::QGalleryProperty::operator>(class QVariant const &) const
	?audioCodec@QDocumentGallery@QtMobility@@2UQGalleryProperty@2@B @ 290 NONAME ; struct QtMobility::QGalleryProperty const QtMobility::QDocumentGallery::audioCodec
	?state@QGalleryQueryModel@QtMobility@@QBE?AW4State@QGalleryAbstractRequest@2@XZ @ 291 NONAME ; enum QtMobility::QGalleryAbstractRequest::State QtMobility::QGalleryQueryModel::state(void) const
	?PhotoAlbum@QDocumentGallery@QtMobility@@2UQGalleryType@2@B @ 292 NONAME ; struct QtMobility::QGalleryType const QtMobility::QDocumentGallery::PhotoAlbum
	?execute@QGalleryQueryModel@QtMobility@@QAEXXZ @ 293 NONAME ; void QtMobility::QGalleryQueryModel::execute(void)
	?fetchFirst@QGalleryResultSet@QtMobility@@UAE_NXZ @ 294 NONAME ; bool QtMobility::QGalleryResultSet::fetchFirst(void)
	?tr@QAbstractGallery@QtMobility@@SA?AVQString@@PBD0@Z @ 295 NONAME ; class QString QtMobility::QAbstractGallery::tr(char const *, char const *)
	?propertyName@QGalleryMetaDataFilter@QtMobility@@QBE?AVQString@@XZ @ 296 NONAME ; class QString QtMobility::QGalleryMetaDataFilter::propertyName(void) const
	?setRootType@QGalleryQueryModel@QtMobility@@QAEXABVQString@@@Z @ 297 NONAME ; void QtMobility::QGalleryQueryModel::setRootType(class QString const &)
	?rootType@QGalleryQueryRequest@QtMobility@@QBE?AVQString@@XZ @ 298 NONAME ; class QString QtMobility::QGalleryQueryRequest::rootType(void) const
	?offset@QGalleryQueryModel@QtMobility@@QBEHXZ @ 299 NONAME ; int QtMobility::QGalleryQueryModel::offset(void) const
	?whiteBalance@QDocumentGallery@QtMobility@@2UQGalleryProperty@2@B @ 300 NONAME ; struct QtMobility::QGalleryProperty const QtMobility::QDocumentGallery::whiteBalance
	??0QGalleryUnionFilter@QtMobility@@QAE@ABVQGalleryMetaDataFilter@1@@Z @ 301 NONAME ; QtMobility::QGalleryUnionFilter::QGalleryUnionFilter(class QtMobility::QGalleryMetaDataFilter const &)
	?isValid@QGalleryUnionFilter@QtMobility@@QBE_NXZ @ 302 NONAME ; bool QtMobility::QGalleryUnionFilter::isValid(void) const
	?isValid@QGalleryFilter@QtMobility@@QBE_NXZ @ 303 NONAME ; bool QtMobility::QGalleryFilter::isValid(void) const
	?error@QGalleryQueryModel@QtMobility@@IAEXHABVQString@@@Z @ 304 NONAME ; void QtMobility::QGalleryQueryModel::error(int, class QString const &)
	?resumed@QGalleryAbstractResponse@QtMobility@@IAEXXZ @ 305 NONAME ; void QtMobility::QGalleryAbstractResponse::resumed(void)
	?staticMetaObject@QGalleryQueryRequest@QtMobility@@2UQMetaObject@@B @ 306 NONAME ; struct QMetaObject const QtMobility::QGalleryQueryRequest::staticMetaObject
	?filterChanged@QGalleryQueryRequest@QtMobility@@IAEXXZ @ 307 NONAME ; void QtMobility::QGalleryQueryRequest::filterChanged(void)
	?d_func@QGalleryAbstractRequest@QtMobility@@ABEPBVQGalleryAbstractRequestPrivate@2@XZ @ 308 NONAME ; class QtMobility::QGalleryAbstractRequestPrivate const * QtMobility::QGalleryAbstractRequest::d_func(void) const
	?isEmpty@QGalleryUnionFilter@QtMobility@@QBE_NXZ @ 309 NONAME ; bool QtMobility::QGalleryUnionFilter::isEmpty(void) const
	??_EQDocumentGallery@QtMobility@@UAE@I@Z @ 310 NONAME ; QtMobility::QDocumentGallery::~QDocumentGallery(unsigned int)
	?dateTaken@QDocumentGallery@QtMobility@@2UQGalleryProperty@2@B @ 311 NONAME ; struct QtMobility::QGalleryProperty const QtMobility::QDocumentGallery::dateTaken
	?finish@QGalleryAbstractResponse@QtMobility@@IAEX_N@Z @ 312 NONAME ; void QtMobility::QGalleryAbstractResponse::finish(bool)
	?propertyKey@QGalleryQueryRequest@QtMobility@@QBEHABVQString@@@Z @ 313 NONAME ; int QtMobility::QGalleryQueryRequest::propertyKey(class QString const &) const
	?setScope@QGalleryQueryModel@QtMobility@@QAEXW4Scope@QGalleryQueryRequest@2@@Z @ 314 NONAME ; void QtMobility::QGalleryQueryModel::setScope(enum QtMobility::QGalleryQueryRequest::Scope)
	?propertyNamesChanged@QGalleryTypeRequest@QtMobility@@IAEXXZ @ 315 NONAME ; void QtMobility::QGalleryTypeRequest::propertyNamesChanged(void)
	?comparator@QGalleryMetaDataFilter@QtMobility@@QBE?AW4Comparator@QGalleryFilter@2@XZ @ 316 NONAME ; enum QtMobility::QGalleryFilter::Comparator QtMobility::QGalleryMetaDataFilter::comparator(void) const
	?qt_metacast@QAbstractGallery@QtMobility@@UAEPAXPBD@Z @ 317 NONAME ; void * QtMobility::QAbstractGallery::qt_metacast(char const *)
	?setResponse@QGalleryItemRequest@QtMobility@@MAEXPAVQGalleryAbstractResponse@2@@Z @ 318 NONAME ; void QtMobility::QGalleryItemRequest::setResponse(class QtMobility::QGalleryAbstractResponse *)
	?trUtf8@QGalleryResultSet@QtMobility@@SA?AVQString@@PBD0H@Z @ 319 NONAME ; class QString QtMobility::QGalleryResultSet::trUtf8(char const *, char const *, int)
	??0QAbstractGallery@QtMobility@@IAE@AAVQAbstractGalleryPrivate@1@PAVQObject@@@Z @ 320 NONAME ; QtMobility::QAbstractGallery::QAbstractGallery(class QtMobility::QAbstractGalleryPrivate &, class QObject *)
	?setGallery@QGalleryQueryModel@QtMobility@@QAEXPAVQAbstractGallery@2@@Z @ 321 NONAME ; void QtMobility::QGalleryQueryModel::setGallery(class QtMobility::QAbstractGallery *)
	??0QGalleryFilter@QtMobility@@QAE@ABV01@@Z @ 322 NONAME ; QtMobility::QGalleryFilter::QGalleryFilter(class QtMobility::QGalleryFilter const &)
	?metaData@QGalleryItemRequest@QtMobility@@QBE?AVQVariant@@H@Z @ 323 NONAME ; class QVariant QtMobility::QGalleryItemRequest::metaData(int) const
	?isSupported@QGalleryAbstractRequest@QtMobility@@QBE_NXZ @ 324 NONAME ; bool QtMobility::QGalleryAbstractRequest::isSupported(void) const
	??0QGalleryResultSet@QtMobility@@QAE@PAVQObject@@@Z @ 325 NONAME ; QtMobility::QGalleryResultSet::QGalleryResultSet(class QObject *)
	?tr@QGalleryResultSet@QtMobility@@SA?AVQString@@PBD0@Z @ 326 NONAME ; class QString QtMobility::QGalleryResultSet::tr(char const *, char const *)
	?cancel@QGalleryQueryModel@QtMobility@@QAEXXZ @ 327 NONAME ; void QtMobility::QGalleryQueryModel::cancel(void)
	?qt_metacall@QGalleryAbstractRequest@QtMobility@@UAEHW4Call@QMetaObject@@HPAPAX@Z @ 328 NONAME ; int QtMobility::QGalleryAbstractRequest::qt_metacall(enum QMetaObject::Call, int, void * *)
	??BQGalleryType@QtMobility@@QBE?AVQString@@XZ @ 329 NONAME ; QtMobility::QGalleryType::operator class QString(void) const
	??6QtMobility@@YA?AVQDebug@@V1@ABVQGalleryFilter@0@@Z @ 330 NONAME ; class QDebug QtMobility::operator<<(class QDebug, class QtMobility::QGalleryFilter const &)
	?d_func@QGalleryQueryModel@QtMobility@@ABEPBVQGalleryQueryModelPrivate@2@XZ @ 331 NONAME ; class QtMobility::QGalleryQueryModelPrivate const * QtMobility::QGalleryQueryModel::d_func(void) const
	?endsWith@QGalleryProperty@QtMobility@@QBE?AVQGalleryMetaDataFilter@2@ABVQString@@@Z @ 332 NONAME ; class QtMobility::QGalleryMetaDataFilter QtMobility::QGalleryProperty::endsWith(class QString const &) const
	?offset@QGalleryQueryRequest@QtMobility@@QBEHXZ @ 333 NONAME ; int QtMobility::QGalleryQueryRequest::offset(void) const
	?qt_metacall@QGalleryQueryRequest@QtMobility@@UAEHW4Call@QMetaObject@@HPAPAX@Z @ 334 NONAME ; int QtMobility::QGalleryQueryRequest::qt_metacall(enum QMetaObject::Call, int, void * *)
	?scopeChanged@QGalleryQueryRequest@QtMobility@@IAEXXZ @ 335 NONAME ; void QtMobility::QGalleryQueryRequest::scopeChanged(void)
	?producer@QDocumentGallery@QtMobility@@2UQGalleryProperty@2@B @ 336 NONAME ; struct QtMobility::QGalleryProperty const QtMobility::QDocumentGallery::producer
	?append@QGalleryUnionFilter@QtMobility@@QAEXABVQGalleryMetaDataFilter@2@@Z @ 337 NONAME ; void QtMobility::QGalleryUnionFilter::append(class QtMobility::QGalleryMetaDataFilter const &)
	??7QGalleryMetaDataFilter@QtMobility@@QBE?AV01@XZ @ 338 NONAME ; class QtMobility::QGalleryMetaDataFilter QtMobility::QGalleryMetaDataFilter::operator!(void) const
	?pageCount@QDocumentGallery@QtMobility@@2UQGalleryProperty@2@B @ 339 NONAME ; struct QtMobility::QGalleryProperty const QtMobility::QDocumentGallery::pageCount
	?trUtf8@QGalleryQueryModel@QtMobility@@SA?AVQString@@PBD0@Z @ 340 NONAME ; class QString QtMobility::QGalleryQueryModel::trUtf8(char const *, char const *)
	?wordCount@QDocumentGallery@QtMobility@@2UQGalleryProperty@2@B @ 341 NONAME ; struct QtMobility::QGalleryProperty const QtMobility::QDocumentGallery::wordCount
	?propertyNames@QGalleryTypeRequest@QtMobility@@QBE?AVQStringList@@XZ @ 342 NONAME ; class QStringList QtMobility::QGalleryTypeRequest::propertyNames(void) const
	??0QGalleryAbstractRequest@QtMobility@@QAE@W4RequestType@01@PAVQObject@@@Z @ 343 NONAME ; QtMobility::QGalleryAbstractRequest::QGalleryAbstractRequest(enum QtMobility::QGalleryAbstractRequest::RequestType, class QObject *)
	??0QGalleryResource@QtMobility@@QAE@ABVQUrl@@V?$QMap@HVQVariant@@@@@Z @ 344 NONAME ; QtMobility::QGalleryResource::QGalleryResource(class QUrl const &, class QMap<int, class QVariant>)
	?errorString@QGalleryAbstractRequest@QtMobility@@QBE?AVQString@@XZ @ 345 NONAME ; class QString QtMobility::QGalleryAbstractRequest::errorString(void) const
	?execute@QGalleryAbstractRequest@QtMobility@@QAEXXZ @ 346 NONAME ; void QtMobility::QGalleryAbstractRequest::execute(void)
	?tr@QGalleryQueryRequest@QtMobility@@SA?AVQString@@PBD0H@Z @ 347 NONAME ; class QString QtMobility::QGalleryQueryRequest::tr(char const *, char const *, int)
	??_EQGalleryAbstractRequest@QtMobility@@UAE@I@Z @ 348 NONAME ; QtMobility::QGalleryAbstractRequest::~QGalleryAbstractRequest(unsigned int)
	?addColumn@QGalleryQueryModel@QtMobility@@QAEXABVQString@@H@Z @ 349 NONAME ; void QtMobility::QGalleryQueryModel::addColumn(class QString const &, int)
	??0QGalleryMetaDataFilter@QtMobility@@AAE@PAVQGalleryFilterPrivate@1@@Z @ 350 NONAME ; QtMobility::QGalleryMetaDataFilter::QGalleryMetaDataFilter(class QtMobility::QGalleryFilterPrivate *)
	?metaData@QGalleryQueryRequest@QtMobility@@QBE?AVQVariant@@ABVQString@@@Z @ 351 NONAME ; class QVariant QtMobility::QGalleryQueryRequest::metaData(class QString const &) const
	?name@QGalleryType@QtMobility@@QBE?AVQString@@XZ @ 352 NONAME ; class QString QtMobility::QGalleryType::name(void) const
	?fileExtension@QDocumentGallery@QtMobility@@2UQGalleryProperty@2@B @ 353 NONAME ; struct QtMobility::QGalleryProperty const QtMobility::QDocumentGallery::fileExtension
	?itemsRemoved@QGalleryResultSet@QtMobility@@IAEXHH@Z @ 354 NONAME ; void QtMobility::QGalleryResultSet::itemsRemoved(int, int)
	?setMetaData@QGalleryQueryRequest@QtMobility@@QAE_NHABVQVariant@@@Z @ 355 NONAME ; bool QtMobility::QGalleryQueryRequest::setMetaData(int, class QVariant const &)
	?waitForFinished@QGalleryAbstractRequest@QtMobility@@QAE_NH@Z @ 356 NONAME ; bool QtMobility::QGalleryAbstractRequest::waitForFinished(int)
	?offsetChanged@QGalleryQueryModel@QtMobility@@IAEXXZ @ 357 NONAME ; void QtMobility::QGalleryQueryModel::offsetChanged(void)
	??_EQGalleryTypeRequest@QtMobility@@UAE@I@Z @ 358 NONAME ; QtMobility::QGalleryTypeRequest::~QGalleryTypeRequest(unsigned int)
	?lastAccessed@QDocumentGallery@QtMobility@@2UQGalleryProperty@2@B @ 359 NONAME ; struct QtMobility::QGalleryProperty const QtMobility::QDocumentGallery::lastAccessed
	??9QtMobility@@YA_NABVQGalleryFilter@0@0@Z @ 360 NONAME ; bool QtMobility::operator!=(class QtMobility::QGalleryFilter const &, class QtMobility::QGalleryFilter const &)
	?prepend@QGalleryUnionFilter@QtMobility@@QAEXABVQGalleryIntersectionFilter@2@@Z @ 361 NONAME ; void QtMobility::QGalleryUnionFilter::prepend(class QtMobility::QGalleryIntersectionFilter const &)
	?metaObject@QGalleryItemRequest@QtMobility@@UBEPBUQMetaObject@@XZ @ 362 NONAME ; struct QMetaObject const * QtMobility::QGalleryItemRequest::metaObject(void) const
	??WQtMobility@@YA?AVQGalleryUnionFilter@0@ABV10@0@Z @ 363 NONAME ; class QtMobility::QGalleryUnionFilter QtMobility::operator||(class QtMobility::QGalleryUnionFilter const &, class QtMobility::QGalleryUnionFilter const &)
	?error@QGalleryAbstractResponse@QtMobility@@QBEHXZ @ 364 NONAME ; int QtMobility::QGalleryAbstractResponse::error(void) const
	??0QGalleryUnionFilter@QtMobility@@QAE@ABVQGalleryIntersectionFilter@1@@Z @ 365 NONAME ; QtMobility::QGalleryUnionFilter::QGalleryUnionFilter(class QtMobility::QGalleryIntersectionFilter const &)
	?created@QDocumentGallery@QtMobility@@2UQGalleryProperty@2@B @ 366 NONAME ; struct QtMobility::QGalleryProperty const QtMobility::QDocumentGallery::created
	?d_func@QGalleryQueryRequest@QtMobility@@ABEPBVQGalleryQueryRequestPrivate@2@XZ @ 367 NONAME ; class QtMobility::QGalleryQueryRequestPrivate const * QtMobility::QGalleryQueryRequest::d_func(void) const
	??0QGalleryMetaDataFilter@QtMobility@@AAE@W4Type@QGalleryFilter@1@@Z @ 368 NONAME ; QtMobility::QGalleryMetaDataFilter::QGalleryMetaDataFilter(enum QtMobility::QGalleryFilter::Type)
	?width@QDocumentGallery@QtMobility@@2UQGalleryProperty@2@B @ 369 NONAME ; struct QtMobility::QGalleryProperty const QtMobility::QDocumentGallery::width
	?tr@QGalleryAbstractRequest@QtMobility@@SA?AVQString@@PBD0H@Z @ 370 NONAME ; class QString QtMobility::QGalleryAbstractRequest::tr(char const *, char const *, int)
	?propertyAttributes@QDocumentGallery@QtMobility@@QBE?AV?$QFlags@W4Attribute@QGalleryProperty@QtMobility@@@@ABVQString@@0@Z @ 371 NONAME ; class QFlags<enum QtMobility::QGalleryProperty::Attribute> QtMobility::QDocumentGallery::propertyAttributes(class QString const &, class QString const &) const
	??PQGalleryProperty@QtMobility@@QBE?AVQGalleryMetaDataFilter@1@ABVQVariant@@@Z @ 372 NONAME ; class QtMobility::QGalleryMetaDataFilter QtMobility::QGalleryProperty::operator>=(class QVariant const &) const
	?autoUpdate@QGalleryItemRequest@QtMobility@@QBE_NXZ @ 373 NONAME ; bool QtMobility::QGalleryItemRequest::autoUpdate(void) const
	?currentProgress@QGalleryAbstractRequest@QtMobility@@QBEHXZ @ 374 NONAME ; int QtMobility::QGalleryAbstractRequest::currentProgress(void) const
	?setAutoUpdate@QGalleryQueryRequest@QtMobility@@QAEX_N@Z @ 375 NONAME ; void QtMobility::QGalleryQueryRequest::setAutoUpdate(bool)
	??0QGalleryFilter@QtMobility@@QAE@ABVQGalleryIntersectionFilter@1@@Z @ 376 NONAME ; QtMobility::QGalleryFilter::QGalleryFilter(class QtMobility::QGalleryIntersectionFilter const &)
	?staticMetaObject@QAbstractGallery@QtMobility@@2UQMetaObject@@B @ 377 NONAME ; struct QMetaObject const QtMobility::QAbstractGallery::staticMetaObject
	?exposureProgram@QDocumentGallery@QtMobility@@2UQGalleryProperty@2@B @ 378 NONAME ; struct QtMobility::QGalleryProperty const QtMobility::QDocumentGallery::exposureProgram
	?maximumProgress@QGalleryAbstractRequest@QtMobility@@QBEHXZ @ 379 NONAME ; int QtMobility::QGalleryAbstractRequest::maximumProgress(void) const
	?qt_metacall@QGalleryTypeRequest@QtMobility@@UAEHW4Call@QMetaObject@@HPAPAX@Z @ 380 NONAME ; int QtMobility::QGalleryTypeRequest::qt_metacall(enum QMetaObject::Call, int, void * *)
	?setResponse@QGalleryTypeRequest@QtMobility@@MAEXPAVQGalleryAbstractResponse@2@@Z @ 381 NONAME ; void QtMobility::QGalleryTypeRequest::setResponse(class QtMobility::QGalleryAbstractResponse *)
	?count@QDocumentGallery@QtMobility@@2UQGalleryProperty@2@B @ 382 NONAME ; struct QtMobility::QGalleryProperty const QtMobility::QDocumentGallery::count
	??1QGalleryResource@QtMobility@@QAE@XZ @ 383 NONAME ; QtMobility::QGalleryResource::~QGalleryResource(void)
	?setPropertyNames@QGalleryTypeRequest@QtMobility@@QAEXABVQStringList@@@Z @ 384 NONAME ; void QtMobility::QGalleryTypeRequest::setPropertyNames(class QStringList const &)
	?canceled@QGalleryAbstractRequest@QtMobility@@IAEXXZ @ 385 NONAME ; void QtMobility::QGalleryAbstractRequest::canceled(void)
	?propertyNamesChanged@QGalleryQueryRequest@QtMobility@@IAEXXZ @ 386 NONAME ; void QtMobility::QGalleryQueryRequest::propertyNamesChanged(void)
	?videoCodec@QDocumentGallery@QtMobility@@2UQGalleryProperty@2@B @ 387 NONAME ; struct QtMobility::QGalleryProperty const QtMobility::QDocumentGallery::videoCodec
	?setNegated@QGalleryMetaDataFilter@QtMobility@@QAEX_N@Z @ 388 NONAME ; void QtMobility::QGalleryMetaDataFilter::setNegated(bool)
	?setResponse@QGalleryQueryRequest@QtMobility@@MAEXPAVQGalleryAbstractResponse@2@@Z @ 389 NONAME ; void QtMobility::QGalleryQueryRequest::setResponse(class QtMobility::QGalleryAbstractResponse *)
	?Playlist@QDocumentGallery@QtMobility@@2UQGalleryType@2@B @ 390 NONAME ; struct QtMobility::QGalleryType const QtMobility::QDocumentGallery::Playlist
	?fileName@QDocumentGallery@QtMobility@@2UQGalleryProperty@2@B @ 391 NONAME ; struct QtMobility::QGalleryProperty const QtMobility::QDocumentGallery::fileName
	?Image@QDocumentGallery@QtMobility@@2UQGalleryType@2@B @ 392 NONAME ; struct QtMobility::QGalleryType const QtMobility::QDocumentGallery::Image
	?setRoleProperties@QGalleryQueryModel@QtMobility@@QAEXHABV?$QHash@HVQString@@@@@Z @ 393 NONAME ; void QtMobility::QGalleryQueryModel::setRoleProperties(int, class QHash<int, class QString> const &)
	?title@QDocumentGallery@QtMobility@@2UQGalleryProperty@2@B @ 394 NONAME ; struct QtMobility::QGalleryProperty const QtMobility::QDocumentGallery::title
	?File@QDocumentGallery@QtMobility@@2UQGalleryType@2@B @ 395 NONAME ; struct QtMobility::QGalleryType const QtMobility::QDocumentGallery::File
	??1QDocumentGallery@QtMobility@@UAE@XZ @ 396 NONAME ; QtMobility::QDocumentGallery::~QDocumentGallery(void)
	?error@QGalleryAbstractResponse@QtMobility@@IAEXHABVQString@@@Z @ 397 NONAME ; void QtMobility::QGalleryAbstractResponse::error(int, class QString const &)
	?tr@QGalleryAbstractRequest@QtMobility@@SA?AVQString@@PBD0@Z @ 398 NONAME ; class QString QtMobility::QGalleryAbstractRequest::tr(char const *, char const *)
	?itemType@QGalleryQueryModel@QtMobility@@QBE?AVQString@@ABVQModelIndex@@@Z @ 399 NONAME ; class QString QtMobility::QGalleryQueryModel::itemType(class QModelIndex const &) const
	?tr@QAbstractGallery@QtMobility@@SA?AVQString@@PBD0H@Z @ 400 NONAME ; class QString QtMobility::QAbstractGallery::tr(char const *, char const *, int)
	?limit@QGalleryQueryModel@QtMobility@@QBEHXZ @ 401 NONAME ; int QtMobility::QGalleryQueryModel::limit(void) const
	??4QGalleryUnionFilter@QtMobility@@QAEAAV01@ABV01@@Z @ 402 NONAME ; class QtMobility::QGalleryUnionFilter & QtMobility::QGalleryUnionFilter::operator=(class QtMobility::QGalleryUnionFilter const &)
	??1QGalleryTypeRequest@QtMobility@@UAE@XZ @ 403 NONAME ; QtMobility::QGalleryTypeRequest::~QGalleryTypeRequest(void)
	?setRootItem@QGalleryQueryRequest@QtMobility@@QAEXABVQVariant@@@Z @ 404 NONAME ; void QtMobility::QGalleryQueryRequest::setRootItem(class QVariant const &)
	?isValid@QGalleryMetaDataFilter@QtMobility@@QBE_NXZ @ 405 NONAME ; bool QtMobility::QGalleryMetaDataFilter::isValid(void) const
	?fetchPrevious@QGalleryResultSet@QtMobility@@UAE_NXZ @ 406 NONAME ; bool QtMobility::QGalleryResultSet::fetchPrevious(void)
	?d_func@QGalleryAbstractResponse@QtMobility@@AAEPAVQGalleryAbstractResponsePrivate@2@XZ @ 407 NONAME ; class QtMobility::QGalleryAbstractResponsePrivate * QtMobility::QGalleryAbstractResponse::d_func(void)
	?contains@QGalleryProperty@QtMobility@@QBE?AVQGalleryMetaDataFilter@2@ABVQString@@@Z @ 408 NONAME ; class QtMobility::QGalleryMetaDataFilter QtMobility::QGalleryProperty::contains(class QString const &) const
	?seek@QGalleryQueryRequest@QtMobility@@QAE_NH_N@Z @ 409 NONAME ; bool QtMobility::QGalleryQueryRequest::seek(int, bool)
	?ascending@QGalleryProperty@QtMobility@@QBE?AVQString@@XZ @ 410 NONAME ; class QString QtMobility::QGalleryProperty::ascending(void) const
	?regExp@QGalleryProperty@QtMobility@@QBE?AVQGalleryMetaDataFilter@2@ABVQString@@@Z @ 411 NONAME ; class QtMobility::QGalleryMetaDataFilter QtMobility::QGalleryProperty::regExp(class QString const &) const
	??0QGalleryResultSet@QtMobility@@IAE@AAVQGalleryResultSetPrivate@1@PAVQObject@@@Z @ 412 NONAME ; QtMobility::QGalleryResultSet::QGalleryResultSet(class QtMobility::QGalleryResultSetPrivate &, class QObject *)
	?limitChanged@QGalleryQueryRequest@QtMobility@@IAEXXZ @ 413 NONAME ; void QtMobility::QGalleryQueryRequest::limitChanged(void)
	??0QGalleryIntersectionFilter@QtMobility@@QAE@ABVQGalleryMetaDataFilter@1@@Z @ 414 NONAME ; QtMobility::QGalleryIntersectionFilter::QGalleryIntersectionFilter(class QtMobility::QGalleryMetaDataFilter const &)
	?autoUpdate@QGalleryQueryModel@QtMobility@@QBE_NXZ @ 415 NONAME ; bool QtMobility::QGalleryQueryModel::autoUpdate(void) const
	?metaObject@QGalleryTypeRequest@QtMobility@@UBEPBUQMetaObject@@XZ @ 416 NONAME ; struct QMetaObject const * QtMobility::QGalleryTypeRequest::metaObject(void) const
	?insert@QGalleryUnionFilter@QtMobility@@QAEXHABVQGalleryMetaDataFilter@2@@Z @ 417 NONAME ; void QtMobility::QGalleryUnionFilter::insert(int, class QtMobility::QGalleryMetaDataFilter const &)
	?genre@QDocumentGallery@QtMobility@@2UQGalleryProperty@2@B @ 418 NONAME ; struct QtMobility::QGalleryProperty const QtMobility::QDocumentGallery::genre
	?limit@QGalleryQueryRequest@QtMobility@@QBEHXZ @ 419 NONAME ; int QtMobility::QGalleryQueryRequest::limit(void) const
	?staticMetaObject@QGalleryResultSet@QtMobility@@2UQMetaObject@@B @ 420 NONAME ; struct QMetaObject const QtMobility::QGalleryResultSet::staticMetaObject
	?propertyAttributes@QGalleryQueryRequest@QtMobility@@QBE?AV?$QFlags@W4Attribute@QGalleryProperty@QtMobility@@@@H@Z @ 421 NONAME ; class QFlags<enum QtMobility::QGalleryProperty::Attribute> QtMobility::QGalleryQueryRequest::propertyAttributes(int) const
	??_EQAbstractGallery@QtMobility@@UAE@I@Z @ 422 NONAME ; QtMobility::QAbstractGallery::~QAbstractGallery(unsigned int)
	??0QGalleryUnionFilter@QtMobility@@AAE@PAVQGalleryFilterPrivate@1@@Z @ 423 NONAME ; QtMobility::QGalleryUnionFilter::QGalleryUnionFilter(class QtMobility::QGalleryFilterPrivate *)
	?rootItemChanged@QGalleryQueryModel@QtMobility@@IAEXXZ @ 424 NONAME ; void QtMobility::QGalleryQueryModel::rootItemChanged(void)
	??_EQGalleryResultSet@QtMobility@@UAE@I@Z @ 425 NONAME ; QtMobility::QGalleryResultSet::~QGalleryResultSet(unsigned int)
	?canceled@QGalleryAbstractResponse@QtMobility@@IAEXXZ @ 426 NONAME ; void QtMobility::QGalleryAbstractResponse::canceled(void)
	?append@QGalleryUnionFilter@QtMobility@@QAEXABVQGalleryIntersectionFilter@2@@Z @ 427 NONAME ; void QtMobility::QGalleryUnionFilter::append(class QtMobility::QGalleryIntersectionFilter const &)
	?resultSetChanged@QGalleryTypeRequest@QtMobility@@IAEXPAVQGalleryResultSet@2@@Z @ 428 NONAME ; void QtMobility::QGalleryTypeRequest::resultSetChanged(class QtMobility::QGalleryResultSet *)
	?gallery@QGalleryQueryModel@QtMobility@@QBEPAVQAbstractGallery@2@XZ @ 429 NONAME ; class QtMobility::QAbstractGallery * QtMobility::QGalleryQueryModel::gallery(void) const
	?qt_metacast@QGalleryAbstractRequest@QtMobility@@UAEPAXPBD@Z @ 430 NONAME ; void * QtMobility::QGalleryAbstractRequest::qt_metacast(char const *)
	?director@QDocumentGallery@QtMobility@@2UQGalleryProperty@2@B @ 431 NONAME ; struct QtMobility::QGalleryProperty const QtMobility::QDocumentGallery::director
	??0QGalleryUnionFilter@QtMobility@@QAE@ABV01@@Z @ 432 NONAME ; QtMobility::QGalleryUnionFilter::QGalleryUnionFilter(class QtMobility::QGalleryUnionFilter const &)
	?flashEnabled@QDocumentGallery@QtMobility@@2UQGalleryProperty@2@B @ 433 NONAME ; struct QtMobility::QGalleryProperty const QtMobility::QDocumentGallery::flashEnabled
	?setPropertyNames@QGalleryQueryRequest@QtMobility@@QAEXABVQStringList@@@Z @ 434 NONAME ; void QtMobility::QGalleryQueryRequest::setPropertyNames(class QStringList const &)
	?height@QDocumentGallery@QtMobility@@2UQGalleryProperty@2@B @ 435 NONAME ; struct QtMobility::QGalleryProperty const QtMobility::QDocumentGallery::height
	?playCount@QDocumentGallery@QtMobility@@2UQGalleryProperty@2@B @ 436 NONAME ; struct QtMobility::QGalleryProperty const QtMobility::QDocumentGallery::playCount
	?staticMetaObject@QGalleryQueryModel@QtMobility@@2UQMetaObject@@B @ 437 NONAME ; struct QMetaObject const QtMobility::QGalleryQueryModel::staticMetaObject
	?filterCount@QGalleryUnionFilter@QtMobility@@QBEHXZ @ 438 NONAME ; int QtMobility::QGalleryUnionFilter::filterCount(void) const
	?last@QGalleryQueryRequest@QtMobility@@QAE_NXZ @ 439 NONAME ; bool QtMobility::QGalleryQueryRequest::last(void)
	?getStaticMetaObject@QGalleryQueryRequest@QtMobility@@SAABUQMetaObject@@XZ @ 440 NONAME ; struct QMetaObject const & QtMobility::QGalleryQueryRequest::getStaticMetaObject(void)
	?filePath@QDocumentGallery@QtMobility@@2UQGalleryProperty@2@B @ 441 NONAME ; struct QtMobility::QGalleryProperty const QtMobility::QDocumentGallery::filePath
	?itemType@QGalleryQueryRequest@QtMobility@@QBE?AVQString@@XZ @ 442 NONAME ; class QString QtMobility::QGalleryQueryRequest::itemType(void) const
	??0QGalleryAbstractResponse@QtMobility@@QAE@HABVQString@@PAVQObject@@@Z @ 443 NONAME ; QtMobility::QGalleryAbstractResponse::QGalleryAbstractResponse(int, class QString const &, class QObject *)
	?name@QGalleryProperty@QtMobility@@QBE?AVQString@@XZ @ 444 NONAME ; class QString QtMobility::QGalleryProperty::name(void) const
	?setAutoUpdate@QGalleryTypeRequest@QtMobility@@QAEX_N@Z @ 445 NONAME ; void QtMobility::QGalleryTypeRequest::setAutoUpdate(bool)
	?isNegated@QGalleryMetaDataFilter@QtMobility@@QBE_NXZ @ 446 NONAME ; bool QtMobility::QGalleryMetaDataFilter::isNegated(void) const
	?descending@QGalleryProperty@QtMobility@@QBE?AVQString@@XZ @ 447 NONAME ; class QString QtMobility::QGalleryProperty::descending(void) const
	?setLimit@QGalleryQueryModel@QtMobility@@QAEXH@Z @ 448 NONAME ; void QtMobility::QGalleryQueryModel::setLimit(int)
	?staticMetaObject@QGalleryAbstractRequest@QtMobility@@2UQMetaObject@@B @ 449 NONAME ; struct QMetaObject const QtMobility::QGalleryAbstractRequest::staticMetaObject
	?finished@QGalleryAbstractRequest@QtMobility@@IAEXXZ @ 450 NONAME ; void QtMobility::QGalleryAbstractRequest::finished(void)
	?lyrics@QDocumentGallery@QtMobility@@2UQGalleryProperty@2@B @ 451 NONAME ; struct QtMobility::QGalleryProperty const QtMobility::QDocumentGallery::lyrics
	?metaDataChanged@QGalleryItemRequest@QtMobility@@IAEXABV?$QList@H@@@Z @ 452 NONAME ; void QtMobility::QGalleryItemRequest::metaDataChanged(class QList<int> const &)
	??0QGalleryIntersectionFilter@QtMobility@@AAE@PAVQGalleryFilterPrivate@1@@Z @ 453 NONAME ; QtMobility::QGalleryIntersectionFilter::QGalleryIntersectionFilter(class QtMobility::QGalleryFilterPrivate *)
	?qt_metacall@QGalleryItemRequest@QtMobility@@UAEHW4Call@QMetaObject@@HPAPAX@Z @ 454 NONAME ; int QtMobility::QGalleryItemRequest::qt_metacall(enum QMetaObject::Call, int, void * *)
	??1QGalleryQueryRequest@QtMobility@@UAE@XZ @ 455 NONAME ; QtMobility::QGalleryQueryRequest::~QGalleryQueryRequest(void)
	??0QGalleryIntersectionFilter@QtMobility@@QAE@XZ @ 456 NONAME ; QtMobility::QGalleryIntersectionFilter::QGalleryIntersectionFilter(void)
	?resultSet@QGalleryQueryRequest@QtMobility@@QBEPAVQGalleryResultSet@2@XZ @ 457 NONAME ; class QtMobility::QGalleryResultSet * QtMobility::QGalleryQueryRequest::resultSet(void) const
	?propertyType@QGalleryQueryRequest@QtMobility@@QBE?AW4Type@QVariant@@H@Z @ 458 NONAME ; enum QVariant::Type QtMobility::QGalleryQueryRequest::propertyType(int) const
	?resultSetChanged@QGalleryQueryRequest@QtMobility@@IAEXPAVQGalleryResultSet@2@@Z @ 459 NONAME ; void QtMobility::QGalleryQueryRequest::resultSetChanged(class QtMobility::QGalleryResultSet *)
	?previous@QGalleryQueryRequest@QtMobility@@QAE_NXZ @ 460 NONAME ; bool QtMobility::QGalleryQueryRequest::previous(void)
	?qt_metacast@QGalleryTypeRequest@QtMobility@@UAEPAXPBD@Z @ 461 NONAME ; void * QtMobility::QGalleryTypeRequest::qt_metacast(char const *)
	?value@QGalleryMetaDataFilter@QtMobility@@QBE?AVQVariant@@XZ @ 462 NONAME ; class QVariant QtMobility::QGalleryMetaDataFilter::value(void) const
	?canceled@QGalleryQueryModel@QtMobility@@IAEXXZ @ 463 NONAME ; void QtMobility::QGalleryQueryModel::canceled(void)
	?error@QGalleryQueryModel@QtMobility@@QBEHXZ @ 464 NONAME ; int QtMobility::QGalleryQueryModel::error(void) const
	?append@QGalleryIntersectionFilter@QtMobility@@QAEXABVQGalleryMetaDataFilter@2@@Z @ 465 NONAME ; void QtMobility::QGalleryIntersectionFilter::append(class QtMobility::QGalleryMetaDataFilter const &)
	?isValid@QGalleryTypeRequest@QtMobility@@QBE_NXZ @ 466 NONAME ; bool QtMobility::QGalleryTypeRequest::isValid(void) const
	?itemUrl@QGalleryQueryRequest@QtMobility@@QBE?AVQUrl@@XZ @ 467 NONAME ; class QUrl QtMobility::QGalleryQueryRequest::itemUrl(void) const
	?stateChanged@QGalleryAbstractRequest@QtMobility@@IAEXW4State@12@@Z @ 468 NONAME ; void QtMobility::QGalleryAbstractRequest::stateChanged(enum QtMobility::QGalleryAbstractRequest::State)
	?type@QGalleryAbstractRequest@QtMobility@@QBE?AW4RequestType@12@XZ @ 469 NONAME ; enum QtMobility::QGalleryAbstractRequest::RequestType QtMobility::QGalleryAbstractRequest::type(void) const
	?itemType@QGalleryTypeRequest@QtMobility@@QBE?AVQString@@XZ @ 470 NONAME ; class QString QtMobility::QGalleryTypeRequest::itemType(void) const
	?propertyNamesChanged@QGalleryItemRequest@QtMobility@@IAEXXZ @ 471 NONAME ; void QtMobility::QGalleryItemRequest::propertyNamesChanged(void)
	??0QGalleryResource@QtMobility@@QAE@ABV01@@Z @ 472 NONAME ; QtMobility::QGalleryResource::QGalleryResource(class QtMobility::QGalleryResource const &)
	?setData@QGalleryQueryModel@QtMobility@@UAE_NABVQModelIndex@@ABVQVariant@@H@Z @ 473 NONAME ; bool QtMobility::QGalleryQueryModel::setData(class QModelIndex const &, class QVariant const &, int)
	?tr@QGalleryItemRequest@QtMobility@@SA?AVQString@@PBD0H@Z @ 474 NONAME ; class QString QtMobility::QGalleryItemRequest::tr(char const *, char const *, int)
	??0QGalleryUnionFilter@QtMobility@@AAE@W4Type@QGalleryFilter@1@@Z @ 475 NONAME ; QtMobility::QGalleryUnionFilter::QGalleryUnionFilter(enum QtMobility::QGalleryFilter::Type)
	?gallery@QGalleryAbstractRequest@QtMobility@@QBEPAVQAbstractGallery@2@XZ @ 476 NONAME ; class QtMobility::QAbstractGallery * QtMobility::QGalleryAbstractRequest::gallery(void) const
	?rootTypeChanged@QGalleryQueryRequest@QtMobility@@IAEXXZ @ 477 NONAME ; void QtMobility::QGalleryQueryRequest::rootTypeChanged(void)
	?insert@QGalleryUnionFilter@QtMobility@@QAEXHABV12@@Z @ 478 NONAME ; void QtMobility::QGalleryUnionFilter::insert(int, class QtMobility::QGalleryUnionFilter const &)
	?discNumber@QDocumentGallery@QtMobility@@2UQGalleryProperty@2@B @ 479 NONAME ; struct QtMobility::QGalleryProperty const QtMobility::QDocumentGallery::discNumber
	?data@QGalleryQueryModel@QtMobility@@UBE?AVQVariant@@ABVQModelIndex@@H@Z @ 480 NONAME ; class QVariant QtMobility::QGalleryQueryModel::data(class QModelIndex const &, int) const
	?tr@QGalleryAbstractResponse@QtMobility@@SA?AVQString@@PBD0H@Z @ 481 NONAME ; class QString QtMobility::QGalleryAbstractResponse::tr(char const *, char const *, int)
	?limitChanged@QGalleryQueryModel@QtMobility@@IAEXXZ @ 482 NONAME ; void QtMobility::QGalleryQueryModel::limitChanged(void)
	?keywords@QDocumentGallery@QtMobility@@2UQGalleryProperty@2@B @ 483 NONAME ; struct QtMobility::QGalleryProperty const QtMobility::QDocumentGallery::keywords
	?isValid@QGalleryQueryRequest@QtMobility@@QBE_NXZ @ 484 NONAME ; bool QtMobility::QGalleryQueryRequest::isValid(void) const
	?resources@QGalleryItemRequest@QtMobility@@QBE?AV?$QList@VQGalleryResource@QtMobility@@@@XZ @ 485 NONAME ; class QList<class QtMobility::QGalleryResource> QtMobility::QGalleryItemRequest::resources(void) const
	?resultSetChanged@QGalleryItemRequest@QtMobility@@IAEXPAVQGalleryResultSet@2@@Z @ 486 NONAME ; void QtMobility::QGalleryItemRequest::resultSetChanged(class QtMobility::QGalleryResultSet *)
	??0QGalleryMetaDataFilter@QtMobility@@QAE@ABVQString@@ABVQVariant@@W4Comparator@QGalleryFilter@1@@Z @ 487 NONAME ; QtMobility::QGalleryMetaDataFilter::QGalleryMetaDataFilter(class QString const &, class QVariant const &, enum QtMobility::QGalleryFilter::Comparator)
	?itemId@QGalleryItemRequest@QtMobility@@QBE?AVQVariant@@XZ @ 488 NONAME ; class QVariant QtMobility::QGalleryItemRequest::itemId(void) const
	?filterChanged@QGalleryQueryModel@QtMobility@@IAEXXZ @ 489 NONAME ; void QtMobility::QGalleryQueryModel::filterChanged(void)
	?toIntersectionFilter@QGalleryFilter@QtMobility@@QBE?AVQGalleryIntersectionFilter@2@XZ @ 490 NONAME ; class QtMobility::QGalleryIntersectionFilter QtMobility::QGalleryFilter::toIntersectionFilter(void) const
	?cameraManufacturer@QDocumentGallery@QtMobility@@2UQGalleryProperty@2@B @ 491 NONAME ; struct QtMobility::QGalleryProperty const QtMobility::QDocumentGallery::cameraManufacturer
	?metaDataChanged@QGalleryTypeRequest@QtMobility@@IAEXABV?$QList@H@@@Z @ 492 NONAME ; void QtMobility::QGalleryTypeRequest::metaDataChanged(class QList<int> const &)
	?prepend@QGalleryUnionFilter@QtMobility@@QAEXABVQGalleryMetaDataFilter@2@@Z @ 493 NONAME ; void QtMobility::QGalleryUnionFilter::prepend(class QtMobility::QGalleryMetaDataFilter const &)
	?propertyAttributes@QGalleryTypeRequest@QtMobility@@QBE?AV?$QFlags@W4Attribute@QGalleryProperty@QtMobility@@@@H@Z @ 494 NONAME ; class QFlags<enum QtMobility::QGalleryProperty::Attribute> QtMobility::QGalleryTypeRequest::propertyAttributes(int) const
	?propertyType@QGalleryItemRequest@QtMobility@@QBE?AW4Type@QVariant@@H@Z @ 495 NONAME ; enum QVariant::Type QtMobility::QGalleryItemRequest::propertyType(int) const
	?typeChanged@QGalleryTypeRequest@QtMobility@@IAEXXZ @ 496 NONAME ; void QtMobility::QGalleryTypeRequest::typeChanged(void)
	?tr@QGalleryQueryRequest@QtMobility@@SA?AVQString@@PBD0@Z @ 497 NONAME ; class QString QtMobility::QGalleryQueryRequest::tr(char const *, char const *)
	?setSortPropertyNames@QGalleryQueryRequest@QtMobility@@QAEXABVQStringList@@@Z @ 498 NONAME ; void QtMobility::QGalleryQueryRequest::setSortPropertyNames(class QStringList const &)
	?Text@QDocumentGallery@QtMobility@@2UQGalleryType@2@B @ 499 NONAME ; struct QtMobility::QGalleryType const QtMobility::QDocumentGallery::Text
	?itemId@QGalleryQueryModel@QtMobility@@QBE?AVQVariant@@ABVQModelIndex@@@Z @ 500 NONAME ; class QVariant QtMobility::QGalleryQueryModel::itemId(class QModelIndex const &) const
	?getStaticMetaObject@QGalleryAbstractRequest@QtMobility@@SAABUQMetaObject@@XZ @ 501 NONAME ; struct QMetaObject const & QtMobility::QGalleryAbstractRequest::getStaticMetaObject(void)
	?filterCount@QGalleryIntersectionFilter@QtMobility@@QBEHXZ @ 502 NONAME ; int QtMobility::QGalleryIntersectionFilter::filterCount(void) const
	??0QGalleryMetaDataFilter@QtMobility@@QAE@ABV01@@Z @ 503 NONAME ; QtMobility::QGalleryMetaDataFilter::QGalleryMetaDataFilter(class QtMobility::QGalleryMetaDataFilter const &)
	??0QGalleryAbstractRequest@QtMobility@@IAE@AAVQGalleryAbstractRequestPrivate@1@PAVQObject@@@Z @ 504 NONAME ; QtMobility::QGalleryAbstractRequest::QGalleryAbstractRequest(class QtMobility::QGalleryAbstractRequestPrivate &, class QObject *)
	?metaObject@QGalleryQueryModel@QtMobility@@UBEPBUQMetaObject@@XZ @ 505 NONAME ; struct QMetaObject const * QtMobility::QGalleryQueryModel::metaObject(void) const
	?getStaticMetaObject@QDocumentGallery@QtMobility@@SAABUQMetaObject@@XZ @ 506 NONAME ; struct QMetaObject const & QtMobility::QDocumentGallery::getStaticMetaObject(void)
	?lastModified@QDocumentGallery@QtMobility@@2UQGalleryProperty@2@B @ 507 NONAME ; struct QtMobility::QGalleryProperty const QtMobility::QDocumentGallery::lastModified
	??_EQGalleryAbstractResponse@QtMobility@@UAE@I@Z @ 508 NONAME ; QtMobility::QGalleryAbstractResponse::~QGalleryAbstractResponse(unsigned int)
	?propertyAttributes@QGalleryItemRequest@QtMobility@@QBE?AV?$QFlags@W4Attribute@QGalleryProperty@QtMobility@@@@H@Z @ 509 NONAME ; class QFlags<enum QtMobility::QGalleryProperty::Attribute> QtMobility::QGalleryItemRequest::propertyAttributes(int) const
	?duration@QDocumentGallery@QtMobility@@2UQGalleryProperty@2@B @ 510 NONAME ; struct QtMobility::QGalleryProperty const QtMobility::QDocumentGallery::duration
	?itemChanged@QGalleryItemRequest@QtMobility@@IAEXXZ @ 511 NONAME ; void QtMobility::QGalleryItemRequest::itemChanged(void)
	?clear@QGalleryUnionFilter@QtMobility@@QAEXXZ @ 512 NONAME ; void QtMobility::QGalleryUnionFilter::clear(void)
	?prepend@QGalleryUnionFilter@QtMobility@@QAEXABV12@@Z @ 513 NONAME ; void QtMobility::QGalleryUnionFilter::prepend(class QtMobility::QGalleryUnionFilter const &)
	?albumArtist@QDocumentGallery@QtMobility@@2UQGalleryProperty@2@B @ 514 NONAME ; struct QtMobility::QGalleryProperty const QtMobility::QDocumentGallery::albumArtist
	?metaObject@QGalleryAbstractResponse@QtMobility@@UBEPBUQMetaObject@@XZ @ 515 NONAME ; struct QMetaObject const * QtMobility::QGalleryAbstractResponse::metaObject(void) const
	?isEmpty@QGalleryIntersectionFilter@QtMobility@@QBE_NXZ @ 516 NONAME ; bool QtMobility::QGalleryIntersectionFilter::isEmpty(void) const
	?fNumber@QDocumentGallery@QtMobility@@2UQGalleryProperty@2@B @ 517 NONAME ; struct QtMobility::QGalleryProperty const QtMobility::QDocumentGallery::fNumber
	?rootItem@QGalleryQueryModel@QtMobility@@QBE?AVQVariant@@XZ @ 518 NONAME ; class QVariant QtMobility::QGalleryQueryModel::rootItem(void) const
	?setFilter@QGalleryQueryRequest@QtMobility@@QAEXABVQGalleryFilter@2@@Z @ 519 NONAME ; void QtMobility::QGalleryQueryRequest::setFilter(class QtMobility::QGalleryFilter const &)
	?setPropertyNames@QGalleryItemRequest@QtMobility@@QAEXABVQStringList@@@Z @ 520 NONAME ; void QtMobility::QGalleryItemRequest::setPropertyNames(class QStringList const &)
	?tr@QGalleryQueryModel@QtMobility@@SA?AVQString@@PBD0H@Z @ 521 NONAME ; class QString QtMobility::QGalleryQueryModel::tr(char const *, char const *, int)

