EXPORTS
	??0QGeoAreaMonitor@QtMobility@@QAE@PAVQObject@@@Z @ 1 NONAME ; QtMobility::QGeoAreaMonitor::QGeoAreaMonitor(class QObject *)
	??0QGeoCoordinate@QtMobility@@QAE@ABV01@@Z @ 2 NONAME ; QtMobility::QGeoCoordinate::QGeoCoordinate(class QtMobility::QGeoCoordinate const &)
	??0QGeoCoordinate@QtMobility@@QAE@NN@Z @ 3 NONAME ; QtMobility::QGeoCoordinate::QGeoCoordinate(double, double)
	??0QGeoCoordinate@QtMobility@@QAE@NNN@Z @ 4 NONAME ; QtMobility::QGeoCoordinate::QGeoCoordinate(double, double, double)
	??0QGeoCoordinate@QtMobility@@QAE@XZ @ 5 NONAME ; QtMobility::QGeoCoordinate::QGeoCoordinate(void)
	??0QGeoPositionInfo@QtMobility@@QAE@ABV01@@Z @ 6 NONAME ; QtMobility::QGeoPositionInfo::QGeoPositionInfo(class QtMobility::QGeoPositionInfo const &)
	??0QGeoPositionInfo@QtMobility@@QAE@ABVQGeoCoordinate@1@ABVQDateTime@@@Z @ 7 NONAME ; QtMobility::QGeoPositionInfo::QGeoPositionInfo(class QtMobility::QGeoCoordinate const &, class QDateTime const &)
	??0QGeoPositionInfo@QtMobility@@QAE@XZ @ 8 NONAME ; QtMobility::QGeoPositionInfo::QGeoPositionInfo(void)
	??0QGeoPositionInfoSource@QtMobility@@QAE@PAVQObject@@@Z @ 9 NONAME ; QtMobility::QGeoPositionInfoSource::QGeoPositionInfoSource(class QObject *)
	??0QGeoSatelliteInfo@QtMobility@@QAE@ABV01@@Z @ 10 NONAME ; QtMobility::QGeoSatelliteInfo::QGeoSatelliteInfo(class QtMobility::QGeoSatelliteInfo const &)
	??0QGeoSatelliteInfo@QtMobility@@QAE@XZ @ 11 NONAME ; QtMobility::QGeoSatelliteInfo::QGeoSatelliteInfo(void)
	??0QGeoSatelliteInfoSource@QtMobility@@QAE@PAVQObject@@@Z @ 12 NONAME ; QtMobility::QGeoSatelliteInfoSource::QGeoSatelliteInfoSource(class QObject *)
	??0QNmeaPositionInfoSource@QtMobility@@QAE@W4UpdateMode@01@PAVQObject@@@Z @ 13 NONAME ; QtMobility::QNmeaPositionInfoSource::QNmeaPositionInfoSource(enum QtMobility::QNmeaPositionInfoSource::UpdateMode, class QObject *)
	??1QGeoAreaMonitor@QtMobility@@UAE@XZ @ 14 NONAME ; QtMobility::QGeoAreaMonitor::~QGeoAreaMonitor(void)
	??1QGeoCoordinate@QtMobility@@QAE@XZ @ 15 NONAME ; QtMobility::QGeoCoordinate::~QGeoCoordinate(void)
	??1QGeoPositionInfo@QtMobility@@QAE@XZ @ 16 NONAME ; QtMobility::QGeoPositionInfo::~QGeoPositionInfo(void)
	??1QGeoPositionInfoSource@QtMobility@@UAE@XZ @ 17 NONAME ; QtMobility::QGeoPositionInfoSource::~QGeoPositionInfoSource(void)
	??1QGeoSatelliteInfo@QtMobility@@QAE@XZ @ 18 NONAME ; QtMobility::QGeoSatelliteInfo::~QGeoSatelliteInfo(void)
	??1QGeoSatelliteInfoSource@QtMobility@@UAE@XZ @ 19 NONAME ; QtMobility::QGeoSatelliteInfoSource::~QGeoSatelliteInfoSource(void)
	??1QNmeaPositionInfoSource@QtMobility@@UAE@XZ @ 20 NONAME ; QtMobility::QNmeaPositionInfoSource::~QNmeaPositionInfoSource(void)
	??4QGeoCoordinate@QtMobility@@QAEAAV01@ABV01@@Z @ 21 NONAME ; class QtMobility::QGeoCoordinate & QtMobility::QGeoCoordinate::operator=(class QtMobility::QGeoCoordinate const &)
	??4QGeoPositionInfo@QtMobility@@QAEAAV01@ABV01@@Z @ 22 NONAME ; class QtMobility::QGeoPositionInfo & QtMobility::QGeoPositionInfo::operator=(class QtMobility::QGeoPositionInfo const &)
	??4QGeoSatelliteInfo@QtMobility@@QAEAAV01@ABV01@@Z @ 23 NONAME ; class QtMobility::QGeoSatelliteInfo & QtMobility::QGeoSatelliteInfo::operator=(class QtMobility::QGeoSatelliteInfo const &)
	??5QtMobility@@YAAAVQDataStream@@AAV1@AAVQGeoCoordinate@0@@Z @ 24 NONAME ; class QDataStream & QtMobility::operator>>(class QDataStream &, class QtMobility::QGeoCoordinate &)
	??5QtMobility@@YAAAVQDataStream@@AAV1@AAVQGeoPositionInfo@0@@Z @ 25 NONAME ; class QDataStream & QtMobility::operator>>(class QDataStream &, class QtMobility::QGeoPositionInfo &)
	??5QtMobility@@YAAAVQDataStream@@AAV1@AAVQGeoSatelliteInfo@0@@Z @ 26 NONAME ; class QDataStream & QtMobility::operator>>(class QDataStream &, class QtMobility::QGeoSatelliteInfo &)
	??6QtMobility@@YA?AVQDebug@@V1@ABVQGeoCoordinate@0@@Z @ 27 NONAME ; class QDebug QtMobility::operator<<(class QDebug, class QtMobility::QGeoCoordinate const &)
	??6QtMobility@@YA?AVQDebug@@V1@ABVQGeoPositionInfo@0@@Z @ 28 NONAME ; class QDebug QtMobility::operator<<(class QDebug, class QtMobility::QGeoPositionInfo const &)
	??6QtMobility@@YA?AVQDebug@@V1@ABVQGeoSatelliteInfo@0@@Z @ 29 NONAME ; class QDebug QtMobility::operator<<(class QDebug, class QtMobility::QGeoSatelliteInfo const &)
	??6QtMobility@@YAAAVQDataStream@@AAV1@ABVQGeoCoordinate@0@@Z @ 30 NONAME ; class QDataStream & QtMobility::operator<<(class QDataStream &, class QtMobility::QGeoCoordinate const &)
	??6QtMobility@@YAAAVQDataStream@@AAV1@ABVQGeoPositionInfo@0@@Z @ 31 NONAME ; class QDataStream & QtMobility::operator<<(class QDataStream &, class QtMobility::QGeoPositionInfo const &)
	??6QtMobility@@YAAAVQDataStream@@AAV1@ABVQGeoSatelliteInfo@0@@Z @ 32 NONAME ; class QDataStream & QtMobility::operator<<(class QDataStream &, class QtMobility::QGeoSatelliteInfo const &)
	??8QGeoCoordinate@QtMobility@@QBE_NABV01@@Z @ 33 NONAME ; bool QtMobility::QGeoCoordinate::operator==(class QtMobility::QGeoCoordinate const &) const
	??8QGeoPositionInfo@QtMobility@@QBE_NABV01@@Z @ 34 NONAME ; bool QtMobility::QGeoPositionInfo::operator==(class QtMobility::QGeoPositionInfo const &) const
	??8QGeoSatelliteInfo@QtMobility@@QBE_NABV01@@Z @ 35 NONAME ; bool QtMobility::QGeoSatelliteInfo::operator==(class QtMobility::QGeoSatelliteInfo const &) const
	??9QGeoCoordinate@QtMobility@@QBE_NABV01@@Z @ 36 NONAME ; bool QtMobility::QGeoCoordinate::operator!=(class QtMobility::QGeoCoordinate const &) const
	??9QGeoPositionInfo@QtMobility@@QBE_NABV01@@Z @ 37 NONAME ; bool QtMobility::QGeoPositionInfo::operator!=(class QtMobility::QGeoPositionInfo const &) const
	??9QGeoSatelliteInfo@QtMobility@@QBE_NABV01@@Z @ 38 NONAME ; bool QtMobility::QGeoSatelliteInfo::operator!=(class QtMobility::QGeoSatelliteInfo const &) const
	??_EQGeoAreaMonitor@QtMobility@@UAE@I@Z @ 39 NONAME ; QtMobility::QGeoAreaMonitor::~QGeoAreaMonitor(unsigned int)
	??_EQGeoPositionInfoSource@QtMobility@@UAE@I@Z @ 40 NONAME ; QtMobility::QGeoPositionInfoSource::~QGeoPositionInfoSource(unsigned int)
	??_EQGeoSatelliteInfoSource@QtMobility@@UAE@I@Z @ 41 NONAME ; QtMobility::QGeoSatelliteInfoSource::~QGeoSatelliteInfoSource(unsigned int)
	??_EQNmeaPositionInfoSource@QtMobility@@UAE@I@Z @ 42 NONAME ; QtMobility::QNmeaPositionInfoSource::~QNmeaPositionInfoSource(unsigned int)
	?altitude@QGeoCoordinate@QtMobility@@QBENXZ @ 43 NONAME ; double QtMobility::QGeoCoordinate::altitude(void) const
	?areaEntered@QGeoAreaMonitor@QtMobility@@IAEXABVQGeoPositionInfo@2@@Z @ 44 NONAME ; void QtMobility::QGeoAreaMonitor::areaEntered(class QtMobility::QGeoPositionInfo const &)
	?areaExited@QGeoAreaMonitor@QtMobility@@IAEXABVQGeoPositionInfo@2@@Z @ 45 NONAME ; void QtMobility::QGeoAreaMonitor::areaExited(class QtMobility::QGeoPositionInfo const &)
	?attribute@QGeoPositionInfo@QtMobility@@QBEMW4Attribute@12@@Z @ 46 NONAME ; float QtMobility::QGeoPositionInfo::attribute(enum QtMobility::QGeoPositionInfo::Attribute) const
	?attribute@QGeoSatelliteInfo@QtMobility@@QBEMW4Attribute@12@@Z @ 47 NONAME ; float QtMobility::QGeoSatelliteInfo::attribute(enum QtMobility::QGeoSatelliteInfo::Attribute) const
	?azimuthTo@QGeoCoordinate@QtMobility@@QBEMABV12@@Z @ 48 NONAME ; float QtMobility::QGeoCoordinate::azimuthTo(class QtMobility::QGeoCoordinate const &) const
	?center@QGeoAreaMonitor@QtMobility@@QBE?AVQGeoCoordinate@2@XZ @ 49 NONAME ; class QtMobility::QGeoCoordinate QtMobility::QGeoAreaMonitor::center(void) const
	?coordinate@QGeoPositionInfo@QtMobility@@QBE?AVQGeoCoordinate@2@XZ @ 50 NONAME ; class QtMobility::QGeoCoordinate QtMobility::QGeoPositionInfo::coordinate(void) const
	?createDefaultMonitor@QGeoAreaMonitor@QtMobility@@SAPAV12@PAVQObject@@@Z @ 51 NONAME ; class QtMobility::QGeoAreaMonitor * QtMobility::QGeoAreaMonitor::createDefaultMonitor(class QObject *)
	?createDefaultSource@QGeoPositionInfoSource@QtMobility@@SAPAV12@PAVQObject@@@Z @ 52 NONAME ; class QtMobility::QGeoPositionInfoSource * QtMobility::QGeoPositionInfoSource::createDefaultSource(class QObject *)
	?createDefaultSource@QGeoSatelliteInfoSource@QtMobility@@SAPAV12@PAVQObject@@@Z @ 53 NONAME ; class QtMobility::QGeoSatelliteInfoSource * QtMobility::QGeoSatelliteInfoSource::createDefaultSource(class QObject *)
	?device@QNmeaPositionInfoSource@QtMobility@@QBEPAVQIODevice@@XZ @ 54 NONAME ; class QIODevice * QtMobility::QNmeaPositionInfoSource::device(void) const
	?distanceTo@QGeoCoordinate@QtMobility@@QBEMABV12@@Z @ 55 NONAME ; float QtMobility::QGeoCoordinate::distanceTo(class QtMobility::QGeoCoordinate const &) const
	?getStaticMetaObject@QGeoAreaMonitor@QtMobility@@SAABUQMetaObject@@XZ @ 56 NONAME ; struct QMetaObject const & QtMobility::QGeoAreaMonitor::getStaticMetaObject(void)
	?getStaticMetaObject@QGeoPositionInfoSource@QtMobility@@SAABUQMetaObject@@XZ @ 57 NONAME ; struct QMetaObject const & QtMobility::QGeoPositionInfoSource::getStaticMetaObject(void)
	?getStaticMetaObject@QGeoSatelliteInfoSource@QtMobility@@SAABUQMetaObject@@XZ @ 58 NONAME ; struct QMetaObject const & QtMobility::QGeoSatelliteInfoSource::getStaticMetaObject(void)
	?getStaticMetaObject@QNmeaPositionInfoSource@QtMobility@@SAABUQMetaObject@@XZ @ 59 NONAME ; struct QMetaObject const & QtMobility::QNmeaPositionInfoSource::getStaticMetaObject(void)
	?hasAttribute@QGeoPositionInfo@QtMobility@@QBE_NW4Attribute@12@@Z @ 60 NONAME ; bool QtMobility::QGeoPositionInfo::hasAttribute(enum QtMobility::QGeoPositionInfo::Attribute) const
	?hasAttribute@QGeoSatelliteInfo@QtMobility@@QBE_NW4Attribute@12@@Z @ 61 NONAME ; bool QtMobility::QGeoSatelliteInfo::hasAttribute(enum QtMobility::QGeoSatelliteInfo::Attribute) const
	?isValid@QGeoCoordinate@QtMobility@@QBE_NXZ @ 62 NONAME ; bool QtMobility::QGeoCoordinate::isValid(void) const
	?isValid@QGeoPositionInfo@QtMobility@@QBE_NXZ @ 63 NONAME ; bool QtMobility::QGeoPositionInfo::isValid(void) const
	?lastKnownPosition@QNmeaPositionInfoSource@QtMobility@@UBE?AVQGeoPositionInfo@2@_N@Z @ 64 NONAME ; class QtMobility::QGeoPositionInfo QtMobility::QNmeaPositionInfoSource::lastKnownPosition(bool) const
	?latitude@QGeoCoordinate@QtMobility@@QBENXZ @ 65 NONAME ; double QtMobility::QGeoCoordinate::latitude(void) const
	?longitude@QGeoCoordinate@QtMobility@@QBENXZ @ 66 NONAME ; double QtMobility::QGeoCoordinate::longitude(void) const
	?metaObject@QGeoAreaMonitor@QtMobility@@UBEPBUQMetaObject@@XZ @ 67 NONAME ; struct QMetaObject const * QtMobility::QGeoAreaMonitor::metaObject(void) const
	?metaObject@QGeoPositionInfoSource@QtMobility@@UBEPBUQMetaObject@@XZ @ 68 NONAME ; struct QMetaObject const * QtMobility::QGeoPositionInfoSource::metaObject(void) const
	?metaObject@QGeoSatelliteInfoSource@QtMobility@@UBEPBUQMetaObject@@XZ @ 69 NONAME ; struct QMetaObject const * QtMobility::QGeoSatelliteInfoSource::metaObject(void) const
	?metaObject@QNmeaPositionInfoSource@QtMobility@@UBEPBUQMetaObject@@XZ @ 70 NONAME ; struct QMetaObject const * QtMobility::QNmeaPositionInfoSource::metaObject(void) const
	?minimumUpdateInterval@QNmeaPositionInfoSource@QtMobility@@UBEHXZ @ 71 NONAME ; int QtMobility::QNmeaPositionInfoSource::minimumUpdateInterval(void) const
	?parsePosInfoFromNmeaData@QNmeaPositionInfoSource@QtMobility@@MAE_NPBDHPAVQGeoPositionInfo@2@PA_N@Z @ 72 NONAME ; bool QtMobility::QNmeaPositionInfoSource::parsePosInfoFromNmeaData(char const *, int, class QtMobility::QGeoPositionInfo *, bool *)
	?positionUpdated@QGeoPositionInfoSource@QtMobility@@IAEXABVQGeoPositionInfo@2@@Z @ 73 NONAME ; void QtMobility::QGeoPositionInfoSource::positionUpdated(class QtMobility::QGeoPositionInfo const &)
	?preferredPositioningMethods@QGeoPositionInfoSource@QtMobility@@QBE?AV?$QFlags@W4PositioningMethod@QGeoPositionInfoSource@QtMobility@@@@XZ @ 74 NONAME ; class QFlags<enum QtMobility::QGeoPositionInfoSource::PositioningMethod> QtMobility::QGeoPositionInfoSource::preferredPositioningMethods(void) const
	?prnNumber@QGeoSatelliteInfo@QtMobility@@QBEHXZ @ 75 NONAME ; int QtMobility::QGeoSatelliteInfo::prnNumber(void) const
	?qt_metacall@QGeoAreaMonitor@QtMobility@@UAEHW4Call@QMetaObject@@HPAPAX@Z @ 76 NONAME ; int QtMobility::QGeoAreaMonitor::qt_metacall(enum QMetaObject::Call, int, void * *)
	?qt_metacall@QGeoPositionInfoSource@QtMobility@@UAEHW4Call@QMetaObject@@HPAPAX@Z @ 77 NONAME ; int QtMobility::QGeoPositionInfoSource::qt_metacall(enum QMetaObject::Call, int, void * *)
	?qt_metacall@QGeoSatelliteInfoSource@QtMobility@@UAEHW4Call@QMetaObject@@HPAPAX@Z @ 78 NONAME ; int QtMobility::QGeoSatelliteInfoSource::qt_metacall(enum QMetaObject::Call, int, void * *)
	?qt_metacall@QNmeaPositionInfoSource@QtMobility@@UAEHW4Call@QMetaObject@@HPAPAX@Z @ 79 NONAME ; int QtMobility::QNmeaPositionInfoSource::qt_metacall(enum QMetaObject::Call, int, void * *)
	?qt_metacast@QGeoAreaMonitor@QtMobility@@UAEPAXPBD@Z @ 80 NONAME ; void * QtMobility::QGeoAreaMonitor::qt_metacast(char const *)
	?qt_metacast@QGeoPositionInfoSource@QtMobility@@UAEPAXPBD@Z @ 81 NONAME ; void * QtMobility::QGeoPositionInfoSource::qt_metacast(char const *)
	?qt_metacast@QGeoSatelliteInfoSource@QtMobility@@UAEPAXPBD@Z @ 82 NONAME ; void * QtMobility::QGeoSatelliteInfoSource::qt_metacast(char const *)
	?qt_metacast@QNmeaPositionInfoSource@QtMobility@@UAEPAXPBD@Z @ 83 NONAME ; void * QtMobility::QNmeaPositionInfoSource::qt_metacast(char const *)
	?radius@QGeoAreaMonitor@QtMobility@@QBEMXZ @ 84 NONAME ; float QtMobility::QGeoAreaMonitor::radius(void) const
	?removeAttribute@QGeoPositionInfo@QtMobility@@QAEXW4Attribute@12@@Z @ 85 NONAME ; void QtMobility::QGeoPositionInfo::removeAttribute(enum QtMobility::QGeoPositionInfo::Attribute)
	?removeAttribute@QGeoSatelliteInfo@QtMobility@@QAEXW4Attribute@12@@Z @ 86 NONAME ; void QtMobility::QGeoSatelliteInfo::removeAttribute(enum QtMobility::QGeoSatelliteInfo::Attribute)
	?requestTimeout@QGeoSatelliteInfoSource@QtMobility@@IAEXXZ @ 87 NONAME ; void QtMobility::QGeoSatelliteInfoSource::requestTimeout(void)
	?requestUpdate@QNmeaPositionInfoSource@QtMobility@@UAEXH@Z @ 88 NONAME ; void QtMobility::QNmeaPositionInfoSource::requestUpdate(int)
	?satellitesInUseUpdated@QGeoSatelliteInfoSource@QtMobility@@IAEXABV?$QList@VQGeoSatelliteInfo@QtMobility@@@@@Z @ 89 NONAME ; void QtMobility::QGeoSatelliteInfoSource::satellitesInUseUpdated(class QList<class QtMobility::QGeoSatelliteInfo> const &)
	?satellitesInViewUpdated@QGeoSatelliteInfoSource@QtMobility@@IAEXABV?$QList@VQGeoSatelliteInfo@QtMobility@@@@@Z @ 90 NONAME ; void QtMobility::QGeoSatelliteInfoSource::satellitesInViewUpdated(class QList<class QtMobility::QGeoSatelliteInfo> const &)
	?setAltitude@QGeoCoordinate@QtMobility@@QAEXN@Z @ 91 NONAME ; void QtMobility::QGeoCoordinate::setAltitude(double)
	?setAttribute@QGeoPositionInfo@QtMobility@@QAEXW4Attribute@12@M@Z @ 92 NONAME ; void QtMobility::QGeoPositionInfo::setAttribute(enum QtMobility::QGeoPositionInfo::Attribute, float)
	?setAttribute@QGeoSatelliteInfo@QtMobility@@QAEXW4Attribute@12@M@Z @ 93 NONAME ; void QtMobility::QGeoSatelliteInfo::setAttribute(enum QtMobility::QGeoSatelliteInfo::Attribute, float)
	?setCenter@QGeoAreaMonitor@QtMobility@@UAEXABVQGeoCoordinate@2@@Z @ 94 NONAME ; void QtMobility::QGeoAreaMonitor::setCenter(class QtMobility::QGeoCoordinate const &)
	?setCoordinate@QGeoPositionInfo@QtMobility@@QAEXABVQGeoCoordinate@2@@Z @ 95 NONAME ; void QtMobility::QGeoPositionInfo::setCoordinate(class QtMobility::QGeoCoordinate const &)
	?setDevice@QNmeaPositionInfoSource@QtMobility@@QAEXPAVQIODevice@@@Z @ 96 NONAME ; void QtMobility::QNmeaPositionInfoSource::setDevice(class QIODevice *)
	?setLatitude@QGeoCoordinate@QtMobility@@QAEXN@Z @ 97 NONAME ; void QtMobility::QGeoCoordinate::setLatitude(double)
	?setLongitude@QGeoCoordinate@QtMobility@@QAEXN@Z @ 98 NONAME ; void QtMobility::QGeoCoordinate::setLongitude(double)
	?setPreferredPositioningMethods@QGeoPositionInfoSource@QtMobility@@UAEXV?$QFlags@W4PositioningMethod@QGeoPositionInfoSource@QtMobility@@@@@Z @ 99 NONAME ; void QtMobility::QGeoPositionInfoSource::setPreferredPositioningMethods(class QFlags<enum QtMobility::QGeoPositionInfoSource::PositioningMethod>)
	?setPrnNumber@QGeoSatelliteInfo@QtMobility@@QAEXH@Z @ 100 NONAME ; void QtMobility::QGeoSatelliteInfo::setPrnNumber(int)
	?setRadius@QGeoAreaMonitor@QtMobility@@UAEXM@Z @ 101 NONAME ; void QtMobility::QGeoAreaMonitor::setRadius(float)
	?setSignalStrength@QGeoSatelliteInfo@QtMobility@@QAEXH@Z @ 102 NONAME ; void QtMobility::QGeoSatelliteInfo::setSignalStrength(int)
	?setTimestamp@QGeoPositionInfo@QtMobility@@QAEXABVQDateTime@@@Z @ 103 NONAME ; void QtMobility::QGeoPositionInfo::setTimestamp(class QDateTime const &)
	?setUpdateInterval@QGeoPositionInfoSource@QtMobility@@UAEXH@Z @ 104 NONAME ; void QtMobility::QGeoPositionInfoSource::setUpdateInterval(int)
	?setUpdateInterval@QNmeaPositionInfoSource@QtMobility@@UAEXH@Z @ 105 NONAME ; void QtMobility::QNmeaPositionInfoSource::setUpdateInterval(int)
	?signalStrength@QGeoSatelliteInfo@QtMobility@@QBEHXZ @ 106 NONAME ; int QtMobility::QGeoSatelliteInfo::signalStrength(void) const
	?startUpdates@QNmeaPositionInfoSource@QtMobility@@UAEXXZ @ 107 NONAME ; void QtMobility::QNmeaPositionInfoSource::startUpdates(void)
	?stopUpdates@QNmeaPositionInfoSource@QtMobility@@UAEXXZ @ 108 NONAME ; void QtMobility::QNmeaPositionInfoSource::stopUpdates(void)
	?supportedPositioningMethods@QNmeaPositionInfoSource@QtMobility@@UBE?AV?$QFlags@W4PositioningMethod@QGeoPositionInfoSource@QtMobility@@@@XZ @ 109 NONAME ; class QFlags<enum QtMobility::QGeoPositionInfoSource::PositioningMethod> QtMobility::QNmeaPositionInfoSource::supportedPositioningMethods(void) const
	?timestamp@QGeoPositionInfo@QtMobility@@QBE?AVQDateTime@@XZ @ 110 NONAME ; class QDateTime QtMobility::QGeoPositionInfo::timestamp(void) const
	?toString@QGeoCoordinate@QtMobility@@QBE?AVQString@@W4CoordinateFormat@12@@Z @ 111 NONAME ; class QString QtMobility::QGeoCoordinate::toString(enum QtMobility::QGeoCoordinate::CoordinateFormat) const
	?tr@QGeoAreaMonitor@QtMobility@@SA?AVQString@@PBD0@Z @ 112 NONAME ; class QString QtMobility::QGeoAreaMonitor::tr(char const *, char const *)
	?tr@QGeoAreaMonitor@QtMobility@@SA?AVQString@@PBD0H@Z @ 113 NONAME ; class QString QtMobility::QGeoAreaMonitor::tr(char const *, char const *, int)
	?tr@QGeoPositionInfoSource@QtMobility@@SA?AVQString@@PBD0@Z @ 114 NONAME ; class QString QtMobility::QGeoPositionInfoSource::tr(char const *, char const *)
	?tr@QGeoPositionInfoSource@QtMobility@@SA?AVQString@@PBD0H@Z @ 115 NONAME ; class QString QtMobility::QGeoPositionInfoSource::tr(char const *, char const *, int)
	?tr@QGeoSatelliteInfoSource@QtMobility@@SA?AVQString@@PBD0@Z @ 116 NONAME ; class QString QtMobility::QGeoSatelliteInfoSource::tr(char const *, char const *)
	?tr@QGeoSatelliteInfoSource@QtMobility@@SA?AVQString@@PBD0H@Z @ 117 NONAME ; class QString QtMobility::QGeoSatelliteInfoSource::tr(char const *, char const *, int)
	?tr@QNmeaPositionInfoSource@QtMobility@@SA?AVQString@@PBD0@Z @ 118 NONAME ; class QString QtMobility::QNmeaPositionInfoSource::tr(char const *, char const *)
	?tr@QNmeaPositionInfoSource@QtMobility@@SA?AVQString@@PBD0H@Z @ 119 NONAME ; class QString QtMobility::QNmeaPositionInfoSource::tr(char const *, char const *, int)
	?trUtf8@QGeoAreaMonitor@QtMobility@@SA?AVQString@@PBD0@Z @ 120 NONAME ; class QString QtMobility::QGeoAreaMonitor::trUtf8(char const *, char const *)
	?trUtf8@QGeoAreaMonitor@QtMobility@@SA?AVQString@@PBD0H@Z @ 121 NONAME ; class QString QtMobility::QGeoAreaMonitor::trUtf8(char const *, char const *, int)
	?trUtf8@QGeoPositionInfoSource@QtMobility@@SA?AVQString@@PBD0@Z @ 122 NONAME ; class QString QtMobility::QGeoPositionInfoSource::trUtf8(char const *, char const *)
	?trUtf8@QGeoPositionInfoSource@QtMobility@@SA?AVQString@@PBD0H@Z @ 123 NONAME ; class QString QtMobility::QGeoPositionInfoSource::trUtf8(char const *, char const *, int)
	?trUtf8@QGeoSatelliteInfoSource@QtMobility@@SA?AVQString@@PBD0@Z @ 124 NONAME ; class QString QtMobility::QGeoSatelliteInfoSource::trUtf8(char const *, char const *)
	?trUtf8@QGeoSatelliteInfoSource@QtMobility@@SA?AVQString@@PBD0H@Z @ 125 NONAME ; class QString QtMobility::QGeoSatelliteInfoSource::trUtf8(char const *, char const *, int)
	?trUtf8@QNmeaPositionInfoSource@QtMobility@@SA?AVQString@@PBD0@Z @ 126 NONAME ; class QString QtMobility::QNmeaPositionInfoSource::trUtf8(char const *, char const *)
	?trUtf8@QNmeaPositionInfoSource@QtMobility@@SA?AVQString@@PBD0H@Z @ 127 NONAME ; class QString QtMobility::QNmeaPositionInfoSource::trUtf8(char const *, char const *, int)
	?type@QGeoCoordinate@QtMobility@@QBE?AW4CoordinateType@12@XZ @ 128 NONAME ; enum QtMobility::QGeoCoordinate::CoordinateType QtMobility::QGeoCoordinate::type(void) const
	?updateInterval@QGeoPositionInfoSource@QtMobility@@QBEHXZ @ 129 NONAME ; int QtMobility::QGeoPositionInfoSource::updateInterval(void) const
	?updateMode@QNmeaPositionInfoSource@QtMobility@@QBE?AW4UpdateMode@12@XZ @ 130 NONAME ; enum QtMobility::QNmeaPositionInfoSource::UpdateMode QtMobility::QNmeaPositionInfoSource::updateMode(void) const
	?updateTimeout@QGeoPositionInfoSource@QtMobility@@IAEXXZ @ 131 NONAME ; void QtMobility::QGeoPositionInfoSource::updateTimeout(void)
	?staticMetaObject@QGeoAreaMonitor@QtMobility@@2UQMetaObject@@B @ 132 NONAME ; struct QMetaObject const QtMobility::QGeoAreaMonitor::staticMetaObject
	?staticMetaObject@QGeoPositionInfoSource@QtMobility@@2UQMetaObject@@B @ 133 NONAME ; struct QMetaObject const QtMobility::QGeoPositionInfoSource::staticMetaObject
	?staticMetaObject@QNmeaPositionInfoSource@QtMobility@@2UQMetaObject@@B @ 134 NONAME ; struct QMetaObject const QtMobility::QNmeaPositionInfoSource::staticMetaObject
	?staticMetaObject@QGeoSatelliteInfoSource@QtMobility@@2UQMetaObject@@B @ 135 NONAME ; struct QMetaObject const QtMobility::QGeoSatelliteInfoSource::staticMetaObject
	?street@QGeoAddress@QtMobility@@QBE?AVQString@@XZ @ 136 NONAME ; class QString QtMobility::QGeoAddress::street(void) const
	?setFilters@QLandmarkUnionFilter@QtMobility@@QAEXABV?$QList@VQLandmarkFilter@QtMobility@@@@@Z @ 137 NONAME ; void QtMobility::QLandmarkUnionFilter::setFilters(class QList<class QtMobility::QLandmarkFilter> const &)
	??_EQLandmarkProximityFilter@QtMobility@@UAE@I@Z @ 138 NONAME ; QtMobility::QLandmarkProximityFilter::~QLandmarkProximityFilter(unsigned int)
	?trUtf8@QLandmarkSaveRequest@QtMobility@@SA?AVQString@@PBD0@Z @ 139 NONAME ; class QString QtMobility::QLandmarkSaveRequest::trUtf8(char const *, char const *)
	?categories@QLandmarkCategoryFetchByIdRequest@QtMobility@@QBE?AV?$QList@VQLandmarkCategory@QtMobility@@@@XZ @ 140 NONAME ; class QList<class QtMobility::QLandmarkCategory> QtMobility::QLandmarkCategoryFetchByIdRequest::categories(void) const
	?shape@QGraphicsGeoMap@QtMobility@@UBE?AVQPainterPath@@XZ @ 141 NONAME ; class QPainterPath QtMobility::QGraphicsGeoMap::shape(void) const
	?qt_metacast@QGeoMapData@QtMobility@@UAEPAXPBD@Z @ 142 NONAME ; void * QtMobility::QGeoMapData::qt_metacast(char const *)
	?d_func@QLandmarkRemoveRequest@QtMobility@@AAEPAVQLandmarkRemoveRequestPrivate@2@XZ @ 143 NONAME ; class QtMobility::QLandmarkRemoveRequestPrivate * QtMobility::QLandmarkRemoveRequest::d_func(void)
	??1QGeoMapOverlay@QtMobility@@UAE@XZ @ 144 NONAME ; QtMobility::QGeoMapOverlay::~QGeoMapOverlay(void)
	??0QLandmarkCategoryFetchByIdRequest@QtMobility@@QAE@PAVQLandmarkManager@1@PAVQObject@@@Z @ 145 NONAME ; QtMobility::QLandmarkCategoryFetchByIdRequest::QLandmarkCategoryFetchByIdRequest(class QtMobility::QLandmarkManager *, class QObject *)
	?calculateRoute@QGeoRoutingManager@QtMobility@@QAEPAVQGeoRouteReply@2@ABVQGeoRouteRequest@2@@Z @ 146 NONAME ; class QtMobility::QGeoRouteReply * QtMobility::QGeoRoutingManager::calculateRoute(class QtMobility::QGeoRouteRequest const &)
	?d_func@QLandmarkBoxFilter@QtMobility@@AAEPAVQLandmarkBoxFilterPrivate@2@XZ @ 147 NONAME ; class QtMobility::QLandmarkBoxFilterPrivate * QtMobility::QLandmarkBoxFilter::d_func(void)
	?trUtf8@QGeoMapPolylineObject@QtMobility@@SA?AVQString@@PBD0@Z @ 148 NONAME ; class QString QtMobility::QGeoMapPolylineObject::trUtf8(char const *, char const *)
	?setMapData@QGeoMapOverlay@QtMobility@@AAEXPAVQGeoMapData@2@@Z @ 149 NONAME ; void QtMobility::QGeoMapOverlay::setMapData(class QtMobility::QGeoMapData *)
	?paintProviderNotices@QGeoMapData@QtMobility@@MAEXPAVQPainter@@PBVQStyleOptionGraphicsItem@@@Z @ 150 NONAME ; void QtMobility::QGeoMapData::paintProviderNotices(class QPainter *, class QStyleOptionGraphicsItem const *)
	?center@QGeoBoundingCircle@QtMobility@@QBE?AVQGeoCoordinate@2@XZ @ 151 NONAME ; class QtMobility::QGeoCoordinate QtMobility::QGeoBoundingCircle::center(void) const
	?screenPositionToCoordinate@QGeoTiledMapData@QtMobility@@UBE?AVQGeoCoordinate@2@ABVQPointF@@@Z @ 152 NONAME ; class QtMobility::QGeoCoordinate QtMobility::QGeoTiledMapData::screenPositionToCoordinate(class QPointF const &) const
	?landmarksRemoved@QLandmarkManager@QtMobility@@IAEXABV?$QList@VQLandmarkId@QtMobility@@@@@Z @ 153 NONAME ; void QtMobility::QLandmarkManager::landmarksRemoved(class QList<class QtMobility::QLandmarkId> const &)
	?remove@QLandmarkIntersectionFilter@QtMobility@@QAEXABVQLandmarkFilter@2@@Z @ 154 NONAME ; void QtMobility::QLandmarkIntersectionFilter::remove(class QtMobility::QLandmarkFilter const &)
	??1QLandmarkNameFilter@QtMobility@@UAE@XZ @ 155 NONAME ; QtMobility::QLandmarkNameFilter::~QLandmarkNameFilter(void)
	?landmarksChanged@QLandmarkManagerEngine@QtMobility@@IAEXABV?$QList@VQLandmarkId@QtMobility@@@@@Z @ 156 NONAME ; void QtMobility::QLandmarkManagerEngine::landmarksChanged(class QList<class QtMobility::QLandmarkId> const &)
	??0QGeoMapObject@QtMobility@@QAE@PAVQGeoMapData@1@@Z @ 157 NONAME ; QtMobility::QGeoMapObject::QGeoMapObject(class QtMobility::QGeoMapData *)
	?isInactive@QLandmarkAbstractRequest@QtMobility@@QBE_NXZ @ 158 NONAME ; bool QtMobility::QLandmarkAbstractRequest::isInactive(void) const
	?metaObject@QGeoTiledMapData@QtMobility@@UBEPBUQMetaObject@@XZ @ 159 NONAME ; struct QMetaObject const * QtMobility::QGeoTiledMapData::metaObject(void) const
	?isValid@QGeoManeuver@QtMobility@@QBE_NXZ @ 160 NONAME ; bool QtMobility::QGeoManeuver::isValid(void) const
	?saveLandmark@QLandmarkManager@QtMobility@@QAE_NPAVQLandmark@2@@Z @ 161 NONAME ; bool QtMobility::QLandmarkManager::saveLandmark(class QtMobility::QLandmark *)
	?setManeuverDetail@QGeoRouteRequest@QtMobility@@QAEXW4ManeuverDetail@12@@Z @ 162 NONAME ; void QtMobility::QGeoRouteRequest::setManeuverDetail(enum QtMobility::QGeoRouteRequest::ManeuverDetail)
	?trUtf8@QLandmarkManager@QtMobility@@SA?AVQString@@PBD0H@Z @ 163 NONAME ; class QString QtMobility::QLandmarkManager::trUtf8(char const *, char const *, int)
	?setIconUrl@QLandmark@QtMobility@@QAEXABVQUrl@@@Z @ 164 NONAME ; void QtMobility::QLandmark::setIconUrl(class QUrl const &)
	?setManager@QLandmarkAbstractRequest@QtMobility@@QAEXPAVQLandmarkManager@2@@Z @ 165 NONAME ; void QtMobility::QLandmarkAbstractRequest::setManager(class QtMobility::QLandmarkManager *)
	?setLandmarkIds@QLandmarkRemoveRequest@QtMobility@@QAEXABV?$QList@VQLandmarkId@QtMobility@@@@@Z @ 166 NONAME ; void QtMobility::QLandmarkRemoveRequest::setLandmarkIds(class QList<class QtMobility::QLandmarkId> const &)
	?d_func@QLandmarkNameSort@QtMobility@@AAEPAVQLandmarkNameSortPrivate@2@XZ @ 167 NONAME ; class QtMobility::QLandmarkNameSortPrivate * QtMobility::QLandmarkNameSort::d_func(void)
	?tr@QGeoMapCircleObject@QtMobility@@SA?AVQString@@PBD0@Z @ 168 NONAME ; class QString QtMobility::QGeoMapCircleObject::tr(char const *, char const *)
	?geocode@QGeoSearchManager@QtMobility@@QAEPAVQGeoSearchReply@2@ABVQGeoAddress@2@PAVQGeoBoundingArea@2@@Z @ 169 NONAME ; class QtMobility::QGeoSearchReply * QtMobility::QGeoSearchManager::geocode(class QtMobility::QGeoAddress const &, class QtMobility::QGeoBoundingArea *)
	?errorMap@QLandmarkFetchByIdRequest@QtMobility@@QBE?AV?$QMap@HW4Error@QLandmarkManager@QtMobility@@@@XZ @ 170 NONAME ; class QMap<int, enum QtMobility::QLandmarkManager::Error> QtMobility::QLandmarkFetchByIdRequest::errorMap(void) const
	?categoryId@QLandmarkCategoryFilter@QtMobility@@QBE?AVQLandmarkCategoryId@2@XZ @ 171 NONAME ; class QtMobility::QLandmarkCategoryId QtMobility::QLandmarkCategoryFilter::categoryId(void) const
	??0QLandmarkManager@QtMobility@@QAE@PAVQObject@@@Z @ 172 NONAME ; QtMobility::QLandmarkManager::QLandmarkManager(class QObject *)
	??0QLandmarkAttributeFilter@QtMobility@@QAE@ABVQLandmarkFilter@1@@Z @ 173 NONAME ; QtMobility::QLandmarkAttributeFilter::QLandmarkAttributeFilter(class QtMobility::QLandmarkFilter const &)
	??4QGeoRouteSegment@QtMobility@@QAEAAV01@ABV01@@Z @ 174 NONAME ; class QtMobility::QGeoRouteSegment & QtMobility::QGeoRouteSegment::operator=(class QtMobility::QGeoRouteSegment const &)
	?setCenter@QGraphicsGeoMap@QtMobility@@QAEXABVQGeoCoordinate@2@@Z @ 175 NONAME ; void QtMobility::QGraphicsGeoMap::setCenter(class QtMobility::QGeoCoordinate const &)
	?isVisible@QGeoMapObject@QtMobility@@QBE_NXZ @ 176 NONAME ; bool QtMobility::QGeoMapObject::isVisible(void) const
	?saveLandmark@QLandmarkManagerEngine@QtMobility@@UAE_NPAVQLandmark@2@PAW4Error@QLandmarkManager@2@PAVQString@@@Z @ 177 NONAME ; bool QtMobility::QLandmarkManagerEngine::saveLandmark(class QtMobility::QLandmark *, enum QtMobility::QLandmarkManager::Error *, class QString *)
	?penChanged@QGeoMapCircleObject@QtMobility@@IAEXABVQPen@@@Z @ 178 NONAME ; void QtMobility::QGeoMapCircleObject::penChanged(class QPen const &)
	?tr@QLandmarkExportRequest@QtMobility@@SA?AVQString@@PBD0H@Z @ 179 NONAME ; class QString QtMobility::QLandmarkExportRequest::tr(char const *, char const *, int)
	?tr@QLandmarkAbstractRequest@QtMobility@@SA?AVQString@@PBD0@Z @ 180 NONAME ; class QString QtMobility::QLandmarkAbstractRequest::tr(char const *, char const *)
	??1QGeoMapCircleObject@QtMobility@@UAE@XZ @ 181 NONAME ; QtMobility::QGeoMapCircleObject::~QGeoMapCircleObject(void)
	?setSupportsGeocoding@QGeoSearchManagerEngine@QtMobility@@IAEX_N@Z @ 182 NONAME ; void QtMobility::QGeoSearchManagerEngine::setSupportsGeocoding(bool)
	??0QLandmarkUnionFilter@QtMobility@@QAE@XZ @ 183 NONAME ; QtMobility::QLandmarkUnionFilter::QLandmarkUnionFilter(void)
	?importLandmarks@QLandmarkManager@QtMobility@@QAE_NABVQString@@0W4TransferOption@12@ABVQLandmarkCategoryId@2@@Z @ 184 NONAME ; bool QtMobility::QLandmarkManager::importLandmarks(class QString const &, class QString const &, enum QtMobility::QLandmarkManager::TransferOption, class QtMobility::QLandmarkCategoryId const &)
	?setAlignment@QGeoMapTextObject@QtMobility@@QAEXV?$QFlags@W4AlignmentFlag@Qt@@@@@Z @ 185 NONAME ; void QtMobility::QGeoMapTextObject::setAlignment(class QFlags<enum Qt::AlignmentFlag>)
	?removeCategoryId@QLandmark@QtMobility@@QAEXABVQLandmarkCategoryId@2@@Z @ 186 NONAME ; void QtMobility::QLandmark::removeCategoryId(class QtMobility::QLandmarkCategoryId const &)
	?d_func@QLandmarkUnionFilter@QtMobility@@AAEPAVQLandmarkUnionFilterPrivate@2@XZ @ 187 NONAME ; class QtMobility::QLandmarkUnionFilterPrivate * QtMobility::QLandmarkUnionFilter::d_func(void)
	?d_func@QLandmarkIntersectionFilter@QtMobility@@ABEPBVQLandmarkIntersectionFilterPrivate@2@XZ @ 188 NONAME ; class QtMobility::QLandmarkIntersectionFilterPrivate const * QtMobility::QLandmarkIntersectionFilter::d_func(void) const
	?geocode@QGeoSearchManagerEngine@QtMobility@@UAEPAVQGeoSearchReply@2@ABVQGeoAddress@2@PAVQGeoBoundingArea@2@@Z @ 189 NONAME ; class QtMobility::QGeoSearchReply * QtMobility::QGeoSearchManagerEngine::geocode(class QtMobility::QGeoAddress const &, class QtMobility::QGeoBoundingArea *)
	?setTransferOption@QLandmarkImportRequest@QtMobility@@QAEXW4TransferOption@QLandmarkManager@2@@Z @ 190 NONAME ; void QtMobility::QLandmarkImportRequest::setTransferOption(enum QtMobility::QLandmarkManager::TransferOption)
	??6QLandmarkUnionFilter@QtMobility@@QAEAAV01@ABVQLandmarkFilter@1@@Z @ 191 NONAME ; class QtMobility::QLandmarkUnionFilter & QtMobility::QLandmarkUnionFilter::operator<<(class QtMobility::QLandmarkFilter const &)
	?mapImageFormat@QGeoTiledMapReply@QtMobility@@QBE?AVQString@@XZ @ 192 NONAME ; class QString QtMobility::QGeoTiledMapReply::mapImageFormat(void) const
	??1QGeoRoutingManagerEngine@QtMobility@@UAE@XZ @ 193 NONAME ; QtMobility::QGeoRoutingManagerEngine::~QGeoRoutingManagerEngine(void)
	?trUtf8@QLandmarkCategoryFetchRequest@QtMobility@@SA?AVQString@@PBD0@Z @ 194 NONAME ; class QString QtMobility::QLandmarkCategoryFetchRequest::trUtf8(char const *, char const *)
	?tr@QLandmarkManager@QtMobility@@SA?AVQString@@PBD0@Z @ 195 NONAME ; class QString QtMobility::QLandmarkManager::tr(char const *, char const *)
	?removeLandmark@QLandmarkManager@QtMobility@@QAE_NABVQLandmark@2@@Z @ 196 NONAME ; bool QtMobility::QLandmarkManager::removeLandmark(class QtMobility::QLandmark const &)
	?createMapObjectInfo@QGeoMapData@QtMobility@@MAEPAVQGeoMapObjectInfo@2@PAVQGeoMapObject@2@@Z @ 197 NONAME ; class QtMobility::QGeoMapObjectInfo * QtMobility::QGeoMapData::createMapObjectInfo(class QtMobility::QGeoMapObject *)
	??9QGeoRouteSegment@QtMobility@@QBE_NABV01@@Z @ 198 NONAME ; bool QtMobility::QGeoRouteSegment::operator!=(class QtMobility::QGeoRouteSegment const &) const
	?tr@QGeoMapPixmapObject@QtMobility@@SA?AVQString@@PBD0@Z @ 199 NONAME ; class QString QtMobility::QGeoMapPixmapObject::tr(char const *, char const *)
	??0QGeoTiledMappingManagerEngine@QtMobility@@IAE@ABV?$QMap@VQString@@VQVariant@@@@PAVQObject@@@Z @ 200 NONAME ; QtMobility::QGeoTiledMappingManagerEngine::QGeoTiledMappingManagerEngine(class QMap<class QString, class QVariant> const &, class QObject *)
	??0QGeoSearchReply@QtMobility@@IAE@PAVQObject@@@Z @ 201 NONAME ; QtMobility::QGeoSearchReply::QGeoSearchReply(class QObject *)
	??8QGeoRouteRequest@QtMobility@@QBE_NABV01@@Z @ 202 NONAME ; bool QtMobility::QGeoRouteRequest::operator==(class QtMobility::QGeoRouteRequest const &) const
	?landmark@QLandmarkManager@QtMobility@@QBE?AVQLandmark@2@ABVQLandmarkId@2@@Z @ 203 NONAME ; class QtMobility::QLandmark QtMobility::QLandmarkManager::landmark(class QtMobility::QLandmarkId const &) const
	?d_func@QLandmarkFetchRequest@QtMobility@@ABEPBVQLandmarkFetchRequestPrivate@2@XZ @ 204 NONAME ; class QtMobility::QLandmarkFetchRequestPrivate const * QtMobility::QLandmarkFetchRequest::d_func(void) const
	?error@QGeoSearchManager@QtMobility@@IAEXPAVQGeoSearchReply@2@W4Error@32@VQString@@@Z @ 205 NONAME ; void QtMobility::QGeoSearchManager::error(class QtMobility::QGeoSearchReply *, enum QtMobility::QGeoSearchReply::Error, class QString)
	?metaObject@QGeoRouteReply@QtMobility@@UBEPBUQMetaObject@@XZ @ 206 NONAME ; struct QMetaObject const * QtMobility::QGeoRouteReply::metaObject(void) const
	?topRight@QGeoBoundingBox@QtMobility@@QBE?AVQGeoCoordinate@2@XZ @ 207 NONAME ; class QtMobility::QGeoCoordinate QtMobility::QGeoBoundingBox::topRight(void) const
	?d_func@QGeoMapRectangleObject@QtMobility@@ABEPBVQGeoMapRectangleObjectPrivate@2@XZ @ 208 NONAME ; class QtMobility::QGeoMapRectangleObjectPrivate const * QtMobility::QGeoMapRectangleObject::d_func(void) const
	?qt_metacast@QGeoRoutingManager@QtMobility@@UAEPAXPBD@Z @ 209 NONAME ; void * QtMobility::QGeoRoutingManager::qt_metacast(char const *)
	?bottomRight@QGeoBoundingBox@QtMobility@@QBE?AVQGeoCoordinate@2@XZ @ 210 NONAME ; class QtMobility::QGeoCoordinate QtMobility::QGeoBoundingBox::bottomRight(void) const
	??9QLandmarkFilter@QtMobility@@QBE_NABV01@@Z @ 211 NONAME ; bool QtMobility::QLandmarkFilter::operator!=(class QtMobility::QLandmarkFilter const &) const
	?setPen@QGeoMapCircleObject@QtMobility@@QAEXABVQPen@@@Z @ 212 NONAME ; void QtMobility::QGeoMapCircleObject::setPen(class QPen const &)
	?tr@QGeoMapPolylineObject@QtMobility@@SA?AVQString@@PBD0H@Z @ 213 NONAME ; class QString QtMobility::QGeoMapPolylineObject::tr(char const *, char const *, int)
	??4QLandmarkSortOrder@QtMobility@@QAEAAV01@ABV01@@Z @ 214 NONAME ; class QtMobility::QLandmarkSortOrder & QtMobility::QLandmarkSortOrder::operator=(class QtMobility::QLandmarkSortOrder const &)
	??0QLandmarkUnionFilter@QtMobility@@QAE@ABVQLandmarkFilter@1@@Z @ 215 NONAME ; QtMobility::QLandmarkUnionFilter::QLandmarkUnionFilter(class QtMobility::QLandmarkFilter const &)
	?trUtf8@QGeoTiledMappingManagerEngine@QtMobility@@SA?AVQString@@PBD0H@Z @ 216 NONAME ; class QString QtMobility::QGeoTiledMappingManagerEngine::trUtf8(char const *, char const *, int)
	?d_func@QGeoMapPolygonObject@QtMobility@@ABEPBVQGeoMapPolygonObjectPrivate@2@XZ @ 217 NONAME ; class QtMobility::QGeoMapPolygonObjectPrivate const * QtMobility::QGeoMapPolygonObject::d_func(void) const
	?supportedConnectivityModes@QGeoMappingManager@QtMobility@@QBE?AV?$QList@W4ConnectivityMode@QGraphicsGeoMap@QtMobility@@@@XZ @ 218 NONAME ; class QList<enum QtMobility::QGraphicsGeoMap::ConnectivityMode> QtMobility::QGeoMappingManager::supportedConnectivityModes(void) const
	?center@QLandmarkProximityFilter@QtMobility@@QBE?AVQGeoCoordinate@2@XZ @ 219 NONAME ; class QtMobility::QGeoCoordinate QtMobility::QLandmarkProximityFilter::center(void) const
	?type@QGeoBoundingCircle@QtMobility@@UBE?AW4AreaType@QGeoBoundingArea@2@XZ @ 220 NONAME ; enum QtMobility::QGeoBoundingArea::AreaType QtMobility::QGeoBoundingCircle::type(void) const
	?managerName@QGeoMappingManager@QtMobility@@QBE?AVQString@@XZ @ 221 NONAME ; class QString QtMobility::QGeoMappingManager::managerName(void) const
	?supportedFeatureWeights@QGeoRoutingManager@QtMobility@@QBE?AV?$QFlags@W4FeatureWeight@QGeoRouteRequest@QtMobility@@@@XZ @ 222 NONAME ; class QFlags<enum QtMobility::QGeoRouteRequest::FeatureWeight> QtMobility::QGeoRoutingManager::supportedFeatureWeights(void) const
	?tileRect@QGeoTiledMapRequest@QtMobility@@QBE?AVQRect@@XZ @ 223 NONAME ; class QRect QtMobility::QGeoTiledMapRequest::tileRect(void) const
	?metaObject@QLandmarkCategorySaveRequest@QtMobility@@UBEPBUQMetaObject@@XZ @ 224 NONAME ; struct QMetaObject const * QtMobility::QLandmarkCategorySaveRequest::metaObject(void) const
	?trUtf8@QGeoMapRouteObject@QtMobility@@SA?AVQString@@PBD0H@Z @ 225 NONAME ; class QString QtMobility::QGeoMapRouteObject::trUtf8(char const *, char const *, int)
	??OQGeoMapObject@QtMobility@@QBE_NABV01@@Z @ 226 NONAME ; bool QtMobility::QGeoMapObject::operator>(class QtMobility::QGeoMapObject const &) const
	??_EQGeoBoundingCircle@QtMobility@@UAE@I@Z @ 227 NONAME ; QtMobility::QGeoBoundingCircle::~QGeoBoundingCircle(unsigned int)
	??0QLandmarkFetchByIdRequest@QtMobility@@QAE@PAVQLandmarkManager@1@PAVQObject@@@Z @ 228 NONAME ; QtMobility::QLandmarkFetchByIdRequest::QLandmarkFetchByIdRequest(class QtMobility::QLandmarkManager *, class QObject *)
	?qt_metacall@QLandmarkImportRequest@QtMobility@@UAEHW4Call@QMetaObject@@HPAPAX@Z @ 229 NONAME ; int QtMobility::QLandmarkImportRequest::qt_metacall(enum QMetaObject::Call, int, void * *)
	??0QGeoRouteRequest@QtMobility@@QAE@ABVQGeoCoordinate@1@0@Z @ 230 NONAME ; QtMobility::QGeoRouteRequest::QGeoRouteRequest(class QtMobility::QGeoCoordinate const &, class QtMobility::QGeoCoordinate const &)
	??1QGeoRouteSegment@QtMobility@@QAE@XZ @ 231 NONAME ; QtMobility::QGeoRouteSegment::~QGeoRouteSegment(void)
	?zoomLevel@QGeoTiledMapRequest@QtMobility@@QBEHXZ @ 232 NONAME ; int QtMobility::QGeoTiledMapRequest::zoomLevel(void) const
	?trUtf8@QLandmarkSaveRequest@QtMobility@@SA?AVQString@@PBD0H@Z @ 233 NONAME ; class QString QtMobility::QLandmarkSaveRequest::trUtf8(char const *, char const *, int)
	?setMapType@QGraphicsGeoMap@QtMobility@@QAEXW4MapType@12@@Z @ 234 NONAME ; void QtMobility::QGraphicsGeoMap::setMapType(enum QtMobility::QGraphicsGeoMap::MapType)
	?paint@QGeoMapData@QtMobility@@UAEXPAVQPainter@@PBVQStyleOptionGraphicsItem@@@Z @ 235 NONAME ; void QtMobility::QGeoMapData::paint(class QPainter *, class QStyleOptionGraphicsItem const *)
	??8QLandmarkSortOrder@QtMobility@@QBE_NABV01@@Z @ 236 NONAME ; bool QtMobility::QLandmarkSortOrder::operator==(class QtMobility::QLandmarkSortOrder const &) const
	??4QGeoAddress@QtMobility@@QAEAAV01@ABV01@@Z @ 237 NONAME ; class QtMobility::QGeoAddress & QtMobility::QGeoAddress::operator=(class QtMobility::QGeoAddress const &)
	?offset@QGeoSearchReply@QtMobility@@QBEHXZ @ 238 NONAME ; int QtMobility::QGeoSearchReply::offset(void) const
	??0QGeoMapRouteObject@QtMobility@@QAE@ABVQGeoRoute@1@@Z @ 239 NONAME ; QtMobility::QGeoMapRouteObject::QGeoMapRouteObject(class QtMobility::QGeoRoute const &)
	?cancel@QLandmarkAbstractRequest@QtMobility@@QAE_NXZ @ 240 NONAME ; bool QtMobility::QLandmarkAbstractRequest::cancel(void)
	??4QLandmarkCategory@QtMobility@@QAEAAV01@ABV01@@Z @ 241 NONAME ; class QtMobility::QLandmarkCategory & QtMobility::QLandmarkCategory::operator=(class QtMobility::QLandmarkCategory const &)
	?supportedSegmentDetails@QGeoRoutingManager@QtMobility@@QBE?AV?$QFlags@W4SegmentDetail@QGeoRouteRequest@QtMobility@@@@XZ @ 242 NONAME ; class QFlags<enum QtMobility::QGeoRouteRequest::SegmentDetail> QtMobility::QGeoRoutingManager::supportedSegmentDetails(void) const
	?isEmpty@QGeoAddress@QtMobility@@QBE_NXZ @ 243 NONAME ; bool QtMobility::QGeoAddress::isEmpty(void) const
	??_EQLandmarkBoxFilter@QtMobility@@UAE@I@Z @ 244 NONAME ; QtMobility::QLandmarkBoxFilter::~QLandmarkBoxFilter(unsigned int)
	?tr@QLandmarkFetchRequest@QtMobility@@SA?AVQString@@PBD0@Z @ 245 NONAME ; class QString QtMobility::QLandmarkFetchRequest::tr(char const *, char const *)
	?isReadOnly@QLandmarkManager@QtMobility@@QBE_NABVQLandmarkCategoryId@2@@Z @ 246 NONAME ; bool QtMobility::QLandmarkManager::isReadOnly(class QtMobility::QLandmarkCategoryId const &) const
	?getStaticMetaObject@QLandmarkFetchRequest@QtMobility@@SAABUQMetaObject@@XZ @ 247 NONAME ; struct QMetaObject const & QtMobility::QLandmarkFetchRequest::getStaticMetaObject(void)
	?center@QGeoTiledMapData@QtMobility@@UBE?AVQGeoCoordinate@2@XZ @ 248 NONAME ; class QtMobility::QGeoCoordinate QtMobility::QGeoTiledMapData::center(void) const
	??1QLandmarkCategorySaveRequest@QtMobility@@UAE@XZ @ 249 NONAME ; QtMobility::QLandmarkCategorySaveRequest::~QLandmarkCategorySaveRequest(void)
	?routeOptimization@QGeoRouteRequest@QtMobility@@QBE?AV?$QFlags@W4RouteOptimization@QGeoRouteRequest@QtMobility@@@@XZ @ 250 NONAME ; class QFlags<enum QtMobility::QGeoRouteRequest::RouteOptimization> QtMobility::QGeoRouteRequest::routeOptimization(void) const
	?removeMapObject@QGeoMapData@QtMobility@@QAEXPAVQGeoMapObject@2@@Z @ 251 NONAME ; void QtMobility::QGeoMapData::removeMapObject(class QtMobility::QGeoMapObject *)
	?penChanged@QGeoMapRouteObject@QtMobility@@IAEXABVQPen@@@Z @ 252 NONAME ; void QtMobility::QGeoMapRouteObject::penChanged(class QPen const &)
	??9QLandmarkCategoryId@QtMobility@@QBE_NABV01@@Z @ 253 NONAME ; bool QtMobility::QLandmarkCategoryId::operator!=(class QtMobility::QLandmarkCategoryId const &) const
	?request@QGeoRoute@QtMobility@@QBE?AVQGeoRouteRequest@2@XZ @ 254 NONAME ; class QtMobility::QGeoRouteRequest QtMobility::QGeoRoute::request(void) const
	?searchManager@QGeoServiceProvider@QtMobility@@QBEPAVQGeoSearchManager@2@XZ @ 255 NONAME ; class QtMobility::QGeoSearchManager * QtMobility::QGeoServiceProvider::searchManager(void) const
	?clear@QLandmark@QtMobility@@QAEXXZ @ 256 NONAME ; void QtMobility::QLandmark::clear(void)
	??0QGeoMapPixmapObject@QtMobility@@QAE@ABVQGeoCoordinate@1@ABVQPoint@@ABVQPixmap@@@Z @ 257 NONAME ; QtMobility::QGeoMapPixmapObject::QGeoMapPixmapObject(class QtMobility::QGeoCoordinate const &, class QPoint const &, class QPixmap const &)
	?setTileSize@QGeoTiledMappingManagerEngine@QtMobility@@IAEXABVQSize@@@Z @ 258 NONAME ; void QtMobility::QGeoTiledMappingManagerEngine::setTileSize(class QSize const &)
	?d_func@QLandmarkManager@QtMobility@@ABEPBVQLandmarkManagerPrivate@2@XZ @ 259 NONAME ; class QtMobility::QLandmarkManagerPrivate const * QtMobility::QLandmarkManager::d_func(void) const
	??0QLandmarkCategoryId@QtMobility@@QAE@XZ @ 260 NONAME ; QtMobility::QLandmarkCategoryId::QLandmarkCategoryId(void)
	?maximumZoomLevel@QGraphicsGeoMap@QtMobility@@QBEMXZ @ 261 NONAME ; float QtMobility::QGraphicsGeoMap::maximumZoomLevel(void) const
	??1QGeoSearchManager@QtMobility@@UAE@XZ @ 262 NONAME ; QtMobility::QGeoSearchManager::~QGeoSearchManager(void)
	?paint@QGraphicsGeoMap@QtMobility@@UAEXPAVQPainter@@PBVQStyleOptionGraphicsItem@@PAVQWidget@@@Z @ 263 NONAME ; void QtMobility::QGraphicsGeoMap::paint(class QPainter *, class QStyleOptionGraphicsItem const *, class QWidget *)
	?staticMetaObject@QLandmarkManager@QtMobility@@2UQMetaObject@@B @ 264 NONAME ; struct QMetaObject const QtMobility::QLandmarkManager::staticMetaObject
	??0QLandmark@QtMobility@@QAE@ABVQGeoPlace@1@@Z @ 265 NONAME ; QtMobility::QLandmark::QLandmark(class QtMobility::QGeoPlace const &)
	??0QLandmarkIntersectionFilter@QtMobility@@QAE@XZ @ 266 NONAME ; QtMobility::QLandmarkIntersectionFilter::QLandmarkIntersectionFilter(void)
	?zValue@QGeoMapObject@QtMobility@@QBEHXZ @ 267 NONAME ; int QtMobility::QGeoMapObject::zValue(void) const
	?clearMapOverlays@QGraphicsGeoMap@QtMobility@@QAEXXZ @ 268 NONAME ; void QtMobility::QGraphicsGeoMap::clearMapOverlays(void)
	??_EQLandmarkFetchRequest@QtMobility@@UAE@I@Z @ 269 NONAME ; QtMobility::QLandmarkFetchRequest::~QLandmarkFetchRequest(unsigned int)
	??0QGeoMapRectangleObject@QtMobility@@QAE@ABVQGeoBoundingBox@1@@Z @ 270 NONAME ; QtMobility::QGeoMapRectangleObject::QGeoMapRectangleObject(class QtMobility::QGeoBoundingBox const &)
	?updateLandmarkIdFetchRequest@QLandmarkManagerEngine@QtMobility@@SAXPAVQLandmarkIdFetchRequest@2@ABV?$QList@VQLandmarkId@QtMobility@@@@W4Error@QLandmarkManager@2@ABVQString@@W4State@QLandmarkAbstractRequest@2@@Z @ 271 NONAME ; void QtMobility::QLandmarkManagerEngine::updateLandmarkIdFetchRequest(class QtMobility::QLandmarkIdFetchRequest *, class QList<class QtMobility::QLandmarkId> const &, enum QtMobility::QLandmarkManager::Error, class QString const &, enum QtMobility::QLandmarkAbstractRequest::State)
	?searchableLandmarkAttributeKeys@QLandmarkManager@QtMobility@@QBE?AVQStringList@@XZ @ 272 NONAME ; class QStringList QtMobility::QLandmarkManager::searchableLandmarkAttributeKeys(void) const
	?addMapOverlay@QGraphicsGeoMap@QtMobility@@QAEXPAVQGeoMapOverlay@2@@Z @ 273 NONAME ; void QtMobility::QGraphicsGeoMap::addMapOverlay(class QtMobility::QGeoMapOverlay *)
	?setTopLeft@QGeoMapRectangleObject@QtMobility@@QAEXABVQGeoCoordinate@2@@Z @ 274 NONAME ; void QtMobility::QGeoMapRectangleObject::setTopLeft(class QtMobility::QGeoCoordinate const &)
	?filter@QLandmarkIdFetchRequest@QtMobility@@QBE?AVQLandmarkFilter@2@XZ @ 275 NONAME ; class QtMobility::QLandmarkFilter QtMobility::QLandmarkIdFetchRequest::filter(void) const
	?visibleChanged@QGeoMapObjectInfo@QtMobility@@UAEX_N@Z @ 276 NONAME ; void QtMobility::QGeoMapObjectInfo::visibleChanged(bool)
	?qt_metacast@QGeoSearchReply@QtMobility@@UAEPAXPBD@Z @ 277 NONAME ; void * QtMobility::QGeoSearchReply::qt_metacast(char const *)
	?d_func@QGeoTiledMapData@QtMobility@@AAEPAVQGeoTiledMapDataPrivate@2@XZ @ 278 NONAME ; class QtMobility::QGeoTiledMapDataPrivate * QtMobility::QGeoTiledMapData::d_func(void)
	?trUtf8@QGraphicsGeoMap@QtMobility@@SA?AVQString@@PBD0H@Z @ 279 NONAME ; class QString QtMobility::QGraphicsGeoMap::trUtf8(char const *, char const *, int)
	?error@QGeoRouteReply@QtMobility@@IAEXW4Error@12@ABVQString@@@Z @ 280 NONAME ; void QtMobility::QGeoRouteReply::error(enum QtMobility::QGeoRouteReply::Error, class QString const &)
	?updateMapDisplay@QGeoMapData@QtMobility@@IAEXABVQRectF@@@Z @ 281 NONAME ; void QtMobility::QGeoMapData::updateMapDisplay(class QRectF const &)
	?detailLevel@QGeoMapRouteObject@QtMobility@@QBEIXZ @ 282 NONAME ; unsigned int QtMobility::QGeoMapRouteObject::detailLevel(void) const
	?viewport@QGeoPlace@QtMobility@@QBE?AVQGeoBoundingBox@2@XZ @ 283 NONAME ; class QtMobility::QGeoBoundingBox QtMobility::QGeoPlace::viewport(void) const
	??1QLandmarkCategory@QtMobility@@QAE@XZ @ 284 NONAME ; QtMobility::QLandmarkCategory::~QLandmarkCategory(void)
	??UQtMobility@@YA?BVQLandmarkFilter@0@ABV10@0@Z @ 285 NONAME ; class QtMobility::QLandmarkFilter const QtMobility::operator|(class QtMobility::QLandmarkFilter const &, class QtMobility::QLandmarkFilter const &)
	??0QGeoBoundingBox@QtMobility@@QAE@ABVQGeoCoordinate@1@NN@Z @ 286 NONAME ; QtMobility::QGeoBoundingBox::QGeoBoundingBox(class QtMobility::QGeoCoordinate const &, double, double)
	?d_func@QGeoMapRectangleObject@QtMobility@@AAEPAVQGeoMapRectangleObjectPrivate@2@XZ @ 287 NONAME ; class QtMobility::QGeoMapRectangleObjectPrivate * QtMobility::QGeoMapRectangleObject::d_func(void)
	?tr@QGeoMapData@QtMobility@@SA?AVQString@@PBD0@Z @ 288 NONAME ; class QString QtMobility::QGeoMapData::tr(char const *, char const *)
	?qt_metacast@QGeoMapObject@QtMobility@@UAEPAXPBD@Z @ 289 NONAME ; void * QtMobility::QGeoMapObject::qt_metacast(char const *)
	?qt_metacast@QLandmarkImportRequest@QtMobility@@UAEPAXPBD@Z @ 290 NONAME ; void * QtMobility::QLandmarkImportRequest::qt_metacast(char const *)
	?centerChanged@QGeoMapCircleObject@QtMobility@@IAEXABVQGeoCoordinate@2@@Z @ 291 NONAME ; void QtMobility::QGeoMapCircleObject::centerChanged(class QtMobility::QGeoCoordinate const &)
	??1QGeoRoute@QtMobility@@QAE@XZ @ 292 NONAME ; QtMobility::QGeoRoute::~QGeoRoute(void)
	?tr@QGeoMapData@QtMobility@@SA?AVQString@@PBD0H@Z @ 293 NONAME ; class QString QtMobility::QGeoMapData::tr(char const *, char const *, int)
	?staticMetaObject@QLandmarkManagerEngine@QtMobility@@2UQMetaObject@@B @ 294 NONAME ; struct QMetaObject const QtMobility::QLandmarkManagerEngine::staticMetaObject
	?trUtf8@QLandmarkManagerEngine@QtMobility@@SA?AVQString@@PBD0H@Z @ 295 NONAME ; class QString QtMobility::QLandmarkManagerEngine::trUtf8(char const *, char const *, int)
	?qt_metacall@QLandmarkCategoryIdFetchRequest@QtMobility@@UAEHW4Call@QMetaObject@@HPAPAX@Z @ 296 NONAME ; int QtMobility::QLandmarkCategoryIdFetchRequest::qt_metacall(enum QMetaObject::Call, int, void * *)
	?start@QLandmarkAbstractRequest@QtMobility@@QAE_NXZ @ 297 NONAME ; bool QtMobility::QLandmarkAbstractRequest::start(void)
	??_EQGeoSearchManagerEngine@QtMobility@@UAE@I@Z @ 298 NONAME ; QtMobility::QGeoSearchManagerEngine::~QGeoSearchManagerEngine(unsigned int)
	?metaObject@QLandmarkFetchRequest@QtMobility@@UBEPBUQMetaObject@@XZ @ 299 NONAME ; struct QMetaObject const * QtMobility::QLandmarkFetchRequest::metaObject(void) const
	??8QGeoTiledMapRequest@QtMobility@@QBE_NABV01@@Z @ 300 NONAME ; bool QtMobility::QGeoTiledMapRequest::operator==(class QtMobility::QGeoTiledMapRequest const &) const
	?tr@QLandmarkManagerEngine@QtMobility@@SA?AVQString@@PBD0@Z @ 301 NONAME ; class QString QtMobility::QLandmarkManagerEngine::tr(char const *, char const *)
	??0QLandmarkIdFetchRequest@QtMobility@@QAE@PAVQLandmarkManager@1@PAVQObject@@@Z @ 302 NONAME ; QtMobility::QLandmarkIdFetchRequest::QLandmarkIdFetchRequest(class QtMobility::QLandmarkManager *, class QObject *)
	?featureWeight@QGeoRouteRequest@QtMobility@@QBE?AW4FeatureWeight@12@W4FeatureType@12@@Z @ 303 NONAME ; enum QtMobility::QGeoRouteRequest::FeatureWeight QtMobility::QGeoRouteRequest::featureWeight(enum QtMobility::QGeoRouteRequest::FeatureType) const
	?disconnectNotify@QLandmarkManager@QtMobility@@MAEXPBD@Z @ 304 NONAME ; void QtMobility::QLandmarkManager::disconnectNotify(char const *)
	?setCategory@QLandmarkCategoryRemoveRequest@QtMobility@@QAEXABVQLandmarkCategory@2@@Z @ 305 NONAME ; void QtMobility::QLandmarkCategoryRemoveRequest::setCategory(class QtMobility::QLandmarkCategory const &)
	?mapData@QGeoMapObject@QtMobility@@UBEPAVQGeoMapData@2@XZ @ 306 NONAME ; class QtMobility::QGeoMapData * QtMobility::QGeoMapObject::mapData(void) const
	?d_func@QGeoTiledMappingManagerEngine@QtMobility@@AAEPAVQGeoTiledMappingManagerEnginePrivate@2@XZ @ 307 NONAME ; class QtMobility::QGeoTiledMappingManagerEnginePrivate * QtMobility::QGeoTiledMappingManagerEngine::d_func(void)
	?metaObject@QLandmarkManager@QtMobility@@UBEPBUQMetaObject@@XZ @ 308 NONAME ; struct QMetaObject const * QtMobility::QLandmarkManager::metaObject(void) const
	?qt_metacast@QGeoMapGroupObject@QtMobility@@UAEPAXPBD@Z @ 309 NONAME ; void * QtMobility::QGeoMapGroupObject::qt_metacast(char const *)
	?setInstructionText@QGeoManeuver@QtMobility@@QAEXABVQString@@@Z @ 310 NONAME ; void QtMobility::QGeoManeuver::setInstructionText(class QString const &)
	??1QLandmarkId@QtMobility@@QAE@XZ @ 311 NONAME ; QtMobility::QLandmarkId::~QLandmarkId(void)
	?landmarks@QLandmarkManager@QtMobility@@QBE?AV?$QList@VQLandmark@QtMobility@@@@ABVQLandmarkFilter@2@HHABV?$QList@VQLandmarkSortOrder@QtMobility@@@@@Z @ 312 NONAME ; class QList<class QtMobility::QLandmark> QtMobility::QLandmarkManager::landmarks(class QtMobility::QLandmarkFilter const &, int, int, class QList<class QtMobility::QLandmarkSortOrder> const &) const
	?fromUri@QLandmarkManager@QtMobility@@SAPAV12@ABVQString@@PAVQObject@@@Z @ 313 NONAME ; class QtMobility::QLandmarkManager * QtMobility::QLandmarkManager::fromUri(class QString const &, class QObject *)
	?setSegmentDetail@QGeoRouteRequest@QtMobility@@QAEXW4SegmentDetail@12@@Z @ 314 NONAME ; void QtMobility::QGeoRouteRequest::setSegmentDetail(enum QtMobility::QGeoRouteRequest::SegmentDetail)
	??0QLandmarkNameSort@QtMobility@@QAE@ABVQLandmarkSortOrder@1@@Z @ 315 NONAME ; QtMobility::QLandmarkNameSort::QLandmarkNameSort(class QtMobility::QLandmarkSortOrder const &)
	?setBoundingBox@QLandmarkBoxFilter@QtMobility@@QAEXABVQGeoBoundingBox@2@@Z @ 316 NONAME ; void QtMobility::QLandmarkBoxFilter::setBoundingBox(class QtMobility::QGeoBoundingBox const &)
	?d_func@QLandmarkCategoryIdFetchRequest@QtMobility@@ABEPBVQLandmarkCategoryIdFetchRequestPrivate@2@XZ @ 317 NONAME ; class QtMobility::QLandmarkCategoryIdFetchRequestPrivate const * QtMobility::QLandmarkCategoryIdFetchRequest::d_func(void) const
	?matchFlags@QLandmarkNameFilter@QtMobility@@QBE?AV?$QFlags@W4MatchFlag@QLandmarkFilter@QtMobility@@@@XZ @ 318 NONAME ; class QFlags<enum QtMobility::QLandmarkFilter::MatchFlag> QtMobility::QLandmarkNameFilter::matchFlags(void) const
	?categories@QLandmarkManagerEngine@QtMobility@@UBE?AV?$QList@VQLandmarkCategory@QtMobility@@@@ABV?$QList@VQLandmarkCategoryId@QtMobility@@@@PAV?$QMap@HW4Error@QLandmarkManager@QtMobility@@@@PAW4Error@QLandmarkManager@2@PAVQString@@@Z @ 319 NONAME ; class QList<class QtMobility::QLandmarkCategory> QtMobility::QLandmarkManagerEngine::categories(class QList<class QtMobility::QLandmarkCategoryId> const &, class QMap<int, enum QtMobility::QLandmarkManager::Error> *, enum QtMobility::QLandmarkManager::Error *, class QString *) const
	??1QGeoSearchManagerEngine@QtMobility@@UAE@XZ @ 320 NONAME ; QtMobility::QGeoSearchManagerEngine::~QGeoSearchManagerEngine(void)
	?managerVersion@QGeoRoutingManager@QtMobility@@QBEHXZ @ 321 NONAME ; int QtMobility::QGeoRoutingManager::managerVersion(void) const
	?childRemoved@QGeoMapGroupObject@QtMobility@@IAEXPAVQGeoMapObject@2@@Z @ 322 NONAME ; void QtMobility::QGeoMapGroupObject::childRemoved(class QtMobility::QGeoMapObject *)
	?qt_metacast@QGeoMappingManagerEngine@QtMobility@@UAEPAXPBD@Z @ 323 NONAME ; void * QtMobility::QGeoMappingManagerEngine::qt_metacast(char const *)
	?categoriesChanged@QLandmarkManager@QtMobility@@IAEXABV?$QList@VQLandmarkCategoryId@QtMobility@@@@@Z @ 324 NONAME ; void QtMobility::QLandmarkManager::categoriesChanged(class QList<class QtMobility::QLandmarkCategoryId> const &)
	?tr@QGeoMapObjectInfo@QtMobility@@SA?AVQString@@PBD0@Z @ 325 NONAME ; class QString QtMobility::QGeoMapObjectInfo::tr(char const *, char const *)
	?setOffset@QLandmarkIdFetchRequest@QtMobility@@QAEXH@Z @ 326 NONAME ; void QtMobility::QLandmarkIdFetchRequest::setOffset(int)
	?d_func@QLandmarkCategoryFetchByIdRequest@QtMobility@@AAEPAVQLandmarkCategoryFetchByIdRequestPrivate@2@XZ @ 327 NONAME ; class QtMobility::QLandmarkCategoryFetchByIdRequestPrivate * QtMobility::QLandmarkCategoryFetchByIdRequest::d_func(void)
	?tr@QGeoSearchManagerEngine@QtMobility@@SA?AVQString@@PBD0H@Z @ 328 NONAME ; class QString QtMobility::QGeoSearchManagerEngine::tr(char const *, char const *, int)
	??_EQGeoMapPixmapObject@QtMobility@@UAE@I@Z @ 329 NONAME ; QtMobility::QGeoMapPixmapObject::~QGeoMapPixmapObject(unsigned int)
	?staticMetaObject@QGraphicsGeoMap@QtMobility@@2UQMetaObject@@B @ 330 NONAME ; struct QMetaObject const QtMobility::QGraphicsGeoMap::staticMetaObject
	?tr@QGeoMapPolylineObject@QtMobility@@SA?AVQString@@PBD0@Z @ 331 NONAME ; class QString QtMobility::QGeoMapPolylineObject::tr(char const *, char const *)
	?contains@QGeoMapObject@QtMobility@@UBE_NABVQGeoCoordinate@2@@Z @ 332 NONAME ; bool QtMobility::QGeoMapObject::contains(class QtMobility::QGeoCoordinate const &) const
	?getStaticMetaObject@QGeoMapPolylineObject@QtMobility@@SAABUQMetaObject@@XZ @ 333 NONAME ; struct QMetaObject const & QtMobility::QGeoMapPolylineObject::getStaticMetaObject(void)
	?setSupportsAlternativeRoutes@QGeoRoutingManagerEngine@QtMobility@@IAEX_N@Z @ 334 NONAME ; void QtMobility::QGeoRoutingManagerEngine::setSupportsAlternativeRoutes(bool)
	?tr@QGeoSearchManagerEngine@QtMobility@@SA?AVQString@@PBD0@Z @ 335 NONAME ; class QString QtMobility::QGeoSearchManagerEngine::tr(char const *, char const *)
	?pan@QGeoMapData@QtMobility@@UAEXHH@Z @ 336 NONAME ; void QtMobility::QGeoMapData::pan(int, int)
	?setPath@QGeoMapPolygonObject@QtMobility@@QAEXABV?$QList@VQGeoCoordinate@QtMobility@@@@@Z @ 337 NONAME ; void QtMobility::QGeoMapPolygonObject::setPath(class QList<class QtMobility::QGeoCoordinate> const &)
	?getStaticMetaObject@QGeoMapData@QtMobility@@SAABUQMetaObject@@XZ @ 338 NONAME ; struct QMetaObject const & QtMobility::QGeoMapData::getStaticMetaObject(void)
	?setViewport@QGeoPlace@QtMobility@@QAEXABVQGeoBoundingBox@2@@Z @ 339 NONAME ; void QtMobility::QGeoPlace::setViewport(class QtMobility::QGeoBoundingBox const &)
	?d_func@QLandmarkImportRequest@QtMobility@@ABEPBVQLandmarkImportRequestPrivate@2@XZ @ 340 NONAME ; class QtMobility::QLandmarkImportRequestPrivate const * QtMobility::QLandmarkImportRequest::d_func(void) const
	?qt_metacall@QLandmarkCategoryFetchByIdRequest@QtMobility@@UAEHW4Call@QMetaObject@@HPAPAX@Z @ 341 NONAME ; int QtMobility::QLandmarkCategoryFetchByIdRequest::qt_metacall(enum QMetaObject::Call, int, void * *)
	?removeCategory@QLandmarkManagerEngine@QtMobility@@UAE_NABVQLandmarkCategoryId@2@PAW4Error@QLandmarkManager@2@PAVQString@@@Z @ 342 NONAME ; bool QtMobility::QLandmarkManagerEngine::removeCategory(class QtMobility::QLandmarkCategoryId const &, enum QtMobility::QLandmarkManager::Error *, class QString *)
	??0QGeoTiledMapRequest@QtMobility@@QAE@ABV01@@Z @ 343 NONAME ; QtMobility::QGeoTiledMapRequest::QGeoTiledMapRequest(class QtMobility::QGeoTiledMapRequest const &)
	?setZValue@QGeoMapObject@QtMobility@@QAEXH@Z @ 344 NONAME ; void QtMobility::QGeoMapObject::setZValue(int)
	?selectedChanged@QGeoMapObject@QtMobility@@IAEX_N@Z @ 345 NONAME ; void QtMobility::QGeoMapObject::selectedChanged(bool)
	?removeLandmarks@QLandmarkManager@QtMobility@@QAE_NABV?$QList@VQLandmarkId@QtMobility@@@@@Z @ 346 NONAME ; bool QtMobility::QLandmarkManager::removeLandmarks(class QList<class QtMobility::QLandmarkId> const &)
	?routingManager@QGeoServiceProvider@QtMobility@@QBEPAVQGeoRoutingManager@2@XZ @ 347 NONAME ; class QtMobility::QGeoRoutingManager * QtMobility::QGeoServiceProvider::routingManager(void) const
	??0QGeoPlace@QtMobility@@IAE@PAVQGeoPlacePrivate@1@@Z @ 348 NONAME ; QtMobility::QGeoPlace::QGeoPlace(class QtMobility::QGeoPlacePrivate *)
	?staticMetaObject@QGeoTiledMapData@QtMobility@@2UQMetaObject@@B @ 349 NONAME ; struct QMetaObject const QtMobility::QGeoTiledMapData::staticMetaObject
	??8QGeoManeuver@QtMobility@@QBE_NABV01@@Z @ 350 NONAME ; bool QtMobility::QGeoManeuver::operator==(class QtMobility::QGeoManeuver const &) const
	?tr@QLandmarkImportRequest@QtMobility@@SA?AVQString@@PBD0@Z @ 351 NONAME ; class QString QtMobility::QLandmarkImportRequest::tr(char const *, char const *)
	?tileError@QGeoTiledMapData@QtMobility@@AAEXW4Error@QGeoTiledMapReply@2@VQString@@@Z @ 352 NONAME ; void QtMobility::QGeoTiledMapData::tileError(enum QtMobility::QGeoTiledMapReply::Error, class QString)
	?brushChanged@QGeoMapPolygonObject@QtMobility@@IAEXABVQBrush@@@Z @ 353 NONAME ; void QtMobility::QGeoMapPolygonObject::brushChanged(class QBrush const &)
	?distance@QGeoRoute@QtMobility@@QBEMXZ @ 354 NONAME ; float QtMobility::QGeoRoute::distance(void) const
	?landmarks@QLandmarkFetchRequest@QtMobility@@QBE?AV?$QList@VQLandmark@QtMobility@@@@XZ @ 355 NONAME ; class QList<class QtMobility::QLandmark> QtMobility::QLandmarkFetchRequest::landmarks(void) const
	??_EQGeoMapObjectInfo@QtMobility@@UAE@I@Z @ 356 NONAME ; QtMobility::QGeoMapObjectInfo::~QGeoMapObjectInfo(unsigned int)
	?trUtf8@QGeoSearchReply@QtMobility@@SA?AVQString@@PBD0H@Z @ 357 NONAME ; class QString QtMobility::QGeoSearchReply::trUtf8(char const *, char const *, int)
	?setLimit@QLandmarkFetchRequest@QtMobility@@QAEXH@Z @ 358 NONAME ; void QtMobility::QLandmarkFetchRequest::setLimit(int)
	??_EQLandmarkAbstractRequest@QtMobility@@UAE@I@Z @ 359 NONAME ; QtMobility::QLandmarkAbstractRequest::~QLandmarkAbstractRequest(unsigned int)
	?centerChanged@QGraphicsGeoMap@QtMobility@@IAEXABVQGeoCoordinate@2@@Z @ 360 NONAME ; void QtMobility::QGraphicsGeoMap::centerChanged(class QtMobility::QGeoCoordinate const &)
	?error@QGeoRoutingManager@QtMobility@@IAEXPAVQGeoRouteReply@2@W4Error@32@VQString@@@Z @ 361 NONAME ; void QtMobility::QGeoRoutingManager::error(class QtMobility::QGeoRouteReply *, enum QtMobility::QGeoRouteReply::Error, class QString)
	?trUtf8@QLandmarkCategorySaveRequest@QtMobility@@SA?AVQString@@PBD0H@Z @ 362 NONAME ; class QString QtMobility::QLandmarkCategorySaveRequest::trUtf8(char const *, char const *, int)
	?tr@QGeoRouteReply@QtMobility@@SA?AVQString@@PBD0@Z @ 363 NONAME ; class QString QtMobility::QGeoRouteReply::tr(char const *, char const *)
	?supportedFormats@QLandmarkManagerEngine@QtMobility@@UBE?AVQStringList@@W4TransferOperation@QLandmarkManager@2@PAW4Error@52@PAVQString@@@Z @ 364 NONAME ; class QStringList QtMobility::QLandmarkManagerEngine::supportedFormats(enum QtMobility::QLandmarkManager::TransferOperation, enum QtMobility::QLandmarkManager::Error *, class QString *) const
	?isFinished@QLandmarkAbstractRequest@QtMobility@@QBE_NXZ @ 365 NONAME ; bool QtMobility::QLandmarkAbstractRequest::isFinished(void) const
	?font@QGeoMapTextObject@QtMobility@@QBE?AVQFont@@XZ @ 366 NONAME ; class QFont QtMobility::QGeoMapTextObject::font(void) const
	??0QGeoBoundingCircle@QtMobility@@QAE@ABV01@@Z @ 367 NONAME ; QtMobility::QGeoBoundingCircle::QGeoBoundingCircle(class QtMobility::QGeoBoundingCircle const &)
	?categoriesChanged@QLandmarkManagerEngine@QtMobility@@IAEXABV?$QList@VQLandmarkCategoryId@QtMobility@@@@@Z @ 368 NONAME ; void QtMobility::QLandmarkManagerEngine::categoriesChanged(class QList<class QtMobility::QLandmarkCategoryId> const &)
	?setCountry@QGeoAddress@QtMobility@@QAEXABVQString@@@Z @ 369 NONAME ; void QtMobility::QGeoAddress::setCountry(class QString const &)
	??0QLandmarkCategoryId@QtMobility@@QAE@ABV01@@Z @ 370 NONAME ; QtMobility::QLandmarkCategoryId::QLandmarkCategoryId(class QtMobility::QLandmarkCategoryId const &)
	?exportLandmarks@QLandmarkManager@QtMobility@@QBE_NABVQString@@0ABV?$QList@VQLandmarkId@QtMobility@@@@W4TransferOption@12@@Z @ 371 NONAME ; bool QtMobility::QLandmarkManager::exportLandmarks(class QString const &, class QString const &, class QList<class QtMobility::QLandmarkId> const &, enum QtMobility::QLandmarkManager::TransferOption) const
	?childObjects@QGeoMapGroupObject@QtMobility@@QBE?AV?$QList@PAVQGeoMapObject@QtMobility@@@@XZ @ 372 NONAME ; class QList<class QtMobility::QGeoMapObject *> QtMobility::QGeoMapGroupObject::childObjects(void) const
	?addMapObject@QGeoMapData@QtMobility@@QAEXPAVQGeoMapObject@2@@Z @ 373 NONAME ; void QtMobility::QGeoMapData::addMapObject(class QtMobility::QGeoMapObject *)
	?isCached@QGeoTiledMapReply@QtMobility@@QBE_NXZ @ 374 NONAME ; bool QtMobility::QGeoTiledMapReply::isCached(void) const
	?categoryIds@QLandmarkCategoryFetchByIdRequest@QtMobility@@QBE?AV?$QList@VQLandmarkCategoryId@QtMobility@@@@XZ @ 375 NONAME ; class QList<class QtMobility::QLandmarkCategoryId> QtMobility::QLandmarkCategoryFetchByIdRequest::categoryIds(void) const
	??0QGeoMappingManagerEngine@QtMobility@@QAE@ABV?$QMap@VQString@@VQVariant@@@@PAVQObject@@@Z @ 376 NONAME ; QtMobility::QGeoMappingManagerEngine::QGeoMappingManagerEngine(class QMap<class QString, class QVariant> const &, class QObject *)
	??1QGeoMapObjectInfo@QtMobility@@UAE@XZ @ 377 NONAME ; QtMobility::QGeoMapObjectInfo::~QGeoMapObjectInfo(void)
	??UQGeoBoundingBox@QtMobility@@QBE?AV01@ABV01@@Z @ 378 NONAME ; class QtMobility::QGeoBoundingBox QtMobility::QGeoBoundingBox::operator|(class QtMobility::QGeoBoundingBox const &) const
	?landmarks@QLandmarkFetchByIdRequest@QtMobility@@QBE?AV?$QList@VQLandmark@QtMobility@@@@XZ @ 379 NONAME ; class QList<class QtMobility::QLandmark> QtMobility::QLandmarkFetchByIdRequest::landmarks(void) const
	?metaObject@QLandmarkCategoryFetchRequest@QtMobility@@UBEPBUQMetaObject@@XZ @ 380 NONAME ; struct QMetaObject const * QtMobility::QLandmarkCategoryFetchRequest::metaObject(void) const
	?createSearchManagerEngine@QGeoServiceProviderFactory@QtMobility@@UBEPAVQGeoSearchManagerEngine@2@ABV?$QMap@VQString@@VQVariant@@@@PAW4Error@QGeoServiceProvider@2@PAVQString@@@Z @ 381 NONAME ; class QtMobility::QGeoSearchManagerEngine * QtMobility::QGeoServiceProviderFactory::createSearchManagerEngine(class QMap<class QString, class QVariant> const &, enum QtMobility::QGeoServiceProvider::Error *, class QString *) const
	?trUtf8@QLandmarkRemoveRequest@QtMobility@@SA?AVQString@@PBD0@Z @ 382 NONAME ; class QString QtMobility::QLandmarkRemoveRequest::trUtf8(char const *, char const *)
	?removeCategory@QLandmarkManager@QtMobility@@QAE_NABVQLandmarkCategoryId@2@@Z @ 383 NONAME ; bool QtMobility::QLandmarkManager::removeCategory(class QtMobility::QLandmarkCategoryId const &)
	?errorString@QLandmarkAbstractRequest@QtMobility@@QBE?AVQString@@XZ @ 384 NONAME ; class QString QtMobility::QLandmarkAbstractRequest::errorString(void) const
	?attributeKeys@QLandmarkAttributeFilter@QtMobility@@QBE?AVQStringList@@XZ @ 385 NONAME ; class QStringList QtMobility::QLandmarkAttributeFilter::attributeKeys(void) const
	?qt_metacast@QLandmarkRemoveRequest@QtMobility@@UAEPAXPBD@Z @ 386 NONAME ; void * QtMobility::QLandmarkRemoveRequest::qt_metacast(char const *)
	?setFinished@QGeoRouteReply@QtMobility@@IAEX_N@Z @ 387 NONAME ; void QtMobility::QGeoRouteReply::setFinished(bool)
	?alignmentChanged@QGeoMapTextObject@QtMobility@@IAEXV?$QFlags@W4AlignmentFlag@Qt@@@@@Z @ 388 NONAME ; void QtMobility::QGeoMapTextObject::alignmentChanged(class QFlags<enum Qt::AlignmentFlag>)
	??0QGeoRouteSegment@QtMobility@@IAE@AAV?$QExplicitlySharedDataPointer@VQGeoRouteSegmentPrivate@QtMobility@@@@@Z @ 389 NONAME ; QtMobility::QGeoRouteSegment::QGeoRouteSegment(class QExplicitlySharedDataPointer<class QtMobility::QGeoRouteSegmentPrivate> &)
	??_EQGeoMappingManager@QtMobility@@UAE@I@Z @ 390 NONAME ; QtMobility::QGeoMappingManager::~QGeoMappingManager(unsigned int)
	?qt_metacast@QLandmarkCategoryIdFetchRequest@QtMobility@@UAEPAXPBD@Z @ 391 NONAME ; void * QtMobility::QLandmarkCategoryIdFetchRequest::qt_metacast(char const *)
	?d_func@QGeoTiledMapData@QtMobility@@ABEPBVQGeoTiledMapDataPrivate@2@XZ @ 392 NONAME ; class QtMobility::QGeoTiledMapDataPrivate const * QtMobility::QGeoTiledMapData::d_func(void) const
	?name@QLandmarkNameFilter@QtMobility@@QBE?AVQString@@XZ @ 393 NONAME ; class QString QtMobility::QLandmarkNameFilter::name(void) const
	?paintObjects@QGeoTiledMapData@QtMobility@@MAEXPAVQPainter@@PBVQStyleOptionGraphicsItem@@@Z @ 394 NONAME ; void QtMobility::QGeoTiledMapData::paintObjects(class QPainter *, class QStyleOptionGraphicsItem const *)
	?d_func@QLandmarkImportRequest@QtMobility@@AAEPAVQLandmarkImportRequestPrivate@2@XZ @ 395 NONAME ; class QtMobility::QLandmarkImportRequestPrivate * QtMobility::QLandmarkImportRequest::d_func(void)
	?getStaticMetaObject@QLandmarkAbstractRequest@QtMobility@@SAABUQMetaObject@@XZ @ 396 NONAME ; struct QMetaObject const & QtMobility::QLandmarkAbstractRequest::getStaticMetaObject(void)
	??1QLandmarkCategoryId@QtMobility@@QAE@XZ @ 397 NONAME ; QtMobility::QLandmarkCategoryId::~QLandmarkCategoryId(void)
	?trUtf8@QLandmarkImportRequest@QtMobility@@SA?AVQString@@PBD0H@Z @ 398 NONAME ; class QString QtMobility::QLandmarkImportRequest::trUtf8(char const *, char const *, int)
	?d_func@QGeoMappingManagerEngine@QtMobility@@ABEPBVQGeoMappingManagerEnginePrivate@2@XZ @ 399 NONAME ; class QtMobility::QGeoMappingManagerEnginePrivate const * QtMobility::QGeoMappingManagerEngine::d_func(void) const
	?setLocale@QGeoMappingManagerEngine@QtMobility@@QAEXABVQLocale@@@Z @ 400 NONAME ; void QtMobility::QGeoMappingManagerEngine::setLocale(class QLocale const &)
	?supportsRouteUpdates@QGeoRoutingManagerEngine@QtMobility@@QBE_NXZ @ 401 NONAME ; bool QtMobility::QGeoRoutingManagerEngine::supportsRouteUpdates(void) const
	?error@QLandmarkAbstractRequest@QtMobility@@QBE?AW4Error@QLandmarkManager@2@XZ @ 402 NONAME ; enum QtMobility::QLandmarkManager::Error QtMobility::QLandmarkAbstractRequest::error(void) const
	?tr@QGeoMapTextObject@QtMobility@@SA?AVQString@@PBD0@Z @ 403 NONAME ; class QString QtMobility::QGeoMapTextObject::tr(char const *, char const *)
	?prepend@QLandmarkIntersectionFilter@QtMobility@@QAEXABVQLandmarkFilter@2@@Z @ 404 NONAME ; void QtMobility::QLandmarkIntersectionFilter::prepend(class QtMobility::QLandmarkFilter const &)
	?trUtf8@QGeoMapPolygonObject@QtMobility@@SA?AVQString@@PBD0@Z @ 405 NONAME ; class QString QtMobility::QGeoMapPolygonObject::trUtf8(char const *, char const *)
	?tr@QLandmarkSaveRequest@QtMobility@@SA?AVQString@@PBD0H@Z @ 406 NONAME ; class QString QtMobility::QLandmarkSaveRequest::tr(char const *, char const *, int)
	?contains@QGeoBoundingCircle@QtMobility@@UBE_NABVQGeoCoordinate@2@@Z @ 407 NONAME ; bool QtMobility::QGeoBoundingCircle::contains(class QtMobility::QGeoCoordinate const &) const
	?pen@QGeoMapPolylineObject@QtMobility@@QBE?AVQPen@@XZ @ 408 NONAME ; class QPen QtMobility::QGeoMapPolylineObject::pen(void) const
	?pan@QGeoTiledMapData@QtMobility@@UAEXHH@Z @ 409 NONAME ; void QtMobility::QGeoTiledMapData::pan(int, int)
	?trUtf8@QGeoMapRectangleObject@QtMobility@@SA?AVQString@@PBD0H@Z @ 410 NONAME ; class QString QtMobility::QGeoMapRectangleObject::trUtf8(char const *, char const *, int)
	?managerUri@QLandmarkManager@QtMobility@@QBE?AVQString@@XZ @ 411 NONAME ; class QString QtMobility::QLandmarkManager::managerUri(void) const
	??0QLandmarkProximityFilter@QtMobility@@QAE@ABVQLandmarkFilter@1@@Z @ 412 NONAME ; QtMobility::QLandmarkProximityFilter::QLandmarkProximityFilter(class QtMobility::QLandmarkFilter const &)
	??0QGeoMapObjectInfo@QtMobility@@QAE@PAVQGeoMapData@1@PAVQGeoMapObject@1@@Z @ 413 NONAME ; QtMobility::QGeoMapObjectInfo::QGeoMapObjectInfo(class QtMobility::QGeoMapData *, class QtMobility::QGeoMapObject *)
	?staticMetaObject@QGeoMapPixmapObject@QtMobility@@2UQMetaObject@@B @ 414 NONAME ; struct QMetaObject const QtMobility::QGeoMapPixmapObject::staticMetaObject
	?setPath@QGeoMapPolylineObject@QtMobility@@QAEXABV?$QList@VQGeoCoordinate@QtMobility@@@@@Z @ 415 NONAME ; void QtMobility::QGeoMapPolylineObject::setPath(class QList<class QtMobility::QGeoCoordinate> const &)
	?finished@QGeoRoutingManagerEngine@QtMobility@@IAEXPAVQGeoRouteReply@2@@Z @ 416 NONAME ; void QtMobility::QGeoRoutingManagerEngine::finished(class QtMobility::QGeoRouteReply *)
	?resizeEvent@QGraphicsGeoMap@QtMobility@@MAEXPAVQGraphicsSceneResizeEvent@@@Z @ 417 NONAME ; void QtMobility::QGraphicsGeoMap::resizeEvent(class QGraphicsSceneResizeEvent *)
	?clear@QLandmarkIntersectionFilter@QtMobility@@QAEXXZ @ 418 NONAME ; void QtMobility::QLandmarkIntersectionFilter::clear(void)
	??1QLandmarkUnionFilter@QtMobility@@UAE@XZ @ 419 NONAME ; QtMobility::QLandmarkUnionFilter::~QLandmarkUnionFilter(void)
	?setAttribute@QLandmarkAttributeFilter@QtMobility@@QAEXABVQString@@ABVQVariant@@V?$QFlags@W4MatchFlag@QLandmarkFilter@QtMobility@@@@@Z @ 420 NONAME ; void QtMobility::QLandmarkAttributeFilter::setAttribute(class QString const &, class QVariant const &, class QFlags<enum QtMobility::QLandmarkFilter::MatchFlag>)
	?setSorting@QLandmarkFetchRequest@QtMobility@@QAEXABV?$QList@VQLandmarkSortOrder@QtMobility@@@@@Z @ 421 NONAME ; void QtMobility::QLandmarkFetchRequest::setSorting(class QList<class QtMobility::QLandmarkSortOrder> const &)
	?qt_metacast@QGeoSearchManagerEngine@QtMobility@@UAEPAXPBD@Z @ 422 NONAME ; void * QtMobility::QGeoSearchManagerEngine::qt_metacast(char const *)
	??1QLandmarkIdFilter@QtMobility@@UAE@XZ @ 423 NONAME ; QtMobility::QLandmarkIdFilter::~QLandmarkIdFilter(void)
	??0QGeoBoundingBox@QtMobility@@QAE@ABV01@@Z @ 424 NONAME ; QtMobility::QGeoBoundingBox::QGeoBoundingBox(class QtMobility::QGeoBoundingBox const &)
	?trUtf8@QGeoRoutingManager@QtMobility@@SA?AVQString@@PBD0H@Z @ 425 NONAME ; class QString QtMobility::QGeoRoutingManager::trUtf8(char const *, char const *, int)
	?setCenter@QGeoBoundingBox@QtMobility@@QAEXABVQGeoCoordinate@2@@Z @ 426 NONAME ; void QtMobility::QGeoBoundingBox::setCenter(class QtMobility::QGeoCoordinate const &)
	?setFirstRouteSegment@QGeoRoute@QtMobility@@QAEXABVQGeoRouteSegment@2@@Z @ 427 NONAME ; void QtMobility::QGeoRoute::setFirstRouteSegment(class QtMobility::QGeoRouteSegment const &)
	?setOffset@QGeoMapPixmapObject@QtMobility@@QAEXABVQPoint@@@Z @ 428 NONAME ; void QtMobility::QGeoMapPixmapObject::setOffset(class QPoint const &)
	?d_func@QLandmarkCategoryFilter@QtMobility@@ABEPBVQLandmarkCategoryFilterPrivate@2@XZ @ 429 NONAME ; class QtMobility::QLandmarkCategoryFilterPrivate const * QtMobility::QLandmarkCategoryFilter::d_func(void) const
	?setPen@QGeoMapTextObject@QtMobility@@QAEXABVQPen@@@Z @ 430 NONAME ; void QtMobility::QGeoMapTextObject::setPen(class QPen const &)
	??0QLandmarkCategoryFilter@QtMobility@@QAE@ABVQLandmarkCategoryId@1@@Z @ 431 NONAME ; QtMobility::QLandmarkCategoryFilter::QLandmarkCategoryFilter(class QtMobility::QLandmarkCategoryId const &)
	?tileFinished@QGeoTiledMapData@QtMobility@@AAEXXZ @ 432 NONAME ; void QtMobility::QGeoTiledMapData::tileFinished(void)
	?setBottomRight@QGeoMapRectangleObject@QtMobility@@QAEXABVQGeoCoordinate@2@@Z @ 433 NONAME ; void QtMobility::QGeoMapRectangleObject::setBottomRight(class QtMobility::QGeoCoordinate const &)
	?landmarkIds@QLandmarkManager@QtMobility@@QBE?AV?$QList@VQLandmarkId@QtMobility@@@@ABVQLandmarkFilter@2@HHABV?$QList@VQLandmarkSortOrder@QtMobility@@@@@Z @ 434 NONAME ; class QList<class QtMobility::QLandmarkId> QtMobility::QLandmarkManager::landmarkIds(class QtMobility::QLandmarkFilter const &, int, int, class QList<class QtMobility::QLandmarkSortOrder> const &) const
	?supportedSearchTypes@QGeoSearchManagerEngine@QtMobility@@QBE?AV?$QFlags@W4SearchType@QGeoSearchManager@QtMobility@@@@XZ @ 435 NONAME ; class QFlags<enum QtMobility::QGeoSearchManager::SearchType> QtMobility::QGeoSearchManagerEngine::supportedSearchTypes(void) const
	?zoomLevelChanged@QGeoMapObjectInfo@QtMobility@@UAEXM@Z @ 436 NONAME ; void QtMobility::QGeoMapObjectInfo::zoomLevelChanged(float)
	?staticMetaObject@QLandmarkExportRequest@QtMobility@@2UQMetaObject@@B @ 437 NONAME ; struct QMetaObject const QtMobility::QLandmarkExportRequest::staticMetaObject
	?sortOrderSupportLevel@QLandmarkManager@QtMobility@@QBE?AW4SupportLevel@12@ABVQLandmarkSortOrder@2@@Z @ 438 NONAME ; enum QtMobility::QLandmarkManager::SupportLevel QtMobility::QLandmarkManager::sortOrderSupportLevel(class QtMobility::QLandmarkSortOrder const &) const
	??0QGeoRouteSegment@QtMobility@@QAE@XZ @ 439 NONAME ; QtMobility::QGeoRouteSegment::QGeoRouteSegment(void)
	?tr@QGeoSearchReply@QtMobility@@SA?AVQString@@PBD0@Z @ 440 NONAME ; class QString QtMobility::QGeoSearchReply::tr(char const *, char const *)
	??IQtMobility@@YA?BVQLandmarkFilter@0@ABV10@0@Z @ 441 NONAME ; class QtMobility::QLandmarkFilter const QtMobility::operator&(class QtMobility::QLandmarkFilter const &, class QtMobility::QLandmarkFilter const &)
	?isValid@QLandmarkId@QtMobility@@QBE_NXZ @ 442 NONAME ; bool QtMobility::QLandmarkId::isValid(void) const
	?finished@QGeoTiledMapReply@QtMobility@@IAEXXZ @ 443 NONAME ; void QtMobility::QGeoTiledMapReply::finished(void)
	?setRouteId@QGeoRoute@QtMobility@@QAEXABVQString@@@Z @ 444 NONAME ; void QtMobility::QGeoRoute::setRouteId(class QString const &)
	?penChanged@QGeoMapRectangleObject@QtMobility@@IAEXABVQPen@@@Z @ 445 NONAME ; void QtMobility::QGeoMapRectangleObject::penChanged(class QPen const &)
	?d_func@QLandmarkCategoryRemoveRequest@QtMobility@@AAEPAVQLandmarkCategoryRemoveRequestPrivate@2@XZ @ 446 NONAME ; class QtMobility::QLandmarkCategoryRemoveRequestPrivate * QtMobility::QLandmarkCategoryRemoveRequest::d_func(void)
	??0QGeoRoutingManager@QtMobility@@AAE@PAVQGeoRoutingManagerEngine@1@PAVQObject@@@Z @ 447 NONAME ; QtMobility::QGeoRoutingManager::QGeoRoutingManager(class QtMobility::QGeoRoutingManagerEngine *, class QObject *)
	?trUtf8@QGeoRouteReply@QtMobility@@SA?AVQString@@PBD0H@Z @ 448 NONAME ; class QString QtMobility::QGeoRouteReply::trUtf8(char const *, char const *, int)
	?minimumZoomLevel@QGeoMappingManagerEngine@QtMobility@@QBEMXZ @ 449 NONAME ; float QtMobility::QGeoMappingManagerEngine::minimumZoomLevel(void) const
	?tr@QGeoTiledMapData@QtMobility@@SA?AVQString@@PBD0H@Z @ 450 NONAME ; class QString QtMobility::QGeoTiledMapData::tr(char const *, char const *, int)
	?setStreet@QGeoAddress@QtMobility@@QAEXABVQString@@@Z @ 451 NONAME ; void QtMobility::QGeoAddress::setStreet(class QString const &)
	?metaObject@QGeoMapCircleObject@QtMobility@@UBEPBUQMetaObject@@XZ @ 452 NONAME ; struct QMetaObject const * QtMobility::QGeoMapCircleObject::metaObject(void) const
	?staticMetaObject@QGeoMapGroupObject@QtMobility@@2UQMetaObject@@B @ 453 NONAME ; struct QMetaObject const QtMobility::QGeoMapGroupObject::staticMetaObject
	??1QGeoMapPolylineObject@QtMobility@@UAE@XZ @ 454 NONAME ; QtMobility::QGeoMapPolylineObject::~QGeoMapPolylineObject(void)
	?height@QGeoBoundingBox@QtMobility@@QBENXZ @ 455 NONAME ; double QtMobility::QGeoBoundingBox::height(void) const
	?paintMap@QGeoTiledMapData@QtMobility@@MAEXPAVQPainter@@PBVQStyleOptionGraphicsItem@@@Z @ 456 NONAME ; void QtMobility::QGeoTiledMapData::paintMap(class QPainter *, class QStyleOptionGraphicsItem const *)
	?addMapOverlay@QGeoMapData@QtMobility@@QAEXPAVQGeoMapOverlay@2@@Z @ 457 NONAME ; void QtMobility::QGeoMapData::addMapOverlay(class QtMobility::QGeoMapOverlay *)
	?boundingBox@QGeoMapObject@QtMobility@@UBE?AVQGeoBoundingBox@2@XZ @ 458 NONAME ; class QtMobility::QGeoBoundingBox QtMobility::QGeoMapObject::boundingBox(void) const
	?addPlace@QGeoSearchReply@QtMobility@@IAEXABVQGeoPlace@2@@Z @ 459 NONAME ; void QtMobility::QGeoSearchReply::addPlace(class QtMobility::QGeoPlace const &)
	?managerUri@QLandmarkManagerEngine@QtMobility@@QBE?AVQString@@XZ @ 460 NONAME ; class QString QtMobility::QLandmarkManagerEngine::managerUri(void) const
	?additionalLandmarkManagers@QGeoSearchManagerEngine@QtMobility@@QBE?AV?$QList@PAVQLandmarkManager@QtMobility@@@@XZ @ 461 NONAME ; class QList<class QtMobility::QLandmarkManager *> QtMobility::QGeoSearchManagerEngine::additionalLandmarkManagers(void) const
	?localId@QLandmarkCategoryId@QtMobility@@QBE?AVQString@@XZ @ 462 NONAME ; class QString QtMobility::QLandmarkCategoryId::localId(void) const
	?connectivityModeChanged@QGraphicsGeoMap@QtMobility@@IAEXW4ConnectivityMode@12@@Z @ 463 NONAME ; void QtMobility::QGraphicsGeoMap::connectivityModeChanged(enum QtMobility::QGraphicsGeoMap::ConnectivityMode)
	?pathChanged@QGeoMapPolylineObject@QtMobility@@IAEXABV?$QList@VQGeoCoordinate@QtMobility@@@@@Z @ 464 NONAME ; void QtMobility::QGeoMapPolylineObject::pathChanged(class QList<class QtMobility::QGeoCoordinate> const &)
	?getStaticMetaObject@QLandmarkCategoryRemoveRequest@QtMobility@@SAABUQMetaObject@@XZ @ 465 NONAME ; struct QMetaObject const & QtMobility::QLandmarkCategoryRemoveRequest::getStaticMetaObject(void)
	?staticMetaObject@QGeoMapRectangleObject@QtMobility@@2UQMetaObject@@B @ 466 NONAME ; struct QMetaObject const QtMobility::QGeoMapRectangleObject::staticMetaObject
	?supportedSegmentDetails@QGeoRoutingManagerEngine@QtMobility@@QBE?AV?$QFlags@W4SegmentDetail@QGeoRouteRequest@QtMobility@@@@XZ @ 467 NONAME ; class QFlags<enum QtMobility::QGeoRouteRequest::SegmentDetail> QtMobility::QGeoRoutingManagerEngine::supportedSegmentDetails(void) const
	?setCategoryId@QLandmarkCategoryRemoveRequest@QtMobility@@QAEXABVQLandmarkCategoryId@2@@Z @ 468 NONAME ; void QtMobility::QLandmarkCategoryRemoveRequest::setCategoryId(class QtMobility::QLandmarkCategoryId const &)
	??1QGeoBoundingBox@QtMobility@@UAE@XZ @ 469 NONAME ; QtMobility::QGeoBoundingBox::~QGeoBoundingBox(void)
	??8QGeoBoundingCircle@QtMobility@@QBE_NABV01@@Z @ 470 NONAME ; bool QtMobility::QGeoBoundingCircle::operator==(class QtMobility::QGeoBoundingCircle const &) const
	?setTravelTime@QGeoRoute@QtMobility@@QAEXH@Z @ 471 NONAME ; void QtMobility::QGeoRoute::setTravelTime(int)
	?reverseGeocode@QGeoSearchManager@QtMobility@@QAEPAVQGeoSearchReply@2@ABVQGeoCoordinate@2@PAVQGeoBoundingArea@2@@Z @ 472 NONAME ; class QtMobility::QGeoSearchReply * QtMobility::QGeoSearchManager::reverseGeocode(class QtMobility::QGeoCoordinate const &, class QtMobility::QGeoBoundingArea *)
	??_EQLandmarkCategoryFilter@QtMobility@@UAE@I@Z @ 473 NONAME ; QtMobility::QLandmarkCategoryFilter::~QLandmarkCategoryFilter(unsigned int)
	??_EQLandmarkFetchByIdRequest@QtMobility@@UAE@I@Z @ 474 NONAME ; QtMobility::QLandmarkFetchByIdRequest::~QLandmarkFetchByIdRequest(unsigned int)
	?limit@QLandmarkCategoryIdFetchRequest@QtMobility@@QBEHXZ @ 475 NONAME ; int QtMobility::QLandmarkCategoryIdFetchRequest::limit(void) const
	??0QGeoTiledMapRequest@QtMobility@@QAE@XZ @ 476 NONAME ; QtMobility::QGeoTiledMapRequest::QGeoTiledMapRequest(void)
	?trUtf8@QGeoMappingManager@QtMobility@@SA?AVQString@@PBD0H@Z @ 477 NONAME ; class QString QtMobility::QGeoMappingManager::trUtf8(char const *, char const *, int)
	??4QLandmark@QtMobility@@QAEAAV01@ABV01@@Z @ 478 NONAME ; class QtMobility::QLandmark & QtMobility::QLandmark::operator=(class QtMobility::QLandmark const &)
	?trUtf8@QGeoTiledMapReply@QtMobility@@SA?AVQString@@PBD0@Z @ 479 NONAME ; class QString QtMobility::QGeoTiledMapReply::trUtf8(char const *, char const *)
	?getStaticMetaObject@QLandmarkIdFetchRequest@QtMobility@@SAABUQMetaObject@@XZ @ 480 NONAME ; struct QMetaObject const & QtMobility::QLandmarkIdFetchRequest::getStaticMetaObject(void)
	?d_func@QLandmarkFetchRequest@QtMobility@@AAEPAVQLandmarkFetchRequestPrivate@2@XZ @ 481 NONAME ; class QtMobility::QLandmarkFetchRequestPrivate * QtMobility::QLandmarkFetchRequest::d_func(void)
	?isValid@QGeoBoundingBox@QtMobility@@UBE_NXZ @ 482 NONAME ; bool QtMobility::QGeoBoundingBox::isValid(void) const
	??1QLandmarkManagerEngineFactory@QtMobility@@UAE@XZ @ 483 NONAME ; QtMobility::QLandmarkManagerEngineFactory::~QLandmarkManagerEngineFactory(void)
	?getStaticMetaObject@QGeoMapRectangleObject@QtMobility@@SAABUQMetaObject@@XZ @ 484 NONAME ; struct QMetaObject const & QtMobility::QGeoMapRectangleObject::getStaticMetaObject(void)
	?containerObject@QGeoMapData@QtMobility@@IAEPAVQGeoMapObject@2@XZ @ 485 NONAME ; class QtMobility::QGeoMapObject * QtMobility::QGeoMapData::containerObject(void)
	?removeChildObject@QGeoMapGroupObject@QtMobility@@QAEXPAVQGeoMapObject@2@@Z @ 486 NONAME ; void QtMobility::QGeoMapGroupObject::removeChildObject(class QtMobility::QGeoMapObject *)
	?remove@QLandmarkUnionFilter@QtMobility@@QAEXABVQLandmarkFilter@2@@Z @ 487 NONAME ; void QtMobility::QLandmarkUnionFilter::remove(class QtMobility::QLandmarkFilter const &)
	?landmarks@QLandmarkSaveRequest@QtMobility@@QBE?AV?$QList@VQLandmark@QtMobility@@@@XZ @ 488 NONAME ; class QList<class QtMobility::QLandmark> QtMobility::QLandmarkSaveRequest::landmarks(void) const
	?caseSensitivity@QLandmarkNameSort@QtMobility@@QBE?AW4CaseSensitivity@Qt@@XZ @ 489 NONAME ; enum Qt::CaseSensitivity QtMobility::QLandmarkNameSort::caseSensitivity(void) const
	??9QGeoManeuver@QtMobility@@QBE_NABV01@@Z @ 490 NONAME ; bool QtMobility::QGeoManeuver::operator!=(class QtMobility::QGeoManeuver const &) const
	?updateLandmarkFetchByIdRequest@QLandmarkManagerEngine@QtMobility@@SAXPAVQLandmarkFetchByIdRequest@2@ABV?$QList@VQLandmark@QtMobility@@@@W4Error@QLandmarkManager@2@ABVQString@@ABV?$QMap@HW4Error@QLandmarkManager@QtMobility@@@@W4State@QLandmarkAbstractRequest@2@@Z @ 491 NONAME ; void QtMobility::QLandmarkManagerEngine::updateLandmarkFetchByIdRequest(class QtMobility::QLandmarkFetchByIdRequest *, class QList<class QtMobility::QLandmark> const &, enum QtMobility::QLandmarkManager::Error, class QString const &, class QMap<int, enum QtMobility::QLandmarkManager::Error> const &, enum QtMobility::QLandmarkAbstractRequest::State)
	??0QLandmark@QtMobility@@QAE@ABV01@@Z @ 492 NONAME ; QtMobility::QLandmark::QLandmark(class QtMobility::QLandmark const &)
	?setSupportedSegmentDetails@QGeoRoutingManagerEngine@QtMobility@@IAEXV?$QFlags@W4SegmentDetail@QGeoRouteRequest@QtMobility@@@@@Z @ 493 NONAME ; void QtMobility::QGeoRoutingManagerEngine::setSupportedSegmentDetails(class QFlags<enum QtMobility::QGeoRouteRequest::SegmentDetail>)
	?d_func@QLandmarkIdFilter@QtMobility@@AAEPAVQLandmarkIdFilterPrivate@2@XZ @ 494 NONAME ; class QtMobility::QLandmarkIdFilterPrivate * QtMobility::QLandmarkIdFilter::d_func(void)
	??8QLandmarkId@QtMobility@@QBE_NABV01@@Z @ 495 NONAME ; bool QtMobility::QLandmarkId::operator==(class QtMobility::QLandmarkId const &) const
	?setPen@QGeoMapPolylineObject@QtMobility@@QAEXABVQPen@@@Z @ 496 NONAME ; void QtMobility::QGeoMapPolylineObject::setPen(class QPen const &)
	?setSorting@QLandmarkIdFetchRequest@QtMobility@@QAEXABVQLandmarkSortOrder@2@@Z @ 497 NONAME ; void QtMobility::QLandmarkIdFetchRequest::setSorting(class QtMobility::QLandmarkSortOrder const &)
	?isLandmark@QGeoPlace@QtMobility@@QBE_NXZ @ 498 NONAME ; bool QtMobility::QGeoPlace::isLandmark(void) const
	??9QLandmarkId@QtMobility@@QBE_NABV01@@Z @ 499 NONAME ; bool QtMobility::QLandmarkId::operator!=(class QtMobility::QLandmarkId const &) const
	?d_func@QLandmarkUnionFilter@QtMobility@@ABEPBVQLandmarkUnionFilterPrivate@2@XZ @ 500 NONAME ; class QtMobility::QLandmarkUnionFilterPrivate const * QtMobility::QLandmarkUnionFilter::d_func(void) const
	?append@QLandmarkUnionFilter@QtMobility@@QAEXABVQLandmarkFilter@2@@Z @ 501 NONAME ; void QtMobility::QLandmarkUnionFilter::append(class QtMobility::QLandmarkFilter const &)
	?setPostcode@QGeoAddress@QtMobility@@QAEXABVQString@@@Z @ 502 NONAME ; void QtMobility::QGeoAddress::setPostcode(class QString const &)
	??1QLandmarkFilter@QtMobility@@UAE@XZ @ 503 NONAME ; QtMobility::QLandmarkFilter::~QLandmarkFilter(void)
	?addChildObject@QGeoMapGroupObject@QtMobility@@QAEXPAVQGeoMapObject@2@@Z @ 504 NONAME ; void QtMobility::QGeoMapGroupObject::addChildObject(class QtMobility::QGeoMapObject *)
	?path@QGeoRoute@QtMobility@@QBE?AV?$QList@VQGeoCoordinate@QtMobility@@@@XZ @ 505 NONAME ; class QList<class QtMobility::QGeoCoordinate> QtMobility::QGeoRoute::path(void) const
	?importLandmarks@QLandmarkManager@QtMobility@@QAE_NPAVQIODevice@@ABVQString@@W4TransferOption@12@ABVQLandmarkCategoryId@2@@Z @ 506 NONAME ; bool QtMobility::QLandmarkManager::importLandmarks(class QIODevice *, class QString const &, enum QtMobility::QLandmarkManager::TransferOption, class QtMobility::QLandmarkCategoryId const &)
	??0QGeoRouteRequest@QtMobility@@QAE@ABV?$QList@VQGeoCoordinate@QtMobility@@@@@Z @ 507 NONAME ; QtMobility::QGeoRouteRequest::QGeoRouteRequest(class QList<class QtMobility::QGeoCoordinate> const &)
	?d_func@QLandmarkNameFilter@QtMobility@@AAEPAVQLandmarkNameFilterPrivate@2@XZ @ 508 NONAME ; class QtMobility::QLandmarkNameFilterPrivate * QtMobility::QLandmarkNameFilter::d_func(void)
	??0QGeoAddress@QtMobility@@QAE@ABV01@@Z @ 509 NONAME ; QtMobility::QGeoAddress::QGeoAddress(class QtMobility::QGeoAddress const &)
	?supportedTravelModes@QGeoRoutingManagerEngine@QtMobility@@QBE?AV?$QFlags@W4TravelMode@QGeoRouteRequest@QtMobility@@@@XZ @ 510 NONAME ; class QFlags<enum QtMobility::QGeoRouteRequest::TravelMode> QtMobility::QGeoRoutingManagerEngine::supportedTravelModes(void) const
	?qt_metacast@QLandmarkFetchRequest@QtMobility@@UAEPAXPBD@Z @ 511 NONAME ; void * QtMobility::QLandmarkFetchRequest::qt_metacast(char const *)
	?trUtf8@QLandmarkCategoryFetchByIdRequest@QtMobility@@SA?AVQString@@PBD0H@Z @ 512 NONAME ; class QString QtMobility::QLandmarkCategoryFetchByIdRequest::trUtf8(char const *, char const *, int)
	?trUtf8@QLandmarkCategoryFetchByIdRequest@QtMobility@@SA?AVQString@@PBD0@Z @ 513 NONAME ; class QString QtMobility::QLandmarkCategoryFetchByIdRequest::trUtf8(char const *, char const *)
	??1QGeoManeuver@QtMobility@@QAE@XZ @ 514 NONAME ; QtMobility::QGeoManeuver::~QGeoManeuver(void)
	?trUtf8@QGeoMapPolylineObject@QtMobility@@SA?AVQString@@PBD0H@Z @ 515 NONAME ; class QString QtMobility::QGeoMapPolylineObject::trUtf8(char const *, char const *, int)
	?metaObject@QGeoMappingManagerEngine@QtMobility@@UBEPBUQMetaObject@@XZ @ 516 NONAME ; struct QMetaObject const * QtMobility::QGeoMappingManagerEngine::metaObject(void) const
	?append@QLandmarkIdFilter@QtMobility@@QAEXABVQLandmarkId@2@@Z @ 517 NONAME ; void QtMobility::QLandmarkIdFilter::append(class QtMobility::QLandmarkId const &)
	?qt_metacall@QLandmarkExportRequest@QtMobility@@UAEHW4Call@QMetaObject@@HPAPAX@Z @ 518 NONAME ; int QtMobility::QLandmarkExportRequest::qt_metacall(enum QMetaObject::Call, int, void * *)
	?mapObjectsAtScreenPosition@QGraphicsGeoMap@QtMobility@@QBE?AV?$QList@PAVQGeoMapObject@QtMobility@@@@ABVQPointF@@@Z @ 519 NONAME ; class QList<class QtMobility::QGeoMapObject *> QtMobility::QGraphicsGeoMap::mapObjectsAtScreenPosition(class QPointF const &) const
	?d_func@QGeoMapTextObject@QtMobility@@AAEPAVQGeoMapTextObjectPrivate@2@XZ @ 520 NONAME ; class QtMobility::QGeoMapTextObjectPrivate * QtMobility::QGeoMapTextObject::d_func(void)
	?saveLandmarks@QLandmarkManagerEngine@QtMobility@@UAE_NPAV?$QList@VQLandmark@QtMobility@@@@PAV?$QMap@HW4Error@QLandmarkManager@QtMobility@@@@PAW4Error@QLandmarkManager@2@PAVQString@@@Z @ 521 NONAME ; bool QtMobility::QLandmarkManagerEngine::saveLandmarks(class QList<class QtMobility::QLandmark> *, class QMap<int, enum QtMobility::QLandmarkManager::Error> *, enum QtMobility::QLandmarkManager::Error *, class QString *)
	?getStaticMetaObject@QGeoMappingManager@QtMobility@@SAABUQMetaObject@@XZ @ 522 NONAME ; struct QMetaObject const & QtMobility::QGeoMappingManager::getStaticMetaObject(void)
	?setRadius@QGeoMapCircleObject@QtMobility@@QAEXM@Z @ 523 NONAME ; void QtMobility::QGeoMapCircleObject::setRadius(float)
	?landmarks@QLandmarkManagerEngine@QtMobility@@UBE?AV?$QList@VQLandmark@QtMobility@@@@ABV?$QList@VQLandmarkId@QtMobility@@@@PAV?$QMap@HW4Error@QLandmarkManager@QtMobility@@@@PAW4Error@QLandmarkManager@2@PAVQString@@@Z @ 524 NONAME ; class QList<class QtMobility::QLandmark> QtMobility::QLandmarkManagerEngine::landmarks(class QList<class QtMobility::QLandmarkId> const &, class QMap<int, enum QtMobility::QLandmarkManager::Error> *, enum QtMobility::QLandmarkManager::Error *, class QString *) const
	??0QGraphicsGeoMap@QtMobility@@QAE@PAVQGeoMappingManager@1@PAVQGraphicsItem@@@Z @ 525 NONAME ; QtMobility::QGraphicsGeoMap::QGraphicsGeoMap(class QtMobility::QGeoMappingManager *, class QGraphicsItem *)
	?categoryId@QLandmarkCategory@QtMobility@@QBE?AVQLandmarkCategoryId@2@XZ @ 526 NONAME ; class QtMobility::QLandmarkCategoryId QtMobility::QLandmarkCategory::categoryId(void) const
	?trUtf8@QLandmarkIdFetchRequest@QtMobility@@SA?AVQString@@PBD0@Z @ 527 NONAME ; class QString QtMobility::QLandmarkIdFetchRequest::trUtf8(char const *, char const *)
	?clear@QLandmarkUnionFilter@QtMobility@@QAEXXZ @ 528 NONAME ; void QtMobility::QLandmarkUnionFilter::clear(void)
	??1QGeoMapRectangleObject@QtMobility@@UAE@XZ @ 529 NONAME ; QtMobility::QGeoMapRectangleObject::~QGeoMapRectangleObject(void)
	?error@QGeoRoutingManagerEngine@QtMobility@@IAEXPAVQGeoRouteReply@2@W4Error@32@VQString@@@Z @ 530 NONAME ; void QtMobility::QGeoRoutingManagerEngine::error(class QtMobility::QGeoRouteReply *, enum QtMobility::QGeoRouteReply::Error, class QString)
	?supportsReverseGeocoding@QGeoSearchManager@QtMobility@@QBE_NXZ @ 531 NONAME ; bool QtMobility::QGeoSearchManager::supportsReverseGeocoding(void) const
	??0QLandmarkCategorySaveRequest@QtMobility@@QAE@PAVQLandmarkManager@1@PAVQObject@@@Z @ 532 NONAME ; QtMobility::QLandmarkCategorySaveRequest::QLandmarkCategorySaveRequest(class QtMobility::QLandmarkManager *, class QObject *)
	?setFilter@QLandmarkFetchRequest@QtMobility@@QAEXABVQLandmarkFilter@2@@Z @ 533 NONAME ; void QtMobility::QLandmarkFetchRequest::setFilter(class QtMobility::QLandmarkFilter const &)
	?setWaypoints@QGeoRouteRequest@QtMobility@@QAEXABV?$QList@VQGeoCoordinate@QtMobility@@@@@Z @ 534 NONAME ; void QtMobility::QGeoRouteRequest::setWaypoints(class QList<class QtMobility::QGeoCoordinate> const &)
	?united@QGeoBoundingBox@QtMobility@@QBE?AV12@ABV12@@Z @ 535 NONAME ; class QtMobility::QGeoBoundingBox QtMobility::QGeoBoundingBox::united(class QtMobility::QGeoBoundingBox const &) const
	?setMatchFlags@QLandmarkNameFilter@QtMobility@@QAEXV?$QFlags@W4MatchFlag@QLandmarkFilter@QtMobility@@@@@Z @ 536 NONAME ; void QtMobility::QLandmarkNameFilter::setMatchFlags(class QFlags<enum QtMobility::QLandmarkFilter::MatchFlag>)
	?mapObjectsAtScreenPosition@QGeoMapData@QtMobility@@UBE?AV?$QList@PAVQGeoMapObject@QtMobility@@@@ABVQPointF@@@Z @ 537 NONAME ; class QList<class QtMobility::QGeoMapObject *> QtMobility::QGeoMapData::mapObjectsAtScreenPosition(class QPointF const &) const
	?bounds@QGeoMapRectangleObject@QtMobility@@QBE?AVQGeoBoundingBox@2@XZ @ 538 NONAME ; class QtMobility::QGeoBoundingBox QtMobility::QGeoMapRectangleObject::bounds(void) const
	?clearAttributes@QLandmarkAttributeFilter@QtMobility@@QAEXXZ @ 539 NONAME ; void QtMobility::QLandmarkAttributeFilter::clearAttributes(void)
	?qt_metacast@QGeoMapObjectInfo@QtMobility@@UAEPAXPBD@Z @ 540 NONAME ; void * QtMobility::QGeoMapObjectInfo::qt_metacast(char const *)
	?error@QGeoSearchManagerEngine@QtMobility@@IAEXPAVQGeoSearchReply@2@W4Error@32@VQString@@@Z @ 541 NONAME ; void QtMobility::QGeoSearchManagerEngine::error(class QtMobility::QGeoSearchReply *, enum QtMobility::QGeoSearchReply::Error, class QString)
	?setLandmarkId@QLandmarkFetchByIdRequest@QtMobility@@QAEXABVQLandmarkId@2@@Z @ 542 NONAME ; void QtMobility::QLandmarkFetchByIdRequest::setLandmarkId(class QtMobility::QLandmarkId const &)
	?qt_metacast@QGeoRouteReply@QtMobility@@UAEPAXPBD@Z @ 543 NONAME ; void * QtMobility::QGeoRouteReply::qt_metacast(char const *)
	??0QGeoMapOverlay@QtMobility@@QAE@XZ @ 544 NONAME ; QtMobility::QGeoMapOverlay::QGeoMapOverlay(void)
	??0QGeoSearchManager@QtMobility@@AAE@PAVQGeoSearchManagerEngine@1@PAVQObject@@@Z @ 545 NONAME ; QtMobility::QGeoSearchManager::QGeoSearchManager(class QtMobility::QGeoSearchManagerEngine *, class QObject *)
	?staticMetaObject@QGeoMapTextObject@QtMobility@@2UQMetaObject@@B @ 546 NONAME ; struct QMetaObject const QtMobility::QGeoMapTextObject::staticMetaObject
	?path@QGeoMapPolylineObject@QtMobility@@QBE?AV?$QList@VQGeoCoordinate@QtMobility@@@@XZ @ 547 NONAME ; class QList<class QtMobility::QGeoCoordinate> QtMobility::QGeoMapPolylineObject::path(void) const
	?additionalLandmarkManagers@QGeoSearchManager@QtMobility@@QBE?AV?$QList@PAVQLandmarkManager@QtMobility@@@@XZ @ 548 NONAME ; class QList<class QtMobility::QLandmarkManager *> QtMobility::QGeoSearchManager::additionalLandmarkManagers(void) const
	??_EQLandmarkIdFetchRequest@QtMobility@@UAE@I@Z @ 549 NONAME ; QtMobility::QLandmarkIdFetchRequest::~QLandmarkIdFetchRequest(unsigned int)
	?buildUri@QLandmarkManager@QtMobility@@SA?AVQString@@ABV3@ABV?$QMap@VQString@@V1@@@H@Z @ 550 NONAME ; class QString QtMobility::QLandmarkManager::buildUri(class QString const &, class QMap<class QString, class QString> const &, int)
	?removeMapObject@QGraphicsGeoMap@QtMobility@@QAEXPAVQGeoMapObject@2@@Z @ 551 NONAME ; void QtMobility::QGraphicsGeoMap::removeMapObject(class QtMobility::QGeoMapObject *)
	??_EQLandmarkCategoryFetchByIdRequest@QtMobility@@UAE@I@Z @ 552 NONAME ; QtMobility::QLandmarkCategoryFetchByIdRequest::~QLandmarkCategoryFetchByIdRequest(unsigned int)
	?getStaticMetaObject@QGeoMapObject@QtMobility@@SAABUQMetaObject@@XZ @ 553 NONAME ; struct QMetaObject const & QtMobility::QGeoMapObject::getStaticMetaObject(void)
	??_5QGeoBoundingBox@QtMobility@@QAEAAV01@ABV01@@Z @ 554 NONAME ; class QtMobility::QGeoBoundingBox & QtMobility::QGeoBoundingBox::operator|=(class QtMobility::QGeoBoundingBox const &)
	?brush@QGeoMapCircleObject@QtMobility@@QBE?AVQBrush@@XZ @ 555 NONAME ; class QBrush QtMobility::QGeoMapCircleObject::brush(void) const
	?center@QGeoMapData@QtMobility@@UBE?AVQGeoCoordinate@2@XZ @ 556 NONAME ; class QtMobility::QGeoCoordinate QtMobility::QGeoMapData::center(void) const
	?tr@QLandmarkFetchRequest@QtMobility@@SA?AVQString@@PBD0H@Z @ 557 NONAME ; class QString QtMobility::QLandmarkFetchRequest::tr(char const *, char const *, int)
	?setCity@QGeoAddress@QtMobility@@QAEXABVQString@@@Z @ 558 NONAME ; void QtMobility::QGeoAddress::setCity(class QString const &)
	?setZoomLevel@QGeoMapData@QtMobility@@UAEXM@Z @ 559 NONAME ; void QtMobility::QGeoMapData::setZoomLevel(float)
	??4QGeoBoundingCircle@QtMobility@@QAEAAV01@ABV01@@Z @ 560 NONAME ; class QtMobility::QGeoBoundingCircle & QtMobility::QGeoBoundingCircle::operator=(class QtMobility::QGeoBoundingCircle const &)
	??4QLandmarkCategoryId@QtMobility@@QAEAAV01@ABV01@@Z @ 561 NONAME ; class QtMobility::QLandmarkCategoryId & QtMobility::QLandmarkCategoryId::operator=(class QtMobility::QLandmarkCategoryId const &)
	?d_func@QGeoMapRouteObject@QtMobility@@ABEPBVQGeoMapRouteObjectPrivate@2@XZ @ 562 NONAME ; class QtMobility::QGeoMapRouteObjectPrivate const * QtMobility::QGeoMapRouteObject::d_func(void) const
	?tr@QGeoMapGroupObject@QtMobility@@SA?AVQString@@PBD0@Z @ 563 NONAME ; class QString QtMobility::QGeoMapGroupObject::tr(char const *, char const *)
	??0QLandmarkSortOrder@QtMobility@@IAE@PAVQLandmarkSortOrderPrivate@1@@Z @ 564 NONAME ; QtMobility::QLandmarkSortOrder::QLandmarkSortOrder(class QtMobility::QLandmarkSortOrderPrivate *)
	?trUtf8@QLandmarkRemoveRequest@QtMobility@@SA?AVQString@@PBD0H@Z @ 565 NONAME ; class QString QtMobility::QLandmarkRemoveRequest::trUtf8(char const *, char const *, int)
	?mapOverlays@QGraphicsGeoMap@QtMobility@@QBE?AV?$QList@PAVQGeoMapOverlay@QtMobility@@@@XZ @ 566 NONAME ; class QList<class QtMobility::QGeoMapOverlay *> QtMobility::QGraphicsGeoMap::mapOverlays(void) const
	?createMappingManagerEngine@QGeoServiceProviderFactory@QtMobility@@UBEPAVQGeoMappingManagerEngine@2@ABV?$QMap@VQString@@VQVariant@@@@PAW4Error@QGeoServiceProvider@2@PAVQString@@@Z @ 567 NONAME ; class QtMobility::QGeoMappingManagerEngine * QtMobility::QGeoServiceProviderFactory::createMappingManagerEngine(class QMap<class QString, class QVariant> const &, enum QtMobility::QGeoServiceProvider::Error *, class QString *) const
	?trUtf8@QLandmarkCategoryFetchRequest@QtMobility@@SA?AVQString@@PBD0H@Z @ 568 NONAME ; class QString QtMobility::QLandmarkCategoryFetchRequest::trUtf8(char const *, char const *, int)
	?errorMap@QLandmarkManager@QtMobility@@QBE?AV?$QMap@HW4Error@QLandmarkManager@QtMobility@@@@XZ @ 569 NONAME ; class QMap<int, enum QtMobility::QLandmarkManager::Error> QtMobility::QLandmarkManager::errorMap(void) const
	?mapImageData@QGeoTiledMapReply@QtMobility@@QBE?AVQByteArray@@XZ @ 570 NONAME ; class QByteArray QtMobility::QGeoTiledMapReply::mapImageData(void) const
	?type@QGeoMapTextObject@QtMobility@@UBE?AW4Type@QGeoMapObject@2@XZ @ 571 NONAME ; enum QtMobility::QGeoMapObject::Type QtMobility::QGeoMapTextObject::type(void) const
	?landmarks@QLandmarkManager@QtMobility@@QBE?AV?$QList@VQLandmark@QtMobility@@@@ABVQLandmarkFilter@2@HHABVQLandmarkSortOrder@2@@Z @ 572 NONAME ; class QList<class QtMobility::QLandmark> QtMobility::QLandmarkManager::landmarks(class QtMobility::QLandmarkFilter const &, int, int, class QtMobility::QLandmarkSortOrder const &) const
	?Lmx@QLandmarkManager@QtMobility@@2U?$QLatin1Constant@$03@2@B @ 573 NONAME ; struct QtMobility::QLatin1Constant<4> const QtMobility::QLandmarkManager::Lmx
	?limit@QLandmarkCategoryFetchRequest@QtMobility@@QBEHXZ @ 574 NONAME ; int QtMobility::QLandmarkCategoryFetchRequest::limit(void) const
	?setDevice@QLandmarkExportRequest@QtMobility@@QAEXPAVQIODevice@@@Z @ 575 NONAME ; void QtMobility::QLandmarkExportRequest::setDevice(class QIODevice *)
	?defaultLandmarkManager@QGeoSearchManagerEngine@QtMobility@@QBEPAVQLandmarkManager@2@XZ @ 576 NONAME ; class QtMobility::QLandmarkManager * QtMobility::QGeoSearchManagerEngine::defaultLandmarkManager(void) const
	?qt_metacast@QGeoMapPixmapObject@QtMobility@@UAEPAXPBD@Z @ 577 NONAME ; void * QtMobility::QGeoMapPixmapObject::qt_metacast(char const *)
	?staticMetaObject@QGeoMapObject@QtMobility@@2UQMetaObject@@B @ 578 NONAME ; struct QMetaObject const QtMobility::QGeoMapObject::staticMetaObject
	?managerName@QGeoSearchManager@QtMobility@@QBE?AVQString@@XZ @ 579 NONAME ; class QString QtMobility::QGeoSearchManager::managerName(void) const
	?tr@QLandmarkCategoryRemoveRequest@QtMobility@@SA?AVQString@@PBD0@Z @ 580 NONAME ; class QString QtMobility::QLandmarkCategoryRemoveRequest::tr(char const *, char const *)
	?info@QGeoMapObject@QtMobility@@QBEPAVQGeoMapObjectInfo@2@XZ @ 581 NONAME ; class QtMobility::QGeoMapObjectInfo * QtMobility::QGeoMapObject::info(void) const
	??_EQLandmarkManagerEngine@QtMobility@@UAE@I@Z @ 582 NONAME ; QtMobility::QLandmarkManagerEngine::~QLandmarkManagerEngine(unsigned int)
	?metaObject@QGeoMapTextObject@QtMobility@@UBEPBUQMetaObject@@XZ @ 583 NONAME ; struct QMetaObject const * QtMobility::QGeoMapTextObject::metaObject(void) const
	?setPath@QGeoRouteSegment@QtMobility@@QAEXABV?$QList@VQGeoCoordinate@QtMobility@@@@@Z @ 584 NONAME ; void QtMobility::QGeoRouteSegment::setPath(class QList<class QtMobility::QGeoCoordinate> const &)
	?setBlockPropertyChangeSignals@QGeoMapData@QtMobility@@IAEX_N@Z @ 585 NONAME ; void QtMobility::QGeoMapData::setBlockPropertyChangeSignals(bool)
	?trUtf8@QGeoSearchManager@QtMobility@@SA?AVQString@@PBD0@Z @ 586 NONAME ; class QString QtMobility::QGeoSearchManager::trUtf8(char const *, char const *)
	?path@QGeoMapPolygonObject@QtMobility@@QBE?AV?$QList@VQGeoCoordinate@QtMobility@@@@XZ @ 587 NONAME ; class QList<class QtMobility::QGeoCoordinate> QtMobility::QGeoMapPolygonObject::path(void) const
	?url@QLandmark@QtMobility@@QBE?AVQUrl@@XZ @ 588 NONAME ; class QUrl QtMobility::QLandmark::url(void) const
	?staticMetaObject@QLandmarkCategoryFetchByIdRequest@QtMobility@@2UQMetaObject@@B @ 589 NONAME ; struct QMetaObject const QtMobility::QLandmarkCategoryFetchByIdRequest::staticMetaObject
	??0QLandmarkProximityFilter@QtMobility@@QAE@ABVQGeoCoordinate@1@M@Z @ 590 NONAME ; QtMobility::QLandmarkProximityFilter::QLandmarkProximityFilter(class QtMobility::QGeoCoordinate const &, float)
	?tr@QLandmarkManager@QtMobility@@SA?AVQString@@PBD0H@Z @ 591 NONAME ; class QString QtMobility::QLandmarkManager::tr(char const *, char const *, int)
	?locale@QGeoMappingManagerEngine@QtMobility@@QBE?AVQLocale@@XZ @ 592 NONAME ; class QLocale QtMobility::QGeoMappingManagerEngine::locale(void) const
	?trUtf8@QLandmarkManagerEngine@QtMobility@@SA?AVQString@@PBD0@Z @ 593 NONAME ; class QString QtMobility::QLandmarkManagerEngine::trUtf8(char const *, char const *)
	?sorting@QLandmarkCategoryFetchRequest@QtMobility@@QBE?AVQLandmarkNameSort@2@XZ @ 594 NONAME ; class QtMobility::QLandmarkNameSort QtMobility::QLandmarkCategoryFetchRequest::sorting(void) const
	?setWaypoint@QGeoManeuver@QtMobility@@QAEXABVQGeoCoordinate@2@@Z @ 595 NONAME ; void QtMobility::QGeoManeuver::setWaypoint(class QtMobility::QGeoCoordinate const &)
	?getStaticMetaObject@QLandmarkExportRequest@QtMobility@@SAABUQMetaObject@@XZ @ 596 NONAME ; struct QMetaObject const & QtMobility::QLandmarkExportRequest::getStaticMetaObject(void)
	?qt_metacall@QLandmarkCategorySaveRequest@QtMobility@@UAEHW4Call@QMetaObject@@HPAPAX@Z @ 597 NONAME ; int QtMobility::QLandmarkCategorySaveRequest::qt_metacall(enum QMetaObject::Call, int, void * *)
	?setLocale@QGeoRoutingManagerEngine@QtMobility@@QAEXABVQLocale@@@Z @ 598 NONAME ; void QtMobility::QGeoRoutingManagerEngine::setLocale(class QLocale const &)
	?supportedManeuverDetails@QGeoRoutingManager@QtMobility@@QBE?AV?$QFlags@W4ManeuverDetail@QGeoRouteRequest@QtMobility@@@@XZ @ 599 NONAME ; class QFlags<enum QtMobility::QGeoRouteRequest::ManeuverDetail> QtMobility::QGeoRoutingManager::supportedManeuverDetails(void) const
	?center@QGraphicsGeoMap@QtMobility@@QBE?AVQGeoCoordinate@2@XZ @ 600 NONAME ; class QtMobility::QGeoCoordinate QtMobility::QGraphicsGeoMap::center(void) const
	?isFinished@QGeoTiledMapReply@QtMobility@@QBE_NXZ @ 601 NONAME ; bool QtMobility::QGeoTiledMapReply::isFinished(void) const
	?supportedRouteOptimizations@QGeoRoutingManagerEngine@QtMobility@@QBE?AV?$QFlags@W4RouteOptimization@QGeoRouteRequest@QtMobility@@@@XZ @ 602 NONAME ; class QFlags<enum QtMobility::QGeoRouteRequest::RouteOptimization> QtMobility::QGeoRoutingManagerEngine::supportedRouteOptimizations(void) const
	?direction@QGeoManeuver@QtMobility@@QBE?AW4InstructionDirection@12@XZ @ 603 NONAME ; enum QtMobility::QGeoManeuver::InstructionDirection QtMobility::QGeoManeuver::direction(void) const
	?setFormat@QLandmarkExportRequest@QtMobility@@QAEXABVQString@@@Z @ 604 NONAME ; void QtMobility::QLandmarkExportRequest::setFormat(class QString const &)
	?metaObject@QLandmarkCategoryIdFetchRequest@QtMobility@@UBEPBUQMetaObject@@XZ @ 605 NONAME ; struct QMetaObject const * QtMobility::QLandmarkCategoryIdFetchRequest::metaObject(void) const
	?getStaticMetaObject@QGeoMapRouteObject@QtMobility@@SAABUQMetaObject@@XZ @ 606 NONAME ; struct QMetaObject const & QtMobility::QGeoMapRouteObject::getStaticMetaObject(void)
	?bottomRightChanged@QGeoMapRectangleObject@QtMobility@@IAEXABVQGeoCoordinate@2@@Z @ 607 NONAME ; void QtMobility::QGeoMapRectangleObject::bottomRightChanged(class QtMobility::QGeoCoordinate const &)
	?staticMetaObject@QGeoMapRouteObject@QtMobility@@2UQMetaObject@@B @ 608 NONAME ; struct QMetaObject const QtMobility::QGeoMapRouteObject::staticMetaObject
	?trUtf8@QGeoMapObject@QtMobility@@SA?AVQString@@PBD0H@Z @ 609 NONAME ; class QString QtMobility::QGeoMapObject::trUtf8(char const *, char const *, int)
	?setBrush@QGeoMapCircleObject@QtMobility@@QAEXABVQBrush@@@Z @ 610 NONAME ; void QtMobility::QGeoMapCircleObject::setBrush(class QBrush const &)
	??_EQGeoMapRouteObject@QtMobility@@UAE@I@Z @ 611 NONAME ; QtMobility::QGeoMapRouteObject::~QGeoMapRouteObject(unsigned int)
	?error@QGeoRouteReply@QtMobility@@QBE?AW4Error@12@XZ @ 612 NONAME ; enum QtMobility::QGeoRouteReply::Error QtMobility::QGeoRouteReply::error(void) const
	?Kmz@QLandmarkManager@QtMobility@@2U?$QLatin1Constant@$03@2@B @ 613 NONAME ; struct QtMobility::QLatin1Constant<4> const QtMobility::QLandmarkManager::Kmz
	??0QLandmarkBoxFilter@QtMobility@@QAE@ABVQLandmarkFilter@1@@Z @ 614 NONAME ; QtMobility::QLandmarkBoxFilter::QLandmarkBoxFilter(class QtMobility::QLandmarkFilter const &)
	?isValid@QGeoBoundingCircle@QtMobility@@UBE_NXZ @ 615 NONAME ; bool QtMobility::QGeoBoundingCircle::isValid(void) const
	?updateLandmarkCategoryRemoveRequest@QLandmarkManagerEngine@QtMobility@@SAXPAVQLandmarkCategoryRemoveRequest@2@W4Error@QLandmarkManager@2@ABVQString@@ABV?$QMap@HW4Error@QLandmarkManager@QtMobility@@@@W4State@QLandmarkAbstractRequest@2@@Z @ 616 NONAME ; void QtMobility::QLandmarkManagerEngine::updateLandmarkCategoryRemoveRequest(class QtMobility::QLandmarkCategoryRemoveRequest *, enum QtMobility::QLandmarkManager::Error, class QString const &, class QMap<int, enum QtMobility::QLandmarkManager::Error> const &, enum QtMobility::QLandmarkAbstractRequest::State)
	?trUtf8@QGeoMappingManagerEngine@QtMobility@@SA?AVQString@@PBD0@Z @ 617 NONAME ; class QString QtMobility::QGeoMappingManagerEngine::trUtf8(char const *, char const *)
	?type@QLandmarkAbstractRequest@QtMobility@@QBE?AW4RequestType@12@XZ @ 618 NONAME ; enum QtMobility::QLandmarkAbstractRequest::RequestType QtMobility::QLandmarkAbstractRequest::type(void) const
	?metaObject@QLandmarkManagerEngine@QtMobility@@UBEPBUQMetaObject@@XZ @ 619 NONAME ; struct QMetaObject const * QtMobility::QLandmarkManagerEngine::metaObject(void) const
	??_EQLandmarkImportRequest@QtMobility@@UAE@I@Z @ 620 NONAME ; QtMobility::QLandmarkImportRequest::~QLandmarkImportRequest(unsigned int)
	?d_func@QGeoMapGroupObject@QtMobility@@ABEPBVQGeoMapGroupObjectPrivate@2@XZ @ 621 NONAME ; class QtMobility::QGeoMapGroupObjectPrivate const * QtMobility::QGeoMapGroupObject::d_func(void) const
	?tr@QGeoSearchManager@QtMobility@@SA?AVQString@@PBD0H@Z @ 622 NONAME ; class QString QtMobility::QGeoSearchManager::tr(char const *, char const *, int)
	?getStaticMetaObject@QGeoRouteReply@QtMobility@@SAABUQMetaObject@@XZ @ 623 NONAME ; struct QMetaObject const & QtMobility::QGeoRouteReply::getStaticMetaObject(void)
	??1QGeoTiledMapRequest@QtMobility@@QAE@XZ @ 624 NONAME ; QtMobility::QGeoTiledMapRequest::~QGeoTiledMapRequest(void)
	?topLeftChanged@QGeoMapRectangleObject@QtMobility@@IAEXABVQGeoCoordinate@2@@Z @ 625 NONAME ; void QtMobility::QGeoMapRectangleObject::topLeftChanged(class QtMobility::QGeoCoordinate const &)
	?setCenter@QGeoMapData@QtMobility@@UAEXABVQGeoCoordinate@2@@Z @ 626 NONAME ; void QtMobility::QGeoMapData::setCenter(class QtMobility::QGeoCoordinate const &)
	?maneuver@QGeoRouteSegment@QtMobility@@QBE?AVQGeoManeuver@2@XZ @ 627 NONAME ; class QtMobility::QGeoManeuver QtMobility::QGeoRouteSegment::maneuver(void) const
	?getStaticMetaObject@QGeoTiledMapReply@QtMobility@@SAABUQMetaObject@@XZ @ 628 NONAME ; struct QMetaObject const & QtMobility::QGeoTiledMapReply::getStaticMetaObject(void)
	??_EQLandmarkNameFilter@QtMobility@@UAE@I@Z @ 629 NONAME ; QtMobility::QLandmarkNameFilter::~QLandmarkNameFilter(unsigned int)
	?landmarksAdded@QLandmarkManager@QtMobility@@IAEXABV?$QList@VQLandmarkId@QtMobility@@@@@Z @ 630 NONAME ; void QtMobility::QLandmarkManager::landmarksAdded(class QList<class QtMobility::QLandmarkId> const &)
	??1QGeoServiceProvider@QtMobility@@QAE@XZ @ 631 NONAME ; QtMobility::QGeoServiceProvider::~QGeoServiceProvider(void)
	?Kml@QLandmarkManager@QtMobility@@2U?$QLatin1Constant@$03@2@B @ 632 NONAME ; struct QtMobility::QLatin1Constant<4> const QtMobility::QLandmarkManager::Kml
	?brushChanged@QGeoMapTextObject@QtMobility@@IAEXABVQBrush@@@Z @ 633 NONAME ; void QtMobility::QGeoMapTextObject::brushChanged(class QBrush const &)
	?setState@QGeoAddress@QtMobility@@QAEXABVQString@@@Z @ 634 NONAME ; void QtMobility::QGeoAddress::setState(class QString const &)
	?setLandmarkIds@QLandmarkFetchByIdRequest@QtMobility@@QAEXABV?$QList@VQLandmarkId@QtMobility@@@@@Z @ 635 NONAME ; void QtMobility::QLandmarkFetchByIdRequest::setLandmarkIds(class QList<class QtMobility::QLandmarkId> const &)
	?metaObject@QGeoMapGroupObject@QtMobility@@UBEPBUQMetaObject@@XZ @ 636 NONAME ; struct QMetaObject const * QtMobility::QGeoMapGroupObject::metaObject(void) const
	??4QLandmarkFilter@QtMobility@@QAEAAV01@ABV01@@Z @ 637 NONAME ; class QtMobility::QLandmarkFilter & QtMobility::QLandmarkFilter::operator=(class QtMobility::QLandmarkFilter const &)
	?setBottomRight@QGeoBoundingBox@QtMobility@@QAEXABVQGeoCoordinate@2@@Z @ 638 NONAME ; void QtMobility::QGeoBoundingBox::setBottomRight(class QtMobility::QGeoCoordinate const &)
	??9QLandmarkCategory@QtMobility@@QBE_NABV01@@Z @ 639 NONAME ; bool QtMobility::QLandmarkCategory::operator!=(class QtMobility::QLandmarkCategory const &) const
	?tr@QLandmarkFetchByIdRequest@QtMobility@@SA?AVQString@@PBD0H@Z @ 640 NONAME ; class QString QtMobility::QLandmarkFetchByIdRequest::tr(char const *, char const *, int)
	?exportLandmarks@QLandmarkManager@QtMobility@@QBE_NPAVQIODevice@@ABVQString@@ABV?$QList@VQLandmarkId@QtMobility@@@@W4TransferOption@12@@Z @ 641 NONAME ; bool QtMobility::QLandmarkManager::exportLandmarks(class QIODevice *, class QString const &, class QList<class QtMobility::QLandmarkId> const &, enum QtMobility::QLandmarkManager::TransferOption) const
	?qt_metacall@QLandmarkFetchRequest@QtMobility@@UAEHW4Call@QMetaObject@@HPAPAX@Z @ 642 NONAME ; int QtMobility::QLandmarkFetchRequest::qt_metacall(enum QMetaObject::Call, int, void * *)
	?isSelected@QGeoMapObject@QtMobility@@QBE_NXZ @ 643 NONAME ; bool QtMobility::QGeoMapObject::isSelected(void) const
	??0QLandmarkId@QtMobility@@QAE@XZ @ 644 NONAME ; QtMobility::QLandmarkId::QLandmarkId(void)
	?d_func@QGeoMapPixmapObject@QtMobility@@AAEPAVQGeoMapPixmapObjectPrivate@2@XZ @ 645 NONAME ; class QtMobility::QGeoMapPixmapObjectPrivate * QtMobility::QGeoMapPixmapObject::d_func(void)
	??0QGeoRouteSegment@QtMobility@@QAE@ABV01@@Z @ 646 NONAME ; QtMobility::QGeoRouteSegment::QGeoRouteSegment(class QtMobility::QGeoRouteSegment const &)
	??_EQLandmarkIdFilter@QtMobility@@UAE@I@Z @ 647 NONAME ; QtMobility::QLandmarkIdFilter::~QLandmarkIdFilter(unsigned int)
	??_EQLandmarkManager@QtMobility@@UAE@I@Z @ 648 NONAME ; QtMobility::QLandmarkManager::~QLandmarkManager(unsigned int)
	?centerChanged@QGeoMapData@QtMobility@@IAEXABVQGeoCoordinate@2@@Z @ 649 NONAME ; void QtMobility::QGeoMapData::centerChanged(class QtMobility::QGeoCoordinate const &)
	?setRadius@QLandmark@QtMobility@@QAEXM@Z @ 650 NONAME ; void QtMobility::QLandmark::setRadius(float)
	??0QLandmarkAbstractRequest@QtMobility@@QAE@PAVQLandmarkManager@1@PAVQObject@@@Z @ 651 NONAME ; QtMobility::QLandmarkAbstractRequest::QLandmarkAbstractRequest(class QtMobility::QLandmarkManager *, class QObject *)
	?numberAlternativeRoutes@QGeoRouteRequest@QtMobility@@QBEHXZ @ 652 NONAME ; int QtMobility::QGeoRouteRequest::numberAlternativeRoutes(void) const
	?d_func@QGeoMappingManagerEngine@QtMobility@@AAEPAVQGeoMappingManagerEnginePrivate@2@XZ @ 653 NONAME ; class QtMobility::QGeoMappingManagerEnginePrivate * QtMobility::QGeoMappingManagerEngine::d_func(void)
	?trUtf8@QLandmarkCategorySaveRequest@QtMobility@@SA?AVQString@@PBD0@Z @ 654 NONAME ; class QString QtMobility::QLandmarkCategorySaveRequest::trUtf8(char const *, char const *)
	??0QGeoPlace@QtMobility@@QAE@XZ @ 655 NONAME ; QtMobility::QGeoPlace::QGeoPlace(void)
	?trUtf8@QLandmarkImportRequest@QtMobility@@SA?AVQString@@PBD0@Z @ 656 NONAME ; class QString QtMobility::QLandmarkImportRequest::trUtf8(char const *, char const *)
	??1QGraphicsGeoMap@QtMobility@@UAE@XZ @ 657 NONAME ; QtMobility::QGraphicsGeoMap::~QGraphicsGeoMap(void)
	?updateLandmarkImportRequest@QLandmarkManagerEngine@QtMobility@@SAXPAVQLandmarkImportRequest@2@ABV?$QList@VQLandmarkId@QtMobility@@@@W4Error@QLandmarkManager@2@ABVQString@@W4State@QLandmarkAbstractRequest@2@@Z @ 658 NONAME ; void QtMobility::QLandmarkManagerEngine::updateLandmarkImportRequest(class QtMobility::QLandmarkImportRequest *, class QList<class QtMobility::QLandmarkId> const &, enum QtMobility::QLandmarkManager::Error, class QString const &, enum QtMobility::QLandmarkAbstractRequest::State)
	?tr@QGeoMapGroupObject@QtMobility@@SA?AVQString@@PBD0H@Z @ 659 NONAME ; class QString QtMobility::QGeoMapGroupObject::tr(char const *, char const *, int)
	?isFinished@QGeoSearchReply@QtMobility@@QBE_NXZ @ 660 NONAME ; bool QtMobility::QGeoSearchReply::isFinished(void) const
	??9QGeoRoute@QtMobility@@QBE_NABV01@@Z @ 661 NONAME ; bool QtMobility::QGeoRoute::operator!=(class QtMobility::QGeoRoute const &) const
	??1QGeoTiledMappingManagerEngine@QtMobility@@UAE@XZ @ 662 NONAME ; QtMobility::QGeoTiledMappingManagerEngine::~QGeoTiledMappingManagerEngine(void)
	?intersects@QGeoBoundingBox@QtMobility@@QBE_NABV12@@Z @ 663 NONAME ; bool QtMobility::QGeoBoundingBox::intersects(class QtMobility::QGeoBoundingBox const &) const
	?excludeAreas@QGeoRouteRequest@QtMobility@@QBE?AV?$QList@VQGeoBoundingBox@QtMobility@@@@XZ @ 664 NONAME ; class QList<class QtMobility::QGeoBoundingBox> QtMobility::QGeoRouteRequest::excludeAreas(void) const
	??0QGeoTiledMapReply@QtMobility@@QAE@ABVQGeoTiledMapRequest@1@PAVQObject@@@Z @ 665 NONAME ; QtMobility::QGeoTiledMapReply::QGeoTiledMapReply(class QtMobility::QGeoTiledMapRequest const &, class QObject *)
	?d_func@QGeoPlace@QtMobility@@ABEPBVQGeoPlacePrivate@2@XZ @ 666 NONAME ; class QtMobility::QGeoPlacePrivate const * QtMobility::QGeoPlace::d_func(void) const
	??1QLandmarkManagerEngine@QtMobility@@UAE@XZ @ 667 NONAME ; QtMobility::QLandmarkManagerEngine::~QLandmarkManagerEngine(void)
	?categoryIds@QLandmarkCategoryRemoveRequest@QtMobility@@QBE?AV?$QList@VQLandmarkCategoryId@QtMobility@@@@XZ @ 668 NONAME ; class QList<class QtMobility::QLandmarkCategoryId> QtMobility::QLandmarkCategoryRemoveRequest::categoryIds(void) const
	?qt_metacast@QGeoMapTextObject@QtMobility@@UAEPAXPBD@Z @ 669 NONAME ; void * QtMobility::QGeoMapTextObject::qt_metacast(char const *)
	??0QLandmarkAbstractRequest@QtMobility@@IAE@PAVQLandmarkAbstractRequestPrivate@1@PAVQObject@@@Z @ 670 NONAME ; QtMobility::QLandmarkAbstractRequest::QLandmarkAbstractRequest(class QtMobility::QLandmarkAbstractRequestPrivate *, class QObject *)
	?state@QLandmarkAbstractRequest@QtMobility@@QAE?AW4State@12@XZ @ 671 NONAME ; enum QtMobility::QLandmarkAbstractRequest::State QtMobility::QLandmarkAbstractRequest::state(void)
	?setManagerName@QGeoSearchManagerEngine@QtMobility@@AAEXABVQString@@@Z @ 672 NONAME ; void QtMobility::QGeoSearchManagerEngine::setManagerName(class QString const &)
	??4QGeoTiledMapRequest@QtMobility@@QAEAAV01@ABV01@@Z @ 673 NONAME ; class QtMobility::QGeoTiledMapRequest & QtMobility::QGeoTiledMapRequest::operator=(class QtMobility::QGeoTiledMapRequest const &)
	?tr@QGeoRoutingManager@QtMobility@@SA?AVQString@@PBD0@Z @ 674 NONAME ; class QString QtMobility::QGeoRoutingManager::tr(char const *, char const *)
	?setName@QLandmarkCategory@QtMobility@@QAEXABVQString@@@Z @ 675 NONAME ; void QtMobility::QLandmarkCategory::setName(class QString const &)
	??_EQGeoTiledMappingManagerEngine@QtMobility@@UAE@I@Z @ 676 NONAME ; QtMobility::QGeoTiledMappingManagerEngine::~QGeoTiledMappingManagerEngine(unsigned int)
	?qt_metacast@QLandmarkFetchByIdRequest@QtMobility@@UAEPAXPBD@Z @ 677 NONAME ; void * QtMobility::QLandmarkFetchByIdRequest::qt_metacast(char const *)
	?setDirection@QGeoManeuver@QtMobility@@QAEXW4InstructionDirection@12@@Z @ 678 NONAME ; void QtMobility::QGeoManeuver::setDirection(enum QtMobility::QGeoManeuver::InstructionDirection)
	?tr@QLandmarkCategoryFetchByIdRequest@QtMobility@@SA?AVQString@@PBD0@Z @ 679 NONAME ; class QString QtMobility::QLandmarkCategoryFetchByIdRequest::tr(char const *, char const *)
	?setFinished@QGeoTiledMapReply@QtMobility@@IAEX_N@Z @ 680 NONAME ; void QtMobility::QGeoTiledMapReply::setFinished(bool)
	?setError@QGeoSearchReply@QtMobility@@IAEXW4Error@12@ABVQString@@@Z @ 681 NONAME ; void QtMobility::QGeoSearchReply::setError(enum QtMobility::QGeoSearchReply::Error, class QString const &)
	?d_func@QLandmarkSaveRequest@QtMobility@@AAEPAVQLandmarkSaveRequestPrivate@2@XZ @ 682 NONAME ; class QtMobility::QLandmarkSaveRequestPrivate * QtMobility::QLandmarkSaveRequest::d_func(void)
	?errorString@QGeoRouteReply@QtMobility@@QBE?AVQString@@XZ @ 683 NONAME ; class QString QtMobility::QGeoRouteReply::errorString(void) const
	?penChanged@QGeoMapTextObject@QtMobility@@IAEXABVQPen@@@Z @ 684 NONAME ; void QtMobility::QGeoMapTextObject::penChanged(class QPen const &)
	?setRequest@QGeoRoute@QtMobility@@QAEXABVQGeoRouteRequest@2@@Z @ 685 NONAME ; void QtMobility::QGeoRoute::setRequest(class QtMobility::QGeoRouteRequest const &)
	?categories@QLandmarkManager@QtMobility@@QBE?AV?$QList@VQLandmarkCategory@QtMobility@@@@HHABVQLandmarkNameSort@2@@Z @ 686 NONAME ; class QList<class QtMobility::QLandmarkCategory> QtMobility::QLandmarkManager::categories(int, int, class QtMobility::QLandmarkNameSort const &) const
	?offset@QLandmarkIdFetchRequest@QtMobility@@QBEHXZ @ 687 NONAME ; int QtMobility::QLandmarkIdFetchRequest::offset(void) const
	??1QGeoMapData@QtMobility@@UAE@XZ @ 688 NONAME ; QtMobility::QGeoMapData::~QGeoMapData(void)
	?setCenter@QGeoBoundingCircle@QtMobility@@QAEXABVQGeoCoordinate@2@@Z @ 689 NONAME ; void QtMobility::QGeoBoundingCircle::setCenter(class QtMobility::QGeoCoordinate const &)
	?updateRoute@QGeoRoutingManager@QtMobility@@QAEPAVQGeoRouteReply@2@ABVQGeoRoute@2@ABVQGeoCoordinate@2@@Z @ 690 NONAME ; class QtMobility::QGeoRouteReply * QtMobility::QGeoRoutingManager::updateRoute(class QtMobility::QGeoRoute const &, class QtMobility::QGeoCoordinate const &)
	??0QLandmarkFilter@QtMobility@@IAE@PAVQLandmarkFilterPrivate@1@@Z @ 691 NONAME ; QtMobility::QLandmarkFilter::QLandmarkFilter(class QtMobility::QLandmarkFilterPrivate *)
	?qt_metacall@QGeoMapObject@QtMobility@@UAEHW4Call@QMetaObject@@HPAPAX@Z @ 692 NONAME ; int QtMobility::QGeoMapObject::qt_metacall(enum QMetaObject::Call, int, void * *)
	??_EQGeoMapObject@QtMobility@@UAE@I@Z @ 693 NONAME ; QtMobility::QGeoMapObject::~QGeoMapObject(unsigned int)
	?qt_metacall@QLandmarkAbstractRequest@QtMobility@@UAEHW4Call@QMetaObject@@HPAPAX@Z @ 694 NONAME ; int QtMobility::QLandmarkAbstractRequest::qt_metacall(enum QMetaObject::Call, int, void * *)
	?textChanged@QGeoMapTextObject@QtMobility@@IAEXABVQString@@@Z @ 695 NONAME ; void QtMobility::QGeoMapTextObject::textChanged(class QString const &)
	?metaObject@QGeoTiledMapReply@QtMobility@@UBEPBUQMetaObject@@XZ @ 696 NONAME ; struct QMetaObject const * QtMobility::QGeoTiledMapReply::metaObject(void) const
	?errorString@QGeoTiledMapReply@QtMobility@@QBE?AVQString@@XZ @ 697 NONAME ; class QString QtMobility::QGeoTiledMapReply::errorString(void) const
	?setManagerVersion@QGeoSearchManagerEngine@QtMobility@@AAEXH@Z @ 698 NONAME ; void QtMobility::QGeoSearchManagerEngine::setManagerVersion(int)
	?type@QLandmarkSortOrder@QtMobility@@QBE?AW4SortType@12@XZ @ 699 NONAME ; enum QtMobility::QLandmarkSortOrder::SortType QtMobility::QLandmarkSortOrder::type(void) const
	?request@QGeoTiledMapReply@QtMobility@@QBE?AVQGeoTiledMapRequest@2@XZ @ 700 NONAME ; class QtMobility::QGeoTiledMapRequest QtMobility::QGeoTiledMapReply::request(void) const
	??0QGeoTiledMapReply@QtMobility@@QAE@W4Error@01@ABVQString@@PAVQObject@@@Z @ 701 NONAME ; QtMobility::QGeoTiledMapReply::QGeoTiledMapReply(enum QtMobility::QGeoTiledMapReply::Error, class QString const &, class QObject *)
	?metaObject@QLandmarkCategoryRemoveRequest@QtMobility@@UBEPBUQMetaObject@@XZ @ 702 NONAME ; struct QMetaObject const * QtMobility::QLandmarkCategoryRemoveRequest::metaObject(void) const
	?zoomLevelChanged@QGraphicsGeoMap@QtMobility@@IAEXM@Z @ 703 NONAME ; void QtMobility::QGraphicsGeoMap::zoomLevelChanged(float)
	?d_func@QLandmarkNameFilter@QtMobility@@ABEPBVQLandmarkNameFilterPrivate@2@XZ @ 704 NONAME ; class QtMobility::QLandmarkNameFilterPrivate const * QtMobility::QLandmarkNameFilter::d_func(void) const
	?firstRouteSegment@QGeoRoute@QtMobility@@QBE?AVQGeoRouteSegment@2@XZ @ 705 NONAME ; class QtMobility::QGeoRouteSegment QtMobility::QGeoRoute::firstRouteSegment(void) const
	?radius@QGeoMapCircleObject@QtMobility@@QBEMXZ @ 706 NONAME ; float QtMobility::QGeoMapCircleObject::radius(void) const
	?updateLandmarkSaveRequest@QLandmarkManagerEngine@QtMobility@@SAXPAVQLandmarkSaveRequest@2@ABV?$QList@VQLandmark@QtMobility@@@@W4Error@QLandmarkManager@2@ABVQString@@ABV?$QMap@HW4Error@QLandmarkManager@QtMobility@@@@W4State@QLandmarkAbstractRequest@2@@Z @ 707 NONAME ; void QtMobility::QLandmarkManagerEngine::updateLandmarkSaveRequest(class QtMobility::QLandmarkSaveRequest *, class QList<class QtMobility::QLandmark> const &, enum QtMobility::QLandmarkManager::Error, class QString const &, class QMap<int, enum QtMobility::QLandmarkManager::Error> const &, enum QtMobility::QLandmarkAbstractRequest::State)
	??_EQLandmarkFilter@QtMobility@@UAE@I@Z @ 708 NONAME ; QtMobility::QLandmarkFilter::~QLandmarkFilter(unsigned int)
	?worldReferenceViewportRect@QGeoTiledMapData@QtMobility@@QBE?AVQRect@@XZ @ 709 NONAME ; class QRect QtMobility::QGeoTiledMapData::worldReferenceViewportRect(void) const
	?errorString@QLandmarkManager@QtMobility@@QBE?AVQString@@XZ @ 710 NONAME ; class QString QtMobility::QLandmarkManager::errorString(void) const
	?supportedRouteOptimizations@QGeoRoutingManager@QtMobility@@QBE?AV?$QFlags@W4RouteOptimization@QGeoRouteRequest@QtMobility@@@@XZ @ 711 NONAME ; class QFlags<enum QtMobility::QGeoRouteRequest::RouteOptimization> QtMobility::QGeoRoutingManager::supportedRouteOptimizations(void) const
	?managerName@QLandmarkManagerEngine@QtMobility@@UBE?AVQString@@XZ @ 712 NONAME ; class QString QtMobility::QLandmarkManagerEngine::managerName(void) const
	?setExcludeAreas@QGeoRouteRequest@QtMobility@@QAEXABV?$QList@VQGeoBoundingBox@QtMobility@@@@@Z @ 713 NONAME ; void QtMobility::QGeoRouteRequest::setExcludeAreas(class QList<class QtMobility::QGeoBoundingBox> const &)
	?landmarkIds@QLandmarkIdFetchRequest@QtMobility@@QBE?AV?$QList@VQLandmarkId@QtMobility@@@@XZ @ 714 NONAME ; class QList<class QtMobility::QLandmarkId> QtMobility::QLandmarkIdFetchRequest::landmarkIds(void) const
	?supportsExcludeAreas@QGeoRoutingManager@QtMobility@@QBE_NXZ @ 715 NONAME ; bool QtMobility::QGeoRoutingManager::supportsExcludeAreas(void) const
	?setPixmap@QGeoMapPixmapObject@QtMobility@@QAEXABVQPixmap@@@Z @ 716 NONAME ; void QtMobility::QGeoMapPixmapObject::setPixmap(class QPixmap const &)
	?boundingCircle@QLandmarkProximityFilter@QtMobility@@QAE?AVQGeoBoundingCircle@2@XZ @ 717 NONAME ; class QtMobility::QGeoBoundingCircle QtMobility::QLandmarkProximityFilter::boundingCircle(void)
	?mapObjectsInViewport@QGraphicsGeoMap@QtMobility@@QBE?AV?$QList@PAVQGeoMapObject@QtMobility@@@@XZ @ 718 NONAME ; class QList<class QtMobility::QGeoMapObject *> QtMobility::QGraphicsGeoMap::mapObjectsInViewport(void) const
	??1QGeoRouteRequest@QtMobility@@QAE@XZ @ 719 NONAME ; QtMobility::QGeoRouteRequest::~QGeoRouteRequest(void)
	?tr@QGeoTiledMappingManagerEngine@QtMobility@@SA?AVQString@@PBD0H@Z @ 720 NONAME ; class QString QtMobility::QGeoTiledMappingManagerEngine::tr(char const *, char const *, int)
	?setCategoryId@QLandmarkCategory@QtMobility@@QAEXABVQLandmarkCategoryId@2@@Z @ 721 NONAME ; void QtMobility::QLandmarkCategory::setCategoryId(class QtMobility::QLandmarkCategoryId const &)
	?mapObjectsInScreenRect@QGeoMapData@QtMobility@@UBE?AV?$QList@PAVQGeoMapObject@QtMobility@@@@ABVQRectF@@@Z @ 722 NONAME ; class QList<class QtMobility::QGeoMapObject *> QtMobility::QGeoMapData::mapObjectsInScreenRect(class QRectF const &) const
	?fileName@QLandmarkExportRequest@QtMobility@@QBE?AVQString@@XZ @ 723 NONAME ; class QString QtMobility::QLandmarkExportRequest::fileName(void) const
	?d_func@QLandmarkFetchByIdRequest@QtMobility@@ABEPBVQLandmarkFetchByIdRequestPrivate@2@XZ @ 724 NONAME ; class QtMobility::QLandmarkFetchByIdRequestPrivate const * QtMobility::QLandmarkFetchByIdRequest::d_func(void) const
	?viewport@QGeoTiledMapData@QtMobility@@UBE?AVQGeoBoundingBox@2@XZ @ 725 NONAME ; class QtMobility::QGeoBoundingBox QtMobility::QGeoTiledMapData::viewport(void) const
	?text@QGeoMapTextObject@QtMobility@@QBE?AVQString@@XZ @ 726 NONAME ; class QString QtMobility::QGeoMapTextObject::text(void) const
	?metaObject@QLandmarkImportRequest@QtMobility@@UBEPBUQMetaObject@@XZ @ 727 NONAME ; struct QMetaObject const * QtMobility::QLandmarkImportRequest::metaObject(void) const
	?setFeatureWeight@QGeoRouteRequest@QtMobility@@QAEXW4FeatureType@12@W4FeatureWeight@12@@Z @ 728 NONAME ; void QtMobility::QGeoRouteRequest::setFeatureWeight(enum QtMobility::QGeoRouteRequest::FeatureType, enum QtMobility::QGeoRouteRequest::FeatureWeight)
	?supportedManeuverDetails@QGeoRoutingManagerEngine@QtMobility@@QBE?AV?$QFlags@W4ManeuverDetail@QGeoRouteRequest@QtMobility@@@@XZ @ 729 NONAME ; class QFlags<enum QtMobility::QGeoRouteRequest::ManeuverDetail> QtMobility::QGeoRoutingManagerEngine::supportedManeuverDetails(void) const
	?setZoomLevel@QGraphicsGeoMap@QtMobility@@QAEXM@Z @ 730 NONAME ; void QtMobility::QGraphicsGeoMap::setZoomLevel(float)
	?d_func@QLandmarkCategoryFetchRequest@QtMobility@@ABEPBVQLandmarkCategoryFetchRequestPrivate@2@XZ @ 731 NONAME ; class QtMobility::QLandmarkCategoryFetchRequestPrivate const * QtMobility::QLandmarkCategoryFetchRequest::d_func(void) const
	?updateRequestState@QLandmarkManagerEngine@QtMobility@@SAXPAVQLandmarkAbstractRequest@2@W4State@32@@Z @ 732 NONAME ; void QtMobility::QLandmarkManagerEngine::updateRequestState(class QtMobility::QLandmarkAbstractRequest *, enum QtMobility::QLandmarkAbstractRequest::State)
	?getStaticMetaObject@QGeoSearchManager@QtMobility@@SAABUQMetaObject@@XZ @ 733 NONAME ; struct QMetaObject const & QtMobility::QGeoSearchManager::getStaticMetaObject(void)
	?d_func@QLandmarkIntersectionFilter@QtMobility@@AAEPAVQLandmarkIntersectionFilterPrivate@2@XZ @ 734 NONAME ; class QtMobility::QLandmarkIntersectionFilterPrivate * QtMobility::QLandmarkIntersectionFilter::d_func(void)
	?transferOption@QLandmarkImportRequest@QtMobility@@QBE?AW4TransferOption@QLandmarkManager@2@XZ @ 735 NONAME ; enum QtMobility::QLandmarkManager::TransferOption QtMobility::QLandmarkImportRequest::transferOption(void) const
	?type@QGeoMapPolylineObject@QtMobility@@UBE?AW4Type@QGeoMapObject@2@XZ @ 736 NONAME ; enum QtMobility::QGeoMapObject::Type QtMobility::QGeoMapPolylineObject::type(void) const
	?offset@QGeoMapTextObject@QtMobility@@QBE?AVQPoint@@XZ @ 737 NONAME ; class QPoint QtMobility::QGeoMapTextObject::offset(void) const
	?metaObject@QGeoMapObjectInfo@QtMobility@@UBEPBUQMetaObject@@XZ @ 738 NONAME ; struct QMetaObject const * QtMobility::QGeoMapObjectInfo::metaObject(void) const
	?setTransferOption@QLandmarkExportRequest@QtMobility@@QAEXW4TransferOption@QLandmarkManager@2@@Z @ 739 NONAME ; void QtMobility::QLandmarkExportRequest::setTransferOption(enum QtMobility::QLandmarkManager::TransferOption)
	?metaObject@QGeoMapRectangleObject@QtMobility@@UBEPBUQMetaObject@@XZ @ 740 NONAME ; struct QMetaObject const * QtMobility::QGeoMapRectangleObject::metaObject(void) const
	?finished@QGeoRouteReply@QtMobility@@IAEXXZ @ 741 NONAME ; void QtMobility::QGeoRouteReply::finished(void)
	?offsetChanged@QGeoMapTextObject@QtMobility@@IAEXABVQPoint@@@Z @ 742 NONAME ; void QtMobility::QGeoMapTextObject::offsetChanged(class QPoint const &)
	?contains@QGeoMapGroupObject@QtMobility@@UBE_NABVQGeoCoordinate@2@@Z @ 743 NONAME ; bool QtMobility::QGeoMapGroupObject::contains(class QtMobility::QGeoCoordinate const &) const
	?updateLandmarkFetchRequest@QLandmarkManagerEngine@QtMobility@@SAXPAVQLandmarkFetchRequest@2@ABV?$QList@VQLandmark@QtMobility@@@@W4Error@QLandmarkManager@2@ABVQString@@W4State@QLandmarkAbstractRequest@2@@Z @ 744 NONAME ; void QtMobility::QLandmarkManagerEngine::updateLandmarkFetchRequest(class QtMobility::QLandmarkFetchRequest *, class QList<class QtMobility::QLandmark> const &, enum QtMobility::QLandmarkManager::Error, class QString const &, enum QtMobility::QLandmarkAbstractRequest::State)
	?setError@QGeoRouteReply@QtMobility@@IAEXW4Error@12@ABVQString@@@Z @ 745 NONAME ; void QtMobility::QGeoRouteReply::setError(enum QtMobility::QGeoRouteReply::Error, class QString const &)
	?finished@QGeoSearchManagerEngine@QtMobility@@IAEXPAVQGeoSearchReply@2@@Z @ 746 NONAME ; void QtMobility::QGeoSearchManagerEngine::finished(class QtMobility::QGeoSearchReply *)
	?minimumZoomLevel@QGraphicsGeoMap@QtMobility@@QBEMXZ @ 747 NONAME ; float QtMobility::QGraphicsGeoMap::minimumZoomLevel(void) const
	?supportedMapTypes@QGraphicsGeoMap@QtMobility@@QBE?AV?$QList@W4MapType@QGraphicsGeoMap@QtMobility@@@@XZ @ 748 NONAME ; class QList<enum QtMobility::QGraphicsGeoMap::MapType> QtMobility::QGraphicsGeoMap::supportedMapTypes(void) const
	?supportedMapTypes@QGeoMappingManagerEngine@QtMobility@@QBE?AV?$QList@W4MapType@QGraphicsGeoMap@QtMobility@@@@XZ @ 749 NONAME ; class QList<enum QtMobility::QGraphicsGeoMap::MapType> QtMobility::QGeoMappingManagerEngine::supportedMapTypes(void) const
	?segmentDetail@QGeoRouteRequest@QtMobility@@QBE?AW4SegmentDetail@12@XZ @ 750 NONAME ; enum QtMobility::QGeoRouteRequest::SegmentDetail QtMobility::QGeoRouteRequest::segmentDetail(void) const
	??8QGeoRouteSegment@QtMobility@@QBE_NABV01@@Z @ 751 NONAME ; bool QtMobility::QGeoRouteSegment::operator==(class QtMobility::QGeoRouteSegment const &) const
	?tr@QGeoMapPixmapObject@QtMobility@@SA?AVQString@@PBD0H@Z @ 752 NONAME ; class QString QtMobility::QGeoMapPixmapObject::tr(char const *, char const *, int)
	??_EQGeoMappingManagerEngine@QtMobility@@UAE@I@Z @ 753 NONAME ; QtMobility::QGeoMappingManagerEngine::~QGeoMappingManagerEngine(unsigned int)
	?setIconUrl@QLandmarkCategory@QtMobility@@QAEXABVQUrl@@@Z @ 754 NONAME ; void QtMobility::QLandmarkCategory::setIconUrl(class QUrl const &)
	?trUtf8@QGeoRoutingManagerEngine@QtMobility@@SA?AVQString@@PBD0@Z @ 755 NONAME ; class QString QtMobility::QGeoRoutingManagerEngine::trUtf8(char const *, char const *)
	?setWindowSize@QGeoMapData@QtMobility@@UAEXABVQSizeF@@@Z @ 756 NONAME ; void QtMobility::QGeoMapData::setWindowSize(class QSizeF const &)
	?qt_metacall@QGeoMapGroupObject@QtMobility@@UAEHW4Call@QMetaObject@@HPAPAX@Z @ 757 NONAME ; int QtMobility::QGeoMapGroupObject::qt_metacall(enum QMetaObject::Call, int, void * *)
	?qHash@QtMobility@@YAIABVQGeoTiledMapRequest@1@@Z @ 758 NONAME ; unsigned int QtMobility::qHash(class QtMobility::QGeoTiledMapRequest const &)
	?mapObjects@QGraphicsGeoMap@QtMobility@@QBE?AV?$QList@PAVQGeoMapObject@QtMobility@@@@XZ @ 759 NONAME ; class QList<class QtMobility::QGeoMapObject *> QtMobility::QGraphicsGeoMap::mapObjects(void) const
	??0QGeoTiledMapRequest@QtMobility@@QAE@W4ConnectivityMode@QGraphicsGeoMap@1@W4MapType@31@MHHABVQRect@@@Z @ 760 NONAME ; QtMobility::QGeoTiledMapRequest::QGeoTiledMapRequest(enum QtMobility::QGraphicsGeoMap::ConnectivityMode, enum QtMobility::QGraphicsGeoMap::MapType, float, int, int, class QRect const &)
	?trUtf8@QGeoTiledMapData@QtMobility@@SA?AVQString@@PBD0@Z @ 761 NONAME ; class QString QtMobility::QGeoTiledMapData::trUtf8(char const *, char const *)
	?locale@QGeoMappingManager@QtMobility@@QBE?AVQLocale@@XZ @ 762 NONAME ; class QLocale QtMobility::QGeoMappingManager::locale(void) const
	?getStaticMetaObject@QGeoSearchReply@QtMobility@@SAABUQMetaObject@@XZ @ 763 NONAME ; struct QMetaObject const & QtMobility::QGeoSearchReply::getStaticMetaObject(void)
	?d_func@QLandmarkCategoryRemoveRequest@QtMobility@@ABEPBVQLandmarkCategoryRemoveRequestPrivate@2@XZ @ 764 NONAME ; class QtMobility::QLandmarkCategoryRemoveRequestPrivate const * QtMobility::QLandmarkCategoryRemoveRequest::d_func(void) const
	?setCategories@QLandmarkCategoryRemoveRequest@QtMobility@@QAEXABV?$QList@VQLandmarkCategory@QtMobility@@@@@Z @ 765 NONAME ; void QtMobility::QLandmarkCategoryRemoveRequest::setCategories(class QList<class QtMobility::QLandmarkCategory> const &)
	?setManagerUri@QLandmarkId@QtMobility@@QAEXABVQString@@@Z @ 766 NONAME ; void QtMobility::QLandmarkId::setManagerUri(class QString const &)
	?setManagerName@QGeoMappingManagerEngine@QtMobility@@AAEXABVQString@@@Z @ 767 NONAME ; void QtMobility::QGeoMappingManagerEngine::setManagerName(class QString const &)
	?saveCategory@QLandmarkManager@QtMobility@@QAE_NPAVQLandmarkCategory@2@@Z @ 768 NONAME ; bool QtMobility::QLandmarkManager::saveCategory(class QtMobility::QLandmarkCategory *)
	?importLandmarks@QLandmarkManagerEngine@QtMobility@@UAE_NPAVQIODevice@@ABVQString@@W4TransferOption@QLandmarkManager@2@ABVQLandmarkCategoryId@2@PAW4Error@62@PAV4@@Z @ 769 NONAME ; bool QtMobility::QLandmarkManagerEngine::importLandmarks(class QIODevice *, class QString const &, enum QtMobility::QLandmarkManager::TransferOption, class QtMobility::QLandmarkCategoryId const &, enum QtMobility::QLandmarkManager::Error *, class QString *)
	?travelMode@QGeoRoute@QtMobility@@QBE?AW4TravelMode@QGeoRouteRequest@2@XZ @ 770 NONAME ; enum QtMobility::QGeoRouteRequest::TravelMode QtMobility::QGeoRoute::travelMode(void) const
	??0QGeoMapPolylineObject@QtMobility@@QAE@XZ @ 771 NONAME ; QtMobility::QGeoMapPolylineObject::QGeoMapPolylineObject(void)
	?phoneNumber@QLandmark@QtMobility@@QBE?AVQString@@XZ @ 772 NONAME ; class QString QtMobility::QLandmark::phoneNumber(void) const
	?centerChanged@QGeoMapObjectInfo@QtMobility@@UAEXABVQGeoCoordinate@2@@Z @ 773 NONAME ; void QtMobility::QGeoMapObjectInfo::centerChanged(class QtMobility::QGeoCoordinate const &)
	?removeMapOverlay@QGeoMapData@QtMobility@@QAEXPAVQGeoMapOverlay@2@@Z @ 774 NONAME ; void QtMobility::QGeoMapData::removeMapOverlay(class QtMobility::QGeoMapOverlay *)
	?detailLevelChanged@QGeoMapRouteObject@QtMobility@@IAEXI@Z @ 775 NONAME ; void QtMobility::QGeoMapRouteObject::detailLevelChanged(unsigned int)
	?waypoint@QGeoManeuver@QtMobility@@QBE?AVQGeoCoordinate@2@XZ @ 776 NONAME ; class QtMobility::QGeoCoordinate QtMobility::QGeoManeuver::waypoint(void) const
	?getStaticMetaObject@QGeoMapCircleObject@QtMobility@@SAABUQMetaObject@@XZ @ 777 NONAME ; struct QMetaObject const & QtMobility::QGeoMapCircleObject::getStaticMetaObject(void)
	?trUtf8@QGeoMapTextObject@QtMobility@@SA?AVQString@@PBD0H@Z @ 778 NONAME ; class QString QtMobility::QGeoMapTextObject::trUtf8(char const *, char const *, int)
	?worldReferenceSize@QGeoTiledMapData@QtMobility@@QBE?AVQSize@@XZ @ 779 NONAME ; class QSize QtMobility::QGeoTiledMapData::worldReferenceSize(void) const
	?setFilter@QLandmarkIdFetchRequest@QtMobility@@QAEXABVQLandmarkFilter@2@@Z @ 780 NONAME ; void QtMobility::QLandmarkIdFetchRequest::setFilter(class QtMobility::QLandmarkFilter const &)
	?bottomLeft@QGeoBoundingBox@QtMobility@@QBE?AVQGeoCoordinate@2@XZ @ 781 NONAME ; class QtMobility::QGeoCoordinate QtMobility::QGeoBoundingBox::bottomLeft(void) const
	?name@QLandmark@QtMobility@@QBE?AVQString@@XZ @ 782 NONAME ; class QString QtMobility::QLandmark::name(void) const
	?manager@QLandmarkAbstractRequest@QtMobility@@QBEPAVQLandmarkManager@2@XZ @ 783 NONAME ; class QtMobility::QLandmarkManager * QtMobility::QLandmarkAbstractRequest::manager(void) const
	?categoriesAdded@QLandmarkManager@QtMobility@@IAEXABV?$QList@VQLandmarkCategoryId@QtMobility@@@@@Z @ 784 NONAME ; void QtMobility::QLandmarkManager::categoriesAdded(class QList<class QtMobility::QLandmarkCategoryId> const &)
	?d_func@QGeoMapPolylineObject@QtMobility@@ABEPBVQGeoMapPolylineObjectPrivate@2@XZ @ 785 NONAME ; class QtMobility::QGeoMapPolylineObjectPrivate const * QtMobility::QGeoMapPolylineObject::d_func(void) const
	?type@QGeoMapObject@QtMobility@@UBE?AW4Type@12@XZ @ 786 NONAME ; enum QtMobility::QGeoMapObject::Type QtMobility::QGeoMapObject::type(void) const
	?tr@QGeoTiledMappingManagerEngine@QtMobility@@SA?AVQString@@PBD0@Z @ 787 NONAME ; class QString QtMobility::QGeoTiledMappingManagerEngine::tr(char const *, char const *)
	?maneuverDetail@QGeoRouteRequest@QtMobility@@QBE?AW4ManeuverDetail@12@XZ @ 788 NONAME ; enum QtMobility::QGeoRouteRequest::ManeuverDetail QtMobility::QGeoRouteRequest::maneuverDetail(void) const
	?center@QGeoBoundingBox@QtMobility@@QBE?AVQGeoCoordinate@2@XZ @ 789 NONAME ; class QtMobility::QGeoCoordinate QtMobility::QGeoBoundingBox::center(void) const
	?supportsGeocoding@QGeoSearchManagerEngine@QtMobility@@QBE_NXZ @ 790 NONAME ; bool QtMobility::QGeoSearchManagerEngine::supportsGeocoding(void) const
	?managerName@QLandmarkManager@QtMobility@@QBE?AVQString@@XZ @ 791 NONAME ; class QString QtMobility::QLandmarkManager::managerName(void) const
	?d_func@QLandmarkProximityFilter@QtMobility@@ABEPBVQLandmarkProximityFilterPrivate@2@XZ @ 792 NONAME ; class QtMobility::QLandmarkProximityFilterPrivate const * QtMobility::QLandmarkProximityFilter::d_func(void) const
	?worldReferencePositionToCoordinate@QGeoTiledMapData@QtMobility@@UBE?AVQGeoCoordinate@2@ABVQPoint@@@Z @ 793 NONAME ; class QtMobility::QGeoCoordinate QtMobility::QGeoTiledMapData::worldReferencePositionToCoordinate(class QPoint const &) const
	?staticMetaObject@QLandmarkCategoryIdFetchRequest@QtMobility@@2UQMetaObject@@B @ 794 NONAME ; struct QMetaObject const QtMobility::QLandmarkCategoryIdFetchRequest::staticMetaObject
	?addAdditionalLandmarkManager@QGeoSearchManager@QtMobility@@QAEXPAVQLandmarkManager@2@@Z @ 795 NONAME ; void QtMobility::QGeoSearchManager::addAdditionalLandmarkManager(class QtMobility::QLandmarkManager *)
	?qt_metacast@QLandmarkCategoryFetchRequest@QtMobility@@UAEPAXPBD@Z @ 796 NONAME ; void * QtMobility::QLandmarkCategoryFetchRequest::qt_metacast(char const *)
	??1QLandmarkIntersectionFilter@QtMobility@@UAE@XZ @ 797 NONAME ; QtMobility::QLandmarkIntersectionFilter::~QLandmarkIntersectionFilter(void)
	?landmarksAdded@QLandmarkManagerEngine@QtMobility@@IAEXABV?$QList@VQLandmarkId@QtMobility@@@@@Z @ 798 NONAME ; void QtMobility::QLandmarkManagerEngine::landmarksAdded(class QList<class QtMobility::QLandmarkId> const &)
	?abort@QGeoRouteReply@QtMobility@@UAEXXZ @ 799 NONAME ; void QtMobility::QGeoRouteReply::abort(void)
	?tr@QLandmarkCategorySaveRequest@QtMobility@@SA?AVQString@@PBD0@Z @ 800 NONAME ; class QString QtMobility::QLandmarkCategorySaveRequest::tr(char const *, char const *)
	?addMapObject@QGraphicsGeoMap@QtMobility@@QAEXPAVQGeoMapObject@2@@Z @ 801 NONAME ; void QtMobility::QGraphicsGeoMap::addMapObject(class QtMobility::QGeoMapObject *)
	?getStaticMetaObject@QGeoMapPixmapObject@QtMobility@@SAABUQMetaObject@@XZ @ 802 NONAME ; struct QMetaObject const & QtMobility::QGeoMapPixmapObject::getStaticMetaObject(void)
	?routes@QGeoRouteReply@QtMobility@@QBE?AV?$QList@VQGeoRoute@QtMobility@@@@XZ @ 803 NONAME ; class QList<class QtMobility::QGeoRoute> QtMobility::QGeoRouteReply::routes(void) const
	??8QGeoBoundingBox@QtMobility@@QBE_NABV01@@Z @ 804 NONAME ; bool QtMobility::QGeoBoundingBox::operator==(class QtMobility::QGeoBoundingBox const &) const
	?setCategoryId@QLandmarkImportRequest@QtMobility@@QAEXABVQLandmarkCategoryId@2@@Z @ 805 NONAME ; void QtMobility::QLandmarkImportRequest::setCategoryId(class QtMobility::QLandmarkCategoryId const &)
	?removeAttribute@QLandmarkAttributeFilter@QtMobility@@QAEXABVQString@@@Z @ 806 NONAME ; void QtMobility::QLandmarkAttributeFilter::removeAttribute(class QString const &)
	?waitForRequestFinished@QLandmarkManagerEngine@QtMobility@@UAE_NPAVQLandmarkAbstractRequest@2@H@Z @ 807 NONAME ; bool QtMobility::QLandmarkManagerEngine::waitForRequestFinished(class QtMobility::QLandmarkAbstractRequest *, int)
	?setNumberAlternativeRoutes@QGeoRouteRequest@QtMobility@@QAEXH@Z @ 808 NONAME ; void QtMobility::QGeoRouteRequest::setNumberAlternativeRoutes(int)
	?setOffset@QGeoMapTextObject@QtMobility@@QAEXABVQPoint@@@Z @ 809 NONAME ; void QtMobility::QGeoMapTextObject::setOffset(class QPoint const &)
	??0QLandmark@QtMobility@@QAE@XZ @ 810 NONAME ; QtMobility::QLandmark::QLandmark(void)
	?categoriesRemoved@QLandmarkManager@QtMobility@@IAEXABV?$QList@VQLandmarkCategoryId@QtMobility@@@@@Z @ 811 NONAME ; void QtMobility::QLandmarkManager::categoriesRemoved(class QList<class QtMobility::QLandmarkCategoryId> const &)
	??1QGeoMapGroupObject@QtMobility@@UAE@XZ @ 812 NONAME ; QtMobility::QGeoMapGroupObject::~QGeoMapGroupObject(void)
	?compareLandmark@QLandmarkManagerEngine@QtMobility@@SAHABVQLandmark@2@0ABV?$QList@VQLandmarkSortOrder@QtMobility@@@@@Z @ 813 NONAME ; int QtMobility::QLandmarkManagerEngine::compareLandmark(class QtMobility::QLandmark const &, class QtMobility::QLandmark const &, class QList<class QtMobility::QLandmarkSortOrder> const &)
	??0QGeoBoundingBox@QtMobility@@QAE@XZ @ 814 NONAME ; QtMobility::QGeoBoundingBox::QGeoBoundingBox(void)
	?setMapData@QGeoMapGroupObject@QtMobility@@UAEXPAVQGeoMapData@2@@Z @ 815 NONAME ; void QtMobility::QGeoMapGroupObject::setMapData(class QtMobility::QGeoMapData *)
	?qt_metacast@QGeoMapPolygonObject@QtMobility@@UAEPAXPBD@Z @ 816 NONAME ; void * QtMobility::QGeoMapPolygonObject::qt_metacast(char const *)
	?contains@QGeoBoundingBox@QtMobility@@QBE_NABV12@@Z @ 817 NONAME ; bool QtMobility::QGeoBoundingBox::contains(class QtMobility::QGeoBoundingBox const &) const
	?d_func@QGeoMapPixmapObject@QtMobility@@ABEPBVQGeoMapPixmapObjectPrivate@2@XZ @ 818 NONAME ; class QtMobility::QGeoMapPixmapObjectPrivate const * QtMobility::QGeoMapPixmapObject::d_func(void) const
	?viewport@QGraphicsGeoMap@QtMobility@@QBE?AVQGeoBoundingBox@2@XZ @ 819 NONAME ; class QtMobility::QGeoBoundingBox QtMobility::QGraphicsGeoMap::viewport(void) const
	?coordinate@QGeoMapTextObject@QtMobility@@QBE?AVQGeoCoordinate@2@XZ @ 820 NONAME ; class QtMobility::QGeoCoordinate QtMobility::QGeoMapTextObject::coordinate(void) const
	?dataChanged@QLandmarkManager@QtMobility@@IAEXXZ @ 821 NONAME ; void QtMobility::QLandmarkManager::dataChanged(void)
	?setCenter@QGeoTiledMapData@QtMobility@@UAEXABVQGeoCoordinate@2@@Z @ 822 NONAME ; void QtMobility::QGeoTiledMapData::setCenter(class QtMobility::QGeoCoordinate const &)
	?updateLandmarkCategoryFetchByIdRequest@QLandmarkManagerEngine@QtMobility@@SAXPAVQLandmarkCategoryFetchByIdRequest@2@ABV?$QList@VQLandmarkCategory@QtMobility@@@@W4Error@QLandmarkManager@2@ABVQString@@ABV?$QMap@HW4Error@QLandmarkManager@QtMobility@@@@W4State@QLandmarkAbstractRequest@2@@Z @ 823 NONAME ; void QtMobility::QLandmarkManagerEngine::updateLandmarkCategoryFetchByIdRequest(class QtMobility::QLandmarkCategoryFetchByIdRequest *, class QList<class QtMobility::QLandmarkCategory> const &, enum QtMobility::QLandmarkManager::Error, class QString const &, class QMap<int, enum QtMobility::QLandmarkManager::Error> const &, enum QtMobility::QLandmarkAbstractRequest::State)
	?mappingManager@QGeoServiceProvider@QtMobility@@QBEPAVQGeoMappingManager@2@XZ @ 824 NONAME ; class QtMobility::QGeoMappingManager * QtMobility::QGeoServiceProvider::mappingManager(void) const
	?attribute@QLandmarkAttributeFilter@QtMobility@@QBE?AVQVariant@@ABVQString@@@Z @ 825 NONAME ; class QVariant QtMobility::QLandmarkAttributeFilter::attribute(class QString const &) const
	?metaObject@QGeoMapRouteObject@QtMobility@@UBEPBUQMetaObject@@XZ @ 826 NONAME ; struct QMetaObject const * QtMobility::QGeoMapRouteObject::metaObject(void) const
	?categories@QLandmarkManagerEngine@QtMobility@@UBE?AV?$QList@VQLandmarkCategory@QtMobility@@@@HHABVQLandmarkNameSort@2@PAW4Error@QLandmarkManager@2@PAVQString@@@Z @ 827 NONAME ; class QList<class QtMobility::QLandmarkCategory> QtMobility::QLandmarkManagerEngine::categories(int, int, class QtMobility::QLandmarkNameSort const &, enum QtMobility::QLandmarkManager::Error *, class QString *) const
	?setManeuver@QGeoRouteSegment@QtMobility@@QAEXABVQGeoManeuver@2@@Z @ 828 NONAME ; void QtMobility::QGeoRouteSegment::setManeuver(class QtMobility::QGeoManeuver const &)
	?qt_metacall@QGeoMappingManager@QtMobility@@UAEHW4Call@QMetaObject@@HPAPAX@Z @ 829 NONAME ; int QtMobility::QGeoMappingManager::qt_metacall(enum QMetaObject::Call, int, void * *)
	?managerUri@QLandmarkId@QtMobility@@QBE?AVQString@@XZ @ 830 NONAME ; class QString QtMobility::QLandmarkId::managerUri(void) const
	??0QGeoServiceProvider@QtMobility@@QAE@ABVQString@@ABV?$QMap@VQString@@VQVariant@@@@@Z @ 831 NONAME ; QtMobility::QGeoServiceProvider::QGeoServiceProvider(class QString const &, class QMap<class QString, class QVariant> const &)
	??1QGeoMapObject@QtMobility@@UAE@XZ @ 832 NONAME ; QtMobility::QGeoMapObject::~QGeoMapObject(void)
	?supportedConnectivityModes@QGraphicsGeoMap@QtMobility@@QBE?AV?$QList@W4ConnectivityMode@QGraphicsGeoMap@QtMobility@@@@XZ @ 833 NONAME ; class QList<enum QtMobility::QGraphicsGeoMap::ConnectivityMode> QtMobility::QGraphicsGeoMap::supportedConnectivityModes(void) const
	?managerVersion@QLandmarkManagerEngine@QtMobility@@UBEHXZ @ 834 NONAME ; int QtMobility::QLandmarkManagerEngine::managerVersion(void) const
	?tr@QLandmarkManagerEngine@QtMobility@@SA?AVQString@@PBD0H@Z @ 835 NONAME ; class QString QtMobility::QLandmarkManagerEngine::tr(char const *, char const *, int)
	?topLeft@QLandmarkBoxFilter@QtMobility@@QAE?AVQGeoCoordinate@2@XZ @ 836 NONAME ; class QtMobility::QGeoCoordinate QtMobility::QLandmarkBoxFilter::topLeft(void)
	?staticMetaObject@QLandmarkIdFetchRequest@QtMobility@@2UQMetaObject@@B @ 837 NONAME ; struct QMetaObject const QtMobility::QLandmarkIdFetchRequest::staticMetaObject
	?setUrl@QLandmark@QtMobility@@QAEXABVQUrl@@@Z @ 838 NONAME ; void QtMobility::QLandmark::setUrl(class QUrl const &)
	?setLocalId@QLandmarkCategoryId@QtMobility@@QAEXABVQString@@@Z @ 839 NONAME ; void QtMobility::QLandmarkCategoryId::setLocalId(class QString const &)
	??_EQGeoSearchManager@QtMobility@@UAE@I@Z @ 840 NONAME ; QtMobility::QGeoSearchManager::~QGeoSearchManager(unsigned int)
	?brushChanged@QGeoMapCircleObject@QtMobility@@IAEXABVQBrush@@@Z @ 841 NONAME ; void QtMobility::QGeoMapCircleObject::brushChanged(class QBrush const &)
	?setTopLeft@QGeoBoundingBox@QtMobility@@QAEXABVQGeoCoordinate@2@@Z @ 842 NONAME ; void QtMobility::QGeoBoundingBox::setTopLeft(class QtMobility::QGeoCoordinate const &)
	?format@QLandmarkExportRequest@QtMobility@@QBE?AVQString@@XZ @ 843 NONAME ; class QString QtMobility::QLandmarkExportRequest::format(void) const
	?qt_metacast@QLandmarkCategoryRemoveRequest@QtMobility@@UAEPAXPBD@Z @ 844 NONAME ; void * QtMobility::QLandmarkCategoryRemoveRequest::qt_metacast(char const *)
	?pen@QGeoMapPolygonObject@QtMobility@@QBE?AVQPen@@XZ @ 845 NONAME ; class QPen QtMobility::QGeoMapPolygonObject::pen(void) const
	??1QLandmarkProximityFilter@QtMobility@@UAE@XZ @ 846 NONAME ; QtMobility::QLandmarkProximityFilter::~QLandmarkProximityFilter(void)
	?append@QLandmarkIntersectionFilter@QtMobility@@QAEXABVQLandmarkFilter@2@@Z @ 847 NONAME ; void QtMobility::QLandmarkIntersectionFilter::append(class QtMobility::QLandmarkFilter const &)
	?setDistrict@QGeoAddress@QtMobility@@QAEXABVQString@@@Z @ 848 NONAME ; void QtMobility::QGeoAddress::setDistrict(class QString const &)
	?qt_metacall@QGeoSearchReply@QtMobility@@UAEHW4Call@QMetaObject@@HPAPAX@Z @ 849 NONAME ; int QtMobility::QGeoSearchReply::qt_metacall(enum QMetaObject::Call, int, void * *)
	?limit@QGeoSearchReply@QtMobility@@QBEHXZ @ 850 NONAME ; int QtMobility::QGeoSearchReply::limit(void) const
	?fitInViewport@QGeoTiledMapData@QtMobility@@UAEXABVQGeoBoundingBox@2@_N@Z @ 851 NONAME ; void QtMobility::QGeoTiledMapData::fitInViewport(class QtMobility::QGeoBoundingBox const &, bool)
	?address@QGeoPlace@QtMobility@@QBE?AVQGeoAddress@2@XZ @ 852 NONAME ; class QtMobility::QGeoAddress QtMobility::QGeoPlace::address(void) const
	??8QGeoRoute@QtMobility@@QBE_NABV01@@Z @ 853 NONAME ; bool QtMobility::QGeoRoute::operator==(class QtMobility::QGeoRoute const &) const
	?tr@QGeoMapRouteObject@QtMobility@@SA?AVQString@@PBD0H@Z @ 854 NONAME ; class QString QtMobility::QGeoMapRouteObject::tr(char const *, char const *, int)
	?zValueChanged@QGeoMapObjectInfo@QtMobility@@UAEXH@Z @ 855 NONAME ; void QtMobility::QGeoMapObjectInfo::zValueChanged(int)
	?setDetailLevel@QGeoMapRouteObject@QtMobility@@QAEXI@Z @ 856 NONAME ; void QtMobility::QGeoMapRouteObject::setDetailLevel(unsigned int)
	??0QLandmarkFilter@QtMobility@@QAE@XZ @ 857 NONAME ; QtMobility::QLandmarkFilter::QLandmarkFilter(void)
	?trUtf8@QLandmarkFetchByIdRequest@QtMobility@@SA?AVQString@@PBD0@Z @ 858 NONAME ; class QString QtMobility::QLandmarkFetchByIdRequest::trUtf8(char const *, char const *)
	?topLeft@QGeoMapRectangleObject@QtMobility@@QBE?AVQGeoCoordinate@2@XZ @ 859 NONAME ; class QtMobility::QGeoCoordinate QtMobility::QGeoMapRectangleObject::topLeft(void) const
	?managerVersion@QLandmarkManager@QtMobility@@QBEHXZ @ 860 NONAME ; int QtMobility::QLandmarkManager::managerVersion(void) const
	?trUtf8@QLandmarkFetchRequest@QtMobility@@SA?AVQString@@PBD0H@Z @ 861 NONAME ; class QString QtMobility::QLandmarkFetchRequest::trUtf8(char const *, char const *, int)
	?setTravelMode@QGeoRoute@QtMobility@@QAEXW4TravelMode@QGeoRouteRequest@2@@Z @ 862 NONAME ; void QtMobility::QGeoRoute::setTravelMode(enum QtMobility::QGeoRouteRequest::TravelMode)
	??0QGeoMapPolygonObject@QtMobility@@QAE@XZ @ 863 NONAME ; QtMobility::QGeoMapPolygonObject::QGeoMapPolygonObject(void)
	??_EQGraphicsGeoMap@QtMobility@@UAE@I@Z @ 864 NONAME ; QtMobility::QGraphicsGeoMap::~QGraphicsGeoMap(unsigned int)
	?trUtf8@QLandmarkManager@QtMobility@@SA?AVQString@@PBD0@Z @ 865 NONAME ; class QString QtMobility::QLandmarkManager::trUtf8(char const *, char const *)
	??1QLandmarkCategoryFilter@QtMobility@@UAE@XZ @ 866 NONAME ; QtMobility::QLandmarkCategoryFilter::~QLandmarkCategoryFilter(void)
	??0QGeoManeuver@QtMobility@@QAE@XZ @ 867 NONAME ; QtMobility::QGeoManeuver::QGeoManeuver(void)
	?trUtf8@QGeoSearchReply@QtMobility@@SA?AVQString@@PBD0@Z @ 868 NONAME ; class QString QtMobility::QGeoSearchReply::trUtf8(char const *, char const *)
	??0QLandmarkExportRequest@QtMobility@@QAE@PAVQLandmarkManager@1@PAVQObject@@@Z @ 869 NONAME ; QtMobility::QLandmarkExportRequest::QLandmarkExportRequest(class QtMobility::QLandmarkManager *, class QObject *)
	?setLandmarks@QLandmarkSaveRequest@QtMobility@@QAEXABV?$QList@VQLandmark@QtMobility@@@@@Z @ 870 NONAME ; void QtMobility::QLandmarkSaveRequest::setLandmarks(class QList<class QtMobility::QLandmark> const &)
	?trUtf8@QGeoMappingManager@QtMobility@@SA?AVQString@@PBD0@Z @ 871 NONAME ; class QString QtMobility::QGeoMappingManager::trUtf8(char const *, char const *)
	?metaObject@QGeoRoutingManagerEngine@QtMobility@@UBEPBUQMetaObject@@XZ @ 872 NONAME ; struct QMetaObject const * QtMobility::QGeoRoutingManagerEngine::metaObject(void) const
	?updateMapDisplay@QGraphicsGeoMap@QtMobility@@AAEXABVQRectF@@@Z @ 873 NONAME ; void QtMobility::QGraphicsGeoMap::updateMapDisplay(class QRectF const &)
	?center@QGeoMapCircleObject@QtMobility@@QBE?AVQGeoCoordinate@2@XZ @ 874 NONAME ; class QtMobility::QGeoCoordinate QtMobility::QGeoMapCircleObject::center(void) const
	?pen@QGeoMapRectangleObject@QtMobility@@QBE?AVQPen@@XZ @ 875 NONAME ; class QPen QtMobility::QGeoMapRectangleObject::pen(void) const
	?staticMetaObject@QGeoRouteReply@QtMobility@@2UQMetaObject@@B @ 876 NONAME ; struct QMetaObject const QtMobility::QGeoRouteReply::staticMetaObject
	?setSupportedTravelModes@QGeoRoutingManagerEngine@QtMobility@@IAEXV?$QFlags@W4TravelMode@QGeoRouteRequest@QtMobility@@@@@Z @ 877 NONAME ; void QtMobility::QGeoRoutingManagerEngine::setSupportedTravelModes(class QFlags<enum QtMobility::QGeoRouteRequest::TravelMode>)
	?setMinimumZoomLevel@QGeoMappingManagerEngine@QtMobility@@IAEXM@Z @ 878 NONAME ; void QtMobility::QGeoMappingManagerEngine::setMinimumZoomLevel(float)
	?setPen@QGeoMapRectangleObject@QtMobility@@QAEXABVQPen@@@Z @ 879 NONAME ; void QtMobility::QGeoMapRectangleObject::setPen(class QPen const &)
	??_EQLandmarkCategoryRemoveRequest@QtMobility@@UAE@I@Z @ 880 NONAME ; QtMobility::QLandmarkCategoryRemoveRequest::~QLandmarkCategoryRemoveRequest(unsigned int)
	?landmark@QLandmarkManagerEngine@QtMobility@@UBE?AVQLandmark@2@ABVQLandmarkId@2@PAW4Error@QLandmarkManager@2@PAVQString@@@Z @ 881 NONAME ; class QtMobility::QLandmark QtMobility::QLandmarkManagerEngine::landmark(class QtMobility::QLandmarkId const &, enum QtMobility::QLandmarkManager::Error *, class QString *) const
	?trUtf8@QGeoTiledMapReply@QtMobility@@SA?AVQString@@PBD0H@Z @ 882 NONAME ; class QString QtMobility::QGeoTiledMapReply::trUtf8(char const *, char const *, int)
	?clear@QLandmarkCategory@QtMobility@@QAEXXZ @ 883 NONAME ; void QtMobility::QLandmarkCategory::clear(void)
	??0QGeoMapGroupObject@QtMobility@@QAE@XZ @ 884 NONAME ; QtMobility::QGeoMapGroupObject::QGeoMapGroupObject(void)
	?d_func@QGeoMapObject@QtMobility@@ABEPBVQGeoMapObjectPrivate@2@XZ @ 885 NONAME ; class QtMobility::QGeoMapObjectPrivate const * QtMobility::QGeoMapObject::d_func(void) const
	?metaObject@QLandmarkRemoveRequest@QtMobility@@UBEPBUQMetaObject@@XZ @ 886 NONAME ; struct QMetaObject const * QtMobility::QLandmarkRemoveRequest::metaObject(void) const
	??0QGeoMapPixmapObject@QtMobility@@QAE@XZ @ 887 NONAME ; QtMobility::QGeoMapPixmapObject::QGeoMapPixmapObject(void)
	?supportedConnectivityModes@QGeoMappingManagerEngine@QtMobility@@QBE?AV?$QList@W4ConnectivityMode@QGraphicsGeoMap@QtMobility@@@@XZ @ 888 NONAME ; class QList<enum QtMobility::QGraphicsGeoMap::ConnectivityMode> QtMobility::QGeoMappingManagerEngine::supportedConnectivityModes(void) const
	?getStaticMetaObject@QLandmarkRemoveRequest@QtMobility@@SAABUQMetaObject@@XZ @ 889 NONAME ; struct QMetaObject const & QtMobility::QLandmarkRemoveRequest::getStaticMetaObject(void)
	??1QLandmarkExportRequest@QtMobility@@UAE@XZ @ 890 NONAME ; QtMobility::QLandmarkExportRequest::~QLandmarkExportRequest(void)
	?d_func@QGeoMapData@QtMobility@@ABEPBVQGeoMapDataPrivate@2@XZ @ 891 NONAME ; class QtMobility::QGeoMapDataPrivate const * QtMobility::QGeoMapData::d_func(void) const
	?metaObject@QLandmarkAbstractRequest@QtMobility@@UBEPBUQMetaObject@@XZ @ 892 NONAME ; struct QMetaObject const * QtMobility::QLandmarkAbstractRequest::metaObject(void) const
	?coordinate@QGeoPlace@QtMobility@@QBE?AVQGeoCoordinate@2@XZ @ 893 NONAME ; class QtMobility::QGeoCoordinate QtMobility::QGeoPlace::coordinate(void) const
	??_EQLandmarkAttributeFilter@QtMobility@@UAE@I@Z @ 894 NONAME ; QtMobility::QLandmarkAttributeFilter::~QLandmarkAttributeFilter(unsigned int)
	?metaObject@QLandmarkFetchByIdRequest@QtMobility@@UBEPBUQMetaObject@@XZ @ 895 NONAME ; struct QMetaObject const * QtMobility::QLandmarkFetchByIdRequest::metaObject(void) const
	?mapType@QGraphicsGeoMap@QtMobility@@QBE?AW4MapType@12@XZ @ 896 NONAME ; enum QtMobility::QGraphicsGeoMap::MapType QtMobility::QGraphicsGeoMap::mapType(void) const
	?setDefaultLandmarkManager@QGeoSearchManagerEngine@QtMobility@@IAEXPAVQLandmarkManager@2@@Z @ 897 NONAME ; void QtMobility::QGeoSearchManagerEngine::setDefaultLandmarkManager(class QtMobility::QLandmarkManager *)
	??0QLandmarkIdFilter@QtMobility@@QAE@ABV?$QList@VQLandmarkId@QtMobility@@@@@Z @ 898 NONAME ; QtMobility::QLandmarkIdFilter::QLandmarkIdFilter(class QList<class QtMobility::QLandmarkId> const &)
	?tr@QGeoTiledMapReply@QtMobility@@SA?AVQString@@PBD0@Z @ 899 NONAME ; class QString QtMobility::QGeoTiledMapReply::tr(char const *, char const *)
	?engine@QLandmarkManager@QtMobility@@AAEPAVQLandmarkManagerEngine@2@XZ @ 900 NONAME ; class QtMobility::QLandmarkManagerEngine * QtMobility::QLandmarkManager::engine(void)
	?setLandmarkIds@QLandmarkIdFilter@QtMobility@@QAEXABV?$QList@VQLandmarkId@QtMobility@@@@@Z @ 901 NONAME ; void QtMobility::QLandmarkIdFilter::setLandmarkIds(class QList<class QtMobility::QLandmarkId> const &)
	?setNextRouteSegment@QGeoRouteSegment@QtMobility@@QAEXABV12@@Z @ 902 NONAME ; void QtMobility::QGeoRouteSegment::setNextRouteSegment(class QtMobility::QGeoRouteSegment const &)
	??1QLandmarkCategoryRemoveRequest@QtMobility@@UAE@XZ @ 903 NONAME ; QtMobility::QLandmarkCategoryRemoveRequest::~QLandmarkCategoryRemoveRequest(void)
	?supportedFeatureTypes@QGeoRoutingManagerEngine@QtMobility@@QBE?AV?$QFlags@W4FeatureType@QGeoRouteRequest@QtMobility@@@@XZ @ 904 NONAME ; class QFlags<enum QtMobility::QGeoRouteRequest::FeatureType> QtMobility::QGeoRoutingManagerEngine::supportedFeatureTypes(void) const
	?postcode@QGeoAddress@QtMobility@@QBE?AVQString@@XZ @ 905 NONAME ; class QString QtMobility::QGeoAddress::postcode(void) const
	??0QLandmarkCategoryIdFetchRequest@QtMobility@@QAE@PAVQLandmarkManager@1@PAVQObject@@@Z @ 906 NONAME ; QtMobility::QLandmarkCategoryIdFetchRequest::QLandmarkCategoryIdFetchRequest(class QtMobility::QLandmarkManager *, class QObject *)
	?updateLandmarkExportRequest@QLandmarkManagerEngine@QtMobility@@SAXPAVQLandmarkExportRequest@2@W4Error@QLandmarkManager@2@ABVQString@@W4State@QLandmarkAbstractRequest@2@@Z @ 907 NONAME ; void QtMobility::QLandmarkManagerEngine::updateLandmarkExportRequest(class QtMobility::QLandmarkExportRequest *, enum QtMobility::QLandmarkManager::Error, class QString const &, enum QtMobility::QLandmarkAbstractRequest::State)
	??_EQGeoRoutingManagerEngine@QtMobility@@UAE@I@Z @ 908 NONAME ; QtMobility::QGeoRoutingManagerEngine::~QGeoRoutingManagerEngine(unsigned int)
	?brush@QGeoMapTextObject@QtMobility@@QBE?AVQBrush@@XZ @ 909 NONAME ; class QBrush QtMobility::QGeoMapTextObject::brush(void) const
	?setBoundingCircle@QLandmarkProximityFilter@QtMobility@@QAEXABVQGeoBoundingCircle@2@@Z @ 910 NONAME ; void QtMobility::QLandmarkProximityFilter::setBoundingCircle(class QtMobility::QGeoBoundingCircle const &)
	?staticMetaObject@QGeoTiledMappingManagerEngine@QtMobility@@2UQMetaObject@@B @ 911 NONAME ; struct QMetaObject const QtMobility::QGeoTiledMappingManagerEngine::staticMetaObject
	??1QLandmarkManager@QtMobility@@UAE@XZ @ 912 NONAME ; QtMobility::QLandmarkManager::~QLandmarkManager(void)
	?addCategoryId@QLandmark@QtMobility@@QAEXABVQLandmarkCategoryId@2@@Z @ 913 NONAME ; void QtMobility::QLandmark::addCategoryId(class QtMobility::QLandmarkCategoryId const &)
	??0QGeoBoundingCircle@QtMobility@@QAE@ABVQGeoCoordinate@1@M@Z @ 914 NONAME ; QtMobility::QGeoBoundingCircle::QGeoBoundingCircle(class QtMobility::QGeoCoordinate const &, float)
	?connectivityMode@QGeoMapData@QtMobility@@UBE?AW4ConnectivityMode@QGraphicsGeoMap@2@XZ @ 915 NONAME ; enum QtMobility::QGraphicsGeoMap::ConnectivityMode QtMobility::QGeoMapData::connectivityMode(void) const
	??8QLandmarkCategory@QtMobility@@QBE_NABV01@@Z @ 916 NONAME ; bool QtMobility::QLandmarkCategory::operator==(class QtMobility::QLandmarkCategory const &) const
	?qt_metacall@QGeoSearchManagerEngine@QtMobility@@UAEHW4Call@QMetaObject@@HPAPAX@Z @ 917 NONAME ; int QtMobility::QGeoSearchManagerEngine::qt_metacall(enum QMetaObject::Call, int, void * *)
	?trUtf8@QGeoMappingManagerEngine@QtMobility@@SA?AVQString@@PBD0H@Z @ 918 NONAME ; class QString QtMobility::QGeoMappingManagerEngine::trUtf8(char const *, char const *, int)
	??_EQGeoMapRectangleObject@QtMobility@@UAE@I@Z @ 919 NONAME ; QtMobility::QGeoMapRectangleObject::~QGeoMapRectangleObject(unsigned int)
	??0QLandmarkBoxFilter@QtMobility@@QAE@ABVQGeoCoordinate@1@0@Z @ 920 NONAME ; QtMobility::QLandmarkBoxFilter::QLandmarkBoxFilter(class QtMobility::QGeoCoordinate const &, class QtMobility::QGeoCoordinate const &)
	?qt_metacast@QGeoMappingManager@QtMobility@@UAEPAXPBD@Z @ 921 NONAME ; void * QtMobility::QGeoMappingManager::qt_metacast(char const *)
	?trUtf8@QGeoMapObjectInfo@QtMobility@@SA?AVQString@@PBD0H@Z @ 922 NONAME ; class QString QtMobility::QGeoMapObjectInfo::trUtf8(char const *, char const *, int)
	?transferOption@QLandmarkExportRequest@QtMobility@@QBE?AW4TransferOption@QLandmarkManager@2@XZ @ 923 NONAME ; enum QtMobility::QLandmarkManager::TransferOption QtMobility::QLandmarkExportRequest::transferOption(void) const
	??0QGeoRouteRequest@QtMobility@@QAE@ABV01@@Z @ 924 NONAME ; QtMobility::QGeoRouteRequest::QGeoRouteRequest(class QtMobility::QGeoRouteRequest const &)
	?category@QLandmarkManagerEngine@QtMobility@@UBE?AVQLandmarkCategory@2@ABVQLandmarkCategoryId@2@PAW4Error@QLandmarkManager@2@PAVQString@@@Z @ 925 NONAME ; class QtMobility::QLandmarkCategory QtMobility::QLandmarkManagerEngine::category(class QtMobility::QLandmarkCategoryId const &, enum QtMobility::QLandmarkManager::Error *, class QString *) const
	?setLimit@QLandmarkIdFetchRequest@QtMobility@@QAEXH@Z @ 926 NONAME ; void QtMobility::QLandmarkIdFetchRequest::setLimit(int)
	?setLocale@QGeoSearchManager@QtMobility@@QAEXABVQLocale@@@Z @ 927 NONAME ; void QtMobility::QGeoSearchManager::setLocale(class QLocale const &)
	??4QGeoPlace@QtMobility@@QAEAAV01@ABV01@@Z @ 928 NONAME ; class QtMobility::QGeoPlace & QtMobility::QGeoPlace::operator=(class QtMobility::QGeoPlace const &)
	?reverseGeocode@QGeoSearchManagerEngine@QtMobility@@UAEPAVQGeoSearchReply@2@ABVQGeoCoordinate@2@PAVQGeoBoundingArea@2@@Z @ 929 NONAME ; class QtMobility::QGeoSearchReply * QtMobility::QGeoSearchManagerEngine::reverseGeocode(class QtMobility::QGeoCoordinate const &, class QtMobility::QGeoBoundingArea *)
	??_EQGeoBoundingArea@QtMobility@@UAE@I@Z @ 930 NONAME ; QtMobility::QGeoBoundingArea::~QGeoBoundingArea(unsigned int)
	?setSupportedFeatureWeights@QGeoRoutingManagerEngine@QtMobility@@IAEXV?$QFlags@W4FeatureWeight@QGeoRouteRequest@QtMobility@@@@@Z @ 931 NONAME ; void QtMobility::QGeoRoutingManagerEngine::setSupportedFeatureWeights(class QFlags<enum QtMobility::QGeoRouteRequest::FeatureWeight>)
	??_EQLandmark@QtMobility@@UAE@I@Z @ 932 NONAME ; QtMobility::QLandmark::~QLandmark(unsigned int)
	?setConnectivityMode@QGeoMapData@QtMobility@@UAEXW4ConnectivityMode@QGraphicsGeoMap@2@@Z @ 933 NONAME ; void QtMobility::QGeoMapData::setConnectivityMode(enum QtMobility::QGraphicsGeoMap::ConnectivityMode)
	?sorting@QLandmarkCategoryIdFetchRequest@QtMobility@@QBE?AVQLandmarkNameSort@2@XZ @ 934 NONAME ; class QtMobility::QLandmarkNameSort QtMobility::QLandmarkCategoryIdFetchRequest::sorting(void) const
	?isReadOnly@QLandmarkManager@QtMobility@@QBE_NABVQLandmarkId@2@@Z @ 935 NONAME ; bool QtMobility::QLandmarkManager::isReadOnly(class QtMobility::QLandmarkId const &) const
	?tr@QLandmarkImportRequest@QtMobility@@SA?AVQString@@PBD0H@Z @ 936 NONAME ; class QString QtMobility::QLandmarkImportRequest::tr(char const *, char const *, int)
	?mapType@QGeoMapData@QtMobility@@UBE?AW4MapType@QGraphicsGeoMap@2@XZ @ 937 NONAME ; enum QtMobility::QGraphicsGeoMap::MapType QtMobility::QGeoMapData::mapType(void) const
	?trUtf8@QGeoMapRouteObject@QtMobility@@SA?AVQString@@PBD0@Z @ 938 NONAME ; class QString QtMobility::QGeoMapRouteObject::trUtf8(char const *, char const *)
	??9QGeoPlace@QtMobility@@QBE_NABV01@@Z @ 939 NONAME ; bool QtMobility::QGeoPlace::operator!=(class QtMobility::QGeoPlace const &) const
	?category@QLandmarkManager@QtMobility@@QBE?AVQLandmarkCategory@2@ABVQLandmarkCategoryId@2@@Z @ 940 NONAME ; class QtMobility::QLandmarkCategory QtMobility::QLandmarkManager::category(class QtMobility::QLandmarkCategoryId const &) const
	?remove@QLandmarkIdFilter@QtMobility@@QAEXABVQLandmarkId@2@@Z @ 941 NONAME ; void QtMobility::QLandmarkIdFilter::remove(class QtMobility::QLandmarkId const &)
	??0QGeoRouteReply@QtMobility@@QAE@W4Error@01@ABVQString@@PAVQObject@@@Z @ 942 NONAME ; QtMobility::QGeoRouteReply::QGeoRouteReply(enum QtMobility::QGeoRouteReply::Error, class QString const &, class QObject *)
	?qt_metacall@QGeoTiledMapData@QtMobility@@UAEHW4Call@QMetaObject@@HPAPAX@Z @ 943 NONAME ; int QtMobility::QGeoTiledMapData::qt_metacall(enum QMetaObject::Call, int, void * *)
	?setAttributes@QLandmarkAttributeFilter@QtMobility@@QAEXABVQStringList@@ABVQVariant@@V?$QFlags@W4MatchFlag@QLandmarkFilter@QtMobility@@@@@Z @ 944 NONAME ; void QtMobility::QLandmarkAttributeFilter::setAttributes(class QStringList const &, class QVariant const &, class QFlags<enum QtMobility::QLandmarkFilter::MatchFlag>)
	?setBounds@QGeoMapRectangleObject@QtMobility@@QAEXABVQGeoBoundingBox@2@@Z @ 945 NONAME ; void QtMobility::QGeoMapRectangleObject::setBounds(class QtMobility::QGeoBoundingBox const &)
	?setTravelTime@QGeoRouteSegment@QtMobility@@QAEXH@Z @ 946 NONAME ; void QtMobility::QGeoRouteSegment::setTravelTime(int)
	?setSupportedRouteOptimizations@QGeoRoutingManagerEngine@QtMobility@@IAEXV?$QFlags@W4RouteOptimization@QGeoRouteRequest@QtMobility@@@@@Z @ 947 NONAME ; void QtMobility::QGeoRoutingManagerEngine::setSupportedRouteOptimizations(class QFlags<enum QtMobility::QGeoRouteRequest::RouteOptimization>)
	?addAdditionalLandmarkManager@QGeoSearchManagerEngine@QtMobility@@QAEXPAVQLandmarkManager@2@@Z @ 948 NONAME ; void QtMobility::QGeoSearchManagerEngine::addAdditionalLandmarkManager(class QtMobility::QLandmarkManager *)
	?supportsReverseGeocoding@QGeoSearchManagerEngine@QtMobility@@QBE_NXZ @ 949 NONAME ; bool QtMobility::QGeoSearchManagerEngine::supportsReverseGeocoding(void) const
	??1QLandmarkSaveRequest@QtMobility@@UAE@XZ @ 950 NONAME ; QtMobility::QLandmarkSaveRequest::~QLandmarkSaveRequest(void)
	??1QGeoMapPixmapObject@QtMobility@@UAE@XZ @ 951 NONAME ; QtMobility::QGeoMapPixmapObject::~QGeoMapPixmapObject(void)
	?d_func@QLandmarkExportRequest@QtMobility@@ABEPBVQLandmarkExportRequestPrivate@2@XZ @ 952 NONAME ; class QtMobility::QLandmarkExportRequestPrivate const * QtMobility::QLandmarkExportRequest::d_func(void) const
	?connectivityMode@QGeoTiledMapRequest@QtMobility@@QBE?AW4ConnectivityMode@QGraphicsGeoMap@2@XZ @ 953 NONAME ; enum QtMobility::QGraphicsGeoMap::ConnectivityMode QtMobility::QGeoTiledMapRequest::connectivityMode(void) const
	?isFeatureSupported@QLandmarkManager@QtMobility@@QBE_NW4ManagerFeature@12@@Z @ 954 NONAME ; bool QtMobility::QLandmarkManager::isFeatureSupported(enum QtMobility::QLandmarkManager::ManagerFeature) const
	?managerParameters@QLandmarkManagerEngine@QtMobility@@UBE?AV?$QMap@VQString@@V1@@@XZ @ 955 NONAME ; class QMap<class QString, class QString> QtMobility::QLandmarkManagerEngine::managerParameters(void) const
	?d_func@QLandmark@QtMobility@@ABEPBVQLandmarkPrivate@2@XZ @ 956 NONAME ; class QtMobility::QLandmarkPrivate const * QtMobility::QLandmark::d_func(void) const
	?waitForFinished@QLandmarkAbstractRequest@QtMobility@@QAE_NH@Z @ 957 NONAME ; bool QtMobility::QLandmarkAbstractRequest::waitForFinished(int)
	??9QLandmarkSortOrder@QtMobility@@QBE_NABV01@@Z @ 958 NONAME ; bool QtMobility::QLandmarkSortOrder::operator!=(class QtMobility::QLandmarkSortOrder const &) const
	?tr@QGeoMapRectangleObject@QtMobility@@SA?AVQString@@PBD0H@Z @ 959 NONAME ; class QString QtMobility::QGeoMapRectangleObject::tr(char const *, char const *, int)
	?staticMetaObject@QLandmarkFetchByIdRequest@QtMobility@@2UQMetaObject@@B @ 960 NONAME ; struct QMetaObject const QtMobility::QLandmarkFetchByIdRequest::staticMetaObject
	?setLocale@QGeoSearchManagerEngine@QtMobility@@QAEXABVQLocale@@@Z @ 961 NONAME ; void QtMobility::QGeoSearchManagerEngine::setLocale(class QLocale const &)
	??_EQGeoMapData@QtMobility@@UAE@I@Z @ 962 NONAME ; QtMobility::QGeoMapData::~QGeoMapData(unsigned int)
	??8QGeoAddress@QtMobility@@QBE_NABV01@@Z @ 963 NONAME ; bool QtMobility::QGeoAddress::operator==(class QtMobility::QGeoAddress const &) const
	?setManagerName@QGeoRoutingManagerEngine@QtMobility@@AAEXABVQString@@@Z @ 964 NONAME ; void QtMobility::QGeoRoutingManagerEngine::setManagerName(class QString const &)
	??0QLandmarkFilter@QtMobility@@QAE@ABV01@@Z @ 965 NONAME ; QtMobility::QLandmarkFilter::QLandmarkFilter(class QtMobility::QLandmarkFilter const &)
	??9QGeoAddress@QtMobility@@QBE_NABV01@@Z @ 966 NONAME ; bool QtMobility::QGeoAddress::operator!=(class QtMobility::QGeoAddress const &) const
	?trUtf8@QGeoMapData@QtMobility@@SA?AVQString@@PBD0H@Z @ 967 NONAME ; class QString QtMobility::QGeoMapData::trUtf8(char const *, char const *, int)
	?landmarkId@QLandmark@QtMobility@@QBE?AVQLandmarkId@2@XZ @ 968 NONAME ; class QtMobility::QLandmarkId QtMobility::QLandmark::landmarkId(void) const
	?d_func@QLandmarkCategoryFilter@QtMobility@@AAEPAVQLandmarkCategoryFilterPrivate@2@XZ @ 969 NONAME ; class QtMobility::QLandmarkCategoryFilterPrivate * QtMobility::QLandmarkCategoryFilter::d_func(void)
	?landmarksRemoved@QLandmarkManagerEngine@QtMobility@@IAEXABV?$QList@VQLandmarkId@QtMobility@@@@@Z @ 970 NONAME ; void QtMobility::QLandmarkManagerEngine::landmarksRemoved(class QList<class QtMobility::QLandmarkId> const &)
	?tr@QLandmarkCategoryFetchRequest@QtMobility@@SA?AVQString@@PBD0@Z @ 971 NONAME ; class QString QtMobility::QLandmarkCategoryFetchRequest::tr(char const *, char const *)
	?d_func@QLandmarkSaveRequest@QtMobility@@ABEPBVQLandmarkSaveRequestPrivate@2@XZ @ 972 NONAME ; class QtMobility::QLandmarkSaveRequestPrivate const * QtMobility::QLandmarkSaveRequest::d_func(void) const
	?availableManagers@QLandmarkManager@QtMobility@@SA?AVQStringList@@XZ @ 973 NONAME ; class QStringList QtMobility::QLandmarkManager::availableManagers(void)
	?supportedMapTypes@QGeoMappingManager@QtMobility@@QBE?AV?$QList@W4MapType@QGraphicsGeoMap@QtMobility@@@@XZ @ 974 NONAME ; class QList<enum QtMobility::QGraphicsGeoMap::MapType> QtMobility::QGeoMappingManager::supportedMapTypes(void) const
	?paintMap@QGeoMapData@QtMobility@@MAEXPAVQPainter@@PBVQStyleOptionGraphicsItem@@@Z @ 975 NONAME ; void QtMobility::QGeoMapData::paintMap(class QPainter *, class QStyleOptionGraphicsItem const *)
	?staticMetaObject@QLandmarkRemoveRequest@QtMobility@@2UQMetaObject@@B @ 976 NONAME ; struct QMetaObject const QtMobility::QLandmarkRemoveRequest::staticMetaObject
	?translate@QGeoBoundingCircle@QtMobility@@QAEXNN@Z @ 977 NONAME ; void QtMobility::QGeoBoundingCircle::translate(double, double)
	?supportedSearchTypes@QGeoSearchManager@QtMobility@@QBE?AV?$QFlags@W4SearchType@QGeoSearchManager@QtMobility@@@@XZ @ 978 NONAME ; class QFlags<enum QtMobility::QGeoSearchManager::SearchType> QtMobility::QGeoSearchManager::supportedSearchTypes(void) const
	?setWindowSize@QGeoTiledMapData@QtMobility@@UAEXABVQSizeF@@@Z @ 979 NONAME ; void QtMobility::QGeoTiledMapData::setWindowSize(class QSizeF const &)
	?qt_metacast@QLandmarkManagerEngine@QtMobility@@UAEPAXPBD@Z @ 980 NONAME ; void * QtMobility::QLandmarkManagerEngine::qt_metacast(char const *)
	?startRequest@QLandmarkManagerEngine@QtMobility@@UAE_NPAVQLandmarkAbstractRequest@2@@Z @ 981 NONAME ; bool QtMobility::QLandmarkManagerEngine::startRequest(class QtMobility::QLandmarkAbstractRequest *)
	?qt_metacall@QLandmarkCategoryFetchRequest@QtMobility@@UAEHW4Call@QMetaObject@@HPAPAX@Z @ 982 NONAME ; int QtMobility::QLandmarkCategoryFetchRequest::qt_metacall(enum QMetaObject::Call, int, void * *)
	?countryCode@QGeoAddress@QtMobility@@QBE?AVQString@@XZ @ 983 NONAME ; class QString QtMobility::QGeoAddress::countryCode(void) const
	?setPlaces@QGeoSearchReply@QtMobility@@IAEXABV?$QList@VQGeoPlace@QtMobility@@@@@Z @ 984 NONAME ; void QtMobility::QGeoSearchReply::setPlaces(class QList<class QtMobility::QGeoPlace> const &)
	?clearMapObjects@QGeoMapData@QtMobility@@QAEXXZ @ 985 NONAME ; void QtMobility::QGeoMapData::clearMapObjects(void)
	?managerVersion@QGeoSearchManager@QtMobility@@QBEHXZ @ 986 NONAME ; int QtMobility::QGeoSearchManager::managerVersion(void) const
	?staticMetaObject@QGeoMapData@QtMobility@@2UQMetaObject@@B @ 987 NONAME ; struct QMetaObject const QtMobility::QGeoMapData::staticMetaObject
	?defaultLandmarkManager@QGeoSearchManager@QtMobility@@QBEPAVQLandmarkManager@2@XZ @ 988 NONAME ; class QtMobility::QLandmarkManager * QtMobility::QGeoSearchManager::defaultLandmarkManager(void) const
	??1QLandmarkAbstractRequest@QtMobility@@UAE@XZ @ 989 NONAME ; QtMobility::QLandmarkAbstractRequest::~QLandmarkAbstractRequest(void)
	??0QLandmarkId@QtMobility@@QAE@ABV01@@Z @ 990 NONAME ; QtMobility::QLandmarkId::QLandmarkId(class QtMobility::QLandmarkId const &)
	?d_func@QLandmarkCategoryFetchRequest@QtMobility@@AAEPAVQLandmarkCategoryFetchRequestPrivate@2@XZ @ 991 NONAME ; class QtMobility::QLandmarkCategoryFetchRequestPrivate * QtMobility::QLandmarkCategoryFetchRequest::d_func(void)
	?qt_metacast@QGeoMapCircleObject@QtMobility@@UAEPAXPBD@Z @ 992 NONAME ; void * QtMobility::QGeoMapCircleObject::qt_metacast(char const *)
	?trUtf8@QLandmarkIdFetchRequest@QtMobility@@SA?AVQString@@PBD0H@Z @ 993 NONAME ; class QString QtMobility::QLandmarkIdFetchRequest::trUtf8(char const *, char const *, int)
	?addSorted@QLandmarkManagerEngine@QtMobility@@SAXPAV?$QList@VQLandmark@QtMobility@@@@ABVQLandmark@2@ABV?$QList@VQLandmarkSortOrder@QtMobility@@@@@Z @ 994 NONAME ; void QtMobility::QLandmarkManagerEngine::addSorted(class QList<class QtMobility::QLandmark> *, class QtMobility::QLandmark const &, class QList<class QtMobility::QLandmarkSortOrder> const &)
	?qt_metacall@QGeoRoutingManagerEngine@QtMobility@@UAEHW4Call@QMetaObject@@HPAPAX@Z @ 995 NONAME ; int QtMobility::QGeoRoutingManagerEngine::qt_metacall(enum QMetaObject::Call, int, void * *)
	?request@QGeoRouteReply@QtMobility@@QBE?AVQGeoRouteRequest@2@XZ @ 996 NONAME ; class QtMobility::QGeoRouteRequest QtMobility::QGeoRouteReply::request(void) const
	?tr@QGeoMapObject@QtMobility@@SA?AVQString@@PBD0H@Z @ 997 NONAME ; class QString QtMobility::QGeoMapObject::tr(char const *, char const *, int)
	??8QLandmarkFilter@QtMobility@@QBE_NABV01@@Z @ 998 NONAME ; bool QtMobility::QLandmarkFilter::operator==(class QtMobility::QLandmarkFilter const &) const
	?offsetChanged@QGeoMapPixmapObject@QtMobility@@IAEXABVQPoint@@@Z @ 999 NONAME ; void QtMobility::QGeoMapPixmapObject::offsetChanged(class QPoint const &)
	?brushChanged@QGeoMapRectangleObject@QtMobility@@IAEXABVQBrush@@@Z @ 1000 NONAME ; void QtMobility::QGeoMapRectangleObject::brushChanged(class QBrush const &)
	?setDirection@QLandmarkSortOrder@QtMobility@@QAEXW4SortOrder@Qt@@@Z @ 1001 NONAME ; void QtMobility::QLandmarkSortOrder::setDirection(enum Qt::SortOrder)
	?setViewport@QGeoSearchReply@QtMobility@@IAEXPAVQGeoBoundingArea@2@@Z @ 1002 NONAME ; void QtMobility::QGeoSearchReply::setViewport(class QtMobility::QGeoBoundingArea *)
	?tr@QGeoSearchManager@QtMobility@@SA?AVQString@@PBD0@Z @ 1003 NONAME ; class QString QtMobility::QGeoSearchManager::tr(char const *, char const *)
	?d_func@QLandmarkBoxFilter@QtMobility@@ABEPBVQLandmarkBoxFilterPrivate@2@XZ @ 1004 NONAME ; class QtMobility::QLandmarkBoxFilterPrivate const * QtMobility::QLandmarkBoxFilter::d_func(void) const
	?d_func@QLandmarkNameSort@QtMobility@@ABEPBVQLandmarkNameSortPrivate@2@XZ @ 1005 NONAME ; class QtMobility::QLandmarkNameSortPrivate const * QtMobility::QLandmarkNameSort::d_func(void) const
	?setRouteOptimization@QGeoRouteRequest@QtMobility@@QAEXV?$QFlags@W4RouteOptimization@QGeoRouteRequest@QtMobility@@@@@Z @ 1006 NONAME ; void QtMobility::QGeoRouteRequest::setRouteOptimization(class QFlags<enum QtMobility::QGeoRouteRequest::RouteOptimization>)
	??0QLandmarkCategoryFetchRequest@QtMobility@@QAE@PAVQLandmarkManager@1@PAVQObject@@@Z @ 1007 NONAME ; QtMobility::QLandmarkCategoryFetchRequest::QLandmarkCategoryFetchRequest(class QtMobility::QLandmarkManager *, class QObject *)
	?clear@QGeoAddress@QtMobility@@QAEXXZ @ 1008 NONAME ; void QtMobility::QGeoAddress::clear(void)
	?pixmap@QGeoMapPixmapObject@QtMobility@@QBE?AVQPixmap@@XZ @ 1009 NONAME ; class QPixmap QtMobility::QGeoMapPixmapObject::pixmap(void) const
	?distanceToNextInstruction@QGeoManeuver@QtMobility@@QBEMXZ @ 1010 NONAME ; float QtMobility::QGeoManeuver::distanceToNextInstruction(void) const
	?limit@QLandmarkFetchRequest@QtMobility@@QBEHXZ @ 1011 NONAME ; int QtMobility::QLandmarkFetchRequest::limit(void) const
	?setFormat@QLandmarkImportRequest@QtMobility@@QAEXABVQString@@@Z @ 1012 NONAME ; void QtMobility::QLandmarkImportRequest::setFormat(class QString const &)
	?routeId@QGeoRoute@QtMobility@@QBE?AVQString@@XZ @ 1013 NONAME ; class QString QtMobility::QGeoRoute::routeId(void) const
	?qt_metacall@QGeoMapData@QtMobility@@UAEHW4Call@QMetaObject@@HPAPAX@Z @ 1014 NONAME ; int QtMobility::QGeoMapData::qt_metacall(enum QMetaObject::Call, int, void * *)
	??0QGeoMapTextObject@QtMobility@@QAE@XZ @ 1015 NONAME ; QtMobility::QGeoMapTextObject::QGeoMapTextObject(void)
	?trUtf8@QGeoMapPixmapObject@QtMobility@@SA?AVQString@@PBD0H@Z @ 1016 NONAME ; class QString QtMobility::QGeoMapPixmapObject::trUtf8(char const *, char const *, int)
	?places@QGeoSearchReply@QtMobility@@QBE?AV?$QList@VQGeoPlace@QtMobility@@@@XZ @ 1017 NONAME ; class QList<class QtMobility::QGeoPlace> QtMobility::QGeoSearchReply::places(void) const
	?setDistance@QGeoRoute@QtMobility@@QAEXM@Z @ 1018 NONAME ; void QtMobility::QGeoRoute::setDistance(float)
	?row@QGeoTiledMapRequest@QtMobility@@QBEHXZ @ 1019 NONAME ; int QtMobility::QGeoTiledMapRequest::row(void) const
	??0QGeoMapCircleObject@QtMobility@@QAE@ABVQGeoCoordinate@1@M@Z @ 1020 NONAME ; QtMobility::QGeoMapCircleObject::QGeoMapCircleObject(class QtMobility::QGeoCoordinate const &, float)
	?setError@QGeoTiledMapReply@QtMobility@@IAEXW4Error@12@ABVQString@@@Z @ 1021 NONAME ; void QtMobility::QGeoTiledMapReply::setError(enum QtMobility::QGeoTiledMapReply::Error, class QString const &)
	?d_func@QLandmarkExportRequest@QtMobility@@AAEPAVQLandmarkExportRequestPrivate@2@XZ @ 1022 NONAME ; class QtMobility::QLandmarkExportRequestPrivate * QtMobility::QLandmarkExportRequest::d_func(void)
	?managerName@QGeoRoutingManager@QtMobility@@QBE?AVQString@@XZ @ 1023 NONAME ; class QString QtMobility::QGeoRoutingManager::managerName(void) const
	?type@QGeoMapRouteObject@QtMobility@@UBE?AW4Type@QGeoMapObject@2@XZ @ 1024 NONAME ; enum QtMobility::QGeoMapObject::Type QtMobility::QGeoMapRouteObject::type(void) const
	?staticMetaObject@QLandmarkCategoryRemoveRequest@QtMobility@@2UQMetaObject@@B @ 1025 NONAME ; struct QMetaObject const QtMobility::QLandmarkCategoryRemoveRequest::staticMetaObject
	?setFileName@QLandmarkExportRequest@QtMobility@@QAEXABVQString@@@Z @ 1026 NONAME ; void QtMobility::QLandmarkExportRequest::setFileName(class QString const &)
	?tr@QGraphicsGeoMap@QtMobility@@SA?AVQString@@PBD0@Z @ 1027 NONAME ; class QString QtMobility::QGraphicsGeoMap::tr(char const *, char const *)
	?qt_metacast@QLandmarkAbstractRequest@QtMobility@@UAEPAXPBD@Z @ 1028 NONAME ; void * QtMobility::QLandmarkAbstractRequest::qt_metacast(char const *)
	?setAdditionalLandmarkManagers@QGeoSearchManagerEngine@QtMobility@@QAEXABV?$QList@PAVQLandmarkManager@QtMobility@@@@@Z @ 1029 NONAME ; void QtMobility::QGeoSearchManagerEngine::setAdditionalLandmarkManagers(class QList<class QtMobility::QLandmarkManager *> const &)
	??4QLandmarkId@QtMobility@@QAEAAV01@ABV01@@Z @ 1030 NONAME ; class QtMobility::QLandmarkId & QtMobility::QLandmarkId::operator=(class QtMobility::QLandmarkId const &)
	?metaObject@QGeoRoutingManager@QtMobility@@UBEPBUQMetaObject@@XZ @ 1031 NONAME ; struct QMetaObject const * QtMobility::QGeoRoutingManager::metaObject(void) const
	?screenPositionToCoordinate@QGraphicsGeoMap@QtMobility@@QBE?AVQGeoCoordinate@2@VQPointF@@@Z @ 1032 NONAME ; class QtMobility::QGeoCoordinate QtMobility::QGraphicsGeoMap::screenPositionToCoordinate(class QPointF) const
	??1QLandmarkSortOrder@QtMobility@@UAE@XZ @ 1033 NONAME ; QtMobility::QLandmarkSortOrder::~QLandmarkSortOrder(void)
	?d_func@QLandmarkProximityFilter@QtMobility@@AAEPAVQLandmarkProximityFilterPrivate@2@XZ @ 1034 NONAME ; class QtMobility::QLandmarkProximityFilterPrivate * QtMobility::QLandmarkProximityFilter::d_func(void)
	?setSorting@QLandmarkIdFetchRequest@QtMobility@@QAEXABV?$QList@VQLandmarkSortOrder@QtMobility@@@@@Z @ 1035 NONAME ; void QtMobility::QLandmarkIdFetchRequest::setSorting(class QList<class QtMobility::QLandmarkSortOrder> const &)
	??_EQGeoMapOverlay@QtMobility@@UAE@I@Z @ 1036 NONAME ; QtMobility::QGeoMapOverlay::~QGeoMapOverlay(unsigned int)
	?trUtf8@QGeoMapCircleObject@QtMobility@@SA?AVQString@@PBD0@Z @ 1037 NONAME ; class QString QtMobility::QGeoMapCircleObject::trUtf8(char const *, char const *)
	?staticMetaObject@QGeoRoutingManagerEngine@QtMobility@@2UQMetaObject@@B @ 1038 NONAME ; struct QMetaObject const QtMobility::QGeoRoutingManagerEngine::staticMetaObject
	??0QGeoManeuver@QtMobility@@QAE@ABV01@@Z @ 1039 NONAME ; QtMobility::QGeoManeuver::QGeoManeuver(class QtMobility::QGeoManeuver const &)
	?mapObjectsInViewport@QGeoMapData@QtMobility@@UBE?AV?$QList@PAVQGeoMapObject@QtMobility@@@@XZ @ 1040 NONAME ; class QList<class QtMobility::QGeoMapObject *> QtMobility::QGeoMapData::mapObjectsInViewport(void) const
	?visibleChanged@QGeoMapObject@QtMobility@@IAEX_N@Z @ 1041 NONAME ; void QtMobility::QGeoMapObject::visibleChanged(bool)
	?setDistance@QGeoRouteSegment@QtMobility@@QAEXM@Z @ 1042 NONAME ; void QtMobility::QGeoRouteSegment::setDistance(float)
	??0QGeoRouteReply@QtMobility@@IAE@ABVQGeoRouteRequest@1@PAVQObject@@@Z @ 1043 NONAME ; QtMobility::QGeoRouteReply::QGeoRouteReply(class QtMobility::QGeoRouteRequest const &, class QObject *)
	?qt_metacall@QGeoMapTextObject@QtMobility@@UAEHW4Call@QMetaObject@@HPAPAX@Z @ 1044 NONAME ; int QtMobility::QGeoMapTextObject::qt_metacall(enum QMetaObject::Call, int, void * *)
	?landmarkIds@QLandmarkManagerEngine@QtMobility@@UBE?AV?$QList@VQLandmarkId@QtMobility@@@@ABVQLandmarkFilter@2@HHABV?$QList@VQLandmarkSortOrder@QtMobility@@@@PAW4Error@QLandmarkManager@2@PAVQString@@@Z @ 1045 NONAME ; class QList<class QtMobility::QLandmarkId> QtMobility::QLandmarkManagerEngine::landmarkIds(class QtMobility::QLandmarkFilter const &, int, int, class QList<class QtMobility::QLandmarkSortOrder> const &, enum QtMobility::QLandmarkManager::Error *, class QString *) const
	?tr@QGeoRoutingManager@QtMobility@@SA?AVQString@@PBD0H@Z @ 1046 NONAME ; class QString QtMobility::QGeoRoutingManager::tr(char const *, char const *, int)
	?locale@QGeoRoutingManagerEngine@QtMobility@@QBE?AVQLocale@@XZ @ 1047 NONAME ; class QLocale QtMobility::QGeoRoutingManagerEngine::locale(void) const
	?type@QLandmarkFilter@QtMobility@@QBE?AW4FilterType@12@XZ @ 1048 NONAME ; enum QtMobility::QLandmarkFilter::FilterType QtMobility::QLandmarkFilter::type(void) const
	?setManagerVersion@QGeoMappingManagerEngine@QtMobility@@AAEXH@Z @ 1049 NONAME ; void QtMobility::QGeoMappingManagerEngine::setManagerVersion(int)
	??0QGeoMappingManager@QtMobility@@AAE@PAVQGeoMappingManagerEngine@1@PAVQObject@@@Z @ 1050 NONAME ; QtMobility::QGeoMappingManager::QGeoMappingManager(class QtMobility::QGeoMappingManagerEngine *, class QObject *)
	?setCountryCode@QGeoAddress@QtMobility@@QAEXABVQString@@@Z @ 1051 NONAME ; void QtMobility::QGeoAddress::setCountryCode(class QString const &)
	?city@QGeoAddress@QtMobility@@QBE?AVQString@@XZ @ 1052 NONAME ; class QString QtMobility::QGeoAddress::city(void) const
	??1QGeoMappingManager@QtMobility@@UAE@XZ @ 1053 NONAME ; QtMobility::QGeoMappingManager::~QGeoMappingManager(void)
	?windowSize@QGeoMapData@QtMobility@@UBE?AVQSizeF@@XZ @ 1054 NONAME ; class QSizeF QtMobility::QGeoMapData::windowSize(void) const
	?setSupportedConnectivityModes@QGeoMappingManagerEngine@QtMobility@@IAEXABV?$QList@W4ConnectivityMode@QGraphicsGeoMap@QtMobility@@@@@Z @ 1055 NONAME ; void QtMobility::QGeoMappingManagerEngine::setSupportedConnectivityModes(class QList<enum QtMobility::QGraphicsGeoMap::ConnectivityMode> const &)
	?brush@QGeoMapPolygonObject@QtMobility@@QBE?AVQBrush@@XZ @ 1056 NONAME ; class QBrush QtMobility::QGeoMapPolygonObject::brush(void) const
	??1QGeoRouteReply@QtMobility@@UAE@XZ @ 1057 NONAME ; QtMobility::QGeoRouteReply::~QGeoRouteReply(void)
	?d_func@QGeoMapPolylineObject@QtMobility@@AAEPAVQGeoMapPolylineObjectPrivate@2@XZ @ 1058 NONAME ; class QtMobility::QGeoMapPolylineObjectPrivate * QtMobility::QGeoMapPolylineObject::d_func(void)
	?tr@QLandmarkCategoryFetchRequest@QtMobility@@SA?AVQString@@PBD0H@Z @ 1059 NONAME ; class QString QtMobility::QLandmarkCategoryFetchRequest::tr(char const *, char const *, int)
	?testFilter@QLandmarkManagerEngine@QtMobility@@SA_NABVQLandmarkFilter@2@ABVQLandmark@2@@Z @ 1060 NONAME ; bool QtMobility::QLandmarkManagerEngine::testFilter(class QtMobility::QLandmarkFilter const &, class QtMobility::QLandmark const &)
	?supportedFormats@QLandmarkManager@QtMobility@@QBE?AVQStringList@@W4TransferOperation@12@@Z @ 1061 NONAME ; class QStringList QtMobility::QLandmarkManager::supportedFormats(enum QtMobility::QLandmarkManager::TransferOperation) const
	?staticMetaObject@QGeoRoutingManager@QtMobility@@2UQMetaObject@@B @ 1062 NONAME ; struct QMetaObject const QtMobility::QGeoRoutingManager::staticMetaObject
	?error@QGeoServiceProvider@QtMobility@@QBE?AW4Error@12@XZ @ 1063 NONAME ; enum QtMobility::QGeoServiceProvider::Error QtMobility::QGeoServiceProvider::error(void) const
	?coordinateChanged@QGeoMapTextObject@QtMobility@@IAEXABVQGeoCoordinate@2@@Z @ 1064 NONAME ; void QtMobility::QGeoMapTextObject::coordinateChanged(class QtMobility::QGeoCoordinate const &)
	?instructionText@QGeoManeuver@QtMobility@@QBE?AVQString@@XZ @ 1065 NONAME ; class QString QtMobility::QGeoManeuver::instructionText(void) const
	?qt_metacall@QGeoSearchManager@QtMobility@@UAEHW4Call@QMetaObject@@HPAPAX@Z @ 1066 NONAME ; int QtMobility::QGeoSearchManager::qt_metacall(enum QMetaObject::Call, int, void * *)
	?managerUri@QLandmarkCategoryId@QtMobility@@QBE?AVQString@@XZ @ 1067 NONAME ; class QString QtMobility::QLandmarkCategoryId::managerUri(void) const
	?trUtf8@QGeoMapPixmapObject@QtMobility@@SA?AVQString@@PBD0@Z @ 1068 NONAME ; class QString QtMobility::QGeoMapPixmapObject::trUtf8(char const *, char const *)
	?metaObject@QLandmarkCategoryFetchByIdRequest@QtMobility@@UBEPBUQMetaObject@@XZ @ 1069 NONAME ; struct QMetaObject const * QtMobility::QLandmarkCategoryFetchByIdRequest::metaObject(void) const
	?setLimit@QGeoSearchReply@QtMobility@@IAEXH@Z @ 1070 NONAME ; void QtMobility::QGeoSearchReply::setLimit(int)
	?d_func@QLandmarkIdFetchRequest@QtMobility@@ABEPBVQLandmarkIdFetchRequestPrivate@2@XZ @ 1071 NONAME ; class QtMobility::QLandmarkIdFetchRequestPrivate const * QtMobility::QLandmarkIdFetchRequest::d_func(void) const
	??0QGeoSearchManagerEngine@QtMobility@@QAE@ABV?$QMap@VQString@@VQVariant@@@@PAVQObject@@@Z @ 1072 NONAME ; QtMobility::QGeoSearchManagerEngine::QGeoSearchManagerEngine(class QMap<class QString, class QVariant> const &, class QObject *)
	?d_func@QGeoMapOverlay@QtMobility@@ABEPBVQGeoMapOverlayPrivate@2@XZ @ 1073 NONAME ; class QtMobility::QGeoMapOverlayPrivate const * QtMobility::QGeoMapOverlay::d_func(void) const
	?managerName@QGeoMappingManagerEngine@QtMobility@@QBE?AVQString@@XZ @ 1074 NONAME ; class QString QtMobility::QGeoMappingManagerEngine::managerName(void) const
	?setCategory@QLandmarkCategorySaveRequest@QtMobility@@QAEXABVQLandmarkCategory@2@@Z @ 1075 NONAME ; void QtMobility::QLandmarkCategorySaveRequest::setCategory(class QtMobility::QLandmarkCategory const &)
	?metaObject@QGeoMappingManager@QtMobility@@UBEPBUQMetaObject@@XZ @ 1076 NONAME ; struct QMetaObject const * QtMobility::QGeoMappingManager::metaObject(void) const
	?routeChanged@QGeoMapRouteObject@QtMobility@@IAEXABVQGeoRoute@2@@Z @ 1077 NONAME ; void QtMobility::QGeoMapRouteObject::routeChanged(class QtMobility::QGeoRoute const &)
	?qt_metacast@QGeoMapRectangleObject@QtMobility@@UAEPAXPBD@Z @ 1078 NONAME ; void * QtMobility::QGeoMapRectangleObject::qt_metacast(char const *)
	?tr@QLandmarkIdFetchRequest@QtMobility@@SA?AVQString@@PBD0@Z @ 1079 NONAME ; class QString QtMobility::QLandmarkIdFetchRequest::tr(char const *, char const *)
	?maximumZoomLevel@QGeoMappingManager@QtMobility@@QBEMXZ @ 1080 NONAME ; float QtMobility::QGeoMappingManager::maximumZoomLevel(void) const
	?qt_metacast@QGeoMapPolylineObject@QtMobility@@UAEPAXPBD@Z @ 1081 NONAME ; void * QtMobility::QGeoMapPolylineObject::qt_metacast(char const *)
	?isEmpty@QGeoBoundingCircle@QtMobility@@UBE_NXZ @ 1082 NONAME ; bool QtMobility::QGeoBoundingCircle::isEmpty(void) const
	??0QGeoMapRectangleObject@QtMobility@@QAE@ABVQGeoCoordinate@1@0@Z @ 1083 NONAME ; QtMobility::QGeoMapRectangleObject::QGeoMapRectangleObject(class QtMobility::QGeoCoordinate const &, class QtMobility::QGeoCoordinate const &)
	??1QGeoMapPolygonObject@QtMobility@@UAE@XZ @ 1084 NONAME ; QtMobility::QGeoMapPolygonObject::~QGeoMapPolygonObject(void)
	?qt_metacast@QGraphicsGeoMap@QtMobility@@UAEPAXPBD@Z @ 1085 NONAME ; void * QtMobility::QGraphicsGeoMap::qt_metacast(char const *)
	?tr@QGraphicsGeoMap@QtMobility@@SA?AVQString@@PBD0H@Z @ 1086 NONAME ; class QString QtMobility::QGraphicsGeoMap::tr(char const *, char const *, int)
	?categories@QLandmarkCategorySaveRequest@QtMobility@@QBE?AV?$QList@VQLandmarkCategory@QtMobility@@@@XZ @ 1087 NONAME ; class QList<class QtMobility::QLandmarkCategory> QtMobility::QLandmarkCategorySaveRequest::categories(void) const
	?metaObject@QGeoMapPolygonObject@QtMobility@@UBEPBUQMetaObject@@XZ @ 1088 NONAME ; struct QMetaObject const * QtMobility::QGeoMapPolygonObject::metaObject(void) const
	?getStaticMetaObject@QGeoMapGroupObject@QtMobility@@SAABUQMetaObject@@XZ @ 1089 NONAME ; struct QMetaObject const & QtMobility::QGeoMapGroupObject::getStaticMetaObject(void)
	?isReadOnly@QLandmarkManager@QtMobility@@QBE_NXZ @ 1090 NONAME ; bool QtMobility::QLandmarkManager::isReadOnly(void) const
	?description@QLandmark@QtMobility@@QBE?AVQString@@XZ @ 1091 NONAME ; class QString QtMobility::QLandmark::description(void) const
	?tr@QGeoMappingManager@QtMobility@@SA?AVQString@@PBD0H@Z @ 1092 NONAME ; class QString QtMobility::QGeoMappingManager::tr(char const *, char const *, int)
	??1QGeoPlace@QtMobility@@UAE@XZ @ 1093 NONAME ; QtMobility::QGeoPlace::~QGeoPlace(void)
	?setMaximumZoomLevel@QGeoMappingManagerEngine@QtMobility@@IAEXM@Z @ 1094 NONAME ; void QtMobility::QGeoMappingManagerEngine::setMaximumZoomLevel(float)
	?staticMetaObject@QLandmarkSaveRequest@QtMobility@@2UQMetaObject@@B @ 1095 NONAME ; struct QMetaObject const QtMobility::QLandmarkSaveRequest::staticMetaObject
	?setBottomRight@QLandmarkBoxFilter@QtMobility@@QAEXABVQGeoCoordinate@2@@Z @ 1096 NONAME ; void QtMobility::QLandmarkBoxFilter::setBottomRight(class QtMobility::QGeoCoordinate const &)
	??MQGeoMapObject@QtMobility@@QBE_NABV01@@Z @ 1097 NONAME ; bool QtMobility::QGeoMapObject::operator<(class QtMobility::QGeoMapObject const &) const
	?landmarkIds@QLandmarkImportRequest@QtMobility@@QBE?AV?$QList@VQLandmarkId@QtMobility@@@@XZ @ 1098 NONAME ; class QList<class QtMobility::QLandmarkId> QtMobility::QLandmarkImportRequest::landmarkIds(void) const
	??0QLandmarkProximityFilter@QtMobility@@QAE@ABVQGeoBoundingCircle@1@@Z @ 1099 NONAME ; QtMobility::QLandmarkProximityFilter::QLandmarkProximityFilter(class QtMobility::QGeoBoundingCircle const &)
	?setWidth@QGeoBoundingBox@QtMobility@@QAEXN@Z @ 1100 NONAME ; void QtMobility::QGeoBoundingBox::setWidth(double)
	??0QLandmarkSortOrder@QtMobility@@QAE@XZ @ 1101 NONAME ; QtMobility::QLandmarkSortOrder::QLandmarkSortOrder(void)
	??0QGeoPlace@QtMobility@@QAE@ABV01@@Z @ 1102 NONAME ; QtMobility::QGeoPlace::QGeoPlace(class QtMobility::QGeoPlace const &)
	?Gpx@QLandmarkManager@QtMobility@@2U?$QLatin1Constant@$03@2@B @ 1103 NONAME ; struct QtMobility::QLatin1Constant<4> const QtMobility::QLandmarkManager::Gpx
	?minimumZoomLevel@QGeoMappingManager@QtMobility@@QBEMXZ @ 1104 NONAME ; float QtMobility::QGeoMappingManager::minimumZoomLevel(void) const
	??_EQGeoPlace@QtMobility@@UAE@I@Z @ 1105 NONAME ; QtMobility::QGeoPlace::~QGeoPlace(unsigned int)
	?abort@QGeoTiledMapReply@QtMobility@@UAEXXZ @ 1106 NONAME ; void QtMobility::QGeoTiledMapReply::abort(void)
	?getStaticMetaObject@QLandmarkManagerEngine@QtMobility@@SAABUQMetaObject@@XZ @ 1107 NONAME ; struct QMetaObject const & QtMobility::QLandmarkManagerEngine::getStaticMetaObject(void)
	?finished@QGeoSearchManager@QtMobility@@IAEXPAVQGeoSearchReply@2@@Z @ 1108 NONAME ; void QtMobility::QGeoSearchManager::finished(class QtMobility::QGeoSearchReply *)
	?clear@QLandmarkIdFilter@QtMobility@@QAEXXZ @ 1109 NONAME ; void QtMobility::QLandmarkIdFilter::clear(void)
	?tr@QGeoMapObject@QtMobility@@SA?AVQString@@PBD0@Z @ 1110 NONAME ; class QString QtMobility::QGeoMapObject::tr(char const *, char const *)
	?supportedImplementationVersions@QLandmarkManagerEngineFactory@QtMobility@@UBE?AV?$QList@H@@XZ @ 1111 NONAME ; class QList<int> QtMobility::QLandmarkManagerEngineFactory::supportedImplementationVersions(void) const
	?managerParameters@QLandmarkManager@QtMobility@@QBE?AV?$QMap@VQString@@V1@@@XZ @ 1112 NONAME ; class QMap<class QString, class QString> QtMobility::QLandmarkManager::managerParameters(void) const
	?setRadius@QLandmarkProximityFilter@QtMobility@@QAEXM@Z @ 1113 NONAME ; void QtMobility::QLandmarkProximityFilter::setRadius(float)
	?managerVersion@QGeoMappingManagerEngine@QtMobility@@QBEHXZ @ 1114 NONAME ; int QtMobility::QGeoMappingManagerEngine::managerVersion(void) const
	?boundingBox@QLandmarkBoxFilter@QtMobility@@QBE?AVQGeoBoundingBox@2@XZ @ 1115 NONAME ; class QtMobility::QGeoBoundingBox QtMobility::QLandmarkBoxFilter::boundingBox(void) const
	?trUtf8@QLandmarkExportRequest@QtMobility@@SA?AVQString@@PBD0H@Z @ 1116 NONAME ; class QString QtMobility::QLandmarkExportRequest::trUtf8(char const *, char const *, int)
	?setCategoryIds@QLandmarkCategoryFetchByIdRequest@QtMobility@@QAEXABV?$QList@VQLandmarkCategoryId@QtMobility@@@@@Z @ 1117 NONAME ; void QtMobility::QLandmarkCategoryFetchByIdRequest::setCategoryIds(class QList<class QtMobility::QLandmarkCategoryId> const &)
	??6QLandmarkIntersectionFilter@QtMobility@@QAEAAV01@ABVQLandmarkFilter@1@@Z @ 1118 NONAME ; class QtMobility::QLandmarkIntersectionFilter & QtMobility::QLandmarkIntersectionFilter::operator<<(class QtMobility::QLandmarkFilter const &)
	?qt_metacast@QGeoRoutingManagerEngine@QtMobility@@UAEPAXPBD@Z @ 1119 NONAME ; void * QtMobility::QGeoRoutingManagerEngine::qt_metacast(char const *)
	?travelTime@QGeoRoute@QtMobility@@QBEHXZ @ 1120 NONAME ; int QtMobility::QGeoRoute::travelTime(void) const
	?tr@QLandmarkRemoveRequest@QtMobility@@SA?AVQString@@PBD0H@Z @ 1121 NONAME ; class QString QtMobility::QLandmarkRemoveRequest::tr(char const *, char const *, int)
	??_EQGeoBoundingBox@QtMobility@@UAE@I@Z @ 1122 NONAME ; QtMobility::QGeoBoundingBox::~QGeoBoundingBox(unsigned int)
	?tr@QGeoMappingManagerEngine@QtMobility@@SA?AVQString@@PBD0@Z @ 1123 NONAME ; class QString QtMobility::QGeoMappingManagerEngine::tr(char const *, char const *)
	?setCoordinate@QGeoMapTextObject@QtMobility@@QAEXABVQGeoCoordinate@2@@Z @ 1124 NONAME ; void QtMobility::QGeoMapTextObject::setCoordinate(class QtMobility::QGeoCoordinate const &)
	??0QLandmarkCategory@QtMobility@@QAE@ABV01@@Z @ 1125 NONAME ; QtMobility::QLandmarkCategory::QLandmarkCategory(class QtMobility::QLandmarkCategory const &)
	?landmarks@QLandmarkManagerEngine@QtMobility@@UBE?AV?$QList@VQLandmark@QtMobility@@@@ABVQLandmarkFilter@2@HHABV?$QList@VQLandmarkSortOrder@QtMobility@@@@PAW4Error@QLandmarkManager@2@PAVQString@@@Z @ 1126 NONAME ; class QList<class QtMobility::QLandmark> QtMobility::QLandmarkManagerEngine::landmarks(class QtMobility::QLandmarkFilter const &, int, int, class QList<class QtMobility::QLandmarkSortOrder> const &, enum QtMobility::QLandmarkManager::Error *, class QString *) const
	?setLocalId@QLandmarkId@QtMobility@@QAEXABVQString@@@Z @ 1127 NONAME ; void QtMobility::QLandmarkId::setLocalId(class QString const &)
	??0QGeoMappingManagerEngine@QtMobility@@IAE@PAVQGeoMappingManagerEnginePrivate@1@PAVQObject@@@Z @ 1128 NONAME ; QtMobility::QGeoMappingManagerEngine::QGeoMappingManagerEngine(class QtMobility::QGeoMappingManagerEnginePrivate *, class QObject *)
	?errorMap@QLandmarkCategorySaveRequest@QtMobility@@QBE?AV?$QMap@HW4Error@QLandmarkManager@QtMobility@@@@XZ @ 1129 NONAME ; class QMap<int, enum QtMobility::QLandmarkManager::Error> QtMobility::QLandmarkCategorySaveRequest::errorMap(void) const
	?metaObject@QLandmarkIdFetchRequest@QtMobility@@UBEPBUQMetaObject@@XZ @ 1130 NONAME ; struct QMetaObject const * QtMobility::QLandmarkIdFetchRequest::metaObject(void) const
	?maximumZoomLevel@QGeoMappingManagerEngine@QtMobility@@QBEMXZ @ 1131 NONAME ; float QtMobility::QGeoMappingManagerEngine::maximumZoomLevel(void) const
	??_EQLandmarkManagerEngineFactory@QtMobility@@UAE@I@Z @ 1132 NONAME ; QtMobility::QLandmarkManagerEngineFactory::~QLandmarkManagerEngineFactory(unsigned int)
	??0QLandmarkCategory@QtMobility@@QAE@XZ @ 1133 NONAME ; QtMobility::QLandmarkCategory::QLandmarkCategory(void)
	??_EQLandmarkSortOrder@QtMobility@@UAE@I@Z @ 1134 NONAME ; QtMobility::QLandmarkSortOrder::~QLandmarkSortOrder(unsigned int)
	?setDevice@QLandmarkImportRequest@QtMobility@@QAEXPAVQIODevice@@@Z @ 1135 NONAME ; void QtMobility::QLandmarkImportRequest::setDevice(class QIODevice *)
	?setAddress@QGeoPlace@QtMobility@@QAEXABVQGeoAddress@2@@Z @ 1136 NONAME ; void QtMobility::QGeoPlace::setAddress(class QtMobility::QGeoAddress const &)
	?offset@QGeoMapPixmapObject@QtMobility@@QBE?AVQPoint@@XZ @ 1137 NONAME ; class QPoint QtMobility::QGeoMapPixmapObject::offset(void) const
	?setLimit@QLandmarkCategoryFetchRequest@QtMobility@@QAEXH@Z @ 1138 NONAME ; void QtMobility::QLandmarkCategoryFetchRequest::setLimit(int)
	?setBrush@QGeoMapRectangleObject@QtMobility@@QAEXABVQBrush@@@Z @ 1139 NONAME ; void QtMobility::QGeoMapRectangleObject::setBrush(class QBrush const &)
	?waypoints@QGeoRouteRequest@QtMobility@@QBE?AV?$QList@VQGeoCoordinate@QtMobility@@@@XZ @ 1140 NONAME ; class QList<class QtMobility::QGeoCoordinate> QtMobility::QGeoRouteRequest::waypoints(void) const
	?staticMetaObject@QGeoMapObjectInfo@QtMobility@@2UQMetaObject@@B @ 1141 NONAME ; struct QMetaObject const QtMobility::QGeoMapObjectInfo::staticMetaObject
	??0QLandmarkNameFilter@QtMobility@@QAE@ABVQLandmarkFilter@1@@Z @ 1142 NONAME ; QtMobility::QLandmarkNameFilter::QLandmarkNameFilter(class QtMobility::QLandmarkFilter const &)
	?errorMap@QLandmarkCategoryRemoveRequest@QtMobility@@QBE?AV?$QMap@HW4Error@QLandmarkManager@QtMobility@@@@XZ @ 1143 NONAME ; class QMap<int, enum QtMobility::QLandmarkManager::Error> QtMobility::QLandmarkCategoryRemoveRequest::errorMap(void) const
	?metaObject@QGraphicsGeoMap@QtMobility@@UBEPBUQMetaObject@@XZ @ 1144 NONAME ; struct QMetaObject const * QtMobility::QGraphicsGeoMap::metaObject(void) const
	?tr@QLandmarkCategorySaveRequest@QtMobility@@SA?AVQString@@PBD0H@Z @ 1145 NONAME ; class QString QtMobility::QLandmarkCategorySaveRequest::tr(char const *, char const *, int)
	?setMapType@QGeoTiledMapData@QtMobility@@UAEXW4MapType@QGraphicsGeoMap@2@@Z @ 1146 NONAME ; void QtMobility::QGeoTiledMapData::setMapType(enum QtMobility::QGraphicsGeoMap::MapType)
	??9QGeoRouteRequest@QtMobility@@QBE_NABV01@@Z @ 1147 NONAME ; bool QtMobility::QGeoRouteRequest::operator!=(class QtMobility::QGeoRouteRequest const &) const
	?pathChanged@QGeoMapPolygonObject@QtMobility@@IAEXABV?$QList@VQGeoCoordinate@QtMobility@@@@@Z @ 1148 NONAME ; void QtMobility::QGeoMapPolygonObject::pathChanged(class QList<class QtMobility::QGeoCoordinate> const &)
	?tr@QLandmarkFetchByIdRequest@QtMobility@@SA?AVQString@@PBD0@Z @ 1149 NONAME ; class QString QtMobility::QLandmarkFetchByIdRequest::tr(char const *, char const *)
	?setOffset@QGeoSearchReply@QtMobility@@IAEXH@Z @ 1150 NONAME ; void QtMobility::QGeoSearchReply::setOffset(int)
	??_EQGeoTiledMapData@QtMobility@@UAE@I@Z @ 1151 NONAME ; QtMobility::QGeoTiledMapData::~QGeoTiledMapData(unsigned int)
	??_EQLandmarkExportRequest@QtMobility@@UAE@I@Z @ 1152 NONAME ; QtMobility::QLandmarkExportRequest::~QLandmarkExportRequest(unsigned int)
	?sortLandmarks@QLandmarkManagerEngine@QtMobility@@SA?AV?$QList@VQLandmarkId@QtMobility@@@@ABV?$QList@VQLandmark@QtMobility@@@@ABV?$QList@VQLandmarkSortOrder@QtMobility@@@@@Z @ 1153 NONAME ; class QList<class QtMobility::QLandmarkId> QtMobility::QLandmarkManagerEngine::sortLandmarks(class QList<class QtMobility::QLandmark> const &, class QList<class QtMobility::QLandmarkSortOrder> const &)
	?search@QGeoSearchManager@QtMobility@@QAEPAVQGeoSearchReply@2@ABVQString@@V?$QFlags@W4SearchType@QGeoSearchManager@QtMobility@@@@HHPAVQGeoBoundingArea@2@@Z @ 1154 NONAME ; class QtMobility::QGeoSearchReply * QtMobility::QGeoSearchManager::search(class QString const &, class QFlags<enum QtMobility::QGeoSearchManager::SearchType>, int, int, class QtMobility::QGeoBoundingArea *)
	?metaObject@QGeoMapObject@QtMobility@@UBEPBUQMetaObject@@XZ @ 1155 NONAME ; struct QMetaObject const * QtMobility::QGeoMapObject::metaObject(void) const
	?setCaseSensitivity@QLandmarkNameSort@QtMobility@@QAEXW4CaseSensitivity@Qt@@@Z @ 1156 NONAME ; void QtMobility::QLandmarkNameSort::setCaseSensitivity(enum Qt::CaseSensitivity)
	??0QLandmarkIntersectionFilter@QtMobility@@QAE@ABVQLandmarkFilter@1@@Z @ 1157 NONAME ; QtMobility::QLandmarkIntersectionFilter::QLandmarkIntersectionFilter(class QtMobility::QLandmarkFilter const &)
	?offset@QLandmarkCategoryFetchRequest@QtMobility@@QBEHXZ @ 1158 NONAME ; int QtMobility::QLandmarkCategoryFetchRequest::offset(void) const
	?tr@QGeoMapRectangleObject@QtMobility@@SA?AVQString@@PBD0@Z @ 1159 NONAME ; class QString QtMobility::QGeoMapRectangleObject::tr(char const *, char const *)
	?landmarkIds@QLandmarkManager@QtMobility@@QBE?AV?$QList@VQLandmarkId@QtMobility@@@@ABVQLandmarkFilter@2@HHABVQLandmarkSortOrder@2@@Z @ 1160 NONAME ; class QList<class QtMobility::QLandmarkId> QtMobility::QLandmarkManager::landmarkIds(class QtMobility::QLandmarkFilter const &, int, int, class QtMobility::QLandmarkSortOrder const &) const
	?setDistanceToNextInstruction@QGeoManeuver@QtMobility@@QAEXM@Z @ 1161 NONAME ; void QtMobility::QGeoManeuver::setDistanceToNextInstruction(float)
	??0QGeoMapCircleObject@QtMobility@@QAE@ABVQGeoBoundingCircle@1@@Z @ 1162 NONAME ; QtMobility::QGeoMapCircleObject::QGeoMapCircleObject(class QtMobility::QGeoBoundingCircle const &)
	?getStaticMetaObject@QLandmarkImportRequest@QtMobility@@SAABUQMetaObject@@XZ @ 1163 NONAME ; struct QMetaObject const & QtMobility::QLandmarkImportRequest::getStaticMetaObject(void)
	?qt_metacall@QGeoTiledMappingManagerEngine@QtMobility@@UAEHW4Call@QMetaObject@@HPAPAX@Z @ 1164 NONAME ; int QtMobility::QGeoTiledMappingManagerEngine::qt_metacall(enum QMetaObject::Call, int, void * *)
	??8QGeoPlace@QtMobility@@QBE_NABV01@@Z @ 1165 NONAME ; bool QtMobility::QGeoPlace::operator==(class QtMobility::QGeoPlace const &) const
	?createMapData@QGeoTiledMappingManagerEngine@QtMobility@@UAEPAVQGeoMapData@2@XZ @ 1166 NONAME ; class QtMobility::QGeoMapData * QtMobility::QGeoTiledMappingManagerEngine::createMapData(void)
	?qt_metacall@QGeoMapObjectInfo@QtMobility@@UAEHW4Call@QMetaObject@@HPAPAX@Z @ 1167 NONAME ; int QtMobility::QGeoMapObjectInfo::qt_metacall(enum QMetaObject::Call, int, void * *)
	?staticMetaObject@QGeoMappingManagerEngine@QtMobility@@2UQMetaObject@@B @ 1168 NONAME ; struct QMetaObject const QtMobility::QGeoMappingManagerEngine::staticMetaObject
	?sorting@QLandmarkFetchRequest@QtMobility@@QBE?AV?$QList@VQLandmarkSortOrder@QtMobility@@@@XZ @ 1169 NONAME ; class QList<class QtMobility::QLandmarkSortOrder> QtMobility::QLandmarkFetchRequest::sorting(void) const
	?trUtf8@QLandmarkAbstractRequest@QtMobility@@SA?AVQString@@PBD0@Z @ 1170 NONAME ; class QString QtMobility::QLandmarkAbstractRequest::trUtf8(char const *, char const *)
	?setRoutes@QGeoRouteReply@QtMobility@@IAEXABV?$QList@VQGeoRoute@QtMobility@@@@@Z @ 1171 NONAME ; void QtMobility::QGeoRouteReply::setRoutes(class QList<class QtMobility::QGeoRoute> const &)
	??0QLandmarkSortOrder@QtMobility@@QAE@ABV01@@Z @ 1172 NONAME ; QtMobility::QLandmarkSortOrder::QLandmarkSortOrder(class QtMobility::QLandmarkSortOrder const &)
	?qt_metacall@QLandmarkSaveRequest@QtMobility@@UAEHW4Call@QMetaObject@@HPAPAX@Z @ 1173 NONAME ; int QtMobility::QLandmarkSaveRequest::qt_metacall(enum QMetaObject::Call, int, void * *)
	?contains@QGeoMapObjectInfo@QtMobility@@UBE_NABVQGeoCoordinate@2@@Z @ 1174 NONAME ; bool QtMobility::QGeoMapObjectInfo::contains(class QtMobility::QGeoCoordinate const &) const
	?categoryId@QLandmarkImportRequest@QtMobility@@QBE?AVQLandmarkCategoryId@2@XZ @ 1175 NONAME ; class QtMobility::QLandmarkCategoryId QtMobility::QLandmarkImportRequest::categoryId(void) const
	?tr@QGeoSearchReply@QtMobility@@SA?AVQString@@PBD0H@Z @ 1176 NONAME ; class QString QtMobility::QGeoSearchReply::tr(char const *, char const *, int)
	?d_func@QGeoMapObject@QtMobility@@AAEPAVQGeoMapObjectPrivate@2@XZ @ 1177 NONAME ; class QtMobility::QGeoMapObjectPrivate * QtMobility::QGeoMapObject::d_func(void)
	??1QGeoAddress@QtMobility@@QAE@XZ @ 1178 NONAME ; QtMobility::QGeoAddress::~QGeoAddress(void)
	?clearMapObjects@QGraphicsGeoMap@QtMobility@@QAEXXZ @ 1179 NONAME ; void QtMobility::QGraphicsGeoMap::clearMapObjects(void)
	?alignment@QGeoMapTextObject@QtMobility@@QBE?AV?$QFlags@W4AlignmentFlag@Qt@@@@XZ @ 1180 NONAME ; class QFlags<enum Qt::AlignmentFlag> QtMobility::QGeoMapTextObject::alignment(void) const
	?d_func@QLandmarkCategoryFetchByIdRequest@QtMobility@@ABEPBVQLandmarkCategoryFetchByIdRequestPrivate@2@XZ @ 1181 NONAME ; class QtMobility::QLandmarkCategoryFetchByIdRequestPrivate const * QtMobility::QLandmarkCategoryFetchByIdRequest::d_func(void) const
	?setBrush@QGeoMapPolygonObject@QtMobility@@QAEXABVQBrush@@@Z @ 1182 NONAME ; void QtMobility::QGeoMapPolygonObject::setBrush(class QBrush const &)
	?boundingBox@QGeoMapObjectInfo@QtMobility@@UBE?AVQGeoBoundingBox@2@XZ @ 1183 NONAME ; class QtMobility::QGeoBoundingBox QtMobility::QGeoMapObjectInfo::boundingBox(void) const
	?distance@QGeoRouteSegment@QtMobility@@QBEMXZ @ 1184 NONAME ; float QtMobility::QGeoRouteSegment::distance(void) const
	?viewport@QGeoSearchReply@QtMobility@@QBEPAVQGeoBoundingArea@2@XZ @ 1185 NONAME ; class QtMobility::QGeoBoundingArea * QtMobility::QGeoSearchReply::viewport(void) const
	?fileName@QLandmarkImportRequest@QtMobility@@QBE?AVQString@@XZ @ 1186 NONAME ; class QString QtMobility::QLandmarkImportRequest::fileName(void) const
	?d_func@QGeoMapRouteObject@QtMobility@@AAEPAVQGeoMapRouteObjectPrivate@2@XZ @ 1187 NONAME ; class QtMobility::QGeoMapRouteObjectPrivate * QtMobility::QGeoMapRouteObject::d_func(void)
	?setLandmark@QLandmarkRemoveRequest@QtMobility@@QAEXABVQLandmark@2@@Z @ 1188 NONAME ; void QtMobility::QLandmarkRemoveRequest::setLandmark(class QtMobility::QLandmark const &)
	??1QLandmarkAttributeFilter@QtMobility@@UAE@XZ @ 1189 NONAME ; QtMobility::QLandmarkAttributeFilter::~QLandmarkAttributeFilter(void)
	??0QGeoRoute@QtMobility@@QAE@ABV01@@Z @ 1190 NONAME ; QtMobility::QGeoRoute::QGeoRoute(class QtMobility::QGeoRoute const &)
	?qt_metacall@QLandmarkFetchByIdRequest@QtMobility@@UAEHW4Call@QMetaObject@@HPAPAX@Z @ 1191 NONAME ; int QtMobility::QLandmarkFetchByIdRequest::qt_metacall(enum QMetaObject::Call, int, void * *)
	?qt_metacall@QLandmarkIdFetchRequest@QtMobility@@UAEHW4Call@QMetaObject@@HPAPAX@Z @ 1192 NONAME ; int QtMobility::QLandmarkIdFetchRequest::qt_metacall(enum QMetaObject::Call, int, void * *)
	?qt_metacast@QLandmarkManager@QtMobility@@UAEPAXPBD@Z @ 1193 NONAME ; void * QtMobility::QLandmarkManager::qt_metacast(char const *)
	?staticMetaObject@QLandmarkCategorySaveRequest@QtMobility@@2UQMetaObject@@B @ 1194 NONAME ; struct QMetaObject const QtMobility::QLandmarkCategorySaveRequest::staticMetaObject
	?width@QGeoBoundingBox@QtMobility@@QBENXZ @ 1195 NONAME ; double QtMobility::QGeoBoundingBox::width(void) const
	?categories@QLandmarkManager@QtMobility@@QBE?AV?$QList@VQLandmarkCategory@QtMobility@@@@ABV?$QList@VQLandmarkCategoryId@QtMobility@@@@@Z @ 1196 NONAME ; class QList<class QtMobility::QLandmarkCategory> QtMobility::QLandmarkManager::categories(class QList<class QtMobility::QLandmarkCategoryId> const &) const
	?categoriesAdded@QLandmarkManagerEngine@QtMobility@@IAEXABV?$QList@VQLandmarkCategoryId@QtMobility@@@@@Z @ 1197 NONAME ; void QtMobility::QLandmarkManagerEngine::categoriesAdded(class QList<class QtMobility::QLandmarkCategoryId> const &)
	?getStaticMetaObject@QGeoRoutingManager@QtMobility@@SAABUQMetaObject@@XZ @ 1198 NONAME ; struct QMetaObject const & QtMobility::QGeoRoutingManager::getStaticMetaObject(void)
	??9QGeoBoundingCircle@QtMobility@@QBE_NABV01@@Z @ 1199 NONAME ; bool QtMobility::QGeoBoundingCircle::operator!=(class QtMobility::QGeoBoundingCircle const &) const
	??1QGeoBoundingArea@QtMobility@@UAE@XZ @ 1200 NONAME ; QtMobility::QGeoBoundingArea::~QGeoBoundingArea(void)
	?coordinateToScreenPosition@QGraphicsGeoMap@QtMobility@@QBE?AVQPointF@@ABVQGeoCoordinate@2@@Z @ 1201 NONAME ; class QPointF QtMobility::QGraphicsGeoMap::coordinateToScreenPosition(class QtMobility::QGeoCoordinate const &) const
	?setFont@QGeoMapTextObject@QtMobility@@QAEXABVQFont@@@Z @ 1202 NONAME ; void QtMobility::QGeoMapTextObject::setFont(class QFont const &)
	?filters@QLandmarkIntersectionFilter@QtMobility@@QBE?AV?$QList@VQLandmarkFilter@QtMobility@@@@XZ @ 1203 NONAME ; class QList<class QtMobility::QLandmarkFilter> QtMobility::QLandmarkIntersectionFilter::filters(void) const
	?device@QLandmarkExportRequest@QtMobility@@QBEPAVQIODevice@@XZ @ 1204 NONAME ; class QIODevice * QtMobility::QLandmarkExportRequest::device(void) const
	?mapObjectsInScreenRect@QGeoTiledMapData@QtMobility@@UBE?AV?$QList@PAVQGeoMapObject@QtMobility@@@@ABVQRectF@@@Z @ 1205 NONAME ; class QList<class QtMobility::QGeoMapObject *> QtMobility::QGeoTiledMapData::mapObjectsInScreenRect(class QRectF const &) const
	?setCategoryId@QLandmarkCategoryFetchByIdRequest@QtMobility@@QAEXABVQLandmarkCategoryId@2@@Z @ 1206 NONAME ; void QtMobility::QLandmarkCategoryFetchByIdRequest::setCategoryId(class QtMobility::QLandmarkCategoryId const &)
	??0QLandmarkNameSort@QtMobility@@QAE@W4SortOrder@Qt@@W4CaseSensitivity@3@@Z @ 1207 NONAME ; QtMobility::QLandmarkNameSort::QLandmarkNameSort(enum Qt::SortOrder, enum Qt::CaseSensitivity)
	??4QGeoBoundingBox@QtMobility@@QAEAAV01@ABV01@@Z @ 1208 NONAME ; class QtMobility::QGeoBoundingBox & QtMobility::QGeoBoundingBox::operator=(class QtMobility::QGeoBoundingBox const &)
	?setCategory@QLandmarkCategoryFilter@QtMobility@@QAEXABVQLandmarkCategory@2@@Z @ 1209 NONAME ; void QtMobility::QLandmarkCategoryFilter::setCategory(class QtMobility::QLandmarkCategory const &)
	?getStaticMetaObject@QGeoSearchManagerEngine@QtMobility@@SAABUQMetaObject@@XZ @ 1210 NONAME ; struct QMetaObject const & QtMobility::QGeoSearchManagerEngine::getStaticMetaObject(void)
	?nextRouteSegment@QGeoRouteSegment@QtMobility@@QBE?AV12@XZ @ 1211 NONAME ; class QtMobility::QGeoRouteSegment QtMobility::QGeoRouteSegment::nextRouteSegment(void) const
	?trUtf8@QLandmarkCategoryIdFetchRequest@QtMobility@@SA?AVQString@@PBD0H@Z @ 1212 NONAME ; class QString QtMobility::QLandmarkCategoryIdFetchRequest::trUtf8(char const *, char const *, int)
	?setManagerVersion@QGeoRoutingManagerEngine@QtMobility@@AAEXH@Z @ 1213 NONAME ; void QtMobility::QGeoRoutingManagerEngine::setManagerVersion(int)
	?setMapImageData@QGeoTiledMapReply@QtMobility@@IAEXABVQByteArray@@@Z @ 1214 NONAME ; void QtMobility::QGeoTiledMapReply::setMapImageData(class QByteArray const &)
	??0QLandmarkCategoryFilter@QtMobility@@QAE@ABVQLandmarkFilter@1@@Z @ 1215 NONAME ; QtMobility::QLandmarkCategoryFilter::QLandmarkCategoryFilter(class QtMobility::QLandmarkFilter const &)
	?setCategoryId@QLandmarkCategoryFilter@QtMobility@@QAEXABVQLandmarkCategoryId@2@@Z @ 1216 NONAME ; void QtMobility::QLandmarkCategoryFilter::setCategoryId(class QtMobility::QLandmarkCategoryId const &)
	??6QLandmarkIdFilter@QtMobility@@QAEAAV01@ABVQLandmarkId@1@@Z @ 1217 NONAME ; class QtMobility::QLandmarkIdFilter & QtMobility::QLandmarkIdFilter::operator<<(class QtMobility::QLandmarkId const &)
	?supportsAlternativeRoutes@QGeoRoutingManager@QtMobility@@QBE_NXZ @ 1218 NONAME ; bool QtMobility::QGeoRoutingManager::supportsAlternativeRoutes(void) const
	?coordinateToWorldReferencePosition@QGeoTiledMapData@QtMobility@@UBE?AVQPoint@@ABVQGeoCoordinate@2@@Z @ 1219 NONAME ; class QPoint QtMobility::QGeoTiledMapData::coordinateToWorldReferencePosition(class QtMobility::QGeoCoordinate const &) const
	?worldReferenceViewportCenter@QGeoTiledMapData@QtMobility@@QBE?AVQPoint@@XZ @ 1220 NONAME ; class QPoint QtMobility::QGeoTiledMapData::worldReferenceViewportCenter(void) const
	?tr@QLandmarkCategoryFetchByIdRequest@QtMobility@@SA?AVQString@@PBD0H@Z @ 1221 NONAME ; class QString QtMobility::QLandmarkCategoryFetchByIdRequest::tr(char const *, char const *, int)
	?metaObject@QGeoSearchReply@QtMobility@@UBEPBUQMetaObject@@XZ @ 1222 NONAME ; struct QMetaObject const * QtMobility::QGeoSearchReply::metaObject(void) const
	?tr@QGeoMappingManagerEngine@QtMobility@@SA?AVQString@@PBD0H@Z @ 1223 NONAME ; class QString QtMobility::QGeoMappingManagerEngine::tr(char const *, char const *, int)
	?createMapObjectInfo@QGeoTiledMapData@QtMobility@@MAEPAVQGeoMapObjectInfo@2@PAVQGeoMapObject@2@@Z @ 1224 NONAME ; class QtMobility::QGeoMapObjectInfo * QtMobility::QGeoTiledMapData::createMapObjectInfo(class QtMobility::QGeoMapObject *)
	?setCenter@QGeoMapCircleObject@QtMobility@@QAEXABVQGeoCoordinate@2@@Z @ 1225 NONAME ; void QtMobility::QGeoMapCircleObject::setCenter(class QtMobility::QGeoCoordinate const &)
	?pixmapChanged@QGeoMapPixmapObject@QtMobility@@IAEXABVQPixmap@@@Z @ 1226 NONAME ; void QtMobility::QGeoMapPixmapObject::pixmapChanged(class QPixmap const &)
	?error@QGeoTiledMapReply@QtMobility@@QBE?AW4Error@12@XZ @ 1227 NONAME ; enum QtMobility::QGeoTiledMapReply::Error QtMobility::QGeoTiledMapReply::error(void) const
	?setLocale@QGeoRoutingManager@QtMobility@@QAEXABVQLocale@@@Z @ 1228 NONAME ; void QtMobility::QGeoRoutingManager::setLocale(class QLocale const &)
	?setPen@QGeoMapRouteObject@QtMobility@@QAEXABVQPen@@@Z @ 1229 NONAME ; void QtMobility::QGeoMapRouteObject::setPen(class QPen const &)
	?resultsAvailable@QLandmarkAbstractRequest@QtMobility@@IAEXXZ @ 1230 NONAME ; void QtMobility::QLandmarkAbstractRequest::resultsAvailable(void)
	??0QGeoRoute@QtMobility@@QAE@XZ @ 1231 NONAME ; QtMobility::QGeoRoute::QGeoRoute(void)
	?qt_metacall@QGeoMapPixmapObject@QtMobility@@UAEHW4Call@QMetaObject@@HPAPAX@Z @ 1232 NONAME ; int QtMobility::QGeoMapPixmapObject::qt_metacall(enum QMetaObject::Call, int, void * *)
	?availableServiceProviders@QGeoServiceProvider@QtMobility@@SA?AVQStringList@@XZ @ 1233 NONAME ; class QStringList QtMobility::QGeoServiceProvider::availableServiceProviders(void)
	?errorMap@QLandmarkCategoryFetchByIdRequest@QtMobility@@QBE?AV?$QMap@HW4Error@QLandmarkManager@QtMobility@@@@XZ @ 1234 NONAME ; class QMap<int, enum QtMobility::QLandmarkManager::Error> QtMobility::QLandmarkCategoryFetchByIdRequest::errorMap(void) const
	??_EQLandmarkCategoryIdFetchRequest@QtMobility@@UAE@I@Z @ 1235 NONAME ; QtMobility::QLandmarkCategoryIdFetchRequest::~QLandmarkCategoryIdFetchRequest(unsigned int)
	?radius@QGeoBoundingCircle@QtMobility@@QBEMXZ @ 1236 NONAME ; float QtMobility::QGeoBoundingCircle::radius(void) const
	?type@QGeoMapCircleObject@QtMobility@@UBE?AW4Type@QGeoMapObject@2@XZ @ 1237 NONAME ; enum QtMobility::QGeoMapObject::Type QtMobility::QGeoMapCircleObject::type(void) const
	?d_func@QGeoMapGroupObject@QtMobility@@AAEPAVQGeoMapGroupObjectPrivate@2@XZ @ 1238 NONAME ; class QtMobility::QGeoMapGroupObjectPrivate * QtMobility::QGeoMapGroupObject::d_func(void)
	?landmarks@QLandmarkManager@QtMobility@@QBE?AV?$QList@VQLandmark@QtMobility@@@@ABV?$QList@VQLandmarkId@QtMobility@@@@@Z @ 1239 NONAME ; class QList<class QtMobility::QLandmark> QtMobility::QLandmarkManager::landmarks(class QList<class QtMobility::QLandmarkId> const &) const
	?processRequests@QGeoTiledMapData@QtMobility@@AAEXXZ @ 1240 NONAME ; void QtMobility::QGeoTiledMapData::processRequests(void)
	?getStaticMetaObject@QGeoTiledMapData@QtMobility@@SAABUQMetaObject@@XZ @ 1241 NONAME ; struct QMetaObject const & QtMobility::QGeoTiledMapData::getStaticMetaObject(void)
	?mapType@QGeoTiledMapRequest@QtMobility@@QBE?AW4MapType@QGraphicsGeoMap@2@XZ @ 1242 NONAME ; enum QtMobility::QGraphicsGeoMap::MapType QtMobility::QGeoTiledMapRequest::mapType(void) const
	?type@QGeoMapPolygonObject@QtMobility@@UBE?AW4Type@QGeoMapObject@2@XZ @ 1243 NONAME ; enum QtMobility::QGeoMapObject::Type QtMobility::QGeoMapPolygonObject::type(void) const
	?state@QGeoAddress@QtMobility@@QBE?AVQString@@XZ @ 1244 NONAME ; class QString QtMobility::QGeoAddress::state(void) const
	?limit@QLandmarkIdFetchRequest@QtMobility@@QBEHXZ @ 1245 NONAME ; int QtMobility::QLandmarkIdFetchRequest::limit(void) const
	?updateLandmarkRemoveRequest@QLandmarkManagerEngine@QtMobility@@SAXPAVQLandmarkRemoveRequest@2@W4Error@QLandmarkManager@2@ABVQString@@ABV?$QMap@HW4Error@QLandmarkManager@QtMobility@@@@W4State@QLandmarkAbstractRequest@2@@Z @ 1246 NONAME ; void QtMobility::QLandmarkManagerEngine::updateLandmarkRemoveRequest(class QtMobility::QLandmarkRemoveRequest *, enum QtMobility::QLandmarkManager::Error, class QString const &, class QMap<int, enum QtMobility::QLandmarkManager::Error> const &, enum QtMobility::QLandmarkAbstractRequest::State)
	?managerVersion@QGeoRoutingManagerEngine@QtMobility@@QBEHXZ @ 1247 NONAME ; int QtMobility::QGeoRoutingManagerEngine::managerVersion(void) const
	?trUtf8@QLandmarkCategoryIdFetchRequest@QtMobility@@SA?AVQString@@PBD0@Z @ 1248 NONAME ; class QString QtMobility::QLandmarkCategoryIdFetchRequest::trUtf8(char const *, char const *)
	?county@QGeoAddress@QtMobility@@QBE?AVQString@@XZ @ 1249 NONAME ; class QString QtMobility::QGeoAddress::county(void) const
	?trUtf8@QGeoSearchManagerEngine@QtMobility@@SA?AVQString@@PBD0@Z @ 1250 NONAME ; class QString QtMobility::QGeoSearchManagerEngine::trUtf8(char const *, char const *)
	?setRoute@QGeoMapRouteObject@QtMobility@@QAEXABVQGeoRoute@2@@Z @ 1251 NONAME ; void QtMobility::QGeoMapRouteObject::setRoute(class QtMobility::QGeoRoute const &)
	??_EQGeoRoutingManager@QtMobility@@UAE@I@Z @ 1252 NONAME ; QtMobility::QGeoRoutingManager::~QGeoRoutingManager(unsigned int)
	?country@QGeoAddress@QtMobility@@QBE?AVQString@@XZ @ 1253 NONAME ; class QString QtMobility::QGeoAddress::country(void) const
	?isFinished@QGeoRouteReply@QtMobility@@QBE_NXZ @ 1254 NONAME ; bool QtMobility::QGeoRouteReply::isFinished(void) const
	?getStaticMetaObject@QLandmarkCategoryIdFetchRequest@QtMobility@@SAABUQMetaObject@@XZ @ 1255 NONAME ; struct QMetaObject const & QtMobility::QLandmarkCategoryIdFetchRequest::getStaticMetaObject(void)
	?translate@QGeoBoundingBox@QtMobility@@QAEXNN@Z @ 1256 NONAME ; void QtMobility::QGeoBoundingBox::translate(double, double)
	?d_func@QLandmarkAttributeFilter@QtMobility@@ABEPBVQLandmarkAttributeFilterPrivate@2@XZ @ 1257 NONAME ; class QtMobility::QLandmarkAttributeFilterPrivate const * QtMobility::QLandmarkAttributeFilter::d_func(void) const
	?setLandmarkId@QLandmark@QtMobility@@QAEXABVQLandmarkId@2@@Z @ 1258 NONAME ; void QtMobility::QLandmark::setLandmarkId(class QtMobility::QLandmarkId const &)
	?search@QGeoSearchManagerEngine@QtMobility@@UAEPAVQGeoSearchReply@2@ABVQString@@V?$QFlags@W4SearchType@QGeoSearchManager@QtMobility@@@@HHPAVQGeoBoundingArea@2@@Z @ 1259 NONAME ; class QtMobility::QGeoSearchReply * QtMobility::QGeoSearchManagerEngine::search(class QString const &, class QFlags<enum QtMobility::QGeoSearchManager::SearchType>, int, int, class QtMobility::QGeoBoundingArea *)
	?prepend@QLandmarkUnionFilter@QtMobility@@QAEXABVQLandmarkFilter@2@@Z @ 1260 NONAME ; void QtMobility::QLandmarkUnionFilter::prepend(class QtMobility::QLandmarkFilter const &)
	??0QGeoBoundingBox@QtMobility@@QAE@ABVQGeoCoordinate@1@0@Z @ 1261 NONAME ; QtMobility::QGeoBoundingBox::QGeoBoundingBox(class QtMobility::QGeoCoordinate const &, class QtMobility::QGeoCoordinate const &)
	?tr@QGeoRoutingManagerEngine@QtMobility@@SA?AVQString@@PBD0@Z @ 1262 NONAME ; class QString QtMobility::QGeoRoutingManagerEngine::tr(char const *, char const *)
	?supportsRouteUpdates@QGeoRoutingManager@QtMobility@@QBE_NXZ @ 1263 NONAME ; bool QtMobility::QGeoRoutingManager::supportsRouteUpdates(void) const
	?mapObjectsAtScreenPosition@QGeoTiledMapData@QtMobility@@UBE?AV?$QList@PAVQGeoMapObject@QtMobility@@@@ABVQPointF@@@Z @ 1264 NONAME ; class QList<class QtMobility::QGeoMapObject *> QtMobility::QGeoTiledMapData::mapObjectsAtScreenPosition(class QPointF const &) const
	?qt_metacast@QLandmarkIdFetchRequest@QtMobility@@UAEPAXPBD@Z @ 1265 NONAME ; void * QtMobility::QLandmarkIdFetchRequest::qt_metacast(char const *)
	?tr@QLandmarkExportRequest@QtMobility@@SA?AVQString@@PBD0@Z @ 1266 NONAME ; class QString QtMobility::QLandmarkExportRequest::tr(char const *, char const *)
	?paintObjects@QGeoMapData@QtMobility@@MAEXPAVQPainter@@PBVQStyleOptionGraphicsItem@@@Z @ 1267 NONAME ; void QtMobility::QGeoMapData::paintObjects(class QPainter *, class QStyleOptionGraphicsItem const *)
	?updateRoute@QGeoRoutingManagerEngine@QtMobility@@UAEPAVQGeoRouteReply@2@ABVQGeoRoute@2@ABVQGeoCoordinate@2@@Z @ 1268 NONAME ; class QtMobility::QGeoRouteReply * QtMobility::QGeoRoutingManagerEngine::updateRoute(class QtMobility::QGeoRoute const &, class QtMobility::QGeoCoordinate const &)
	??1QLandmarkIdFetchRequest@QtMobility@@UAE@XZ @ 1269 NONAME ; QtMobility::QLandmarkIdFetchRequest::~QLandmarkIdFetchRequest(void)
	?landmarkIds@QLandmarkRemoveRequest@QtMobility@@QBE?AV?$QList@VQLandmarkId@QtMobility@@@@XZ @ 1270 NONAME ; class QList<class QtMobility::QLandmarkId> QtMobility::QLandmarkRemoveRequest::landmarkIds(void) const
	?qt_metacast@QGeoSearchManager@QtMobility@@UAEPAXPBD@Z @ 1271 NONAME ; void * QtMobility::QGeoSearchManager::qt_metacast(char const *)
	??1QLandmark@QtMobility@@UAE@XZ @ 1272 NONAME ; QtMobility::QLandmark::~QLandmark(void)
	?mapObjectsInScreenRect@QGraphicsGeoMap@QtMobility@@QBE?AV?$QList@PAVQGeoMapObject@QtMobility@@@@ABVQRectF@@@Z @ 1273 NONAME ; class QList<class QtMobility::QGeoMapObject *> QtMobility::QGraphicsGeoMap::mapObjectsInScreenRect(class QRectF const &) const
	??1QGeoBoundingCircle@QtMobility@@UAE@XZ @ 1274 NONAME ; QtMobility::QGeoBoundingCircle::~QGeoBoundingCircle(void)
	?district@QGeoAddress@QtMobility@@QBE?AVQString@@XZ @ 1275 NONAME ; class QString QtMobility::QGeoAddress::district(void) const
	?supportedFeatureTypes@QGeoRoutingManager@QtMobility@@QBE?AV?$QFlags@W4FeatureType@QGeoRouteRequest@QtMobility@@@@XZ @ 1276 NONAME ; class QFlags<enum QtMobility::QGeoRouteRequest::FeatureType> QtMobility::QGeoRoutingManager::supportedFeatureTypes(void) const
	?setCached@QGeoTiledMapReply@QtMobility@@IAEX_N@Z @ 1277 NONAME ; void QtMobility::QGeoTiledMapReply::setCached(bool)
	?errorMap@QLandmarkRemoveRequest@QtMobility@@QBE?AV?$QMap@HW4Error@QLandmarkManager@QtMobility@@@@XZ @ 1278 NONAME ; class QMap<int, enum QtMobility::QLandmarkManager::Error> QtMobility::QLandmarkRemoveRequest::errorMap(void) const
	?finished@QGeoRoutingManager@QtMobility@@IAEXPAVQGeoRouteReply@2@@Z @ 1279 NONAME ; void QtMobility::QGeoRoutingManager::finished(class QtMobility::QGeoRouteReply *)
	?trUtf8@QGeoRoutingManagerEngine@QtMobility@@SA?AVQString@@PBD0H@Z @ 1280 NONAME ; class QString QtMobility::QGeoRoutingManagerEngine::trUtf8(char const *, char const *, int)
	?metaObject@QGeoMapData@QtMobility@@UBEPBUQMetaObject@@XZ @ 1281 NONAME ; struct QMetaObject const * QtMobility::QGeoMapData::metaObject(void) const
	?tileSize@QGeoTiledMappingManagerEngine@QtMobility@@QBE?AVQSize@@XZ @ 1282 NONAME ; class QSize QtMobility::QGeoTiledMappingManagerEngine::tileSize(void) const
	?radius@QLandmark@QtMobility@@QBEMXZ @ 1283 NONAME ; float QtMobility::QLandmark::radius(void) const
	?getStaticMetaObject@QLandmarkCategorySaveRequest@QtMobility@@SAABUQMetaObject@@XZ @ 1284 NONAME ; struct QMetaObject const & QtMobility::QLandmarkCategorySaveRequest::getStaticMetaObject(void)
	?init@QGeoMapData@QtMobility@@UAEXXZ @ 1285 NONAME ; void QtMobility::QGeoMapData::init(void)
	?trUtf8@QLandmarkCategoryRemoveRequest@QtMobility@@SA?AVQString@@PBD0H@Z @ 1286 NONAME ; class QString QtMobility::QLandmarkCategoryRemoveRequest::trUtf8(char const *, char const *, int)
	?managerName@QGeoSearchManagerEngine@QtMobility@@QBE?AVQString@@XZ @ 1287 NONAME ; class QString QtMobility::QGeoSearchManagerEngine::managerName(void) const
	?pan@QGraphicsGeoMap@QtMobility@@QAEXHH@Z @ 1288 NONAME ; void QtMobility::QGraphicsGeoMap::pan(int, int)
	?setLandmarks@QLandmarkRemoveRequest@QtMobility@@QAEXABV?$QList@VQLandmark@QtMobility@@@@@Z @ 1289 NONAME ; void QtMobility::QLandmarkRemoveRequest::setLandmarks(class QList<class QtMobility::QLandmark> const &)
	?filters@QLandmarkUnionFilter@QtMobility@@QBE?AV?$QList@VQLandmarkFilter@QtMobility@@@@XZ @ 1290 NONAME ; class QList<class QtMobility::QLandmarkFilter> QtMobility::QLandmarkUnionFilter::filters(void) const
	?setZoomLevel@QGeoTiledMapData@QtMobility@@UAEXM@Z @ 1291 NONAME ; void QtMobility::QGeoTiledMapData::setZoomLevel(float)
	?getStaticMetaObject@QLandmarkSaveRequest@QtMobility@@SAABUQMetaObject@@XZ @ 1292 NONAME ; struct QMetaObject const & QtMobility::QLandmarkSaveRequest::getStaticMetaObject(void)
	?pen@QGeoMapTextObject@QtMobility@@QBE?AVQPen@@XZ @ 1293 NONAME ; class QPen QtMobility::QGeoMapTextObject::pen(void) const
	?qt_metacast@QGeoTiledMappingManagerEngine@QtMobility@@UAEPAXPBD@Z @ 1294 NONAME ; void * QtMobility::QGeoTiledMappingManagerEngine::qt_metacast(char const *)
	?setBounds@QGeoRoute@QtMobility@@QAEXABVQGeoBoundingBox@2@@Z @ 1295 NONAME ; void QtMobility::QGeoRoute::setBounds(class QtMobility::QGeoBoundingBox const &)
	?operationType@QLandmarkAttributeFilter@QtMobility@@QBE?AW4OperationType@12@XZ @ 1296 NONAME ; enum QtMobility::QLandmarkAttributeFilter::OperationType QtMobility::QLandmarkAttributeFilter::operationType(void) const
	?staticMetaObject@QGeoMapPolygonObject@QtMobility@@2UQMetaObject@@B @ 1297 NONAME ; struct QMetaObject const QtMobility::QGeoMapPolygonObject::staticMetaObject
	??0QLandmarkManager@QtMobility@@QAE@ABVQString@@ABV?$QMap@VQString@@V1@@@PAVQObject@@@Z @ 1298 NONAME ; QtMobility::QLandmarkManager::QLandmarkManager(class QString const &, class QMap<class QString, class QString> const &, class QObject *)
	?setLimit@QLandmarkCategoryIdFetchRequest@QtMobility@@QAEXH@Z @ 1299 NONAME ; void QtMobility::QLandmarkCategoryIdFetchRequest::setLimit(int)
	?metaObject@QGeoSearchManager@QtMobility@@UBEPBUQMetaObject@@XZ @ 1300 NONAME ; struct QMetaObject const * QtMobility::QGeoSearchManager::metaObject(void) const
	?trUtf8@QGeoSearchManagerEngine@QtMobility@@SA?AVQString@@PBD0H@Z @ 1301 NONAME ; class QString QtMobility::QGeoSearchManagerEngine::trUtf8(char const *, char const *, int)
	?locale@QGeoSearchManagerEngine@QtMobility@@QBE?AVQLocale@@XZ @ 1302 NONAME ; class QLocale QtMobility::QGeoSearchManagerEngine::locale(void) const
	?tr@QLandmarkCategoryIdFetchRequest@QtMobility@@SA?AVQString@@PBD0@Z @ 1303 NONAME ; class QString QtMobility::QLandmarkCategoryIdFetchRequest::tr(char const *, char const *)
	?column@QGeoTiledMapRequest@QtMobility@@QBEHXZ @ 1304 NONAME ; int QtMobility::QGeoTiledMapRequest::column(void) const
	?landmarkIds@QLandmarkExportRequest@QtMobility@@QBE?AV?$QList@VQLandmarkId@QtMobility@@@@XZ @ 1305 NONAME ; class QList<class QtMobility::QLandmarkId> QtMobility::QLandmarkExportRequest::landmarkIds(void) const
	??1QGeoTiledMapReply@QtMobility@@UAE@XZ @ 1306 NONAME ; QtMobility::QGeoTiledMapReply::~QGeoTiledMapReply(void)
	?trUtf8@QLandmarkAbstractRequest@QtMobility@@SA?AVQString@@PBD0H@Z @ 1307 NONAME ; class QString QtMobility::QLandmarkAbstractRequest::trUtf8(char const *, char const *, int)
	?finished@QGeoSearchReply@QtMobility@@IAEXXZ @ 1308 NONAME ; void QtMobility::QGeoSearchReply::finished(void)
	?setCategoryIds@QLandmark@QtMobility@@QAEXABV?$QList@VQLandmarkCategoryId@QtMobility@@@@@Z @ 1309 NONAME ; void QtMobility::QLandmark::setCategoryIds(class QList<class QtMobility::QLandmarkCategoryId> const &)
	?format@QLandmarkImportRequest@QtMobility@@QBE?AVQString@@XZ @ 1310 NONAME ; class QString QtMobility::QLandmarkImportRequest::format(void) const
	?setPosition@QGeoManeuver@QtMobility@@QAEXABVQGeoCoordinate@2@@Z @ 1311 NONAME ; void QtMobility::QGeoManeuver::setPosition(class QtMobility::QGeoCoordinate const &)
	?d_func@QGeoPlace@QtMobility@@AAEPAVQGeoPlacePrivate@2@XZ @ 1312 NONAME ; class QtMobility::QGeoPlacePrivate * QtMobility::QGeoPlace::d_func(void)
	?errorMap@QLandmarkSaveRequest@QtMobility@@QBE?AV?$QMap@HW4Error@QLandmarkManager@QtMobility@@@@XZ @ 1313 NONAME ; class QMap<int, enum QtMobility::QLandmarkManager::Error> QtMobility::QLandmarkSaveRequest::errorMap(void) const
	?mapTypeChanged@QGraphicsGeoMap@QtMobility@@IAEXW4MapType@12@@Z @ 1314 NONAME ; void QtMobility::QGraphicsGeoMap::mapTypeChanged(enum QtMobility::QGraphicsGeoMap::MapType)
	?supportsAlternativeRoutes@QGeoRoutingManagerEngine@QtMobility@@QBE_NXZ @ 1315 NONAME ; bool QtMobility::QGeoRoutingManagerEngine::supportsAlternativeRoutes(void) const
	?connectivityMode@QGraphicsGeoMap@QtMobility@@QBE?AW4ConnectivityMode@12@XZ @ 1316 NONAME ; enum QtMobility::QGraphicsGeoMap::ConnectivityMode QtMobility::QGraphicsGeoMap::connectivityMode(void) const
	?pen@QGeoMapRouteObject@QtMobility@@QBE?AVQPen@@XZ @ 1317 NONAME ; class QPen QtMobility::QGeoMapRouteObject::pen(void) const
	?qt_metacall@QGeoMapRouteObject@QtMobility@@UAEHW4Call@QMetaObject@@HPAPAX@Z @ 1318 NONAME ; int QtMobility::QGeoMapRouteObject::qt_metacall(enum QMetaObject::Call, int, void * *)
	?setSupportedSearchTypes@QGeoSearchManagerEngine@QtMobility@@IAEXV?$QFlags@W4SearchType@QGeoSearchManager@QtMobility@@@@@Z @ 1319 NONAME ; void QtMobility::QGeoSearchManagerEngine::setSupportedSearchTypes(class QFlags<enum QtMobility::QGeoSearchManager::SearchType>)
	?setPen@QGeoMapPolygonObject@QtMobility@@QAEXABVQPen@@@Z @ 1320 NONAME ; void QtMobility::QGeoMapPolygonObject::setPen(class QPen const &)
	?setBottomLeft@QGeoBoundingBox@QtMobility@@QAEXABVQGeoCoordinate@2@@Z @ 1321 NONAME ; void QtMobility::QGeoBoundingBox::setBottomLeft(class QtMobility::QGeoCoordinate const &)
	?errorString@QGeoSearchReply@QtMobility@@QBE?AVQString@@XZ @ 1322 NONAME ; class QString QtMobility::QGeoSearchReply::errorString(void) const
	?setHeight@QGeoBoundingBox@QtMobility@@QAEXN@Z @ 1323 NONAME ; void QtMobility::QGeoBoundingBox::setHeight(double)
	?setTopLeft@QLandmarkBoxFilter@QtMobility@@QAEXABVQGeoCoordinate@2@@Z @ 1324 NONAME ; void QtMobility::QLandmarkBoxFilter::setTopLeft(class QtMobility::QGeoCoordinate const &)
	?setCircle@QGeoMapCircleObject@QtMobility@@QAEXABVQGeoBoundingCircle@2@@Z @ 1325 NONAME ; void QtMobility::QGeoMapCircleObject::setCircle(class QtMobility::QGeoBoundingCircle const &)
	?setSelected@QGeoMapObject@QtMobility@@QAEX_N@Z @ 1326 NONAME ; void QtMobility::QGeoMapObject::setSelected(bool)
	?qt_metacall@QLandmarkCategoryRemoveRequest@QtMobility@@UAEHW4Call@QMetaObject@@HPAPAX@Z @ 1327 NONAME ; int QtMobility::QLandmarkCategoryRemoveRequest::qt_metacall(enum QMetaObject::Call, int, void * *)
	?setCategoryIds@QLandmarkCategoryRemoveRequest@QtMobility@@QAEXABV?$QList@VQLandmarkCategoryId@QtMobility@@@@@Z @ 1328 NONAME ; void QtMobility::QLandmarkCategoryRemoveRequest::setCategoryIds(class QList<class QtMobility::QLandmarkCategoryId> const &)
	?removeLandmarks@QLandmarkManager@QtMobility@@QAE_NABV?$QList@VQLandmark@QtMobility@@@@@Z @ 1329 NONAME ; bool QtMobility::QLandmarkManager::removeLandmarks(class QList<class QtMobility::QLandmark> const &)
	?d_func@QLandmarkIdFilter@QtMobility@@ABEPBVQLandmarkIdFilterPrivate@2@XZ @ 1330 NONAME ; class QtMobility::QLandmarkIdFilterPrivate const * QtMobility::QLandmarkIdFilter::d_func(void) const
	?getStaticMetaObject@QGeoMappingManagerEngine@QtMobility@@SAABUQMetaObject@@XZ @ 1331 NONAME ; struct QMetaObject const & QtMobility::QGeoMappingManagerEngine::getStaticMetaObject(void)
	??_EQGeoSearchReply@QtMobility@@UAE@I@Z @ 1332 NONAME ; QtMobility::QGeoSearchReply::~QGeoSearchReply(unsigned int)
	?landmarkIds@QLandmarkIdFilter@QtMobility@@QBE?AV?$QList@VQLandmarkId@QtMobility@@@@XZ @ 1333 NONAME ; class QList<class QtMobility::QLandmarkId> QtMobility::QLandmarkIdFilter::landmarkIds(void) const
	?setLandmark@QLandmarkSaveRequest@QtMobility@@QAEXABVQLandmark@2@@Z @ 1334 NONAME ; void QtMobility::QLandmarkSaveRequest::setLandmark(class QtMobility::QLandmark const &)
	?metaObject@QGeoMapPixmapObject@QtMobility@@UBEPBUQMetaObject@@XZ @ 1335 NONAME ; struct QMetaObject const * QtMobility::QGeoMapPixmapObject::metaObject(void) const
	?radius@QLandmarkProximityFilter@QtMobility@@QBEMXZ @ 1336 NONAME ; float QtMobility::QLandmarkProximityFilter::radius(void) const
	?radiusChanged@QGeoMapCircleObject@QtMobility@@IAEXM@Z @ 1337 NONAME ; void QtMobility::QGeoMapCircleObject::radiusChanged(float)
	?getStaticMetaObject@QLandmarkManager@QtMobility@@SAABUQMetaObject@@XZ @ 1338 NONAME ; struct QMetaObject const & QtMobility::QLandmarkManager::getStaticMetaObject(void)
	?d_func@QGeoMapCircleObject@QtMobility@@AAEPAVQGeoMapCircleObjectPrivate@2@XZ @ 1339 NONAME ; class QtMobility::QGeoMapCircleObjectPrivate * QtMobility::QGeoMapCircleObject::d_func(void)
	?tr@QLandmarkCategoryRemoveRequest@QtMobility@@SA?AVQString@@PBD0H@Z @ 1340 NONAME ; class QString QtMobility::QLandmarkCategoryRemoveRequest::tr(char const *, char const *, int)
	?setLandmarkIds@QLandmarkExportRequest@QtMobility@@QAEXABV?$QList@VQLandmarkId@QtMobility@@@@@Z @ 1341 NONAME ; void QtMobility::QLandmarkExportRequest::setLandmarkIds(class QList<class QtMobility::QLandmarkId> const &)
	??_EQGeoRouteReply@QtMobility@@UAE@I@Z @ 1342 NONAME ; QtMobility::QGeoRouteReply::~QGeoRouteReply(unsigned int)
	?setSupportedManeuverDetails@QGeoRoutingManagerEngine@QtMobility@@IAEXV?$QFlags@W4ManeuverDetail@QGeoRouteRequest@QtMobility@@@@@Z @ 1343 NONAME ; void QtMobility::QGeoRoutingManagerEngine::setSupportedManeuverDetails(class QFlags<enum QtMobility::QGeoRouteRequest::ManeuverDetail>)
	?filter@QLandmarkFetchRequest@QtMobility@@QBE?AVQLandmarkFilter@2@XZ @ 1344 NONAME ; class QtMobility::QLandmarkFilter QtMobility::QLandmarkFetchRequest::filter(void) const
	?setPath@QGeoRoute@QtMobility@@QAEXABV?$QList@VQGeoCoordinate@QtMobility@@@@@Z @ 1345 NONAME ; void QtMobility::QGeoRoute::setPath(class QList<class QtMobility::QGeoCoordinate> const &)
	?getStaticMetaObject@QGeoTiledMappingManagerEngine@QtMobility@@SAABUQMetaObject@@XZ @ 1346 NONAME ; struct QMetaObject const & QtMobility::QGeoTiledMappingManagerEngine::getStaticMetaObject(void)
	?iconUrl@QLandmarkCategory@QtMobility@@QBE?AVQUrl@@XZ @ 1347 NONAME ; class QUrl QtMobility::QLandmarkCategory::iconUrl(void) const
	??0QGeoBoundingCircle@QtMobility@@QAE@XZ @ 1348 NONAME ; QtMobility::QGeoBoundingCircle::QGeoBoundingCircle(void)
	?zoomLevelChanged@QGeoMapData@QtMobility@@IAEXM@Z @ 1349 NONAME ; void QtMobility::QGeoMapData::zoomLevelChanged(float)
	?getStaticMetaObject@QGraphicsGeoMap@QtMobility@@SAABUQMetaObject@@XZ @ 1350 NONAME ; struct QMetaObject const & QtMobility::QGraphicsGeoMap::getStaticMetaObject(void)
	?type@QGeoMapRectangleObject@QtMobility@@UBE?AW4Type@QGeoMapObject@2@XZ @ 1351 NONAME ; enum QtMobility::QGeoMapObject::Type QtMobility::QGeoMapRectangleObject::type(void) const
	?errorString@QGeoServiceProvider@QtMobility@@QBE?AVQString@@XZ @ 1352 NONAME ; class QString QtMobility::QGeoServiceProvider::errorString(void) const
	?zoomLevel@QGraphicsGeoMap@QtMobility@@QBEMXZ @ 1353 NONAME ; float QtMobility::QGraphicsGeoMap::zoomLevel(void) const
	?boundingBox@QGeoMapGroupObject@QtMobility@@UBE?AVQGeoBoundingBox@2@XZ @ 1354 NONAME ; class QtMobility::QGeoBoundingBox QtMobility::QGeoMapGroupObject::boundingBox(void) const
	??1QGeoRoutingManager@QtMobility@@UAE@XZ @ 1355 NONAME ; QtMobility::QGeoRoutingManager::~QGeoRoutingManager(void)
	?tr@QGeoMapCircleObject@QtMobility@@SA?AVQString@@PBD0H@Z @ 1356 NONAME ; class QString QtMobility::QGeoMapCircleObject::tr(char const *, char const *, int)
	?setSorting@QLandmarkCategoryFetchRequest@QtMobility@@QAEXABVQLandmarkNameSort@2@@Z @ 1357 NONAME ; void QtMobility::QLandmarkCategoryFetchRequest::setSorting(class QtMobility::QLandmarkNameSort const &)
	?engine@QGeoMapData@QtMobility@@IBEPAVQGeoMappingManagerEngine@2@XZ @ 1358 NONAME ; class QtMobility::QGeoMappingManagerEngine * QtMobility::QGeoMapData::engine(void) const
	?contains@QGeoBoundingBox@QtMobility@@UBE_NABVQGeoCoordinate@2@@Z @ 1359 NONAME ; bool QtMobility::QGeoBoundingBox::contains(class QtMobility::QGeoCoordinate const &) const
	?d_func@QLandmarkFetchByIdRequest@QtMobility@@AAEPAVQLandmarkFetchByIdRequestPrivate@2@XZ @ 1360 NONAME ; class QtMobility::QLandmarkFetchByIdRequestPrivate * QtMobility::QLandmarkFetchByIdRequest::d_func(void)
	?setBrush@QGeoMapTextObject@QtMobility@@QAEXABVQBrush@@@Z @ 1361 NONAME ; void QtMobility::QGeoMapTextObject::setBrush(class QBrush const &)
	?d_func@QGeoMapTextObject@QtMobility@@ABEPBVQGeoMapTextObjectPrivate@2@XZ @ 1362 NONAME ; class QtMobility::QGeoMapTextObjectPrivate const * QtMobility::QGeoMapTextObject::d_func(void) const
	?type@QGeoMapGroupObject@QtMobility@@UBE?AW4Type@QGeoMapObject@2@XZ @ 1363 NONAME ; enum QtMobility::QGeoMapObject::Type QtMobility::QGeoMapGroupObject::type(void) const
	?mapTypeChanged@QGeoMapData@QtMobility@@IAEXW4MapType@QGraphicsGeoMap@2@@Z @ 1364 NONAME ; void QtMobility::QGeoMapData::mapTypeChanged(enum QtMobility::QGraphicsGeoMap::MapType)
	??_EQGeoMapTextObject@QtMobility@@UAE@I@Z @ 1365 NONAME ; QtMobility::QGeoMapTextObject::~QGeoMapTextObject(unsigned int)
	??_EQLandmarkIntersectionFilter@QtMobility@@UAE@I@Z @ 1366 NONAME ; QtMobility::QLandmarkIntersectionFilter::~QLandmarkIntersectionFilter(unsigned int)
	?tr@QLandmarkSaveRequest@QtMobility@@SA?AVQString@@PBD0@Z @ 1367 NONAME ; class QString QtMobility::QLandmarkSaveRequest::tr(char const *, char const *)
	?supportedTravelModes@QGeoRoutingManager@QtMobility@@QBE?AV?$QFlags@W4TravelMode@QGeoRouteRequest@QtMobility@@@@XZ @ 1368 NONAME ; class QFlags<enum QtMobility::QGeoRouteRequest::TravelMode> QtMobility::QGeoRoutingManager::supportedTravelModes(void) const
	?triggerUpdateMapDisplay@QGeoTiledMapData@QtMobility@@QAEXABVQRectF@@@Z @ 1369 NONAME ; void QtMobility::QGeoTiledMapData::triggerUpdateMapDisplay(class QRectF const &)
	??_EQLandmarkCategoryFetchRequest@QtMobility@@UAE@I@Z @ 1370 NONAME ; QtMobility::QLandmarkCategoryFetchRequest::~QLandmarkCategoryFetchRequest(unsigned int)
	?setSupportsRouteUpdates@QGeoRoutingManagerEngine@QtMobility@@IAEX_N@Z @ 1371 NONAME ; void QtMobility::QGeoRoutingManagerEngine::setSupportsRouteUpdates(bool)
	?bottomRight@QGeoMapRectangleObject@QtMobility@@QBE?AVQGeoCoordinate@2@XZ @ 1372 NONAME ; class QtMobility::QGeoCoordinate QtMobility::QGeoMapRectangleObject::bottomRight(void) const
	??0QLandmarkFetchRequest@QtMobility@@QAE@PAVQLandmarkManager@1@PAVQObject@@@Z @ 1373 NONAME ; QtMobility::QLandmarkFetchRequest::QLandmarkFetchRequest(class QtMobility::QLandmarkManager *, class QObject *)
	??4QGeoRouteRequest@QtMobility@@QAEAAV01@ABV01@@Z @ 1374 NONAME ; class QtMobility::QGeoRouteRequest & QtMobility::QGeoRouteRequest::operator=(class QtMobility::QGeoRouteRequest const &)
	?localId@QLandmarkId@QtMobility@@QBE?AVQString@@XZ @ 1375 NONAME ; class QString QtMobility::QLandmarkId::localId(void) const
	?landmarksChanged@QLandmarkManager@QtMobility@@IAEXABV?$QList@VQLandmarkId@QtMobility@@@@@Z @ 1376 NONAME ; void QtMobility::QLandmarkManager::landmarksChanged(class QList<class QtMobility::QLandmarkId> const &)
	??_EQLandmarkCategorySaveRequest@QtMobility@@UAE@I@Z @ 1377 NONAME ; QtMobility::QLandmarkCategorySaveRequest::~QLandmarkCategorySaveRequest(unsigned int)
	??0QLandmarkImportRequest@QtMobility@@QAE@PAVQLandmarkManager@1@PAVQObject@@@Z @ 1378 NONAME ; QtMobility::QLandmarkImportRequest::QLandmarkImportRequest(class QtMobility::QLandmarkManager *, class QObject *)
	?name@QLandmarkCategory@QtMobility@@QBE?AVQString@@XZ @ 1379 NONAME ; class QString QtMobility::QLandmarkCategory::name(void) const
	?qt_metacall@QGeoTiledMapReply@QtMobility@@UAEHW4Call@QMetaObject@@HPAPAX@Z @ 1380 NONAME ; int QtMobility::QGeoTiledMapReply::qt_metacall(enum QMetaObject::Call, int, void * *)
	??1QGeoMapRouteObject@QtMobility@@UAE@XZ @ 1381 NONAME ; QtMobility::QGeoMapRouteObject::~QGeoMapRouteObject(void)
	?pen@QGeoMapCircleObject@QtMobility@@QBE?AVQPen@@XZ @ 1382 NONAME ; class QPen QtMobility::QGeoMapCircleObject::pen(void) const
	?trUtf8@QGeoMapObjectInfo@QtMobility@@SA?AVQString@@PBD0@Z @ 1383 NONAME ; class QString QtMobility::QGeoMapObjectInfo::trUtf8(char const *, char const *)
	?type@QGeoBoundingBox@QtMobility@@UBE?AW4AreaType@QGeoBoundingArea@2@XZ @ 1384 NONAME ; enum QtMobility::QGeoBoundingArea::AreaType QtMobility::QGeoBoundingBox::type(void) const
	?trUtf8@QGeoMapData@QtMobility@@SA?AVQString@@PBD0@Z @ 1385 NONAME ; class QString QtMobility::QGeoMapData::trUtf8(char const *, char const *)
	?setCoordinate@QGeoPlace@QtMobility@@QAEXABVQGeoCoordinate@2@@Z @ 1386 NONAME ; void QtMobility::QGeoPlace::setCoordinate(class QtMobility::QGeoCoordinate const &)
	??0QGeoMapRectangleObject@QtMobility@@QAE@XZ @ 1387 NONAME ; QtMobility::QGeoMapRectangleObject::QGeoMapRectangleObject(void)
	?travelModes@QGeoRouteRequest@QtMobility@@QBE?AV?$QFlags@W4TravelMode@QGeoRouteRequest@QtMobility@@@@XZ @ 1388 NONAME ; class QFlags<enum QtMobility::QGeoRouteRequest::TravelMode> QtMobility::QGeoRouteRequest::travelModes(void) const
	?tr@QGeoMapTextObject@QtMobility@@SA?AVQString@@PBD0H@Z @ 1389 NONAME ; class QString QtMobility::QGeoMapTextObject::tr(char const *, char const *, int)
	?staticMetaObject@QLandmarkFetchRequest@QtMobility@@2UQMetaObject@@B @ 1390 NONAME ; struct QMetaObject const QtMobility::QLandmarkFetchRequest::staticMetaObject
	??9QLandmark@QtMobility@@QBE_NABV01@@Z @ 1391 NONAME ; bool QtMobility::QLandmark::operator!=(class QtMobility::QLandmark const &) const
	??0QGeoMapData@QtMobility@@QAE@PAVQGeoMappingManagerEngine@1@@Z @ 1392 NONAME ; QtMobility::QGeoMapData::QGeoMapData(class QtMobility::QGeoMappingManagerEngine *)
	?dataChanged@QLandmarkManagerEngine@QtMobility@@IAEXXZ @ 1393 NONAME ; void QtMobility::QLandmarkManagerEngine::dataChanged(void)
	?setSupportsReverseGeocoding@QGeoSearchManagerEngine@QtMobility@@IAEX_N@Z @ 1394 NONAME ; void QtMobility::QGeoSearchManagerEngine::setSupportsReverseGeocoding(bool)
	?setText@QGeoMapTextObject@QtMobility@@QAEXABVQString@@@Z @ 1395 NONAME ; void QtMobility::QGeoMapTextObject::setText(class QString const &)
	?setOffset@QLandmarkFetchRequest@QtMobility@@QAEXH@Z @ 1396 NONAME ; void QtMobility::QLandmarkFetchRequest::setOffset(int)
	??0QGeoMapTextObject@QtMobility@@QAE@ABVQGeoCoordinate@1@ABVQString@@ABVQFont@@ABVQPoint@@V?$QFlags@W4AlignmentFlag@Qt@@@@@Z @ 1397 NONAME ; QtMobility::QGeoMapTextObject::QGeoMapTextObject(class QtMobility::QGeoCoordinate const &, class QString const &, class QFont const &, class QPoint const &, class QFlags<enum Qt::AlignmentFlag>)
	?removeMapOverlay@QGraphicsGeoMap@QtMobility@@QAEXPAVQGeoMapOverlay@2@@Z @ 1398 NONAME ; void QtMobility::QGraphicsGeoMap::removeMapOverlay(class QtMobility::QGeoMapOverlay *)
	?tr@QLandmarkCategoryIdFetchRequest@QtMobility@@SA?AVQString@@PBD0H@Z @ 1399 NONAME ; class QString QtMobility::QLandmarkCategoryIdFetchRequest::tr(char const *, char const *, int)
	?supportedFeatureWeights@QGeoRoutingManagerEngine@QtMobility@@QBE?AV?$QFlags@W4FeatureWeight@QGeoRouteRequest@QtMobility@@@@XZ @ 1400 NONAME ; class QFlags<enum QtMobility::QGeoRouteRequest::FeatureWeight> QtMobility::QGeoRoutingManagerEngine::supportedFeatureWeights(void) const
	?staticMetaObject@QGeoMappingManager@QtMobility@@2UQMetaObject@@B @ 1401 NONAME ; struct QMetaObject const QtMobility::QGeoMappingManager::staticMetaObject
	?metaObject@QLandmarkSaveRequest@QtMobility@@UBEPBUQMetaObject@@XZ @ 1402 NONAME ; struct QMetaObject const * QtMobility::QLandmarkSaveRequest::metaObject(void) const
	?setName@QLandmark@QtMobility@@QAEXABVQString@@@Z @ 1403 NONAME ; void QtMobility::QLandmark::setName(class QString const &)
	?route@QGeoMapRouteObject@QtMobility@@QBE?AVQGeoRoute@2@XZ @ 1404 NONAME ; class QtMobility::QGeoRoute QtMobility::QGeoMapRouteObject::route(void) const
	?categories@QLandmarkCategoryFetchRequest@QtMobility@@QBE?AV?$QList@VQLandmarkCategory@QtMobility@@@@XZ @ 1405 NONAME ; class QList<class QtMobility::QLandmarkCategory> QtMobility::QLandmarkCategoryFetchRequest::categories(void) const
	?d_func@QGeoMapPolygonObject@QtMobility@@AAEPAVQGeoMapPolygonObjectPrivate@2@XZ @ 1406 NONAME ; class QtMobility::QGeoMapPolygonObjectPrivate * QtMobility::QGeoMapPolygonObject::d_func(void)
	?removeLandmark@QLandmarkManagerEngine@QtMobility@@UAE_NABVQLandmarkId@2@PAW4Error@QLandmarkManager@2@PAVQString@@@Z @ 1407 NONAME ; bool QtMobility::QLandmarkManagerEngine::removeLandmark(class QtMobility::QLandmarkId const &, enum QtMobility::QLandmarkManager::Error *, class QString *)
	?childAdded@QGeoMapGroupObject@QtMobility@@IAEXPAVQGeoMapObject@2@@Z @ 1408 NONAME ; void QtMobility::QGeoMapGroupObject::childAdded(class QtMobility::QGeoMapObject *)
	?saveCategory@QLandmarkManagerEngine@QtMobility@@UAE_NPAVQLandmarkCategory@2@PAW4Error@QLandmarkManager@2@PAVQString@@@Z @ 1409 NONAME ; bool QtMobility::QLandmarkManagerEngine::saveCategory(class QtMobility::QLandmarkCategory *, enum QtMobility::QLandmarkManager::Error *, class QString *)
	?device@QLandmarkImportRequest@QtMobility@@QBEPAVQIODevice@@XZ @ 1410 NONAME ; class QIODevice * QtMobility::QLandmarkImportRequest::device(void) const
	??4QGeoRoute@QtMobility@@QAEAAV01@ABV01@@Z @ 1411 NONAME ; class QtMobility::QGeoRoute & QtMobility::QGeoRoute::operator=(class QtMobility::QGeoRoute const &)
	?filterSupportLevel@QLandmarkManager@QtMobility@@QBE?AW4SupportLevel@12@ABVQLandmarkFilter@2@@Z @ 1412 NONAME ; enum QtMobility::QLandmarkManager::SupportLevel QtMobility::QLandmarkManager::filterSupportLevel(class QtMobility::QLandmarkFilter const &) const
	?setPhoneNumber@QLandmark@QtMobility@@QAEXABVQString@@@Z @ 1413 NONAME ; void QtMobility::QLandmark::setPhoneNumber(class QString const &)
	??1QLandmarkFetchRequest@QtMobility@@UAE@XZ @ 1414 NONAME ; QtMobility::QLandmarkFetchRequest::~QLandmarkFetchRequest(void)
	?qt_metacast@QLandmarkCategoryFetchByIdRequest@QtMobility@@UAEPAXPBD@Z @ 1415 NONAME ; void * QtMobility::QLandmarkCategoryFetchByIdRequest::qt_metacast(char const *)
	?staticMetaObject@QGeoSearchManagerEngine@QtMobility@@2UQMetaObject@@B @ 1416 NONAME ; struct QMetaObject const QtMobility::QGeoSearchManagerEngine::staticMetaObject
	?setTimeToNextInstruction@QGeoManeuver@QtMobility@@QAEXH@Z @ 1417 NONAME ; void QtMobility::QGeoManeuver::setTimeToNextInstruction(int)
	?setMapImageFormat@QGeoTiledMapReply@QtMobility@@IAEXABVQString@@@Z @ 1418 NONAME ; void QtMobility::QGeoTiledMapReply::setMapImageFormat(class QString const &)
	?matchFlags@QLandmarkAttributeFilter@QtMobility@@QBE?AV?$QFlags@W4MatchFlag@QLandmarkFilter@QtMobility@@@@ABVQString@@@Z @ 1419 NONAME ; class QFlags<enum QtMobility::QLandmarkFilter::MatchFlag> QtMobility::QLandmarkAttributeFilter::matchFlags(class QString const &) const
	?setSupportsExcludeAreas@QGeoRoutingManagerEngine@QtMobility@@IAEX_N@Z @ 1420 NONAME ; void QtMobility::QGeoRoutingManagerEngine::setSupportsExcludeAreas(bool)
	?categoriesRemoved@QLandmarkManagerEngine@QtMobility@@IAEXABV?$QList@VQLandmarkCategoryId@QtMobility@@@@@Z @ 1421 NONAME ; void QtMobility::QLandmarkManagerEngine::categoriesRemoved(class QList<class QtMobility::QLandmarkCategoryId> const &)
	?landmarkIds@QLandmarkFetchByIdRequest@QtMobility@@QBE?AV?$QList@VQLandmarkId@QtMobility@@@@XZ @ 1422 NONAME ; class QList<class QtMobility::QLandmarkId> QtMobility::QLandmarkFetchByIdRequest::landmarkIds(void) const
	?timeToNextInstruction@QGeoManeuver@QtMobility@@QBEHXZ @ 1423 NONAME ; int QtMobility::QGeoManeuver::timeToNextInstruction(void) const
	?setName@QLandmarkNameFilter@QtMobility@@QAEXABVQString@@@Z @ 1424 NONAME ; void QtMobility::QLandmarkNameFilter::setName(class QString const &)
	?trUtf8@QGeoMapPolygonObject@QtMobility@@SA?AVQString@@PBD0H@Z @ 1425 NONAME ; class QString QtMobility::QGeoMapPolygonObject::trUtf8(char const *, char const *, int)
	?setConnectivityMode@QGraphicsGeoMap@QtMobility@@QAEXW4ConnectivityMode@12@@Z @ 1426 NONAME ; void QtMobility::QGraphicsGeoMap::setConnectivityMode(enum QtMobility::QGraphicsGeoMap::ConnectivityMode)
	?setMapData@QGeoMapObject@QtMobility@@UAEXPAVQGeoMapData@2@@Z @ 1427 NONAME ; void QtMobility::QGeoMapObject::setMapData(class QtMobility::QGeoMapData *)
	??1QGeoSearchReply@QtMobility@@UAE@XZ @ 1428 NONAME ; QtMobility::QGeoSearchReply::~QGeoSearchReply(void)
	?staticMetaObject@QGeoMapPolylineObject@QtMobility@@2UQMetaObject@@B @ 1429 NONAME ; struct QMetaObject const QtMobility::QGeoMapPolylineObject::staticMetaObject
	?getStaticMetaObject@QLandmarkFetchByIdRequest@QtMobility@@SAABUQMetaObject@@XZ @ 1430 NONAME ; struct QMetaObject const & QtMobility::QLandmarkFetchByIdRequest::getStaticMetaObject(void)
	?updateLandmarkCategorySaveRequest@QLandmarkManagerEngine@QtMobility@@SAXPAVQLandmarkCategorySaveRequest@2@ABV?$QList@VQLandmarkCategory@QtMobility@@@@W4Error@QLandmarkManager@2@ABVQString@@ABV?$QMap@HW4Error@QLandmarkManager@QtMobility@@@@W4State@QLandmarkAbstractRequest@2@@Z @ 1431 NONAME ; void QtMobility::QLandmarkManagerEngine::updateLandmarkCategorySaveRequest(class QtMobility::QLandmarkCategorySaveRequest *, class QList<class QtMobility::QLandmarkCategory> const &, enum QtMobility::QLandmarkManager::Error, class QString const &, class QMap<int, enum QtMobility::QLandmarkManager::Error> const &, enum QtMobility::QLandmarkAbstractRequest::State)
	??_EQGeoMapCircleObject@QtMobility@@UAE@I@Z @ 1432 NONAME ; QtMobility::QGeoMapCircleObject::~QGeoMapCircleObject(unsigned int)
	?error@QLandmarkManager@QtMobility@@QBE?AW4Error@12@XZ @ 1433 NONAME ; enum QtMobility::QLandmarkManager::Error QtMobility::QLandmarkManager::error(void) const
	?qt_metacall@QGeoRouteReply@QtMobility@@UAEHW4Call@QMetaObject@@HPAPAX@Z @ 1434 NONAME ; int QtMobility::QGeoRouteReply::qt_metacall(enum QMetaObject::Call, int, void * *)
	??1QLandmarkCategoryIdFetchRequest@QtMobility@@UAE@XZ @ 1435 NONAME ; QtMobility::QLandmarkCategoryIdFetchRequest::~QLandmarkCategoryIdFetchRequest(void)
	??0QLandmarkRemoveRequest@QtMobility@@QAE@PAVQLandmarkManager@1@PAVQObject@@@Z @ 1436 NONAME ; QtMobility::QLandmarkRemoveRequest::QLandmarkRemoveRequest(class QtMobility::QLandmarkManager *, class QObject *)
	?setFinished@QGeoSearchReply@QtMobility@@IAEX_N@Z @ 1437 NONAME ; void QtMobility::QGeoSearchReply::setFinished(bool)
	?setCategories@QLandmarkCategorySaveRequest@QtMobility@@QAEXABV?$QList@VQLandmarkCategory@QtMobility@@@@@Z @ 1438 NONAME ; void QtMobility::QLandmarkCategorySaveRequest::setCategories(class QList<class QtMobility::QLandmarkCategory> const &)
	?locale@QGeoSearchManager@QtMobility@@QBE?AVQLocale@@XZ @ 1439 NONAME ; class QLocale QtMobility::QGeoSearchManager::locale(void) const
	?metaObject@QGeoSearchManagerEngine@QtMobility@@UBEPBUQMetaObject@@XZ @ 1440 NONAME ; struct QMetaObject const * QtMobility::QGeoSearchManagerEngine::metaObject(void) const
	?bottomRight@QLandmarkBoxFilter@QtMobility@@QAE?AVQGeoCoordinate@2@XZ @ 1441 NONAME ; class QtMobility::QGeoCoordinate QtMobility::QLandmarkBoxFilter::bottomRight(void)
	?setFileName@QLandmarkImportRequest@QtMobility@@QAEXABVQString@@@Z @ 1442 NONAME ; void QtMobility::QLandmarkImportRequest::setFileName(class QString const &)
	?qt_metacast@QLandmarkExportRequest@QtMobility@@UAEPAXPBD@Z @ 1443 NONAME ; void * QtMobility::QLandmarkExportRequest::qt_metacast(char const *)
	?setManagerUri@QLandmarkCategoryId@QtMobility@@QAEXABVQString@@@Z @ 1444 NONAME ; void QtMobility::QLandmarkCategoryId::setManagerUri(class QString const &)
	?metaObject@QGeoMapPolylineObject@QtMobility@@UBEPBUQMetaObject@@XZ @ 1445 NONAME ; struct QMetaObject const * QtMobility::QGeoMapPolylineObject::metaObject(void) const
	??_EQGeoMapPolylineObject@QtMobility@@UAE@I@Z @ 1446 NONAME ; QtMobility::QGeoMapPolylineObject::~QGeoMapPolylineObject(unsigned int)
	?staticMetaObject@QLandmarkAbstractRequest@QtMobility@@2UQMetaObject@@B @ 1447 NONAME ; struct QMetaObject const QtMobility::QLandmarkAbstractRequest::staticMetaObject
	?penChanged@QGeoMapPolygonObject@QtMobility@@IAEXABVQPen@@@Z @ 1448 NONAME ; void QtMobility::QGeoMapPolygonObject::penChanged(class QPen const &)
	??0QLandmarkSaveRequest@QtMobility@@QAE@PAVQLandmarkManager@1@PAVQObject@@@Z @ 1449 NONAME ; QtMobility::QLandmarkSaveRequest::QLandmarkSaveRequest(class QtMobility::QLandmarkManager *, class QObject *)
	?d_func@QLandmarkCategorySaveRequest@QtMobility@@ABEPBVQLandmarkCategorySaveRequestPrivate@2@XZ @ 1450 NONAME ; class QtMobility::QLandmarkCategorySaveRequestPrivate const * QtMobility::QLandmarkCategorySaveRequest::d_func(void) const
	?offset@QLandmarkCategoryIdFetchRequest@QtMobility@@QBEHXZ @ 1451 NONAME ; int QtMobility::QLandmarkCategoryIdFetchRequest::offset(void) const
	?trUtf8@QGeoMapGroupObject@QtMobility@@SA?AVQString@@PBD0@Z @ 1452 NONAME ; class QString QtMobility::QGeoMapGroupObject::trUtf8(char const *, char const *)
	??8QLandmarkCategoryId@QtMobility@@QBE_NABV01@@Z @ 1453 NONAME ; bool QtMobility::QLandmarkCategoryId::operator==(class QtMobility::QLandmarkCategoryId const &) const
	?metaObject@QLandmarkExportRequest@QtMobility@@UBEPBUQMetaObject@@XZ @ 1454 NONAME ; struct QMetaObject const * QtMobility::QLandmarkExportRequest::metaObject(void) const
	?mapObjects@QGeoMapData@QtMobility@@QBE?AV?$QList@PAVQGeoMapObject@QtMobility@@@@XZ @ 1455 NONAME ; class QList<class QtMobility::QGeoMapObject *> QtMobility::QGeoMapData::mapObjects(void) const
	?mapObject@QGeoMapObjectInfo@QtMobility@@IAEPAVQGeoMapObject@2@XZ @ 1456 NONAME ; class QtMobility::QGeoMapObject * QtMobility::QGeoMapObjectInfo::mapObject(void)
	?selectedChanged@QGeoMapObjectInfo@QtMobility@@UAEX_N@Z @ 1457 NONAME ; void QtMobility::QGeoMapObjectInfo::selectedChanged(bool)
	?mapData@QGeoMapOverlay@QtMobility@@IBEPBVQGeoMapData@2@XZ @ 1458 NONAME ; class QtMobility::QGeoMapData const * QtMobility::QGeoMapOverlay::mapData(void) const
	?setSupportedFeatureTypes@QGeoRoutingManagerEngine@QtMobility@@IAEXV?$QFlags@W4FeatureType@QGeoRouteRequest@QtMobility@@@@@Z @ 1459 NONAME ; void QtMobility::QGeoRoutingManagerEngine::setSupportedFeatureTypes(class QFlags<enum QtMobility::QGeoRouteRequest::FeatureType>)
	??_EQLandmarkRemoveRequest@QtMobility@@UAE@I@Z @ 1460 NONAME ; QtMobility::QLandmarkRemoveRequest::~QLandmarkRemoveRequest(unsigned int)
	?mapOverlays@QGeoMapData@QtMobility@@QBE?AV?$QList@PAVQGeoMapOverlay@QtMobility@@@@XZ @ 1461 NONAME ; class QList<class QtMobility::QGeoMapOverlay *> QtMobility::QGeoMapData::mapOverlays(void) const
	?trUtf8@QGraphicsGeoMap@QtMobility@@SA?AVQString@@PBD0@Z @ 1462 NONAME ; class QString QtMobility::QGraphicsGeoMap::trUtf8(char const *, char const *)
	??0QGeoMapRouteObject@QtMobility@@QAE@XZ @ 1463 NONAME ; QtMobility::QGeoMapRouteObject::QGeoMapRouteObject(void)
	?cancelRequest@QLandmarkManagerEngine@QtMobility@@UAE_NPAVQLandmarkAbstractRequest@2@@Z @ 1464 NONAME ; bool QtMobility::QLandmarkManagerEngine::cancelRequest(class QtMobility::QLandmarkAbstractRequest *)
	?trUtf8@QGeoMapRectangleObject@QtMobility@@SA?AVQString@@PBD0@Z @ 1465 NONAME ; class QString QtMobility::QGeoMapRectangleObject::trUtf8(char const *, char const *)
	?trUtf8@QGeoRouteReply@QtMobility@@SA?AVQString@@PBD0@Z @ 1466 NONAME ; class QString QtMobility::QGeoRouteReply::trUtf8(char const *, char const *)
	??_EQGeoMapPolygonObject@QtMobility@@UAE@I@Z @ 1467 NONAME ; QtMobility::QGeoMapPolygonObject::~QGeoMapPolygonObject(unsigned int)
	?windowSizeChanged@QGeoMapData@QtMobility@@IAEXABVQSizeF@@@Z @ 1468 NONAME ; void QtMobility::QGeoMapData::windowSizeChanged(class QSizeF const &)
	??1QLandmarkBoxFilter@QtMobility@@UAE@XZ @ 1469 NONAME ; QtMobility::QLandmarkBoxFilter::~QLandmarkBoxFilter(void)
	?d_func@QGeoMapData@QtMobility@@AAEPAVQGeoMapDataPrivate@2@XZ @ 1470 NONAME ; class QtMobility::QGeoMapDataPrivate * QtMobility::QGeoMapData::d_func(void)
	?trUtf8@QLandmarkFetchByIdRequest@QtMobility@@SA?AVQString@@PBD0H@Z @ 1471 NONAME ; class QString QtMobility::QLandmarkFetchByIdRequest::trUtf8(char const *, char const *, int)
	?translated@QGeoBoundingBox@QtMobility@@QBE?AV12@NN@Z @ 1472 NONAME ; class QtMobility::QGeoBoundingBox QtMobility::QGeoBoundingBox::translated(double, double) const
	?trUtf8@QGeoMapTextObject@QtMobility@@SA?AVQString@@PBD0@Z @ 1473 NONAME ; class QString QtMobility::QGeoMapTextObject::trUtf8(char const *, char const *)
	?isEmpty@QGeoBoundingBox@QtMobility@@UBE_NXZ @ 1474 NONAME ; bool QtMobility::QGeoBoundingBox::isEmpty(void) const
	?createMapData@QGeoMappingManager@QtMobility@@QAEPAVQGeoMapData@2@XZ @ 1475 NONAME ; class QtMobility::QGeoMapData * QtMobility::QGeoMappingManager::createMapData(void)
	?qt_metacall@QGeoMapCircleObject@QtMobility@@UAEHW4Call@QMetaObject@@HPAPAX@Z @ 1476 NONAME ; int QtMobility::QGeoMapCircleObject::qt_metacall(enum QMetaObject::Call, int, void * *)
	?setOffset@QLandmarkCategoryIdFetchRequest@QtMobility@@QAEXH@Z @ 1477 NONAME ; void QtMobility::QLandmarkCategoryIdFetchRequest::setOffset(int)
	?setTravelModes@QGeoRouteRequest@QtMobility@@QAEXV?$QFlags@W4TravelMode@QGeoRouteRequest@QtMobility@@@@@Z @ 1478 NONAME ; void QtMobility::QGeoRouteRequest::setTravelModes(class QFlags<enum QtMobility::QGeoRouteRequest::TravelMode>)
	??0QLandmarkNameFilter@QtMobility@@QAE@ABVQString@@@Z @ 1479 NONAME ; QtMobility::QLandmarkNameFilter::QLandmarkNameFilter(class QString const &)
	?qt_metacast@QLandmarkSaveRequest@QtMobility@@UAEPAXPBD@Z @ 1480 NONAME ; void * QtMobility::QLandmarkSaveRequest::qt_metacast(char const *)
	?saveLandmarks@QLandmarkManager@QtMobility@@QAE_NPAV?$QList@VQLandmark@QtMobility@@@@@Z @ 1481 NONAME ; bool QtMobility::QLandmarkManager::saveLandmarks(class QList<class QtMobility::QLandmark> *)
	?removeLandmarks@QLandmarkManagerEngine@QtMobility@@UAE_NABV?$QList@VQLandmarkId@QtMobility@@@@PAV?$QMap@HW4Error@QLandmarkManager@QtMobility@@@@PAW4Error@QLandmarkManager@2@PAVQString@@@Z @ 1482 NONAME ; bool QtMobility::QLandmarkManagerEngine::removeLandmarks(class QList<class QtMobility::QLandmarkId> const &, class QMap<int, enum QtMobility::QLandmarkManager::Error> *, enum QtMobility::QLandmarkManager::Error *, class QString *)
	?categoryIds@QLandmarkManager@QtMobility@@QBE?AV?$QList@VQLandmarkCategoryId@QtMobility@@@@HHABVQLandmarkNameSort@2@@Z @ 1483 NONAME ; class QList<class QtMobility::QLandmarkCategoryId> QtMobility::QLandmarkManager::categoryIds(int, int, class QtMobility::QLandmarkNameSort const &) const
	?getStaticMetaObject@QGeoRoutingManagerEngine@QtMobility@@SAABUQMetaObject@@XZ @ 1484 NONAME ; struct QMetaObject const & QtMobility::QGeoRoutingManagerEngine::getStaticMetaObject(void)
	?isActive@QLandmarkAbstractRequest@QtMobility@@QBE_NXZ @ 1485 NONAME ; bool QtMobility::QLandmarkAbstractRequest::isActive(void) const
	?tr@QGeoMappingManager@QtMobility@@SA?AVQString@@PBD0@Z @ 1486 NONAME ; class QString QtMobility::QGeoMappingManager::tr(char const *, char const *)
	?penChanged@QGeoMapPolylineObject@QtMobility@@IAEXABVQPen@@@Z @ 1487 NONAME ; void QtMobility::QGeoMapPolylineObject::penChanged(class QPen const &)
	?clearMapOverlays@QGeoMapData@QtMobility@@QAEXXZ @ 1488 NONAME ; void QtMobility::QGeoMapData::clearMapOverlays(void)
	??1QGeoTiledMapData@QtMobility@@UAE@XZ @ 1489 NONAME ; QtMobility::QGeoTiledMapData::~QGeoTiledMapData(void)
	?setRadius@QGeoBoundingCircle@QtMobility@@QAEXM@Z @ 1490 NONAME ; void QtMobility::QGeoBoundingCircle::setRadius(float)
	?qt_metacall@QGeoMapRectangleObject@QtMobility@@UAEHW4Call@QMetaObject@@HPAPAX@Z @ 1491 NONAME ; int QtMobility::QGeoMapRectangleObject::qt_metacall(enum QMetaObject::Call, int, void * *)
	?position@QGeoManeuver@QtMobility@@QBE?AVQGeoCoordinate@2@XZ @ 1492 NONAME ; class QtMobility::QGeoCoordinate QtMobility::QGeoManeuver::position(void) const
	?staticMetaObject@QLandmarkCategoryFetchRequest@QtMobility@@2UQMetaObject@@B @ 1493 NONAME ; struct QMetaObject const QtMobility::QLandmarkCategoryFetchRequest::staticMetaObject
	?setOffset@QLandmarkCategoryFetchRequest@QtMobility@@QAEXH@Z @ 1494 NONAME ; void QtMobility::QLandmarkCategoryFetchRequest::setOffset(int)
	??_EQLandmarkNameSort@QtMobility@@UAE@I@Z @ 1495 NONAME ; QtMobility::QLandmarkNameSort::~QLandmarkNameSort(unsigned int)
	??_EQGeoMapGroupObject@QtMobility@@UAE@I@Z @ 1496 NONAME ; QtMobility::QGeoMapGroupObject::~QGeoMapGroupObject(unsigned int)
	?stateChanged@QLandmarkAbstractRequest@QtMobility@@IAEXW4State@12@@Z @ 1497 NONAME ; void QtMobility::QLandmarkAbstractRequest::stateChanged(enum QtMobility::QLandmarkAbstractRequest::State)
	?setOperationType@QLandmarkAttributeFilter@QtMobility@@QAEXW4OperationType@12@@Z @ 1498 NONAME ; void QtMobility::QLandmarkAttributeFilter::setOperationType(enum QtMobility::QLandmarkAttributeFilter::OperationType)
	??1QLandmarkRemoveRequest@QtMobility@@UAE@XZ @ 1499 NONAME ; QtMobility::QLandmarkRemoveRequest::~QLandmarkRemoveRequest(void)
	?tr@QGeoTiledMapReply@QtMobility@@SA?AVQString@@PBD0H@Z @ 1500 NONAME ; class QString QtMobility::QGeoTiledMapReply::tr(char const *, char const *, int)
	?abort@QGeoSearchReply@QtMobility@@UAEXXZ @ 1501 NONAME ; void QtMobility::QGeoSearchReply::abort(void)
	?trUtf8@QGeoTiledMappingManagerEngine@QtMobility@@SA?AVQString@@PBD0@Z @ 1502 NONAME ; class QString QtMobility::QGeoTiledMappingManagerEngine::trUtf8(char const *, char const *)
	?staticMetaObject@QGeoSearchReply@QtMobility@@2UQMetaObject@@B @ 1503 NONAME ; struct QMetaObject const QtMobility::QGeoSearchReply::staticMetaObject
	?d_func@QLandmarkCategorySaveRequest@QtMobility@@AAEPAVQLandmarkCategorySaveRequestPrivate@2@XZ @ 1504 NONAME ; class QtMobility::QLandmarkCategorySaveRequestPrivate * QtMobility::QLandmarkCategorySaveRequest::d_func(void)
	?fitInViewport@QGraphicsGeoMap@QtMobility@@QAEXABVQGeoBoundingBox@2@_N@Z @ 1505 NONAME ; void QtMobility::QGraphicsGeoMap::fitInViewport(class QtMobility::QGeoBoundingBox const &, bool)
	??1QGeoServiceProviderFactory@QtMobility@@UAE@XZ @ 1506 NONAME ; QtMobility::QGeoServiceProviderFactory::~QGeoServiceProviderFactory(void)
	?trUtf8@QGeoSearchManager@QtMobility@@SA?AVQString@@PBD0H@Z @ 1507 NONAME ; class QString QtMobility::QGeoSearchManager::trUtf8(char const *, char const *, int)
	?tr@QLandmarkIdFetchRequest@QtMobility@@SA?AVQString@@PBD0H@Z @ 1508 NONAME ; class QString QtMobility::QLandmarkIdFetchRequest::tr(char const *, char const *, int)
	?qt_metacall@QGraphicsGeoMap@QtMobility@@UAEHW4Call@QMetaObject@@HPAPAX@Z @ 1509 NONAME ; int QtMobility::QGraphicsGeoMap::qt_metacall(enum QMetaObject::Call, int, void * *)
	?type@QGeoMapPixmapObject@QtMobility@@UBE?AW4Type@QGeoMapObject@2@XZ @ 1510 NONAME ; enum QtMobility::QGeoMapObject::Type QtMobility::QGeoMapPixmapObject::type(void) const
	?setCenter@QLandmarkProximityFilter@QtMobility@@QAEXABVQGeoCoordinate@2@@Z @ 1511 NONAME ; void QtMobility::QLandmarkProximityFilter::setCenter(class QtMobility::QGeoCoordinate const &)
	?bounds@QGeoRoute@QtMobility@@QBE?AVQGeoBoundingBox@2@XZ @ 1512 NONAME ; class QtMobility::QGeoBoundingBox QtMobility::QGeoRoute::bounds(void) const
	??0QGeoAddress@QtMobility@@QAE@XZ @ 1513 NONAME ; QtMobility::QGeoAddress::QGeoAddress(void)
	?topLeft@QGeoBoundingBox@QtMobility@@QBE?AVQGeoCoordinate@2@XZ @ 1514 NONAME ; class QtMobility::QGeoCoordinate QtMobility::QGeoBoundingBox::topLeft(void) const
	?setSorting@QLandmarkCategoryIdFetchRequest@QtMobility@@QAEXABVQLandmarkNameSort@2@@Z @ 1515 NONAME ; void QtMobility::QLandmarkCategoryIdFetchRequest::setSorting(class QtMobility::QLandmarkNameSort const &)
	??4QGeoManeuver@QtMobility@@QAEAAV01@ABV01@@Z @ 1516 NONAME ; class QtMobility::QGeoManeuver & QtMobility::QGeoManeuver::operator=(class QtMobility::QGeoManeuver const &)
	?d_func@QLandmarkAttributeFilter@QtMobility@@AAEPAVQLandmarkAttributeFilterPrivate@2@XZ @ 1517 NONAME ; class QtMobility::QLandmarkAttributeFilterPrivate * QtMobility::QLandmarkAttributeFilter::d_func(void)
	?getStaticMetaObject@QLandmarkCategoryFetchByIdRequest@QtMobility@@SAABUQMetaObject@@XZ @ 1518 NONAME ; struct QMetaObject const & QtMobility::QLandmarkCategoryFetchByIdRequest::getStaticMetaObject(void)
	?managerVersion@QGeoMappingManager@QtMobility@@QBEHXZ @ 1519 NONAME ; int QtMobility::QGeoMappingManager::managerVersion(void) const
	?mapData@QGeoMapObjectInfo@QtMobility@@IAEPAVQGeoMapData@2@XZ @ 1520 NONAME ; class QtMobility::QGeoMapData * QtMobility::QGeoMapObjectInfo::mapData(void)
	?trUtf8@QGeoMapGroupObject@QtMobility@@SA?AVQString@@PBD0H@Z @ 1521 NONAME ; class QString QtMobility::QGeoMapGroupObject::trUtf8(char const *, char const *, int)
	?tr@QGeoRouteReply@QtMobility@@SA?AVQString@@PBD0H@Z @ 1522 NONAME ; class QString QtMobility::QGeoRouteReply::tr(char const *, char const *, int)
	?setMapType@QGeoMapData@QtMobility@@UAEXW4MapType@QGraphicsGeoMap@2@@Z @ 1523 NONAME ; void QtMobility::QGeoMapData::setMapType(enum QtMobility::QGraphicsGeoMap::MapType)
	?fontChanged@QGeoMapTextObject@QtMobility@@IAEXABVQFont@@@Z @ 1524 NONAME ; void QtMobility::QGeoMapTextObject::fontChanged(class QFont const &)
	??0QLandmarkManagerEngine@QtMobility@@QAE@XZ @ 1525 NONAME ; QtMobility::QLandmarkManagerEngine::QLandmarkManagerEngine(void)
	?setVisible@QGeoMapObject@QtMobility@@QAEX_N@Z @ 1526 NONAME ; void QtMobility::QGeoMapObject::setVisible(bool)
	?trUtf8@QGeoTiledMapData@QtMobility@@SA?AVQString@@PBD0H@Z @ 1527 NONAME ; class QString QtMobility::QGeoTiledMapData::trUtf8(char const *, char const *, int)
	??9QGeoBoundingBox@QtMobility@@QBE_NABV01@@Z @ 1528 NONAME ; bool QtMobility::QGeoBoundingBox::operator!=(class QtMobility::QGeoBoundingBox const &) const
	?windowSizeChanged@QGeoMapObjectInfo@QtMobility@@UAEXABVQSizeF@@@Z @ 1529 NONAME ; void QtMobility::QGeoMapObjectInfo::windowSizeChanged(class QSizeF const &)
	?setSupportedMapTypes@QGeoMappingManagerEngine@QtMobility@@IAEXABV?$QList@W4MapType@QGraphicsGeoMap@QtMobility@@@@@Z @ 1530 NONAME ; void QtMobility::QGeoMappingManagerEngine::setSupportedMapTypes(class QList<enum QtMobility::QGraphicsGeoMap::MapType> const &)
	?qt_metacast@QGeoTiledMapData@QtMobility@@UAEPAXPBD@Z @ 1531 NONAME ; void * QtMobility::QGeoTiledMapData::qt_metacast(char const *)
	?d_func@QGeoMapOverlay@QtMobility@@AAEPAVQGeoMapOverlayPrivate@2@XZ @ 1532 NONAME ; class QtMobility::QGeoMapOverlayPrivate * QtMobility::QGeoMapOverlay::d_func(void)
	?circle@QGeoMapCircleObject@QtMobility@@QBE?AVQGeoBoundingCircle@2@XZ @ 1533 NONAME ; class QtMobility::QGeoBoundingCircle QtMobility::QGeoMapCircleObject::circle(void) const
	?metaObject@QGeoTiledMappingManagerEngine@QtMobility@@UBEPBUQMetaObject@@XZ @ 1534 NONAME ; struct QMetaObject const * QtMobility::QGeoTiledMappingManagerEngine::metaObject(void) const
	??_EQGeoServiceProviderFactory@QtMobility@@UAE@I@Z @ 1535 NONAME ; QtMobility::QGeoServiceProviderFactory::~QGeoServiceProviderFactory(unsigned int)
	?setLandmarkId@QLandmarkRemoveRequest@QtMobility@@QAEXABVQLandmarkId@2@@Z @ 1536 NONAME ; void QtMobility::QLandmarkRemoveRequest::setLandmarkId(class QtMobility::QLandmarkId const &)
	?managerVersion@QGeoSearchManagerEngine@QtMobility@@QBEHXZ @ 1537 NONAME ; int QtMobility::QGeoSearchManagerEngine::managerVersion(void) const
	?categoryIds@QLandmarkCategoryIdFetchRequest@QtMobility@@QBE?AV?$QList@VQLandmarkCategoryId@QtMobility@@@@XZ @ 1538 NONAME ; class QList<class QtMobility::QLandmarkCategoryId> QtMobility::QLandmarkCategoryIdFetchRequest::categoryIds(void) const
	??1QLandmarkCategoryFetchRequest@QtMobility@@UAE@XZ @ 1539 NONAME ; QtMobility::QLandmarkCategoryFetchRequest::~QLandmarkCategoryFetchRequest(void)
	??0QGeoTiledMapData@QtMobility@@QAE@PAVQGeoMappingManagerEngine@1@@Z @ 1540 NONAME ; QtMobility::QGeoTiledMapData::QGeoTiledMapData(class QtMobility::QGeoMappingManagerEngine *)
	?getStaticMetaObject@QGeoMapObjectInfo@QtMobility@@SAABUQMetaObject@@XZ @ 1541 NONAME ; struct QMetaObject const & QtMobility::QGeoMapObjectInfo::getStaticMetaObject(void)
	?qt_metacast@QLandmarkCategorySaveRequest@QtMobility@@UAEPAXPBD@Z @ 1542 NONAME ; void * QtMobility::QLandmarkCategorySaveRequest::qt_metacast(char const *)
	?d_func@QGeoMapCircleObject@QtMobility@@ABEPBVQGeoMapCircleObjectPrivate@2@XZ @ 1543 NONAME ; class QtMobility::QGeoMapCircleObjectPrivate const * QtMobility::QGeoMapCircleObject::d_func(void) const
	?path@QGeoRouteSegment@QtMobility@@QBE?AV?$QList@VQGeoCoordinate@QtMobility@@@@XZ @ 1544 NONAME ; class QList<class QtMobility::QGeoCoordinate> QtMobility::QGeoRouteSegment::path(void) const
	?requestDestroyed@QLandmarkManagerEngine@QtMobility@@UAEXPAVQLandmarkAbstractRequest@2@@Z @ 1545 NONAME ; void QtMobility::QLandmarkManagerEngine::requestDestroyed(class QtMobility::QLandmarkAbstractRequest *)
	?coordinateToScreenPosition@QGeoTiledMapData@QtMobility@@UBE?AVQPointF@@ABVQGeoCoordinate@2@@Z @ 1546 NONAME ; class QPointF QtMobility::QGeoTiledMapData::coordinateToScreenPosition(class QtMobility::QGeoCoordinate const &) const
	?travelTime@QGeoRouteSegment@QtMobility@@QBEHXZ @ 1547 NONAME ; int QtMobility::QGeoRouteSegment::travelTime(void) const
	?d_func@QGeoTiledMappingManagerEngine@QtMobility@@ABEPBVQGeoTiledMappingManagerEnginePrivate@2@XZ @ 1548 NONAME ; class QtMobility::QGeoTiledMappingManagerEnginePrivate const * QtMobility::QGeoTiledMappingManagerEngine::d_func(void) const
	?zoomFactor@QGeoTiledMapData@QtMobility@@QBEHXZ @ 1549 NONAME ; int QtMobility::QGeoTiledMapData::zoomFactor(void) const
	?setTopRight@QGeoBoundingBox@QtMobility@@QAEXABVQGeoCoordinate@2@@Z @ 1550 NONAME ; void QtMobility::QGeoBoundingBox::setTopRight(class QtMobility::QGeoCoordinate const &)
	??1QLandmarkNameSort@QtMobility@@UAE@XZ @ 1551 NONAME ; QtMobility::QLandmarkNameSort::~QLandmarkNameSort(void)
	?managerName@QGeoRoutingManagerEngine@QtMobility@@QBE?AVQString@@XZ @ 1552 NONAME ; class QString QtMobility::QGeoRoutingManagerEngine::managerName(void) const
	?staticMetaObject@QLandmarkImportRequest@QtMobility@@2UQMetaObject@@B @ 1553 NONAME ; struct QMetaObject const QtMobility::QLandmarkImportRequest::staticMetaObject
	?getStaticMetaObject@QLandmarkCategoryFetchRequest@QtMobility@@SAABUQMetaObject@@XZ @ 1554 NONAME ; struct QMetaObject const & QtMobility::QLandmarkCategoryFetchRequest::getStaticMetaObject(void)
	?qt_metacall@QGeoMappingManagerEngine@QtMobility@@UAEHW4Call@QMetaObject@@HPAPAX@Z @ 1555 NONAME ; int QtMobility::QGeoMappingManagerEngine::qt_metacall(enum QMetaObject::Call, int, void * *)
	?tr@QGeoMapObjectInfo@QtMobility@@SA?AVQString@@PBD0H@Z @ 1556 NONAME ; class QString QtMobility::QGeoMapObjectInfo::tr(char const *, char const *, int)
	?staticMetaObject@QGeoMapCircleObject@QtMobility@@2UQMetaObject@@B @ 1557 NONAME ; struct QMetaObject const QtMobility::QGeoMapCircleObject::staticMetaObject
	??_EQGeoTiledMapReply@QtMobility@@UAE@I@Z @ 1558 NONAME ; QtMobility::QGeoTiledMapReply::~QGeoTiledMapReply(unsigned int)
	?setDescription@QLandmark@QtMobility@@QAEXABVQString@@@Z @ 1559 NONAME ; void QtMobility::QLandmark::setDescription(class QString const &)
	?setCoordinate@QGeoMapPixmapObject@QtMobility@@QAEXABVQGeoCoordinate@2@@Z @ 1560 NONAME ; void QtMobility::QGeoMapPixmapObject::setCoordinate(class QtMobility::QGeoCoordinate const &)
	?error@QGeoSearchReply@QtMobility@@QBE?AW4Error@12@XZ @ 1561 NONAME ; enum QtMobility::QGeoSearchReply::Error QtMobility::QGeoSearchReply::error(void) const
	??1QGeoMappingManagerEngine@QtMobility@@UAE@XZ @ 1562 NONAME ; QtMobility::QGeoMappingManagerEngine::~QGeoMappingManagerEngine(void)
	?isValid@QGeoRouteSegment@QtMobility@@QBE_NXZ @ 1563 NONAME ; bool QtMobility::QGeoRouteSegment::isValid(void) const
	??0QLandmarkIdFilter@QtMobility@@QAE@ABVQLandmarkFilter@1@@Z @ 1564 NONAME ; QtMobility::QLandmarkIdFilter::QLandmarkIdFilter(class QtMobility::QLandmarkFilter const &)
	??0QGeoSearchReply@QtMobility@@QAE@W4Error@01@ABVQString@@PAVQObject@@@Z @ 1565 NONAME ; QtMobility::QGeoSearchReply::QGeoSearchReply(enum QtMobility::QGeoSearchReply::Error, class QString const &, class QObject *)
	?trUtf8@QGeoRoutingManager@QtMobility@@SA?AVQString@@PBD0@Z @ 1566 NONAME ; class QString QtMobility::QGeoRoutingManager::trUtf8(char const *, char const *)
	?categoryIds@QLandmarkManagerEngine@QtMobility@@UBE?AV?$QList@VQLandmarkCategoryId@QtMobility@@@@HHABVQLandmarkNameSort@2@PAW4Error@QLandmarkManager@2@PAVQString@@@Z @ 1567 NONAME ; class QList<class QtMobility::QLandmarkCategoryId> QtMobility::QLandmarkManagerEngine::categoryIds(int, int, class QtMobility::QLandmarkNameSort const &, enum QtMobility::QLandmarkManager::Error *, class QString *) const
	?setCounty@QGeoAddress@QtMobility@@QAEXABVQString@@@Z @ 1568 NONAME ; void QtMobility::QGeoAddress::setCounty(class QString const &)
	?trUtf8@QGeoMapObject@QtMobility@@SA?AVQString@@PBD0@Z @ 1569 NONAME ; class QString QtMobility::QGeoMapObject::trUtf8(char const *, char const *)
	?direction@QLandmarkSortOrder@QtMobility@@QBE?AW4SortOrder@Qt@@XZ @ 1570 NONAME ; enum Qt::SortOrder QtMobility::QLandmarkSortOrder::direction(void) const
	??_EQLandmarkUnionFilter@QtMobility@@UAE@I@Z @ 1571 NONAME ; QtMobility::QLandmarkUnionFilter::~QLandmarkUnionFilter(unsigned int)
	?init@QGeoMapObjectInfo@QtMobility@@UAEXXZ @ 1572 NONAME ; void QtMobility::QGeoMapObjectInfo::init(void)
	?qt_metacall@QLandmarkManagerEngine@QtMobility@@UAEHW4Call@QMetaObject@@HPAPAX@Z @ 1573 NONAME ; int QtMobility::QLandmarkManagerEngine::qt_metacall(enum QMetaObject::Call, int, void * *)
	?offset@QLandmarkFetchRequest@QtMobility@@QBEHXZ @ 1574 NONAME ; int QtMobility::QLandmarkFetchRequest::offset(void) const
	??0QLandmarkAttributeFilter@QtMobility@@QAE@XZ @ 1575 NONAME ; QtMobility::QLandmarkAttributeFilter::QLandmarkAttributeFilter(void)
	?translated@QGeoBoundingCircle@QtMobility@@QBE?AV12@NN@Z @ 1576 NONAME ; class QtMobility::QGeoBoundingCircle QtMobility::QGeoBoundingCircle::translated(double, double) const
	?getStaticMetaObject@QGeoMapPolygonObject@QtMobility@@SAABUQMetaObject@@XZ @ 1577 NONAME ; struct QMetaObject const & QtMobility::QGeoMapPolygonObject::getStaticMetaObject(void)
	?trUtf8@QLandmarkFetchRequest@QtMobility@@SA?AVQString@@PBD0@Z @ 1578 NONAME ; class QString QtMobility::QLandmarkFetchRequest::trUtf8(char const *, char const *)
	?tr@QGeoMapRouteObject@QtMobility@@SA?AVQString@@PBD0@Z @ 1579 NONAME ; class QString QtMobility::QGeoMapRouteObject::tr(char const *, char const *)
	?removeCategory@QLandmarkManager@QtMobility@@QAE_NABVQLandmarkCategory@2@@Z @ 1580 NONAME ; bool QtMobility::QLandmarkManager::removeCategory(class QtMobility::QLandmarkCategory const &)
	?parseUri@QLandmarkManager@QtMobility@@SA_NABVQString@@PAV3@PAV?$QMap@VQString@@V1@@@@Z @ 1581 NONAME ; bool QtMobility::QLandmarkManager::parseUri(class QString const &, class QString *, class QMap<class QString, class QString> *)
	?setSorting@QLandmarkFetchRequest@QtMobility@@QAEXABVQLandmarkSortOrder@2@@Z @ 1582 NONAME ; void QtMobility::QLandmarkFetchRequest::setSorting(class QtMobility::QLandmarkSortOrder const &)
	?error@QGeoSearchReply@QtMobility@@IAEXW4Error@12@ABVQString@@@Z @ 1583 NONAME ; void QtMobility::QGeoSearchReply::error(enum QtMobility::QGeoSearchReply::Error, class QString const &)
	?trUtf8@QLandmarkExportRequest@QtMobility@@SA?AVQString@@PBD0@Z @ 1584 NONAME ; class QString QtMobility::QLandmarkExportRequest::trUtf8(char const *, char const *)
	?tr@QLandmarkRemoveRequest@QtMobility@@SA?AVQString@@PBD0@Z @ 1585 NONAME ; class QString QtMobility::QLandmarkRemoveRequest::tr(char const *, char const *)
	?locale@QGeoRoutingManager@QtMobility@@QBE?AVQLocale@@XZ @ 1586 NONAME ; class QLocale QtMobility::QGeoRoutingManager::locale(void) const
	?sorting@QLandmarkIdFetchRequest@QtMobility@@QBE?AV?$QList@VQLandmarkSortOrder@QtMobility@@@@XZ @ 1587 NONAME ; class QList<class QtMobility::QLandmarkSortOrder> QtMobility::QLandmarkIdFetchRequest::sorting(void) const
	?brush@QGeoMapRectangleObject@QtMobility@@QBE?AVQBrush@@XZ @ 1588 NONAME ; class QBrush QtMobility::QGeoMapRectangleObject::brush(void) const
	?qt_metacast@QGeoMapRouteObject@QtMobility@@UAEPAXPBD@Z @ 1589 NONAME ; void * QtMobility::QGeoMapRouteObject::qt_metacast(char const *)
	?coordinate@QGeoMapPixmapObject@QtMobility@@QBE?AVQGeoCoordinate@2@XZ @ 1590 NONAME ; class QtMobility::QGeoCoordinate QtMobility::QGeoMapPixmapObject::coordinate(void) const
	?trUtf8@QLandmarkCategoryRemoveRequest@QtMobility@@SA?AVQString@@PBD0@Z @ 1591 NONAME ; class QString QtMobility::QLandmarkCategoryRemoveRequest::trUtf8(char const *, char const *)
	?error@QGeoTiledMapReply@QtMobility@@IAEXW4Error@12@ABVQString@@@Z @ 1592 NONAME ; void QtMobility::QGeoTiledMapReply::error(enum QtMobility::QGeoTiledMapReply::Error, class QString const &)
	?qt_metacall@QGeoRoutingManager@QtMobility@@UAEHW4Call@QMetaObject@@HPAPAX@Z @ 1593 NONAME ; int QtMobility::QGeoRoutingManager::qt_metacall(enum QMetaObject::Call, int, void * *)
	?isValid@QLandmarkCategoryId@QtMobility@@QBE_NXZ @ 1594 NONAME ; bool QtMobility::QLandmarkCategoryId::isValid(void) const
	??1QGeoMapTextObject@QtMobility@@UAE@XZ @ 1595 NONAME ; QtMobility::QGeoMapTextObject::~QGeoMapTextObject(void)
	?d_func@QLandmarkRemoveRequest@QtMobility@@ABEPBVQLandmarkRemoveRequestPrivate@2@XZ @ 1596 NONAME ; class QtMobility::QLandmarkRemoveRequestPrivate const * QtMobility::QLandmarkRemoveRequest::d_func(void) const
	?tr@QGeoRoutingManagerEngine@QtMobility@@SA?AVQString@@PBD0H@Z @ 1597 NONAME ; class QString QtMobility::QGeoRoutingManagerEngine::tr(char const *, char const *, int)
	?qt_metacall@QLandmarkRemoveRequest@QtMobility@@UAEHW4Call@QMetaObject@@HPAPAX@Z @ 1598 NONAME ; int QtMobility::QLandmarkRemoveRequest::qt_metacall(enum QMetaObject::Call, int, void * *)
	?createRoutingManagerEngine@QGeoServiceProviderFactory@QtMobility@@UBEPAVQGeoRoutingManagerEngine@2@ABV?$QMap@VQString@@VQVariant@@@@PAW4Error@QGeoServiceProvider@2@PAVQString@@@Z @ 1599 NONAME ; class QtMobility::QGeoRoutingManagerEngine * QtMobility::QGeoServiceProviderFactory::createRoutingManagerEngine(class QMap<class QString, class QVariant> const &, enum QtMobility::QGeoServiceProvider::Error *, class QString *) const
	?connectivityModeChanged@QGeoMapData@QtMobility@@IAEXW4ConnectivityMode@QGraphicsGeoMap@2@@Z @ 1600 NONAME ; void QtMobility::QGeoMapData::connectivityModeChanged(enum QtMobility::QGraphicsGeoMap::ConnectivityMode)
	?qt_metacast@QGeoTiledMapReply@QtMobility@@UAEPAXPBD@Z @ 1601 NONAME ; void * QtMobility::QGeoTiledMapReply::qt_metacast(char const *)
	?categoryIds@QLandmark@QtMobility@@QBE?AV?$QList@VQLandmarkCategoryId@QtMobility@@@@XZ @ 1602 NONAME ; class QList<class QtMobility::QLandmarkCategoryId> QtMobility::QLandmark::categoryIds(void) const
	?connectNotify@QLandmarkManager@QtMobility@@MAEXPBD@Z @ 1603 NONAME ; void QtMobility::QLandmarkManager::connectNotify(char const *)
	??0QGeoMapData@QtMobility@@IAE@PAVQGeoMapDataPrivate@1@@Z @ 1604 NONAME ; QtMobility::QGeoMapData::QGeoMapData(class QtMobility::QGeoMapDataPrivate *)
	?setFilters@QLandmarkIntersectionFilter@QtMobility@@QAEXABV?$QList@VQLandmarkFilter@QtMobility@@@@@Z @ 1605 NONAME ; void QtMobility::QLandmarkIntersectionFilter::setFilters(class QList<class QtMobility::QLandmarkFilter> const &)
	??0QLandmarkCategoryRemoveRequest@QtMobility@@QAE@PAVQLandmarkManager@1@PAVQObject@@@Z @ 1606 NONAME ; QtMobility::QLandmarkCategoryRemoveRequest::QLandmarkCategoryRemoveRequest(class QtMobility::QLandmarkManager *, class QObject *)
	?qt_metacall@QGeoMapPolylineObject@QtMobility@@UAEHW4Call@QMetaObject@@HPAPAX@Z @ 1607 NONAME ; int QtMobility::QGeoMapPolylineObject::qt_metacall(enum QMetaObject::Call, int, void * *)
	?tr@QGeoMapPolygonObject@QtMobility@@SA?AVQString@@PBD0H@Z @ 1608 NONAME ; class QString QtMobility::QGeoMapPolygonObject::tr(char const *, char const *, int)
	?exportLandmarks@QLandmarkManagerEngine@QtMobility@@UBE_NPAVQIODevice@@ABVQString@@ABV?$QList@VQLandmarkId@QtMobility@@@@W4TransferOption@QLandmarkManager@2@PAW4Error@72@PAV4@@Z @ 1609 NONAME ; bool QtMobility::QLandmarkManagerEngine::exportLandmarks(class QIODevice *, class QString const &, class QList<class QtMobility::QLandmarkId> const &, enum QtMobility::QLandmarkManager::TransferOption, enum QtMobility::QLandmarkManager::Error *, class QString *) const
	?tr@QGeoTiledMapData@QtMobility@@SA?AVQString@@PBD0@Z @ 1610 NONAME ; class QString QtMobility::QGeoTiledMapData::tr(char const *, char const *)
	??0QLandmarkBoxFilter@QtMobility@@QAE@ABVQGeoBoundingBox@1@@Z @ 1611 NONAME ; QtMobility::QLandmarkBoxFilter::QLandmarkBoxFilter(class QtMobility::QGeoBoundingBox const &)
	?d_func@QLandmarkCategoryIdFetchRequest@QtMobility@@AAEPAVQLandmarkCategoryIdFetchRequestPrivate@2@XZ @ 1612 NONAME ; class QtMobility::QLandmarkCategoryIdFetchRequestPrivate * QtMobility::QLandmarkCategoryIdFetchRequest::d_func(void)
	?updateLandmarkCategoryFetchRequest@QLandmarkManagerEngine@QtMobility@@SAXPAVQLandmarkCategoryFetchRequest@2@ABV?$QList@VQLandmarkCategory@QtMobility@@@@W4Error@QLandmarkManager@2@ABVQString@@W4State@QLandmarkAbstractRequest@2@@Z @ 1613 NONAME ; void QtMobility::QLandmarkManagerEngine::updateLandmarkCategoryFetchRequest(class QtMobility::QLandmarkCategoryFetchRequest *, class QList<class QtMobility::QLandmarkCategory> const &, enum QtMobility::QLandmarkManager::Error, class QString const &, enum QtMobility::QLandmarkAbstractRequest::State)
	??8QLandmark@QtMobility@@QBE_NABV01@@Z @ 1614 NONAME ; bool QtMobility::QLandmark::operator==(class QtMobility::QLandmark const &) const
	?clearChildObjects@QGeoMapGroupObject@QtMobility@@QAEXXZ @ 1615 NONAME ; void QtMobility::QGeoMapGroupObject::clearChildObjects(void)
	?removeLandmark@QLandmarkManager@QtMobility@@QAE_NABVQLandmarkId@2@@Z @ 1616 NONAME ; bool QtMobility::QLandmarkManager::removeLandmark(class QtMobility::QLandmarkId const &)
	?supportsGeocoding@QGeoSearchManager@QtMobility@@QBE_NXZ @ 1617 NONAME ; bool QtMobility::QGeoSearchManager::supportsGeocoding(void) const
	?zValueChanged@QGeoMapObject@QtMobility@@IAEXH@Z @ 1618 NONAME ; void QtMobility::QGeoMapObject::zValueChanged(int)
	?tr@QLandmarkAbstractRequest@QtMobility@@SA?AVQString@@PBD0H@Z @ 1619 NONAME ; class QString QtMobility::QLandmarkAbstractRequest::tr(char const *, char const *, int)
	??1QLandmarkImportRequest@QtMobility@@UAE@XZ @ 1620 NONAME ; QtMobility::QLandmarkImportRequest::~QLandmarkImportRequest(void)
	?staticMetaObject@QGeoTiledMapReply@QtMobility@@2UQMetaObject@@B @ 1621 NONAME ; struct QMetaObject const QtMobility::QGeoTiledMapReply::staticMetaObject
	?staticMetaObject@QGeoSearchManager@QtMobility@@2UQMetaObject@@B @ 1622 NONAME ; struct QMetaObject const QtMobility::QGeoSearchManager::staticMetaObject
	??0QGeoMapCircleObject@QtMobility@@QAE@XZ @ 1623 NONAME ; QtMobility::QGeoMapCircleObject::QGeoMapCircleObject(void)
	?updateLandmarkCategoryIdFetchRequest@QLandmarkManagerEngine@QtMobility@@SAXPAVQLandmarkCategoryIdFetchRequest@2@ABV?$QList@VQLandmarkCategoryId@QtMobility@@@@W4Error@QLandmarkManager@2@ABVQString@@W4State@QLandmarkAbstractRequest@2@@Z @ 1624 NONAME ; void QtMobility::QLandmarkManagerEngine::updateLandmarkCategoryIdFetchRequest(class QtMobility::QLandmarkCategoryIdFetchRequest *, class QList<class QtMobility::QLandmarkCategoryId> const &, enum QtMobility::QLandmarkManager::Error, class QString const &, enum QtMobility::QLandmarkAbstractRequest::State)
	?compareName@QLandmarkManagerEngine@QtMobility@@SAHABVQLandmark@2@0ABVQLandmarkNameSort@2@@Z @ 1625 NONAME ; int QtMobility::QLandmarkManagerEngine::compareName(class QtMobility::QLandmark const &, class QtMobility::QLandmark const &, class QtMobility::QLandmarkNameSort const &)
	?featureTypes@QGeoRouteRequest@QtMobility@@QBE?AV?$QList@W4FeatureType@QGeoRouteRequest@QtMobility@@@@XZ @ 1626 NONAME ; class QList<enum QtMobility::QGeoRouteRequest::FeatureType> QtMobility::QGeoRouteRequest::featureTypes(void) const
	?zoomLevel@QGeoMapData@QtMobility@@UBEMXZ @ 1627 NONAME ; float QtMobility::QGeoMapData::zoomLevel(void) const
	?setAdditionalLandmarkManagers@QGeoSearchManager@QtMobility@@QAEXABV?$QList@PAVQLandmarkManager@QtMobility@@@@@Z @ 1628 NONAME ; void QtMobility::QGeoSearchManager::setAdditionalLandmarkManagers(class QList<class QtMobility::QLandmarkManager *> const &)
	?qt_metacall@QLandmarkManager@QtMobility@@UAEHW4Call@QMetaObject@@HPAPAX@Z @ 1629 NONAME ; int QtMobility::QLandmarkManager::qt_metacall(enum QMetaObject::Call, int, void * *)
	??1QLandmarkFetchByIdRequest@QtMobility@@UAE@XZ @ 1630 NONAME ; QtMobility::QLandmarkFetchByIdRequest::~QLandmarkFetchByIdRequest(void)
	??0QGeoRoutingManagerEngine@QtMobility@@QAE@ABV?$QMap@VQString@@VQVariant@@@@PAVQObject@@@Z @ 1631 NONAME ; QtMobility::QGeoRoutingManagerEngine::QGeoRoutingManagerEngine(class QMap<class QString, class QVariant> const &, class QObject *)
	?getStaticMetaObject@QGeoMapTextObject@QtMobility@@SAABUQMetaObject@@XZ @ 1632 NONAME ; struct QMetaObject const & QtMobility::QGeoMapTextObject::getStaticMetaObject(void)
	??_EQLandmarkSaveRequest@QtMobility@@UAE@I@Z @ 1633 NONAME ; QtMobility::QLandmarkSaveRequest::~QLandmarkSaveRequest(unsigned int)
	?supportsExcludeAreas@QGeoRoutingManagerEngine@QtMobility@@QBE_NXZ @ 1634 NONAME ; bool QtMobility::QGeoRoutingManagerEngine::supportsExcludeAreas(void) const
	?iconUrl@QLandmark@QtMobility@@QBE?AVQUrl@@XZ @ 1635 NONAME ; class QUrl QtMobility::QLandmark::iconUrl(void) const
	?d_func@QLandmarkIdFetchRequest@QtMobility@@AAEPAVQLandmarkIdFetchRequestPrivate@2@XZ @ 1636 NONAME ; class QtMobility::QLandmarkIdFetchRequestPrivate * QtMobility::QLandmarkIdFetchRequest::d_func(void)
	?setLocale@QGeoMappingManager@QtMobility@@QAEXABVQLocale@@@Z @ 1637 NONAME ; void QtMobility::QGeoMappingManager::setLocale(class QLocale const &)
	?d_func@QLandmarkManager@QtMobility@@AAEPAVQLandmarkManagerPrivate@2@XZ @ 1638 NONAME ; class QtMobility::QLandmarkManagerPrivate * QtMobility::QLandmarkManager::d_func(void)
	?trUtf8@QGeoMapCircleObject@QtMobility@@SA?AVQString@@PBD0H@Z @ 1639 NONAME ; class QString QtMobility::QGeoMapCircleObject::trUtf8(char const *, char const *, int)
	?coordinateChanged@QGeoMapPixmapObject@QtMobility@@IAEXABVQGeoCoordinate@2@@Z @ 1640 NONAME ; void QtMobility::QGeoMapPixmapObject::coordinateChanged(class QtMobility::QGeoCoordinate const &)
	?d_func@QLandmark@QtMobility@@AAEPAVQLandmarkPrivate@2@XZ @ 1641 NONAME ; class QtMobility::QLandmarkPrivate * QtMobility::QLandmark::d_func(void)
	?qt_metacall@QGeoMapPolygonObject@QtMobility@@UAEHW4Call@QMetaObject@@HPAPAX@Z @ 1642 NONAME ; int QtMobility::QGeoMapPolygonObject::qt_metacall(enum QMetaObject::Call, int, void * *)
	?tr@QGeoMapPolygonObject@QtMobility@@SA?AVQString@@PBD0@Z @ 1643 NONAME ; class QString QtMobility::QGeoMapPolygonObject::tr(char const *, char const *)
	??1QLandmarkCategoryFetchByIdRequest@QtMobility@@UAE@XZ @ 1644 NONAME ; QtMobility::QLandmarkCategoryFetchByIdRequest::~QLandmarkCategoryFetchByIdRequest(void)
	?atDistanceAndAzimuth@QGeoCoordinate@QtMobility@@QBE?AV12@MMM@Z @ 1645 NONAME ; class QtMobility::QGeoCoordinate QtMobility::QGeoCoordinate::atDistanceAndAzimuth(float, float, float) const
	?replyFinished@QGeoTiledMapData@QtMobility@@AAEXPAVQGeoTiledMapReply@2@@Z @ 1646 NONAME ; void QtMobility::QGeoTiledMapData::replyFinished(class QtMobility::QGeoTiledMapReply *)
