EXPORTS
	??0QAudioCaptureSource@QtMobility@@QAE@PAVQMediaObject@1@PAVQObject@@@Z @ 1 NONAME ; QtMobility::QAudioCaptureSource::QAudioCaptureSource(class QtMobility::QMediaObject *, class QObject *)
	??0QAudioCaptureSource@QtMobility@@QAE@PAVQObject@@PAVQMediaServiceProvider@1@@Z @ 2 NONAME ; QtMobility::QAudioCaptureSource::QAudioCaptureSource(class QObject *, class QtMobility::QMediaServiceProvider *)
	??0QAudioEncoderControl@QtMobility@@IAE@PAVQObject@@@Z @ 3 NONAME ; QtMobility::QAudioEncoderControl::QAudioEncoderControl(class QObject *)
	??0QAudioEncoderSettings@QtMobility@@QAE@ABV01@@Z @ 4 NONAME ; QtMobility::QAudioEncoderSettings::QAudioEncoderSettings(class QtMobility::QAudioEncoderSettings const &)
	??0QAudioEncoderSettings@QtMobility@@QAE@XZ @ 5 NONAME ; QtMobility::QAudioEncoderSettings::QAudioEncoderSettings(void)
	??0QAudioEndpointSelector@QtMobility@@IAE@PAVQObject@@@Z @ 6 NONAME ; QtMobility::QAudioEndpointSelector::QAudioEndpointSelector(class QObject *)
	??0QCamera@QtMobility@@QAE@ABVQByteArray@@PAVQObject@@@Z @ 7 NONAME ; QtMobility::QCamera::QCamera(class QByteArray const &, class QObject *)
	??0QCamera@QtMobility@@QAE@PAVQObject@@PAVQMediaServiceProvider@1@@Z @ 8 NONAME ; QtMobility::QCamera::QCamera(class QObject *, class QtMobility::QMediaServiceProvider *)
	??0QCameraControl@QtMobility@@IAE@PAVQObject@@@Z @ 9 NONAME ; QtMobility::QCameraControl::QCameraControl(class QObject *)
	??0QCameraExposureControl@QtMobility@@IAE@PAVQObject@@@Z @ 10 NONAME ; QtMobility::QCameraExposureControl::QCameraExposureControl(class QObject *)
	??0QCameraFocusControl@QtMobility@@IAE@PAVQObject@@@Z @ 11 NONAME ; QtMobility::QCameraFocusControl::QCameraFocusControl(class QObject *)
	??0QGraphicsVideoItem@QtMobility@@QAE@PAVQGraphicsItem@@@Z @ 12 NONAME ; QtMobility::QGraphicsVideoItem::QGraphicsVideoItem(class QGraphicsItem *)
	??0QImageCaptureControl@QtMobility@@IAE@PAVQObject@@@Z @ 13 NONAME ; QtMobility::QImageCaptureControl::QImageCaptureControl(class QObject *)
	??0QImageEncoderControl@QtMobility@@IAE@PAVQObject@@@Z @ 14 NONAME ; QtMobility::QImageEncoderControl::QImageEncoderControl(class QObject *)
	??0QImageEncoderSettings@QtMobility@@QAE@ABV01@@Z @ 15 NONAME ; QtMobility::QImageEncoderSettings::QImageEncoderSettings(class QtMobility::QImageEncoderSettings const &)
	??0QImageEncoderSettings@QtMobility@@QAE@XZ @ 16 NONAME ; QtMobility::QImageEncoderSettings::QImageEncoderSettings(void)
	??0QImageProcessingControl@QtMobility@@IAE@PAVQObject@@@Z @ 17 NONAME ; QtMobility::QImageProcessingControl::QImageProcessingControl(class QObject *)
	??0QLocalMediaPlaylistProvider@QtMobility@@QAE@PAVQObject@@@Z @ 18 NONAME ; QtMobility::QLocalMediaPlaylistProvider::QLocalMediaPlaylistProvider(class QObject *)
	??0QMediaContainerControl@QtMobility@@IAE@PAVQObject@@@Z @ 19 NONAME ; QtMobility::QMediaContainerControl::QMediaContainerControl(class QObject *)
	??0QMediaContent@QtMobility@@QAE@ABV01@@Z @ 20 NONAME ; QtMobility::QMediaContent::QMediaContent(class QtMobility::QMediaContent const &)
	??0QMediaContent@QtMobility@@QAE@ABV?$QList@VQMediaResource@QtMobility@@@@@Z @ 21 NONAME ; QtMobility::QMediaContent::QMediaContent(class QList<class QtMobility::QMediaResource> const &)
	??0QMediaContent@QtMobility@@QAE@ABVQMediaResource@1@@Z @ 22 NONAME ; QtMobility::QMediaContent::QMediaContent(class QtMobility::QMediaResource const &)
	??0QMediaContent@QtMobility@@QAE@ABVQNetworkRequest@@@Z @ 23 NONAME ; QtMobility::QMediaContent::QMediaContent(class QNetworkRequest const &)
	??0QMediaContent@QtMobility@@QAE@ABVQUrl@@@Z @ 24 NONAME ; QtMobility::QMediaContent::QMediaContent(class QUrl const &)
	??0QMediaContent@QtMobility@@QAE@XZ @ 25 NONAME ; QtMobility::QMediaContent::QMediaContent(void)
	??0QMediaControl@QtMobility@@IAE@AAVQMediaControlPrivate@1@PAVQObject@@@Z @ 26 NONAME ; QtMobility::QMediaControl::QMediaControl(class QtMobility::QMediaControlPrivate &, class QObject *)
	??0QMediaControl@QtMobility@@IAE@PAVQObject@@@Z @ 27 NONAME ; QtMobility::QMediaControl::QMediaControl(class QObject *)
	??0QMediaImageViewer@QtMobility@@QAE@PAVQObject@@@Z @ 28 NONAME ; QtMobility::QMediaImageViewer::QMediaImageViewer(class QObject *)
	??0QMediaObject@QtMobility@@IAE@AAVQMediaObjectPrivate@1@PAVQObject@@PAVQMediaService@1@@Z @ 29 NONAME ; QtMobility::QMediaObject::QMediaObject(class QtMobility::QMediaObjectPrivate &, class QObject *, class QtMobility::QMediaService *)
	??0QMediaObject@QtMobility@@IAE@PAVQObject@@PAVQMediaService@1@@Z @ 30 NONAME ; QtMobility::QMediaObject::QMediaObject(class QObject *, class QtMobility::QMediaService *)
	??0QMediaPlayer@QtMobility@@QAE@PAVQObject@@V?$QFlags@W4Flag@QMediaPlayer@QtMobility@@@@PAVQMediaServiceProvider@1@@Z @ 31 NONAME ; QtMobility::QMediaPlayer::QMediaPlayer(class QObject *, class QFlags<enum QtMobility::QMediaPlayer::Flag>, class QtMobility::QMediaServiceProvider *)
	??0QMediaPlayerControl@QtMobility@@IAE@PAVQObject@@@Z @ 32 NONAME ; QtMobility::QMediaPlayerControl::QMediaPlayerControl(class QObject *)
	??0QMediaPlaylist@QtMobility@@QAE@PAVQObject@@@Z @ 33 NONAME ; QtMobility::QMediaPlaylist::QMediaPlaylist(class QObject *)
	??0QMediaPlaylistControl@QtMobility@@IAE@PAVQObject@@@Z @ 34 NONAME ; QtMobility::QMediaPlaylistControl::QMediaPlaylistControl(class QObject *)
	??0QMediaPlaylistIOInterface@QtMobility@@QAE@XZ @ 35 NONAME ; QtMobility::QMediaPlaylistIOInterface::QMediaPlaylistIOInterface(void)
	??0QMediaPlaylistIOPlugin@QtMobility@@QAE@PAVQObject@@@Z @ 36 NONAME ; QtMobility::QMediaPlaylistIOPlugin::QMediaPlaylistIOPlugin(class QObject *)
	??0QMediaPlaylistNavigator@QtMobility@@QAE@PAVQMediaPlaylistProvider@1@PAVQObject@@@Z @ 37 NONAME ; QtMobility::QMediaPlaylistNavigator::QMediaPlaylistNavigator(class QtMobility::QMediaPlaylistProvider *, class QObject *)
	??0QMediaPlaylistProvider@QtMobility@@IAE@AAVQMediaPlaylistProviderPrivate@1@PAVQObject@@@Z @ 38 NONAME ; QtMobility::QMediaPlaylistProvider::QMediaPlaylistProvider(class QtMobility::QMediaPlaylistProviderPrivate &, class QObject *)
	??0QMediaPlaylistProvider@QtMobility@@QAE@PAVQObject@@@Z @ 39 NONAME ; QtMobility::QMediaPlaylistProvider::QMediaPlaylistProvider(class QObject *)
	??0QMediaRecorder@QtMobility@@QAE@PAVQMediaObject@1@PAVQObject@@@Z @ 40 NONAME ; QtMobility::QMediaRecorder::QMediaRecorder(class QtMobility::QMediaObject *, class QObject *)
	??0QMediaRecorderControl@QtMobility@@IAE@PAVQObject@@@Z @ 41 NONAME ; QtMobility::QMediaRecorderControl::QMediaRecorderControl(class QObject *)
	??0QMediaResource@QtMobility@@QAE@ABV01@@Z @ 42 NONAME ; QtMobility::QMediaResource::QMediaResource(class QtMobility::QMediaResource const &)
	??0QMediaResource@QtMobility@@QAE@ABVQNetworkRequest@@ABVQString@@@Z @ 43 NONAME ; QtMobility::QMediaResource::QMediaResource(class QNetworkRequest const &, class QString const &)
	??0QMediaResource@QtMobility@@QAE@ABVQUrl@@ABVQString@@@Z @ 44 NONAME ; QtMobility::QMediaResource::QMediaResource(class QUrl const &, class QString const &)
	??0QMediaResource@QtMobility@@QAE@XZ @ 45 NONAME ; QtMobility::QMediaResource::QMediaResource(void)
	??0QMediaService@QtMobility@@IAE@AAVQMediaServicePrivate@1@PAVQObject@@@Z @ 46 NONAME ; QtMobility::QMediaService::QMediaService(class QtMobility::QMediaServicePrivate &, class QObject *)
	??0QMediaService@QtMobility@@IAE@PAVQObject@@@Z @ 47 NONAME ; QtMobility::QMediaService::QMediaService(class QObject *)
	??0QMediaServiceProvider@QtMobility@@QAE@XZ @ 48 NONAME ; QtMobility::QMediaServiceProvider::QMediaServiceProvider(void)
	??0QMediaServiceProviderHint@QtMobility@@QAE@ABV01@@Z @ 49 NONAME ; QtMobility::QMediaServiceProviderHint::QMediaServiceProviderHint(class QtMobility::QMediaServiceProviderHint const &)
	??0QMediaServiceProviderHint@QtMobility@@QAE@ABVQByteArray@@@Z @ 50 NONAME ; QtMobility::QMediaServiceProviderHint::QMediaServiceProviderHint(class QByteArray const &)
	??0QMediaServiceProviderHint@QtMobility@@QAE@ABVQString@@ABVQStringList@@@Z @ 51 NONAME ; QtMobility::QMediaServiceProviderHint::QMediaServiceProviderHint(class QString const &, class QStringList const &)
	??0QMediaServiceProviderHint@QtMobility@@QAE@V?$QFlags@W4Feature@QMediaServiceProviderHint@QtMobility@@@@@Z @ 52 NONAME ; QtMobility::QMediaServiceProviderHint::QMediaServiceProviderHint(class QFlags<enum QtMobility::QMediaServiceProviderHint::Feature>)
	??0QMediaServiceProviderHint@QtMobility@@QAE@XZ @ 53 NONAME ; QtMobility::QMediaServiceProviderHint::QMediaServiceProviderHint(void)
	??0QMediaStreamsControl@QtMobility@@IAE@PAVQObject@@@Z @ 54 NONAME ; QtMobility::QMediaStreamsControl::QMediaStreamsControl(class QObject *)
	??0QMediaTimeInterval@QtMobility@@QAE@ABV01@@Z @ 55 NONAME ; QtMobility::QMediaTimeInterval::QMediaTimeInterval(class QtMobility::QMediaTimeInterval const &)
	??0QMediaTimeInterval@QtMobility@@QAE@XZ @ 56 NONAME ; QtMobility::QMediaTimeInterval::QMediaTimeInterval(void)
	??0QMediaTimeInterval@QtMobility@@QAE@_J0@Z @ 57 NONAME ; QtMobility::QMediaTimeInterval::QMediaTimeInterval(long long, long long)
	??0QMediaTimeRange@QtMobility@@QAE@ABV01@@Z @ 58 NONAME ; QtMobility::QMediaTimeRange::QMediaTimeRange(class QtMobility::QMediaTimeRange const &)
	??0QMediaTimeRange@QtMobility@@QAE@ABVQMediaTimeInterval@1@@Z @ 59 NONAME ; QtMobility::QMediaTimeRange::QMediaTimeRange(class QtMobility::QMediaTimeInterval const &)
	??0QMediaTimeRange@QtMobility@@QAE@XZ @ 60 NONAME ; QtMobility::QMediaTimeRange::QMediaTimeRange(void)
	??0QMediaTimeRange@QtMobility@@QAE@_J0@Z @ 61 NONAME ; QtMobility::QMediaTimeRange::QMediaTimeRange(long long, long long)
	??0QMetaDataControl@QtMobility@@IAE@PAVQObject@@@Z @ 62 NONAME ; QtMobility::QMetaDataControl::QMetaDataControl(class QObject *)
	??0QRadioTuner@QtMobility@@QAE@PAVQObject@@PAVQMediaServiceProvider@1@@Z @ 63 NONAME ; QtMobility::QRadioTuner::QRadioTuner(class QObject *, class QtMobility::QMediaServiceProvider *)
	??0QRadioTunerControl@QtMobility@@IAE@PAVQObject@@@Z @ 64 NONAME ; QtMobility::QRadioTunerControl::QRadioTunerControl(class QObject *)
	??0QStillImageCapture@QtMobility@@QAE@PAVQMediaObject@1@PAVQObject@@@Z @ 65 NONAME ; QtMobility::QStillImageCapture::QStillImageCapture(class QtMobility::QMediaObject *, class QObject *)
	??0QVideoDeviceControl@QtMobility@@IAE@PAVQObject@@@Z @ 66 NONAME ; QtMobility::QVideoDeviceControl::QVideoDeviceControl(class QObject *)
	??0QVideoEncoderControl@QtMobility@@IAE@PAVQObject@@@Z @ 67 NONAME ; QtMobility::QVideoEncoderControl::QVideoEncoderControl(class QObject *)
	??0QVideoEncoderSettings@QtMobility@@QAE@ABV01@@Z @ 68 NONAME ; QtMobility::QVideoEncoderSettings::QVideoEncoderSettings(class QtMobility::QVideoEncoderSettings const &)
	??0QVideoEncoderSettings@QtMobility@@QAE@XZ @ 69 NONAME ; QtMobility::QVideoEncoderSettings::QVideoEncoderSettings(void)
	??0QVideoOutputControl@QtMobility@@IAE@PAVQObject@@@Z @ 70 NONAME ; QtMobility::QVideoOutputControl::QVideoOutputControl(class QObject *)
	??0QVideoRendererControl@QtMobility@@IAE@PAVQObject@@@Z @ 71 NONAME ; QtMobility::QVideoRendererControl::QVideoRendererControl(class QObject *)
	??0QVideoWidget@QtMobility@@QAE@PAVQWidget@@@Z @ 72 NONAME ; QtMobility::QVideoWidget::QVideoWidget(class QWidget *)
	??0QVideoWidgetControl@QtMobility@@IAE@PAVQObject@@@Z @ 73 NONAME ; QtMobility::QVideoWidgetControl::QVideoWidgetControl(class QObject *)
	??0QVideoWindowControl@QtMobility@@IAE@PAVQObject@@@Z @ 74 NONAME ; QtMobility::QVideoWindowControl::QVideoWindowControl(class QObject *)
	??1QAudioCaptureSource@QtMobility@@UAE@XZ @ 75 NONAME ; QtMobility::QAudioCaptureSource::~QAudioCaptureSource(void)
	??1QAudioEncoderControl@QtMobility@@UAE@XZ @ 76 NONAME ; QtMobility::QAudioEncoderControl::~QAudioEncoderControl(void)
	??1QAudioEncoderSettings@QtMobility@@QAE@XZ @ 77 NONAME ; QtMobility::QAudioEncoderSettings::~QAudioEncoderSettings(void)
	??1QAudioEndpointSelector@QtMobility@@UAE@XZ @ 78 NONAME ; QtMobility::QAudioEndpointSelector::~QAudioEndpointSelector(void)
	??1QCamera@QtMobility@@UAE@XZ @ 79 NONAME ; QtMobility::QCamera::~QCamera(void)
	??1QCameraControl@QtMobility@@UAE@XZ @ 80 NONAME ; QtMobility::QCameraControl::~QCameraControl(void)
	??1QCameraExposureControl@QtMobility@@UAE@XZ @ 81 NONAME ; QtMobility::QCameraExposureControl::~QCameraExposureControl(void)
	??1QCameraFocusControl@QtMobility@@UAE@XZ @ 82 NONAME ; QtMobility::QCameraFocusControl::~QCameraFocusControl(void)
	??1QGraphicsVideoItem@QtMobility@@UAE@XZ @ 83 NONAME ; QtMobility::QGraphicsVideoItem::~QGraphicsVideoItem(void)
	??1QImageCaptureControl@QtMobility@@UAE@XZ @ 84 NONAME ; QtMobility::QImageCaptureControl::~QImageCaptureControl(void)
	??1QImageEncoderControl@QtMobility@@UAE@XZ @ 85 NONAME ; QtMobility::QImageEncoderControl::~QImageEncoderControl(void)
	??1QImageEncoderSettings@QtMobility@@QAE@XZ @ 86 NONAME ; QtMobility::QImageEncoderSettings::~QImageEncoderSettings(void)
	??1QImageProcessingControl@QtMobility@@UAE@XZ @ 87 NONAME ; QtMobility::QImageProcessingControl::~QImageProcessingControl(void)
	??1QLocalMediaPlaylistProvider@QtMobility@@UAE@XZ @ 88 NONAME ; QtMobility::QLocalMediaPlaylistProvider::~QLocalMediaPlaylistProvider(void)
	??1QMediaContainerControl@QtMobility@@UAE@XZ @ 89 NONAME ; QtMobility::QMediaContainerControl::~QMediaContainerControl(void)
	??1QMediaContent@QtMobility@@QAE@XZ @ 90 NONAME ; QtMobility::QMediaContent::~QMediaContent(void)
	??1QMediaControl@QtMobility@@UAE@XZ @ 91 NONAME ; QtMobility::QMediaControl::~QMediaControl(void)
	??1QMediaImageViewer@QtMobility@@UAE@XZ @ 92 NONAME ; QtMobility::QMediaImageViewer::~QMediaImageViewer(void)
	??1QMediaObject@QtMobility@@UAE@XZ @ 93 NONAME ; QtMobility::QMediaObject::~QMediaObject(void)
	??1QMediaPlayer@QtMobility@@UAE@XZ @ 94 NONAME ; QtMobility::QMediaPlayer::~QMediaPlayer(void)
	??1QMediaPlayerControl@QtMobility@@UAE@XZ @ 95 NONAME ; QtMobility::QMediaPlayerControl::~QMediaPlayerControl(void)
	??1QMediaPlaylist@QtMobility@@UAE@XZ @ 96 NONAME ; QtMobility::QMediaPlaylist::~QMediaPlaylist(void)
	??1QMediaPlaylistControl@QtMobility@@UAE@XZ @ 97 NONAME ; QtMobility::QMediaPlaylistControl::~QMediaPlaylistControl(void)
	??1QMediaPlaylistIOInterface@QtMobility@@UAE@XZ @ 98 NONAME ; QtMobility::QMediaPlaylistIOInterface::~QMediaPlaylistIOInterface(void)
	??1QMediaPlaylistIOPlugin@QtMobility@@UAE@XZ @ 99 NONAME ; QtMobility::QMediaPlaylistIOPlugin::~QMediaPlaylistIOPlugin(void)
	??1QMediaPlaylistNavigator@QtMobility@@UAE@XZ @ 100 NONAME ; QtMobility::QMediaPlaylistNavigator::~QMediaPlaylistNavigator(void)
	??1QMediaPlaylistProvider@QtMobility@@UAE@XZ @ 101 NONAME ; QtMobility::QMediaPlaylistProvider::~QMediaPlaylistProvider(void)
	??1QMediaPlaylistReader@QtMobility@@UAE@XZ @ 102 NONAME ; QtMobility::QMediaPlaylistReader::~QMediaPlaylistReader(void)
	??1QMediaPlaylistWriter@QtMobility@@UAE@XZ @ 103 NONAME ; QtMobility::QMediaPlaylistWriter::~QMediaPlaylistWriter(void)
	??1QMediaRecorder@QtMobility@@UAE@XZ @ 104 NONAME ; QtMobility::QMediaRecorder::~QMediaRecorder(void)
	??1QMediaRecorderControl@QtMobility@@UAE@XZ @ 105 NONAME ; QtMobility::QMediaRecorderControl::~QMediaRecorderControl(void)
	??1QMediaResource@QtMobility@@QAE@XZ @ 106 NONAME ; QtMobility::QMediaResource::~QMediaResource(void)
	??1QMediaService@QtMobility@@UAE@XZ @ 107 NONAME ; QtMobility::QMediaService::~QMediaService(void)
	??1QMediaServiceFeaturesInterface@QtMobility@@UAE@XZ @ 108 NONAME ; QtMobility::QMediaServiceFeaturesInterface::~QMediaServiceFeaturesInterface(void)
	??1QMediaServiceProvider@QtMobility@@UAE@XZ @ 109 NONAME ; QtMobility::QMediaServiceProvider::~QMediaServiceProvider(void)
	??1QMediaServiceProviderHint@QtMobility@@QAE@XZ @ 110 NONAME ; QtMobility::QMediaServiceProviderHint::~QMediaServiceProviderHint(void)
	??1QMediaServiceSupportedDevicesInterface@QtMobility@@UAE@XZ @ 111 NONAME ; QtMobility::QMediaServiceSupportedDevicesInterface::~QMediaServiceSupportedDevicesInterface(void)
	??1QMediaServiceSupportedFormatsInterface@QtMobility@@UAE@XZ @ 112 NONAME ; QtMobility::QMediaServiceSupportedFormatsInterface::~QMediaServiceSupportedFormatsInterface(void)
	??1QMediaStreamsControl@QtMobility@@UAE@XZ @ 113 NONAME ; QtMobility::QMediaStreamsControl::~QMediaStreamsControl(void)
	??1QMediaTimeRange@QtMobility@@QAE@XZ @ 114 NONAME ; QtMobility::QMediaTimeRange::~QMediaTimeRange(void)
	??1QMetaDataControl@QtMobility@@UAE@XZ @ 115 NONAME ; QtMobility::QMetaDataControl::~QMetaDataControl(void)
	??1QRadioTuner@QtMobility@@UAE@XZ @ 116 NONAME ; QtMobility::QRadioTuner::~QRadioTuner(void)
	??1QRadioTunerControl@QtMobility@@UAE@XZ @ 117 NONAME ; QtMobility::QRadioTunerControl::~QRadioTunerControl(void)
	??1QStillImageCapture@QtMobility@@UAE@XZ @ 118 NONAME ; QtMobility::QStillImageCapture::~QStillImageCapture(void)
	??1QVideoDeviceControl@QtMobility@@UAE@XZ @ 119 NONAME ; QtMobility::QVideoDeviceControl::~QVideoDeviceControl(void)
	??1QVideoEncoderControl@QtMobility@@UAE@XZ @ 120 NONAME ; QtMobility::QVideoEncoderControl::~QVideoEncoderControl(void)
	??1QVideoEncoderSettings@QtMobility@@QAE@XZ @ 121 NONAME ; QtMobility::QVideoEncoderSettings::~QVideoEncoderSettings(void)
	??1QVideoOutputControl@QtMobility@@UAE@XZ @ 122 NONAME ; QtMobility::QVideoOutputControl::~QVideoOutputControl(void)
	??1QVideoRendererControl@QtMobility@@UAE@XZ @ 123 NONAME ; QtMobility::QVideoRendererControl::~QVideoRendererControl(void)
	??1QVideoWidget@QtMobility@@UAE@XZ @ 124 NONAME ; QtMobility::QVideoWidget::~QVideoWidget(void)
	??1QVideoWidgetControl@QtMobility@@UAE@XZ @ 125 NONAME ; QtMobility::QVideoWidgetControl::~QVideoWidgetControl(void)
	??1QVideoWindowControl@QtMobility@@UAE@XZ @ 126 NONAME ; QtMobility::QVideoWindowControl::~QVideoWindowControl(void)
	??4QAudioEncoderSettings@QtMobility@@QAEAAV01@ABV01@@Z @ 127 NONAME ; class QtMobility::QAudioEncoderSettings & QtMobility::QAudioEncoderSettings::operator=(class QtMobility::QAudioEncoderSettings const &)
	??4QImageEncoderSettings@QtMobility@@QAEAAV01@ABV01@@Z @ 128 NONAME ; class QtMobility::QImageEncoderSettings & QtMobility::QImageEncoderSettings::operator=(class QtMobility::QImageEncoderSettings const &)
	??4QMediaContent@QtMobility@@QAEAAV01@ABV01@@Z @ 129 NONAME ; class QtMobility::QMediaContent & QtMobility::QMediaContent::operator=(class QtMobility::QMediaContent const &)
	??4QMediaResource@QtMobility@@QAEAAV01@ABV01@@Z @ 130 NONAME ; class QtMobility::QMediaResource & QtMobility::QMediaResource::operator=(class QtMobility::QMediaResource const &)
	??4QMediaServiceProviderHint@QtMobility@@QAEAAV01@ABV01@@Z @ 131 NONAME ; class QtMobility::QMediaServiceProviderHint & QtMobility::QMediaServiceProviderHint::operator=(class QtMobility::QMediaServiceProviderHint const &)
	??4QMediaTimeRange@QtMobility@@QAEAAV01@ABV01@@Z @ 132 NONAME ; class QtMobility::QMediaTimeRange & QtMobility::QMediaTimeRange::operator=(class QtMobility::QMediaTimeRange const &)
	??4QMediaTimeRange@QtMobility@@QAEAAV01@ABVQMediaTimeInterval@1@@Z @ 133 NONAME ; class QtMobility::QMediaTimeRange & QtMobility::QMediaTimeRange::operator=(class QtMobility::QMediaTimeInterval const &)
	??4QVideoEncoderSettings@QtMobility@@QAEAAV01@ABV01@@Z @ 134 NONAME ; class QtMobility::QVideoEncoderSettings & QtMobility::QVideoEncoderSettings::operator=(class QtMobility::QVideoEncoderSettings const &)
	??8QAudioEncoderSettings@QtMobility@@QBE_NABV01@@Z @ 135 NONAME ; bool QtMobility::QAudioEncoderSettings::operator==(class QtMobility::QAudioEncoderSettings const &) const
	??8QImageEncoderSettings@QtMobility@@QBE_NABV01@@Z @ 136 NONAME ; bool QtMobility::QImageEncoderSettings::operator==(class QtMobility::QImageEncoderSettings const &) const
	??8QMediaContent@QtMobility@@QBE_NABV01@@Z @ 137 NONAME ; bool QtMobility::QMediaContent::operator==(class QtMobility::QMediaContent const &) const
	??8QMediaResource@QtMobility@@QBE_NABV01@@Z @ 138 NONAME ; bool QtMobility::QMediaResource::operator==(class QtMobility::QMediaResource const &) const
	??8QMediaServiceProviderHint@QtMobility@@QBE_NABV01@@Z @ 139 NONAME ; bool QtMobility::QMediaServiceProviderHint::operator==(class QtMobility::QMediaServiceProviderHint const &) const
	??8QVideoEncoderSettings@QtMobility@@QBE_NABV01@@Z @ 140 NONAME ; bool QtMobility::QVideoEncoderSettings::operator==(class QtMobility::QVideoEncoderSettings const &) const
	??8QtMobility@@YA_NABVQMediaTimeInterval@0@0@Z @ 141 NONAME ; bool QtMobility::operator==(class QtMobility::QMediaTimeInterval const &, class QtMobility::QMediaTimeInterval const &)
	??8QtMobility@@YA_NABVQMediaTimeRange@0@0@Z @ 142 NONAME ; bool QtMobility::operator==(class QtMobility::QMediaTimeRange const &, class QtMobility::QMediaTimeRange const &)
	??9QAudioEncoderSettings@QtMobility@@QBE_NABV01@@Z @ 143 NONAME ; bool QtMobility::QAudioEncoderSettings::operator!=(class QtMobility::QAudioEncoderSettings const &) const
	??9QImageEncoderSettings@QtMobility@@QBE_NABV01@@Z @ 144 NONAME ; bool QtMobility::QImageEncoderSettings::operator!=(class QtMobility::QImageEncoderSettings const &) const
	??9QMediaContent@QtMobility@@QBE_NABV01@@Z @ 145 NONAME ; bool QtMobility::QMediaContent::operator!=(class QtMobility::QMediaContent const &) const
	??9QMediaResource@QtMobility@@QBE_NABV01@@Z @ 146 NONAME ; bool QtMobility::QMediaResource::operator!=(class QtMobility::QMediaResource const &) const
	??9QMediaServiceProviderHint@QtMobility@@QBE_NABV01@@Z @ 147 NONAME ; bool QtMobility::QMediaServiceProviderHint::operator!=(class QtMobility::QMediaServiceProviderHint const &) const
	??9QVideoEncoderSettings@QtMobility@@QBE_NABV01@@Z @ 148 NONAME ; bool QtMobility::QVideoEncoderSettings::operator!=(class QtMobility::QVideoEncoderSettings const &) const
	??9QtMobility@@YA_NABVQMediaTimeInterval@0@0@Z @ 149 NONAME ; bool QtMobility::operator!=(class QtMobility::QMediaTimeInterval const &, class QtMobility::QMediaTimeInterval const &)
	??9QtMobility@@YA_NABVQMediaTimeRange@0@0@Z @ 150 NONAME ; bool QtMobility::operator!=(class QtMobility::QMediaTimeRange const &, class QtMobility::QMediaTimeRange const &)
	??GQtMobility@@YA?AVQMediaTimeRange@0@ABV10@0@Z @ 151 NONAME ; class QtMobility::QMediaTimeRange QtMobility::operator-(class QtMobility::QMediaTimeRange const &, class QtMobility::QMediaTimeRange const &)
	??HQtMobility@@YA?AVQMediaTimeRange@0@ABV10@0@Z @ 152 NONAME ; class QtMobility::QMediaTimeRange QtMobility::operator+(class QtMobility::QMediaTimeRange const &, class QtMobility::QMediaTimeRange const &)
	??YQMediaTimeRange@QtMobility@@QAEAAV01@ABV01@@Z @ 153 NONAME ; class QtMobility::QMediaTimeRange & QtMobility::QMediaTimeRange::operator+=(class QtMobility::QMediaTimeRange const &)
	??YQMediaTimeRange@QtMobility@@QAEAAV01@ABVQMediaTimeInterval@1@@Z @ 154 NONAME ; class QtMobility::QMediaTimeRange & QtMobility::QMediaTimeRange::operator+=(class QtMobility::QMediaTimeInterval const &)
	??ZQMediaTimeRange@QtMobility@@QAEAAV01@ABV01@@Z @ 155 NONAME ; class QtMobility::QMediaTimeRange & QtMobility::QMediaTimeRange::operator-=(class QtMobility::QMediaTimeRange const &)
	??ZQMediaTimeRange@QtMobility@@QAEAAV01@ABVQMediaTimeInterval@1@@Z @ 156 NONAME ; class QtMobility::QMediaTimeRange & QtMobility::QMediaTimeRange::operator-=(class QtMobility::QMediaTimeInterval const &)
	??_EQAudioCaptureSource@QtMobility@@UAE@I@Z @ 157 NONAME ; QtMobility::QAudioCaptureSource::~QAudioCaptureSource(unsigned int)
	??_EQAudioEncoderControl@QtMobility@@UAE@I@Z @ 158 NONAME ; QtMobility::QAudioEncoderControl::~QAudioEncoderControl(unsigned int)
	??_EQAudioEndpointSelector@QtMobility@@UAE@I@Z @ 159 NONAME ; QtMobility::QAudioEndpointSelector::~QAudioEndpointSelector(unsigned int)
	??_EQCamera@QtMobility@@UAE@I@Z @ 160 NONAME ; QtMobility::QCamera::~QCamera(unsigned int)
	??_EQCameraControl@QtMobility@@UAE@I@Z @ 161 NONAME ; QtMobility::QCameraControl::~QCameraControl(unsigned int)
	??_EQCameraExposureControl@QtMobility@@UAE@I@Z @ 162 NONAME ; QtMobility::QCameraExposureControl::~QCameraExposureControl(unsigned int)
	??_EQCameraFocusControl@QtMobility@@UAE@I@Z @ 163 NONAME ; QtMobility::QCameraFocusControl::~QCameraFocusControl(unsigned int)
	??_EQGraphicsVideoItem@QtMobility@@UAE@I@Z @ 164 NONAME ; QtMobility::QGraphicsVideoItem::~QGraphicsVideoItem(unsigned int)
	??_EQImageCaptureControl@QtMobility@@UAE@I@Z @ 165 NONAME ; QtMobility::QImageCaptureControl::~QImageCaptureControl(unsigned int)
	??_EQImageEncoderControl@QtMobility@@UAE@I@Z @ 166 NONAME ; QtMobility::QImageEncoderControl::~QImageEncoderControl(unsigned int)
	??_EQImageProcessingControl@QtMobility@@UAE@I@Z @ 167 NONAME ; QtMobility::QImageProcessingControl::~QImageProcessingControl(unsigned int)
	??_EQLocalMediaPlaylistProvider@QtMobility@@UAE@I@Z @ 168 NONAME ; QtMobility::QLocalMediaPlaylistProvider::~QLocalMediaPlaylistProvider(unsigned int)
	??_EQMediaContainerControl@QtMobility@@UAE@I@Z @ 169 NONAME ; QtMobility::QMediaContainerControl::~QMediaContainerControl(unsigned int)
	??_EQMediaContent@QtMobility@@QAE@I@Z @ 170 NONAME ; QtMobility::QMediaContent::~QMediaContent(unsigned int)
	??_EQMediaControl@QtMobility@@UAE@I@Z @ 171 NONAME ; QtMobility::QMediaControl::~QMediaControl(unsigned int)
	??_EQMediaImageViewer@QtMobility@@UAE@I@Z @ 172 NONAME ; QtMobility::QMediaImageViewer::~QMediaImageViewer(unsigned int)
	??_EQMediaObject@QtMobility@@UAE@I@Z @ 173 NONAME ; QtMobility::QMediaObject::~QMediaObject(unsigned int)
	??_EQMediaPlayer@QtMobility@@UAE@I@Z @ 174 NONAME ; QtMobility::QMediaPlayer::~QMediaPlayer(unsigned int)
	??_EQMediaPlayerControl@QtMobility@@UAE@I@Z @ 175 NONAME ; QtMobility::QMediaPlayerControl::~QMediaPlayerControl(unsigned int)
	??_EQMediaPlaylist@QtMobility@@UAE@I@Z @ 176 NONAME ; QtMobility::QMediaPlaylist::~QMediaPlaylist(unsigned int)
	??_EQMediaPlaylistControl@QtMobility@@UAE@I@Z @ 177 NONAME ; QtMobility::QMediaPlaylistControl::~QMediaPlaylistControl(unsigned int)
	??_EQMediaPlaylistIOInterface@QtMobility@@UAE@I@Z @ 178 NONAME ; QtMobility::QMediaPlaylistIOInterface::~QMediaPlaylistIOInterface(unsigned int)
	??_EQMediaPlaylistIOPlugin@QtMobility@@UAE@I@Z @ 179 NONAME ; QtMobility::QMediaPlaylistIOPlugin::~QMediaPlaylistIOPlugin(unsigned int)
	??_EQMediaPlaylistNavigator@QtMobility@@UAE@I@Z @ 180 NONAME ; QtMobility::QMediaPlaylistNavigator::~QMediaPlaylistNavigator(unsigned int)
	??_EQMediaPlaylistProvider@QtMobility@@UAE@I@Z @ 181 NONAME ; QtMobility::QMediaPlaylistProvider::~QMediaPlaylistProvider(unsigned int)
	??_EQMediaPlaylistReader@QtMobility@@UAE@I@Z @ 182 NONAME ; QtMobility::QMediaPlaylistReader::~QMediaPlaylistReader(unsigned int)
	??_EQMediaPlaylistWriter@QtMobility@@UAE@I@Z @ 183 NONAME ; QtMobility::QMediaPlaylistWriter::~QMediaPlaylistWriter(unsigned int)
	??_EQMediaRecorder@QtMobility@@UAE@I@Z @ 184 NONAME ; QtMobility::QMediaRecorder::~QMediaRecorder(unsigned int)
	??_EQMediaRecorderControl@QtMobility@@UAE@I@Z @ 185 NONAME ; QtMobility::QMediaRecorderControl::~QMediaRecorderControl(unsigned int)
	??_EQMediaResource@QtMobility@@QAE@I@Z @ 186 NONAME ; QtMobility::QMediaResource::~QMediaResource(unsigned int)
	??_EQMediaService@QtMobility@@UAE@I@Z @ 187 NONAME ; QtMobility::QMediaService::~QMediaService(unsigned int)
	??_EQMediaServiceFeaturesInterface@QtMobility@@UAE@I@Z @ 188 NONAME ; QtMobility::QMediaServiceFeaturesInterface::~QMediaServiceFeaturesInterface(unsigned int)
	??_EQMediaServiceProvider@QtMobility@@UAE@I@Z @ 189 NONAME ; QtMobility::QMediaServiceProvider::~QMediaServiceProvider(unsigned int)
	??_EQMediaServiceSupportedDevicesInterface@QtMobility@@UAE@I@Z @ 190 NONAME ; QtMobility::QMediaServiceSupportedDevicesInterface::~QMediaServiceSupportedDevicesInterface(unsigned int)
	??_EQMediaServiceSupportedFormatsInterface@QtMobility@@UAE@I@Z @ 191 NONAME ; QtMobility::QMediaServiceSupportedFormatsInterface::~QMediaServiceSupportedFormatsInterface(unsigned int)
	??_EQMediaStreamsControl@QtMobility@@UAE@I@Z @ 192 NONAME ; QtMobility::QMediaStreamsControl::~QMediaStreamsControl(unsigned int)
	??_EQMetaDataControl@QtMobility@@UAE@I@Z @ 193 NONAME ; QtMobility::QMetaDataControl::~QMetaDataControl(unsigned int)
	??_EQRadioTuner@QtMobility@@UAE@I@Z @ 194 NONAME ; QtMobility::QRadioTuner::~QRadioTuner(unsigned int)
	??_EQRadioTunerControl@QtMobility@@UAE@I@Z @ 195 NONAME ; QtMobility::QRadioTunerControl::~QRadioTunerControl(unsigned int)
	??_EQStillImageCapture@QtMobility@@UAE@I@Z @ 196 NONAME ; QtMobility::QStillImageCapture::~QStillImageCapture(unsigned int)
	??_EQVideoDeviceControl@QtMobility@@UAE@I@Z @ 197 NONAME ; QtMobility::QVideoDeviceControl::~QVideoDeviceControl(unsigned int)
	??_EQVideoEncoderControl@QtMobility@@UAE@I@Z @ 198 NONAME ; QtMobility::QVideoEncoderControl::~QVideoEncoderControl(unsigned int)
	??_EQVideoOutputControl@QtMobility@@UAE@I@Z @ 199 NONAME ; QtMobility::QVideoOutputControl::~QVideoOutputControl(unsigned int)
	??_EQVideoRendererControl@QtMobility@@UAE@I@Z @ 200 NONAME ; QtMobility::QVideoRendererControl::~QVideoRendererControl(unsigned int)
	??_EQVideoWidget@QtMobility@@UAE@I@Z @ 201 NONAME ; QtMobility::QVideoWidget::~QVideoWidget(unsigned int)
	??_EQVideoWidgetControl@QtMobility@@UAE@I@Z @ 202 NONAME ; QtMobility::QVideoWidgetControl::~QVideoWidgetControl(unsigned int)
	??_EQVideoWindowControl@QtMobility@@UAE@I@Z @ 203 NONAME ; QtMobility::QVideoWindowControl::~QVideoWindowControl(unsigned int)
	?activated@QMediaPlaylistNavigator@QtMobility@@IAEXABVQMediaContent@2@@Z @ 204 NONAME ; void QtMobility::QMediaPlaylistNavigator::activated(class QtMobility::QMediaContent const &)
	?activeAudioInput@QAudioCaptureSource@QtMobility@@QBE?AVQString@@XZ @ 205 NONAME ; class QString QtMobility::QAudioCaptureSource::activeAudioInput(void) const
	?activeAudioInputChanged@QAudioCaptureSource@QtMobility@@IAEXABVQString@@@Z @ 206 NONAME ; void QtMobility::QAudioCaptureSource::activeAudioInputChanged(class QString const &)
	?activeEndpointChanged@QAudioEndpointSelector@QtMobility@@IAEXABVQString@@@Z @ 207 NONAME ; void QtMobility::QAudioEndpointSelector::activeEndpointChanged(class QString const &)
	?activeStreamsChanged@QMediaStreamsControl@QtMobility@@IAEXXZ @ 208 NONAME ; void QtMobility::QMediaStreamsControl::activeStreamsChanged(void)
	?addInterval@QMediaTimeRange@QtMobility@@QAEXABVQMediaTimeInterval@2@@Z @ 209 NONAME ; void QtMobility::QMediaTimeRange::addInterval(class QtMobility::QMediaTimeInterval const &)
	?addInterval@QMediaTimeRange@QtMobility@@QAEX_J0@Z @ 210 NONAME ; void QtMobility::QMediaTimeRange::addInterval(long long, long long)
	?addMedia@QLocalMediaPlaylistProvider@QtMobility@@UAE_NABV?$QList@VQMediaContent@QtMobility@@@@@Z @ 211 NONAME ; bool QtMobility::QLocalMediaPlaylistProvider::addMedia(class QList<class QtMobility::QMediaContent> const &)
	?addMedia@QLocalMediaPlaylistProvider@QtMobility@@UAE_NABVQMediaContent@2@@Z @ 212 NONAME ; bool QtMobility::QLocalMediaPlaylistProvider::addMedia(class QtMobility::QMediaContent const &)
	?addMedia@QMediaPlaylist@QtMobility@@QAE_NABV?$QList@VQMediaContent@QtMobility@@@@@Z @ 213 NONAME ; bool QtMobility::QMediaPlaylist::addMedia(class QList<class QtMobility::QMediaContent> const &)
	?addMedia@QMediaPlaylist@QtMobility@@QAE_NABVQMediaContent@2@@Z @ 214 NONAME ; bool QtMobility::QMediaPlaylist::addMedia(class QtMobility::QMediaContent const &)
	?addMedia@QMediaPlaylistProvider@QtMobility@@UAE_NABV?$QList@VQMediaContent@QtMobility@@@@@Z @ 215 NONAME ; bool QtMobility::QMediaPlaylistProvider::addMedia(class QList<class QtMobility::QMediaContent> const &)
	?addMedia@QMediaPlaylistProvider@QtMobility@@UAE_NABVQMediaContent@2@@Z @ 216 NONAME ; bool QtMobility::QMediaPlaylistProvider::addMedia(class QtMobility::QMediaContent const &)
	?addPropertyWatch@QMediaObject@QtMobility@@IAEXABVQByteArray@@@Z @ 217 NONAME ; void QtMobility::QMediaObject::addPropertyWatch(class QByteArray const &)
	?addTimeRange@QMediaTimeRange@QtMobility@@QAEXABV12@@Z @ 218 NONAME ; void QtMobility::QMediaTimeRange::addTimeRange(class QtMobility::QMediaTimeRange const &)
	?aperture@QCamera@QtMobility@@QBEMXZ @ 219 NONAME ; float QtMobility::QCamera::aperture(void) const
	?apertureChanged@QCamera@QtMobility@@IAEXM@Z @ 220 NONAME ; void QtMobility::QCamera::apertureChanged(float)
	?apertureChanged@QCameraExposureControl@QtMobility@@IAEXM@Z @ 221 NONAME ; void QtMobility::QCameraExposureControl::apertureChanged(float)
	?apertureRangeChanged@QCamera@QtMobility@@IAEXXZ @ 222 NONAME ; void QtMobility::QCamera::apertureRangeChanged(void)
	?apertureRangeChanged@QCameraExposureControl@QtMobility@@IAEXXZ @ 223 NONAME ; void QtMobility::QCameraExposureControl::apertureRangeChanged(void)
	?aspectRatioMode@QGraphicsVideoItem@QtMobility@@QBE?AW4AspectRatioMode@Qt@@XZ @ 224 NONAME ; enum Qt::AspectRatioMode QtMobility::QGraphicsVideoItem::aspectRatioMode(void) const
	?aspectRatioMode@QVideoWidget@QtMobility@@QBE?AW4AspectRatioMode@12@XZ @ 225 NONAME ; enum QtMobility::QVideoWidget::AspectRatioMode QtMobility::QVideoWidget::aspectRatioMode(void) const
	?audioAvailableChanged@QMediaPlayer@QtMobility@@IAEX_N@Z @ 226 NONAME ; void QtMobility::QMediaPlayer::audioAvailableChanged(bool)
	?audioAvailableChanged@QMediaPlayerControl@QtMobility@@IAEX_N@Z @ 227 NONAME ; void QtMobility::QMediaPlayerControl::audioAvailableChanged(bool)
	?audioBitRate@QMediaResource@QtMobility@@QBEHXZ @ 228 NONAME ; int QtMobility::QMediaResource::audioBitRate(void) const
	?audioCodec@QMediaResource@QtMobility@@QBE?AVQString@@XZ @ 229 NONAME ; class QString QtMobility::QMediaResource::audioCodec(void) const
	?audioCodecDescription@QMediaRecorder@QtMobility@@QBE?AVQString@@ABV3@@Z @ 230 NONAME ; class QString QtMobility::QMediaRecorder::audioCodecDescription(class QString const &) const
	?audioDescription@QAudioCaptureSource@QtMobility@@QBE?AVQString@@ABV3@@Z @ 231 NONAME ; class QString QtMobility::QAudioCaptureSource::audioDescription(class QString const &) const
	?audioInputs@QAudioCaptureSource@QtMobility@@QBE?AV?$QList@VQString@@@@XZ @ 232 NONAME ; class QList<class QString> QtMobility::QAudioCaptureSource::audioInputs(void) const
	?audioSettings@QMediaRecorder@QtMobility@@QBE?AVQAudioEncoderSettings@2@XZ @ 233 NONAME ; class QtMobility::QAudioEncoderSettings QtMobility::QMediaRecorder::audioSettings(void) const
	?availabilityChanged@QMediaObject@QtMobility@@IAEX_N@Z @ 234 NONAME ; void QtMobility::QMediaObject::availabilityChanged(bool)
	?availabilityError@QAudioCaptureSource@QtMobility@@UBE?AW4AvailabilityError@QtMedia@2@XZ @ 235 NONAME ; enum QtMobility::QtMedia::AvailabilityError QtMobility::QAudioCaptureSource::availabilityError(void) const
	?availabilityError@QCamera@QtMobility@@UBE?AW4AvailabilityError@QtMedia@2@XZ @ 236 NONAME ; enum QtMobility::QtMedia::AvailabilityError QtMobility::QCamera::availabilityError(void) const
	?availabilityError@QMediaObject@QtMobility@@UBE?AW4AvailabilityError@QtMedia@2@XZ @ 237 NONAME ; enum QtMobility::QtMedia::AvailabilityError QtMobility::QMediaObject::availabilityError(void) const
	?availabilityError@QMediaRecorder@QtMobility@@UBE?AW4AvailabilityError@QtMedia@2@XZ @ 238 NONAME ; enum QtMobility::QtMedia::AvailabilityError QtMobility::QMediaRecorder::availabilityError(void) const
	?availabilityError@QRadioTuner@QtMobility@@UBE?AW4AvailabilityError@QtMedia@2@XZ @ 239 NONAME ; enum QtMobility::QtMedia::AvailabilityError QtMobility::QRadioTuner::availabilityError(void) const
	?availabilityError@QStillImageCapture@QtMobility@@UBE?AW4AvailabilityError@QtMedia@2@XZ @ 240 NONAME ; enum QtMobility::QtMedia::AvailabilityError QtMobility::QStillImageCapture::availabilityError(void) const
	?availableAudioInputsChanged@QAudioCaptureSource@QtMobility@@IAEXXZ @ 241 NONAME ; void QtMobility::QAudioCaptureSource::availableAudioInputsChanged(void)
	?availableDevices@QCamera@QtMobility@@SA?AV?$QList@VQByteArray@@@@XZ @ 242 NONAME ; class QList<class QByteArray> QtMobility::QCamera::availableDevices(void)
	?availableEndpointsChanged@QAudioEndpointSelector@QtMobility@@IAEXXZ @ 243 NONAME ; void QtMobility::QAudioEndpointSelector::availableEndpointsChanged(void)
	?availableExtendedMetaData@QMediaObject@QtMobility@@QBE?AVQStringList@@XZ @ 244 NONAME ; class QStringList QtMobility::QMediaObject::availableExtendedMetaData(void) const
	?availableMetaData@QMediaObject@QtMobility@@QBE?AV?$QList@W4MetaData@QtMedia@QtMobility@@@@XZ @ 245 NONAME ; class QList<enum QtMobility::QtMedia::MetaData> QtMobility::QMediaObject::availableMetaData(void) const
	?availableOutputsChanged@QVideoOutputControl@QtMobility@@IAEXABV?$QList@W4Output@QVideoOutputControl@QtMobility@@@@@Z @ 246 NONAME ; void QtMobility::QVideoOutputControl::availableOutputsChanged(class QList<enum QtMobility::QVideoOutputControl::Output> const &)
	?availablePlaybackRangesChanged@QMediaPlayerControl@QtMobility@@IAEXABVQMediaTimeRange@2@@Z @ 247 NONAME ; void QtMobility::QMediaPlayerControl::availablePlaybackRangesChanged(class QtMobility::QMediaTimeRange const &)
	?band@QRadioTuner@QtMobility@@QBE?AW4Band@12@XZ @ 248 NONAME ; enum QtMobility::QRadioTuner::Band QtMobility::QRadioTuner::band(void) const
	?bandChanged@QRadioTuner@QtMobility@@IAEXW4Band@12@@Z @ 249 NONAME ; void QtMobility::QRadioTuner::bandChanged(enum QtMobility::QRadioTuner::Band)
	?bandChanged@QRadioTunerControl@QtMobility@@IAEXW4Band@QRadioTuner@2@@Z @ 250 NONAME ; void QtMobility::QRadioTunerControl::bandChanged(enum QtMobility::QRadioTuner::Band)
	?bind@QMediaImageViewer@QtMobility@@UAEXPAVQObject@@@Z @ 251 NONAME ; void QtMobility::QMediaImageViewer::bind(class QObject *)
	?bind@QMediaObject@QtMobility@@UAEXPAVQObject@@@Z @ 252 NONAME ; void QtMobility::QMediaObject::bind(class QObject *)
	?bind@QMediaPlayer@QtMobility@@UAEXPAVQObject@@@Z @ 253 NONAME ; void QtMobility::QMediaPlayer::bind(class QObject *)
	?bitRate@QAudioEncoderSettings@QtMobility@@QBEHXZ @ 254 NONAME ; int QtMobility::QAudioEncoderSettings::bitRate(void) const
	?bitRate@QVideoEncoderSettings@QtMobility@@QBEHXZ @ 255 NONAME ; int QtMobility::QVideoEncoderSettings::bitRate(void) const
	?boundingRect@QGraphicsVideoItem@QtMobility@@UBE?AVQRectF@@XZ @ 256 NONAME ; class QRectF QtMobility::QGraphicsVideoItem::boundingRect(void) const
	?brightness@QVideoWidget@QtMobility@@QBEHXZ @ 257 NONAME ; int QtMobility::QVideoWidget::brightness(void) const
	?brightnessChanged@QVideoWidget@QtMobility@@IAEXH@Z @ 258 NONAME ; void QtMobility::QVideoWidget::brightnessChanged(int)
	?brightnessChanged@QVideoWidgetControl@QtMobility@@IAEXH@Z @ 259 NONAME ; void QtMobility::QVideoWidgetControl::brightnessChanged(int)
	?brightnessChanged@QVideoWindowControl@QtMobility@@IAEXH@Z @ 260 NONAME ; void QtMobility::QVideoWindowControl::brightnessChanged(int)
	?bufferStatus@QMediaPlayer@QtMobility@@QBEHXZ @ 261 NONAME ; int QtMobility::QMediaPlayer::bufferStatus(void) const
	?bufferStatusChanged@QMediaPlayer@QtMobility@@IAEXH@Z @ 262 NONAME ; void QtMobility::QMediaPlayer::bufferStatusChanged(int)
	?bufferStatusChanged@QMediaPlayerControl@QtMobility@@IAEXH@Z @ 263 NONAME ; void QtMobility::QMediaPlayerControl::bufferStatusChanged(int)
	?cancelCapture@QStillImageCapture@QtMobility@@QAEXXZ @ 264 NONAME ; void QtMobility::QStillImageCapture::cancelCapture(void)
	?cancelFocusing@QCamera@QtMobility@@QAEXXZ @ 265 NONAME ; void QtMobility::QCamera::cancelFocusing(void)
	?cancelSearch@QRadioTuner@QtMobility@@QAEXXZ @ 266 NONAME ; void QtMobility::QRadioTuner::cancelSearch(void)
	?canonicalResource@QMediaContent@QtMobility@@QBE?AVQMediaResource@2@XZ @ 267 NONAME ; class QtMobility::QMediaResource QtMobility::QMediaContent::canonicalResource(void) const
	?canonicalUrl@QMediaContent@QtMobility@@QBE?AVQUrl@@XZ @ 268 NONAME ; class QUrl QtMobility::QMediaContent::canonicalUrl(void) const
	?capture@QStillImageCapture@QtMobility@@QAEXABVQString@@@Z @ 269 NONAME ; void QtMobility::QStillImageCapture::capture(class QString const &)
	?captureMode@QCamera@QtMobility@@QBE?AW4CaptureMode@12@XZ @ 270 NONAME ; enum QtMobility::QCamera::CaptureMode QtMobility::QCamera::captureMode(void) const
	?captureModeChanged@QCamera@QtMobility@@IAEXW4CaptureMode@12@@Z @ 271 NONAME ; void QtMobility::QCamera::captureModeChanged(enum QtMobility::QCamera::CaptureMode)
	?captureModeChanged@QCameraControl@QtMobility@@IAEXW4CaptureMode@QCamera@2@@Z @ 272 NONAME ; void QtMobility::QCameraControl::captureModeChanged(enum QtMobility::QCamera::CaptureMode)
	?channelCount@QAudioEncoderSettings@QtMobility@@QBEHXZ @ 273 NONAME ; int QtMobility::QAudioEncoderSettings::channelCount(void) const
	?channelCount@QMediaResource@QtMobility@@QBEHXZ @ 274 NONAME ; int QtMobility::QMediaResource::channelCount(void) const
	?clear@QLocalMediaPlaylistProvider@QtMobility@@UAE_NXZ @ 275 NONAME ; bool QtMobility::QLocalMediaPlaylistProvider::clear(void)
	?clear@QMediaPlaylist@QtMobility@@QAE_NXZ @ 276 NONAME ; bool QtMobility::QMediaPlaylist::clear(void)
	?clear@QMediaPlaylistProvider@QtMobility@@UAE_NXZ @ 277 NONAME ; bool QtMobility::QMediaPlaylistProvider::clear(void)
	?clear@QMediaTimeRange@QtMobility@@QAEXXZ @ 278 NONAME ; void QtMobility::QMediaTimeRange::clear(void)
	?codec@QAudioEncoderSettings@QtMobility@@QBE?AVQString@@XZ @ 279 NONAME ; class QString QtMobility::QAudioEncoderSettings::codec(void) const
	?codec@QImageEncoderSettings@QtMobility@@QBE?AVQString@@XZ @ 280 NONAME ; class QString QtMobility::QImageEncoderSettings::codec(void) const
	?codec@QVideoEncoderSettings@QtMobility@@QBE?AVQString@@XZ @ 281 NONAME ; class QString QtMobility::QVideoEncoderSettings::codec(void) const
	?codecs@QMediaServiceProviderHint@QtMobility@@QBE?AVQStringList@@XZ @ 282 NONAME ; class QStringList QtMobility::QMediaServiceProviderHint::codecs(void) const
	?containerDescription@QMediaRecorder@QtMobility@@QBE?AVQString@@ABV3@@Z @ 283 NONAME ; class QString QtMobility::QMediaRecorder::containerDescription(class QString const &) const
	?containerMimeType@QMediaRecorder@QtMobility@@QBE?AVQString@@XZ @ 284 NONAME ; class QString QtMobility::QMediaRecorder::containerMimeType(void) const
	?contains@QMediaTimeInterval@QtMobility@@QBE_N_J@Z @ 285 NONAME ; bool QtMobility::QMediaTimeInterval::contains(long long) const
	?contains@QMediaTimeRange@QtMobility@@QBE_N_J@Z @ 286 NONAME ; bool QtMobility::QMediaTimeRange::contains(long long) const
	?contrast@QVideoWidget@QtMobility@@QBEHXZ @ 287 NONAME ; int QtMobility::QVideoWidget::contrast(void) const
	?contrastChanged@QVideoWidget@QtMobility@@IAEXH@Z @ 288 NONAME ; void QtMobility::QVideoWidget::contrastChanged(int)
	?contrastChanged@QVideoWidgetControl@QtMobility@@IAEXH@Z @ 289 NONAME ; void QtMobility::QVideoWidgetControl::contrastChanged(int)
	?contrastChanged@QVideoWindowControl@QtMobility@@IAEXH@Z @ 290 NONAME ; void QtMobility::QVideoWindowControl::contrastChanged(int)
	?currentIndex@QMediaPlaylist@QtMobility@@QBEHXZ @ 291 NONAME ; int QtMobility::QMediaPlaylist::currentIndex(void) const
	?currentIndex@QMediaPlaylistNavigator@QtMobility@@QBEHXZ @ 292 NONAME ; int QtMobility::QMediaPlaylistNavigator::currentIndex(void) const
	?currentIndexChanged@QMediaPlaylist@QtMobility@@IAEXH@Z @ 293 NONAME ; void QtMobility::QMediaPlaylist::currentIndexChanged(int)
	?currentIndexChanged@QMediaPlaylistControl@QtMobility@@IAEXH@Z @ 294 NONAME ; void QtMobility::QMediaPlaylistControl::currentIndexChanged(int)
	?currentIndexChanged@QMediaPlaylistNavigator@QtMobility@@IAEXH@Z @ 295 NONAME ; void QtMobility::QMediaPlaylistNavigator::currentIndexChanged(int)
	?currentItem@QMediaPlaylistNavigator@QtMobility@@QBE?AVQMediaContent@2@XZ @ 296 NONAME ; class QtMobility::QMediaContent QtMobility::QMediaPlaylistNavigator::currentItem(void) const
	?currentMedia@QMediaPlaylist@QtMobility@@QBE?AVQMediaContent@2@XZ @ 297 NONAME ; class QtMobility::QMediaContent QtMobility::QMediaPlaylist::currentMedia(void) const
	?currentMediaChanged@QMediaPlaylist@QtMobility@@IAEXABVQMediaContent@2@@Z @ 298 NONAME ; void QtMobility::QMediaPlaylist::currentMediaChanged(class QtMobility::QMediaContent const &)
	?currentMediaChanged@QMediaPlaylistControl@QtMobility@@IAEXABVQMediaContent@2@@Z @ 299 NONAME ; void QtMobility::QMediaPlaylistControl::currentMediaChanged(class QtMobility::QMediaContent const &)
	?customFocusPoint@QCamera@QtMobility@@QBE?AVQPointF@@XZ @ 300 NONAME ; class QPointF QtMobility::QCamera::customFocusPoint(void) const
	?d_func@QAudioCaptureSource@QtMobility@@AAEPAVQAudioCaptureSourcePrivate@2@XZ @ 301 NONAME ; class QtMobility::QAudioCaptureSourcePrivate * QtMobility::QAudioCaptureSource::d_func(void)
	?d_func@QAudioCaptureSource@QtMobility@@ABEPBVQAudioCaptureSourcePrivate@2@XZ @ 302 NONAME ; class QtMobility::QAudioCaptureSourcePrivate const * QtMobility::QAudioCaptureSource::d_func(void) const
	?d_func@QCamera@QtMobility@@AAEPAVQCameraPrivate@2@XZ @ 303 NONAME ; class QtMobility::QCameraPrivate * QtMobility::QCamera::d_func(void)
	?d_func@QCamera@QtMobility@@ABEPBVQCameraPrivate@2@XZ @ 304 NONAME ; class QtMobility::QCameraPrivate const * QtMobility::QCamera::d_func(void) const
	?d_func@QGraphicsVideoItem@QtMobility@@AAEPAVQGraphicsVideoItemPrivate@2@XZ @ 305 NONAME ; class QtMobility::QGraphicsVideoItemPrivate * QtMobility::QGraphicsVideoItem::d_func(void)
	?d_func@QGraphicsVideoItem@QtMobility@@ABEPBVQGraphicsVideoItemPrivate@2@XZ @ 306 NONAME ; class QtMobility::QGraphicsVideoItemPrivate const * QtMobility::QGraphicsVideoItem::d_func(void) const
	?d_func@QLocalMediaPlaylistProvider@QtMobility@@AAEPAVQLocalMediaPlaylistProviderPrivate@2@XZ @ 307 NONAME ; class QtMobility::QLocalMediaPlaylistProviderPrivate * QtMobility::QLocalMediaPlaylistProvider::d_func(void)
	?d_func@QLocalMediaPlaylistProvider@QtMobility@@ABEPBVQLocalMediaPlaylistProviderPrivate@2@XZ @ 308 NONAME ; class QtMobility::QLocalMediaPlaylistProviderPrivate const * QtMobility::QLocalMediaPlaylistProvider::d_func(void) const
	?d_func@QMediaControl@QtMobility@@AAEPAVQMediaControlPrivate@2@XZ @ 309 NONAME ; class QtMobility::QMediaControlPrivate * QtMobility::QMediaControl::d_func(void)
	?d_func@QMediaControl@QtMobility@@ABEPBVQMediaControlPrivate@2@XZ @ 310 NONAME ; class QtMobility::QMediaControlPrivate const * QtMobility::QMediaControl::d_func(void) const
	?d_func@QMediaImageViewer@QtMobility@@AAEPAVQMediaImageViewerPrivate@2@XZ @ 311 NONAME ; class QtMobility::QMediaImageViewerPrivate * QtMobility::QMediaImageViewer::d_func(void)
	?d_func@QMediaImageViewer@QtMobility@@ABEPBVQMediaImageViewerPrivate@2@XZ @ 312 NONAME ; class QtMobility::QMediaImageViewerPrivate const * QtMobility::QMediaImageViewer::d_func(void) const
	?d_func@QMediaObject@QtMobility@@AAEPAVQMediaObjectPrivate@2@XZ @ 313 NONAME ; class QtMobility::QMediaObjectPrivate * QtMobility::QMediaObject::d_func(void)
	?d_func@QMediaObject@QtMobility@@ABEPBVQMediaObjectPrivate@2@XZ @ 314 NONAME ; class QtMobility::QMediaObjectPrivate const * QtMobility::QMediaObject::d_func(void) const
	?d_func@QMediaPlayer@QtMobility@@AAEPAVQMediaPlayerPrivate@2@XZ @ 315 NONAME ; class QtMobility::QMediaPlayerPrivate * QtMobility::QMediaPlayer::d_func(void)
	?d_func@QMediaPlayer@QtMobility@@ABEPBVQMediaPlayerPrivate@2@XZ @ 316 NONAME ; class QtMobility::QMediaPlayerPrivate const * QtMobility::QMediaPlayer::d_func(void) const
	?d_func@QMediaPlaylist@QtMobility@@AAEPAVQMediaPlaylistPrivate@2@XZ @ 317 NONAME ; class QtMobility::QMediaPlaylistPrivate * QtMobility::QMediaPlaylist::d_func(void)
	?d_func@QMediaPlaylist@QtMobility@@ABEPBVQMediaPlaylistPrivate@2@XZ @ 318 NONAME ; class QtMobility::QMediaPlaylistPrivate const * QtMobility::QMediaPlaylist::d_func(void) const
	?d_func@QMediaPlaylistNavigator@QtMobility@@AAEPAVQMediaPlaylistNavigatorPrivate@2@XZ @ 319 NONAME ; class QtMobility::QMediaPlaylistNavigatorPrivate * QtMobility::QMediaPlaylistNavigator::d_func(void)
	?d_func@QMediaPlaylistNavigator@QtMobility@@ABEPBVQMediaPlaylistNavigatorPrivate@2@XZ @ 320 NONAME ; class QtMobility::QMediaPlaylistNavigatorPrivate const * QtMobility::QMediaPlaylistNavigator::d_func(void) const
	?d_func@QMediaPlaylistProvider@QtMobility@@AAEPAVQMediaPlaylistProviderPrivate@2@XZ @ 321 NONAME ; class QtMobility::QMediaPlaylistProviderPrivate * QtMobility::QMediaPlaylistProvider::d_func(void)
	?d_func@QMediaPlaylistProvider@QtMobility@@ABEPBVQMediaPlaylistProviderPrivate@2@XZ @ 322 NONAME ; class QtMobility::QMediaPlaylistProviderPrivate const * QtMobility::QMediaPlaylistProvider::d_func(void) const
	?d_func@QMediaRecorder@QtMobility@@AAEPAVQMediaRecorderPrivate@2@XZ @ 323 NONAME ; class QtMobility::QMediaRecorderPrivate * QtMobility::QMediaRecorder::d_func(void)
	?d_func@QMediaRecorder@QtMobility@@ABEPBVQMediaRecorderPrivate@2@XZ @ 324 NONAME ; class QtMobility::QMediaRecorderPrivate const * QtMobility::QMediaRecorder::d_func(void) const
	?d_func@QMediaService@QtMobility@@AAEPAVQMediaServicePrivate@2@XZ @ 325 NONAME ; class QtMobility::QMediaServicePrivate * QtMobility::QMediaService::d_func(void)
	?d_func@QMediaService@QtMobility@@ABEPBVQMediaServicePrivate@2@XZ @ 326 NONAME ; class QtMobility::QMediaServicePrivate const * QtMobility::QMediaService::d_func(void) const
	?d_func@QRadioTuner@QtMobility@@AAEPAVQRadioTunerPrivate@2@XZ @ 327 NONAME ; class QtMobility::QRadioTunerPrivate * QtMobility::QRadioTuner::d_func(void)
	?d_func@QRadioTuner@QtMobility@@ABEPBVQRadioTunerPrivate@2@XZ @ 328 NONAME ; class QtMobility::QRadioTunerPrivate const * QtMobility::QRadioTuner::d_func(void) const
	?d_func@QStillImageCapture@QtMobility@@AAEPAVQStillImageCapturePrivate@2@XZ @ 329 NONAME ; class QtMobility::QStillImageCapturePrivate * QtMobility::QStillImageCapture::d_func(void)
	?d_func@QStillImageCapture@QtMobility@@ABEPBVQStillImageCapturePrivate@2@XZ @ 330 NONAME ; class QtMobility::QStillImageCapturePrivate const * QtMobility::QStillImageCapture::d_func(void) const
	?d_func@QVideoWidget@QtMobility@@AAEPAVQVideoWidgetPrivate@2@XZ @ 331 NONAME ; class QtMobility::QVideoWidgetPrivate * QtMobility::QVideoWidget::d_func(void)
	?d_func@QVideoWidget@QtMobility@@ABEPBVQVideoWidgetPrivate@2@XZ @ 332 NONAME ; class QtMobility::QVideoWidgetPrivate const * QtMobility::QVideoWidget::d_func(void) const
	?dataSize@QMediaResource@QtMobility@@QBE_JXZ @ 333 NONAME ; long long QtMobility::QMediaResource::dataSize(void) const
	?defaultAudioInput@QAudioCaptureSource@QtMobility@@QBE?AVQString@@XZ @ 334 NONAME ; class QString QtMobility::QAudioCaptureSource::defaultAudioInput(void) const
	?defaultServiceProvider@QMediaServiceProvider@QtMobility@@SAPAV12@XZ @ 335 NONAME ; class QtMobility::QMediaServiceProvider * QtMobility::QMediaServiceProvider::defaultServiceProvider(void)
	?device@QMediaServiceProviderHint@QtMobility@@QBE?AVQByteArray@@XZ @ 336 NONAME ; class QByteArray QtMobility::QMediaServiceProviderHint::device(void) const
	?deviceDescription@QCamera@QtMobility@@SA?AVQString@@ABVQByteArray@@@Z @ 337 NONAME ; class QString QtMobility::QCamera::deviceDescription(class QByteArray const &)
	?deviceDescription@QMediaServiceProvider@QtMobility@@UAE?AVQString@@ABVQByteArray@@0@Z @ 338 NONAME ; class QString QtMobility::QMediaServiceProvider::deviceDescription(class QByteArray const &, class QByteArray const &)
	?devices@QMediaServiceProvider@QtMobility@@UBE?AV?$QList@VQByteArray@@@@ABVQByteArray@@@Z @ 339 NONAME ; class QList<class QByteArray> QtMobility::QMediaServiceProvider::devices(class QByteArray const &) const
	?devicesChanged@QVideoDeviceControl@QtMobility@@IAEXXZ @ 340 NONAME ; void QtMobility::QVideoDeviceControl::devicesChanged(void)
	?digitalZoom@QCamera@QtMobility@@QBEMXZ @ 341 NONAME ; float QtMobility::QCamera::digitalZoom(void) const
	?digitalZoomChanged@QCamera@QtMobility@@IAEXM@Z @ 342 NONAME ; void QtMobility::QCamera::digitalZoomChanged(float)
	?digitalZoomChanged@QCameraFocusControl@QtMobility@@IAEXM@Z @ 343 NONAME ; void QtMobility::QCameraFocusControl::digitalZoomChanged(float)
	?duration@QMediaPlayer@QtMobility@@QBE_JXZ @ 344 NONAME ; long long QtMobility::QMediaPlayer::duration(void) const
	?duration@QMediaRecorder@QtMobility@@QBE_JXZ @ 345 NONAME ; long long QtMobility::QMediaRecorder::duration(void) const
	?durationChanged@QMediaPlayer@QtMobility@@IAEX_J@Z @ 346 NONAME ; void QtMobility::QMediaPlayer::durationChanged(long long)
	?durationChanged@QMediaPlayerControl@QtMobility@@IAEX_J@Z @ 347 NONAME ; void QtMobility::QMediaPlayerControl::durationChanged(long long)
	?durationChanged@QMediaRecorder@QtMobility@@IAEX_J@Z @ 348 NONAME ; void QtMobility::QMediaRecorder::durationChanged(long long)
	?durationChanged@QMediaRecorderControl@QtMobility@@IAEX_J@Z @ 349 NONAME ; void QtMobility::QMediaRecorderControl::durationChanged(long long)
	?earliestTime@QMediaTimeRange@QtMobility@@QBE_JXZ @ 350 NONAME ; long long QtMobility::QMediaTimeRange::earliestTime(void) const
	?elapsedTime@QMediaImageViewer@QtMobility@@QBEHXZ @ 351 NONAME ; int QtMobility::QMediaImageViewer::elapsedTime(void) const
	?elapsedTimeChanged@QMediaImageViewer@QtMobility@@IAEXH@Z @ 352 NONAME ; void QtMobility::QMediaImageViewer::elapsedTimeChanged(int)
	?encodingMode@QAudioEncoderSettings@QtMobility@@QBE?AW4EncodingMode@QtMedia@2@XZ @ 353 NONAME ; enum QtMobility::QtMedia::EncodingMode QtMobility::QAudioEncoderSettings::encodingMode(void) const
	?encodingMode@QVideoEncoderSettings@QtMobility@@QBE?AW4EncodingMode@QtMedia@2@XZ @ 354 NONAME ; enum QtMobility::QtMedia::EncodingMode QtMobility::QVideoEncoderSettings::encodingMode(void) const
	?encodingSettings@QStillImageCapture@QtMobility@@QBE?AVQImageEncoderSettings@2@XZ @ 355 NONAME ; class QtMobility::QImageEncoderSettings QtMobility::QStillImageCapture::encodingSettings(void) const
	?end@QMediaTimeInterval@QtMobility@@QBE_JXZ @ 356 NONAME ; long long QtMobility::QMediaTimeInterval::end(void) const
	?error@QCamera@QtMobility@@IAEXW4Error@12@@Z @ 357 NONAME ; void QtMobility::QCamera::error(enum QtMobility::QCamera::Error)
	?error@QCamera@QtMobility@@QBE?AW4Error@12@XZ @ 358 NONAME ; enum QtMobility::QCamera::Error QtMobility::QCamera::error(void) const
	?error@QCameraControl@QtMobility@@IAEXHABVQString@@@Z @ 359 NONAME ; void QtMobility::QCameraControl::error(int, class QString const &)
	?error@QImageCaptureControl@QtMobility@@IAEXHABVQString@@@Z @ 360 NONAME ; void QtMobility::QImageCaptureControl::error(int, class QString const &)
	?error@QMediaPlayer@QtMobility@@IAEXW4Error@12@@Z @ 361 NONAME ; void QtMobility::QMediaPlayer::error(enum QtMobility::QMediaPlayer::Error)
	?error@QMediaPlayer@QtMobility@@QBE?AW4Error@12@XZ @ 362 NONAME ; enum QtMobility::QMediaPlayer::Error QtMobility::QMediaPlayer::error(void) const
	?error@QMediaPlayerControl@QtMobility@@IAEXHABVQString@@@Z @ 363 NONAME ; void QtMobility::QMediaPlayerControl::error(int, class QString const &)
	?error@QMediaPlaylist@QtMobility@@QBE?AW4Error@12@XZ @ 364 NONAME ; enum QtMobility::QMediaPlaylist::Error QtMobility::QMediaPlaylist::error(void) const
	?error@QMediaRecorder@QtMobility@@IAEXW4Error@12@@Z @ 365 NONAME ; void QtMobility::QMediaRecorder::error(enum QtMobility::QMediaRecorder::Error)
	?error@QMediaRecorder@QtMobility@@QBE?AW4Error@12@XZ @ 366 NONAME ; enum QtMobility::QMediaRecorder::Error QtMobility::QMediaRecorder::error(void) const
	?error@QMediaRecorderControl@QtMobility@@IAEXHABVQString@@@Z @ 367 NONAME ; void QtMobility::QMediaRecorderControl::error(int, class QString const &)
	?error@QRadioTuner@QtMobility@@IAEXW4Error@12@@Z @ 368 NONAME ; void QtMobility::QRadioTuner::error(enum QtMobility::QRadioTuner::Error)
	?error@QRadioTuner@QtMobility@@QBE?AW4Error@12@XZ @ 369 NONAME ; enum QtMobility::QRadioTuner::Error QtMobility::QRadioTuner::error(void) const
	?error@QRadioTunerControl@QtMobility@@IAEXW4Error@QRadioTuner@2@@Z @ 370 NONAME ; void QtMobility::QRadioTunerControl::error(enum QtMobility::QRadioTuner::Error)
	?error@QStillImageCapture@QtMobility@@IAEXW4Error@12@@Z @ 371 NONAME ; void QtMobility::QStillImageCapture::error(enum QtMobility::QStillImageCapture::Error)
	?error@QStillImageCapture@QtMobility@@QBE?AW4Error@12@XZ @ 372 NONAME ; enum QtMobility::QStillImageCapture::Error QtMobility::QStillImageCapture::error(void) const
	?errorString@QCamera@QtMobility@@QBE?AVQString@@XZ @ 373 NONAME ; class QString QtMobility::QCamera::errorString(void) const
	?errorString@QMediaPlayer@QtMobility@@QBE?AVQString@@XZ @ 374 NONAME ; class QString QtMobility::QMediaPlayer::errorString(void) const
	?errorString@QMediaPlaylist@QtMobility@@QBE?AVQString@@XZ @ 375 NONAME ; class QString QtMobility::QMediaPlaylist::errorString(void) const
	?errorString@QMediaRecorder@QtMobility@@QBE?AVQString@@XZ @ 376 NONAME ; class QString QtMobility::QMediaRecorder::errorString(void) const
	?errorString@QRadioTuner@QtMobility@@QBE?AVQString@@XZ @ 377 NONAME ; class QString QtMobility::QRadioTuner::errorString(void) const
	?errorString@QStillImageCapture@QtMobility@@QBE?AVQString@@XZ @ 378 NONAME ; class QString QtMobility::QStillImageCapture::errorString(void) const
	?event@QVideoWidget@QtMobility@@MAE_NPAVQEvent@@@Z @ 379 NONAME ; bool QtMobility::QVideoWidget::event(class QEvent *)
	?exposureCompensation@QCamera@QtMobility@@QBEMXZ @ 380 NONAME ; float QtMobility::QCamera::exposureCompensation(void) const
	?exposureLocked@QCamera@QtMobility@@IAEXXZ @ 381 NONAME ; void QtMobility::QCamera::exposureLocked(void)
	?exposureLocked@QCameraExposureControl@QtMobility@@IAEXXZ @ 382 NONAME ; void QtMobility::QCameraExposureControl::exposureLocked(void)
	?exposureMode@QCamera@QtMobility@@QBE?AW4ExposureMode@12@XZ @ 383 NONAME ; enum QtMobility::QCamera::ExposureMode QtMobility::QCamera::exposureMode(void) const
	?extendedMetaData@QMediaObject@QtMobility@@QBE?AVQVariant@@ABVQString@@@Z @ 384 NONAME ; class QVariant QtMobility::QMediaObject::extendedMetaData(class QString const &) const
	?features@QMediaServiceProviderHint@QtMobility@@QBE?AV?$QFlags@W4Feature@QMediaServiceProviderHint@QtMobility@@@@XZ @ 385 NONAME ; class QFlags<enum QtMobility::QMediaServiceProviderHint::Feature> QtMobility::QMediaServiceProviderHint::features(void) const
	?flashMode@QCamera@QtMobility@@QBE?AV?$QFlags@W4FlashMode@QCamera@QtMobility@@@@XZ @ 386 NONAME ; class QFlags<enum QtMobility::QCamera::FlashMode> QtMobility::QCamera::flashMode(void) const
	?flashReady@QCamera@QtMobility@@IAEX_N@Z @ 387 NONAME ; void QtMobility::QCamera::flashReady(bool)
	?flashReady@QCameraExposureControl@QtMobility@@IAEX_N@Z @ 388 NONAME ; void QtMobility::QCameraExposureControl::flashReady(bool)
	?focusMode@QCamera@QtMobility@@QBE?AW4FocusMode@12@XZ @ 389 NONAME ; enum QtMobility::QCamera::FocusMode QtMobility::QCamera::focusMode(void) const
	?focusPointMode@QCamera@QtMobility@@QBE?AW4FocusPointMode@12@XZ @ 390 NONAME ; enum QtMobility::QCamera::FocusPointMode QtMobility::QCamera::focusPointMode(void) const
	?focusReached@QCamera@QtMobility@@IAEXXZ @ 391 NONAME ; void QtMobility::QCamera::focusReached(void)
	?focusStatus@QCamera@QtMobility@@QBE?AW4FocusStatus@12@XZ @ 392 NONAME ; enum QtMobility::QCamera::FocusStatus QtMobility::QCamera::focusStatus(void) const
	?focusStatusChanged@QCamera@QtMobility@@IAEXW4FocusStatus@12@@Z @ 393 NONAME ; void QtMobility::QCamera::focusStatusChanged(enum QtMobility::QCamera::FocusStatus)
	?focusStatusChanged@QCameraFocusControl@QtMobility@@IAEXW4FocusStatus@QCamera@2@@Z @ 394 NONAME ; void QtMobility::QCameraFocusControl::focusStatusChanged(enum QtMobility::QCamera::FocusStatus)
	?focusUnableToReach@QCamera@QtMobility@@IAEXXZ @ 395 NONAME ; void QtMobility::QCamera::focusUnableToReach(void)
	?focusZones@QCamera@QtMobility@@QBE?AV?$QList@VQRectF@@@@XZ @ 396 NONAME ; class QList<class QRectF> QtMobility::QCamera::focusZones(void) const
	?focusZonesChanged@QCamera@QtMobility@@IAEXABV?$QList@VQRectF@@@@@Z @ 397 NONAME ; void QtMobility::QCamera::focusZonesChanged(class QList<class QRectF> const &)
	?focusZonesChanged@QCameraFocusControl@QtMobility@@IAEXABV?$QList@VQRectF@@@@@Z @ 398 NONAME ; void QtMobility::QCameraFocusControl::focusZonesChanged(class QList<class QRectF> const &)
	?frameRate@QVideoEncoderSettings@QtMobility@@QBEMXZ @ 399 NONAME ; float QtMobility::QVideoEncoderSettings::frameRate(void) const
	?frequency@QRadioTuner@QtMobility@@QBEHXZ @ 400 NONAME ; int QtMobility::QRadioTuner::frequency(void) const
	?frequencyChanged@QRadioTuner@QtMobility@@IAEXH@Z @ 401 NONAME ; void QtMobility::QRadioTuner::frequencyChanged(int)
	?frequencyChanged@QRadioTunerControl@QtMobility@@IAEXH@Z @ 402 NONAME ; void QtMobility::QRadioTunerControl::frequencyChanged(int)
	?frequencyRange@QRadioTuner@QtMobility@@QBE?AU?$QPair@HH@@W4Band@12@@Z @ 403 NONAME ; struct QPair<int, int> QtMobility::QRadioTuner::frequencyRange(enum QtMobility::QRadioTuner::Band) const
	?frequencyStep@QRadioTuner@QtMobility@@QBEHW4Band@12@@Z @ 404 NONAME ; int QtMobility::QRadioTuner::frequencyStep(enum QtMobility::QRadioTuner::Band) const
	?fullScreenChanged@QVideoWidget@QtMobility@@IAEX_N@Z @ 405 NONAME ; void QtMobility::QVideoWidget::fullScreenChanged(bool)
	?fullScreenChanged@QVideoWidgetControl@QtMobility@@IAEX_N@Z @ 406 NONAME ; void QtMobility::QVideoWidgetControl::fullScreenChanged(bool)
	?fullScreenChanged@QVideoWindowControl@QtMobility@@IAEX_N@Z @ 407 NONAME ; void QtMobility::QVideoWindowControl::fullScreenChanged(bool)
	?getStaticMetaObject@QAudioCaptureSource@QtMobility@@SAABUQMetaObject@@XZ @ 408 NONAME ; struct QMetaObject const & QtMobility::QAudioCaptureSource::getStaticMetaObject(void)
	?getStaticMetaObject@QAudioEncoderControl@QtMobility@@SAABUQMetaObject@@XZ @ 409 NONAME ; struct QMetaObject const & QtMobility::QAudioEncoderControl::getStaticMetaObject(void)
	?getStaticMetaObject@QAudioEndpointSelector@QtMobility@@SAABUQMetaObject@@XZ @ 410 NONAME ; struct QMetaObject const & QtMobility::QAudioEndpointSelector::getStaticMetaObject(void)
	?getStaticMetaObject@QCamera@QtMobility@@SAABUQMetaObject@@XZ @ 411 NONAME ; struct QMetaObject const & QtMobility::QCamera::getStaticMetaObject(void)
	?getStaticMetaObject@QCameraControl@QtMobility@@SAABUQMetaObject@@XZ @ 412 NONAME ; struct QMetaObject const & QtMobility::QCameraControl::getStaticMetaObject(void)
	?getStaticMetaObject@QCameraExposureControl@QtMobility@@SAABUQMetaObject@@XZ @ 413 NONAME ; struct QMetaObject const & QtMobility::QCameraExposureControl::getStaticMetaObject(void)
	?getStaticMetaObject@QCameraFocusControl@QtMobility@@SAABUQMetaObject@@XZ @ 414 NONAME ; struct QMetaObject const & QtMobility::QCameraFocusControl::getStaticMetaObject(void)
	?getStaticMetaObject@QGraphicsVideoItem@QtMobility@@SAABUQMetaObject@@XZ @ 415 NONAME ; struct QMetaObject const & QtMobility::QGraphicsVideoItem::getStaticMetaObject(void)
	?getStaticMetaObject@QImageCaptureControl@QtMobility@@SAABUQMetaObject@@XZ @ 416 NONAME ; struct QMetaObject const & QtMobility::QImageCaptureControl::getStaticMetaObject(void)
	?getStaticMetaObject@QImageEncoderControl@QtMobility@@SAABUQMetaObject@@XZ @ 417 NONAME ; struct QMetaObject const & QtMobility::QImageEncoderControl::getStaticMetaObject(void)
	?getStaticMetaObject@QImageProcessingControl@QtMobility@@SAABUQMetaObject@@XZ @ 418 NONAME ; struct QMetaObject const & QtMobility::QImageProcessingControl::getStaticMetaObject(void)
	?getStaticMetaObject@QLocalMediaPlaylistProvider@QtMobility@@SAABUQMetaObject@@XZ @ 419 NONAME ; struct QMetaObject const & QtMobility::QLocalMediaPlaylistProvider::getStaticMetaObject(void)
	?getStaticMetaObject@QMediaContainerControl@QtMobility@@SAABUQMetaObject@@XZ @ 420 NONAME ; struct QMetaObject const & QtMobility::QMediaContainerControl::getStaticMetaObject(void)
	?getStaticMetaObject@QMediaControl@QtMobility@@SAABUQMetaObject@@XZ @ 421 NONAME ; struct QMetaObject const & QtMobility::QMediaControl::getStaticMetaObject(void)
	?getStaticMetaObject@QMediaImageViewer@QtMobility@@SAABUQMetaObject@@XZ @ 422 NONAME ; struct QMetaObject const & QtMobility::QMediaImageViewer::getStaticMetaObject(void)
	?getStaticMetaObject@QMediaObject@QtMobility@@SAABUQMetaObject@@XZ @ 423 NONAME ; struct QMetaObject const & QtMobility::QMediaObject::getStaticMetaObject(void)
	?getStaticMetaObject@QMediaPlayer@QtMobility@@SAABUQMetaObject@@XZ @ 424 NONAME ; struct QMetaObject const & QtMobility::QMediaPlayer::getStaticMetaObject(void)
	?getStaticMetaObject@QMediaPlayerControl@QtMobility@@SAABUQMetaObject@@XZ @ 425 NONAME ; struct QMetaObject const & QtMobility::QMediaPlayerControl::getStaticMetaObject(void)
	?getStaticMetaObject@QMediaPlaylist@QtMobility@@SAABUQMetaObject@@XZ @ 426 NONAME ; struct QMetaObject const & QtMobility::QMediaPlaylist::getStaticMetaObject(void)
	?getStaticMetaObject@QMediaPlaylistControl@QtMobility@@SAABUQMetaObject@@XZ @ 427 NONAME ; struct QMetaObject const & QtMobility::QMediaPlaylistControl::getStaticMetaObject(void)
	?getStaticMetaObject@QMediaPlaylistIOPlugin@QtMobility@@SAABUQMetaObject@@XZ @ 428 NONAME ; struct QMetaObject const & QtMobility::QMediaPlaylistIOPlugin::getStaticMetaObject(void)
	?getStaticMetaObject@QMediaPlaylistNavigator@QtMobility@@SAABUQMetaObject@@XZ @ 429 NONAME ; struct QMetaObject const & QtMobility::QMediaPlaylistNavigator::getStaticMetaObject(void)
	?getStaticMetaObject@QMediaPlaylistProvider@QtMobility@@SAABUQMetaObject@@XZ @ 430 NONAME ; struct QMetaObject const & QtMobility::QMediaPlaylistProvider::getStaticMetaObject(void)
	?getStaticMetaObject@QMediaRecorder@QtMobility@@SAABUQMetaObject@@XZ @ 431 NONAME ; struct QMetaObject const & QtMobility::QMediaRecorder::getStaticMetaObject(void)
	?getStaticMetaObject@QMediaRecorderControl@QtMobility@@SAABUQMetaObject@@XZ @ 432 NONAME ; struct QMetaObject const & QtMobility::QMediaRecorderControl::getStaticMetaObject(void)
	?getStaticMetaObject@QMediaService@QtMobility@@SAABUQMetaObject@@XZ @ 433 NONAME ; struct QMetaObject const & QtMobility::QMediaService::getStaticMetaObject(void)
	?getStaticMetaObject@QMediaServiceProvider@QtMobility@@SAABUQMetaObject@@XZ @ 434 NONAME ; struct QMetaObject const & QtMobility::QMediaServiceProvider::getStaticMetaObject(void)
	?getStaticMetaObject@QMediaServiceProviderPlugin@QtMobility@@SAABUQMetaObject@@XZ @ 435 NONAME ; struct QMetaObject const & QtMobility::QMediaServiceProviderPlugin::getStaticMetaObject(void)
	?getStaticMetaObject@QMediaStreamsControl@QtMobility@@SAABUQMetaObject@@XZ @ 436 NONAME ; struct QMetaObject const & QtMobility::QMediaStreamsControl::getStaticMetaObject(void)
	?getStaticMetaObject@QMetaDataControl@QtMobility@@SAABUQMetaObject@@XZ @ 437 NONAME ; struct QMetaObject const & QtMobility::QMetaDataControl::getStaticMetaObject(void)
	?getStaticMetaObject@QRadioTuner@QtMobility@@SAABUQMetaObject@@XZ @ 438 NONAME ; struct QMetaObject const & QtMobility::QRadioTuner::getStaticMetaObject(void)
	?getStaticMetaObject@QRadioTunerControl@QtMobility@@SAABUQMetaObject@@XZ @ 439 NONAME ; struct QMetaObject const & QtMobility::QRadioTunerControl::getStaticMetaObject(void)
	?getStaticMetaObject@QStillImageCapture@QtMobility@@SAABUQMetaObject@@XZ @ 440 NONAME ; struct QMetaObject const & QtMobility::QStillImageCapture::getStaticMetaObject(void)
	?getStaticMetaObject@QVideoDeviceControl@QtMobility@@SAABUQMetaObject@@XZ @ 441 NONAME ; struct QMetaObject const & QtMobility::QVideoDeviceControl::getStaticMetaObject(void)
	?getStaticMetaObject@QVideoEncoderControl@QtMobility@@SAABUQMetaObject@@XZ @ 442 NONAME ; struct QMetaObject const & QtMobility::QVideoEncoderControl::getStaticMetaObject(void)
	?getStaticMetaObject@QVideoOutputControl@QtMobility@@SAABUQMetaObject@@XZ @ 443 NONAME ; struct QMetaObject const & QtMobility::QVideoOutputControl::getStaticMetaObject(void)
	?getStaticMetaObject@QVideoRendererControl@QtMobility@@SAABUQMetaObject@@XZ @ 444 NONAME ; struct QMetaObject const & QtMobility::QVideoRendererControl::getStaticMetaObject(void)
	?getStaticMetaObject@QVideoWidget@QtMobility@@SAABUQMetaObject@@XZ @ 445 NONAME ; struct QMetaObject const & QtMobility::QVideoWidget::getStaticMetaObject(void)
	?getStaticMetaObject@QVideoWidgetControl@QtMobility@@SAABUQMetaObject@@XZ @ 446 NONAME ; struct QMetaObject const & QtMobility::QVideoWidgetControl::getStaticMetaObject(void)
	?getStaticMetaObject@QVideoWindowControl@QtMobility@@SAABUQMetaObject@@XZ @ 447 NONAME ; struct QMetaObject const & QtMobility::QVideoWindowControl::getStaticMetaObject(void)
	?hasSupport@QMediaPlayer@QtMobility@@SA?AW4SupportEstimate@QtMedia@2@ABVQString@@ABVQStringList@@V?$QFlags@W4Flag@QMediaPlayer@QtMobility@@@@@Z @ 448 NONAME ; enum QtMobility::QtMedia::SupportEstimate QtMobility::QMediaPlayer::hasSupport(class QString const &, class QStringList const &, class QFlags<enum QtMobility::QMediaPlayer::Flag>)
	?hasSupport@QMediaServiceProvider@QtMobility@@UBE?AW4SupportEstimate@QtMedia@2@ABVQByteArray@@ABVQString@@ABVQStringList@@H@Z @ 449 NONAME ; enum QtMobility::QtMedia::SupportEstimate QtMobility::QMediaServiceProvider::hasSupport(class QByteArray const &, class QString const &, class QStringList const &, int) const
	?hideEvent@QVideoWidget@QtMobility@@MAEXPAVQHideEvent@@@Z @ 450 NONAME ; void QtMobility::QVideoWidget::hideEvent(class QHideEvent *)
	?hue@QVideoWidget@QtMobility@@QBEHXZ @ 451 NONAME ; int QtMobility::QVideoWidget::hue(void) const
	?hueChanged@QVideoWidget@QtMobility@@IAEXH@Z @ 452 NONAME ; void QtMobility::QVideoWidget::hueChanged(int)
	?hueChanged@QVideoWidgetControl@QtMobility@@IAEXH@Z @ 453 NONAME ; void QtMobility::QVideoWidgetControl::hueChanged(int)
	?hueChanged@QVideoWindowControl@QtMobility@@IAEXH@Z @ 454 NONAME ; void QtMobility::QVideoWindowControl::hueChanged(int)
	?imageCaptured@QImageCaptureControl@QtMobility@@IAEXABVQString@@ABVQImage@@@Z @ 455 NONAME ; void QtMobility::QImageCaptureControl::imageCaptured(class QString const &, class QImage const &)
	?imageCaptured@QStillImageCapture@QtMobility@@IAEXABVQString@@ABVQImage@@@Z @ 456 NONAME ; void QtMobility::QStillImageCapture::imageCaptured(class QString const &, class QImage const &)
	?imageCodecDescription@QStillImageCapture@QtMobility@@QBE?AVQString@@ABV3@@Z @ 457 NONAME ; class QString QtMobility::QStillImageCapture::imageCodecDescription(class QString const &) const
	?imageSaved@QImageCaptureControl@QtMobility@@IAEXABVQString@@@Z @ 458 NONAME ; void QtMobility::QImageCaptureControl::imageSaved(class QString const &)
	?imageSaved@QStillImageCapture@QtMobility@@IAEXABVQString@@@Z @ 459 NONAME ; void QtMobility::QStillImageCapture::imageSaved(class QString const &)
	?insertMedia@QLocalMediaPlaylistProvider@QtMobility@@UAE_NHABV?$QList@VQMediaContent@QtMobility@@@@@Z @ 460 NONAME ; bool QtMobility::QLocalMediaPlaylistProvider::insertMedia(int, class QList<class QtMobility::QMediaContent> const &)
	?insertMedia@QLocalMediaPlaylistProvider@QtMobility@@UAE_NHABVQMediaContent@2@@Z @ 461 NONAME ; bool QtMobility::QLocalMediaPlaylistProvider::insertMedia(int, class QtMobility::QMediaContent const &)
	?insertMedia@QMediaPlaylist@QtMobility@@QAE_NHABV?$QList@VQMediaContent@QtMobility@@@@@Z @ 462 NONAME ; bool QtMobility::QMediaPlaylist::insertMedia(int, class QList<class QtMobility::QMediaContent> const &)
	?insertMedia@QMediaPlaylist@QtMobility@@QAE_NHABVQMediaContent@2@@Z @ 463 NONAME ; bool QtMobility::QMediaPlaylist::insertMedia(int, class QtMobility::QMediaContent const &)
	?insertMedia@QMediaPlaylistProvider@QtMobility@@UAE_NHABV?$QList@VQMediaContent@QtMobility@@@@@Z @ 464 NONAME ; bool QtMobility::QMediaPlaylistProvider::insertMedia(int, class QList<class QtMobility::QMediaContent> const &)
	?insertMedia@QMediaPlaylistProvider@QtMobility@@UAE_NHABVQMediaContent@2@@Z @ 465 NONAME ; bool QtMobility::QMediaPlaylistProvider::insertMedia(int, class QtMobility::QMediaContent const &)
	?intervals@QMediaTimeRange@QtMobility@@QBE?AV?$QList@VQMediaTimeInterval@QtMobility@@@@XZ @ 466 NONAME ; class QList<class QtMobility::QMediaTimeInterval> QtMobility::QMediaTimeRange::intervals(void) const
	?isAudioAvailable@QMediaPlayer@QtMobility@@QBE_NXZ @ 467 NONAME ; bool QtMobility::QMediaPlayer::isAudioAvailable(void) const
	?isAvailable@QAudioCaptureSource@QtMobility@@UBE_NXZ @ 468 NONAME ; bool QtMobility::QAudioCaptureSource::isAvailable(void) const
	?isAvailable@QCamera@QtMobility@@UBE_NXZ @ 469 NONAME ; bool QtMobility::QCamera::isAvailable(void) const
	?isAvailable@QMediaObject@QtMobility@@UBE_NXZ @ 470 NONAME ; bool QtMobility::QMediaObject::isAvailable(void) const
	?isAvailable@QMediaRecorder@QtMobility@@UBE_NXZ @ 471 NONAME ; bool QtMobility::QMediaRecorder::isAvailable(void) const
	?isAvailable@QRadioTuner@QtMobility@@UBE_NXZ @ 472 NONAME ; bool QtMobility::QRadioTuner::isAvailable(void) const
	?isAvailable@QStillImageCapture@QtMobility@@UBE_NXZ @ 473 NONAME ; bool QtMobility::QStillImageCapture::isAvailable(void) const
	?isBandSupported@QRadioTuner@QtMobility@@QBE_NW4Band@12@@Z @ 474 NONAME ; bool QtMobility::QRadioTuner::isBandSupported(enum QtMobility::QRadioTuner::Band) const
	?isContinuous@QMediaTimeRange@QtMobility@@QBE_NXZ @ 475 NONAME ; bool QtMobility::QMediaTimeRange::isContinuous(void) const
	?isEmpty@QMediaPlaylist@QtMobility@@QBE_NXZ @ 476 NONAME ; bool QtMobility::QMediaPlaylist::isEmpty(void) const
	?isEmpty@QMediaTimeRange@QtMobility@@QBE_NXZ @ 477 NONAME ; bool QtMobility::QMediaTimeRange::isEmpty(void) const
	?isExposureLocked@QCamera@QtMobility@@QBE_NXZ @ 478 NONAME ; bool QtMobility::QCamera::isExposureLocked(void) const
	?isFlashReady@QCamera@QtMobility@@QBE_NXZ @ 479 NONAME ; bool QtMobility::QCamera::isFlashReady(void) const
	?isMacroFocusingSupported@QCamera@QtMobility@@QBE_NXZ @ 480 NONAME ; bool QtMobility::QCamera::isMacroFocusingSupported(void) const
	?isMetaDataAvailable@QMediaObject@QtMobility@@QBE_NXZ @ 481 NONAME ; bool QtMobility::QMediaObject::isMetaDataAvailable(void) const
	?isMetaDataWritable@QMediaObject@QtMobility@@QBE_NXZ @ 482 NONAME ; bool QtMobility::QMediaObject::isMetaDataWritable(void) const
	?isMuted@QMediaPlayer@QtMobility@@QBE_NXZ @ 483 NONAME ; bool QtMobility::QMediaPlayer::isMuted(void) const
	?isMuted@QRadioTuner@QtMobility@@QBE_NXZ @ 484 NONAME ; bool QtMobility::QRadioTuner::isMuted(void) const
	?isNormal@QMediaTimeInterval@QtMobility@@QBE_NXZ @ 485 NONAME ; bool QtMobility::QMediaTimeInterval::isNormal(void) const
	?isNull@QAudioEncoderSettings@QtMobility@@QBE_NXZ @ 486 NONAME ; bool QtMobility::QAudioEncoderSettings::isNull(void) const
	?isNull@QImageEncoderSettings@QtMobility@@QBE_NXZ @ 487 NONAME ; bool QtMobility::QImageEncoderSettings::isNull(void) const
	?isNull@QMediaContent@QtMobility@@QBE_NXZ @ 488 NONAME ; bool QtMobility::QMediaContent::isNull(void) const
	?isNull@QMediaResource@QtMobility@@QBE_NXZ @ 489 NONAME ; bool QtMobility::QMediaResource::isNull(void) const
	?isNull@QMediaServiceProviderHint@QtMobility@@QBE_NXZ @ 490 NONAME ; bool QtMobility::QMediaServiceProviderHint::isNull(void) const
	?isNull@QVideoEncoderSettings@QtMobility@@QBE_NXZ @ 491 NONAME ; bool QtMobility::QVideoEncoderSettings::isNull(void) const
	?isReadOnly@QLocalMediaPlaylistProvider@QtMobility@@UBE_NXZ @ 492 NONAME ; bool QtMobility::QLocalMediaPlaylistProvider::isReadOnly(void) const
	?isReadOnly@QMediaPlaylist@QtMobility@@QBE_NXZ @ 493 NONAME ; bool QtMobility::QMediaPlaylist::isReadOnly(void) const
	?isReadOnly@QMediaPlaylistProvider@QtMobility@@UBE_NXZ @ 494 NONAME ; bool QtMobility::QMediaPlaylistProvider::isReadOnly(void) const
	?isReadyForCapture@QStillImageCapture@QtMobility@@QBE_NXZ @ 495 NONAME ; bool QtMobility::QStillImageCapture::isReadyForCapture(void) const
	?isSearching@QRadioTuner@QtMobility@@QBE_NXZ @ 496 NONAME ; bool QtMobility::QRadioTuner::isSearching(void) const
	?isSeekable@QMediaPlayer@QtMobility@@QBE_NXZ @ 497 NONAME ; bool QtMobility::QMediaPlayer::isSeekable(void) const
	?isStereo@QRadioTuner@QtMobility@@QBE_NXZ @ 498 NONAME ; bool QtMobility::QRadioTuner::isStereo(void) const
	?isVideoAvailable@QMediaPlayer@QtMobility@@QBE_NXZ @ 499 NONAME ; bool QtMobility::QMediaPlayer::isVideoAvailable(void) const
	?isWhiteBalanceLocked@QCamera@QtMobility@@QBE_NXZ @ 500 NONAME ; bool QtMobility::QCamera::isWhiteBalanceLocked(void) const
	?isoSensitivity@QCamera@QtMobility@@QBEHXZ @ 501 NONAME ; int QtMobility::QCamera::isoSensitivity(void) const
	?isoSensitivityChanged@QCamera@QtMobility@@IAEXH@Z @ 502 NONAME ; void QtMobility::QCamera::isoSensitivityChanged(int)
	?isoSensitivityChanged@QCameraExposureControl@QtMobility@@IAEXH@Z @ 503 NONAME ; void QtMobility::QCameraExposureControl::isoSensitivityChanged(int)
	?itemAt@QMediaPlaylistNavigator@QtMobility@@QBE?AVQMediaContent@2@H@Z @ 504 NONAME ; class QtMobility::QMediaContent QtMobility::QMediaPlaylistNavigator::itemAt(int) const
	?itemChange@QGraphicsVideoItem@QtMobility@@MAE?AVQVariant@@W4GraphicsItemChange@QGraphicsItem@@ABV3@@Z @ 505 NONAME ; class QVariant QtMobility::QGraphicsVideoItem::itemChange(enum QGraphicsItem::GraphicsItemChange, class QVariant const &)
	?jump@QMediaPlaylistNavigator@QtMobility@@QAEXH@Z @ 506 NONAME ; void QtMobility::QMediaPlaylistNavigator::jump(int)
	?language@QMediaResource@QtMobility@@QBE?AVQString@@XZ @ 507 NONAME ; class QString QtMobility::QMediaResource::language(void) const
	?latestTime@QMediaTimeRange@QtMobility@@QBE_JXZ @ 508 NONAME ; long long QtMobility::QMediaTimeRange::latestTime(void) const
	?load@QMediaPlaylist@QtMobility@@QAEXABVQUrl@@PBD@Z @ 509 NONAME ; void QtMobility::QMediaPlaylist::load(class QUrl const &, char const *)
	?load@QMediaPlaylist@QtMobility@@QAEXPAVQIODevice@@PBD@Z @ 510 NONAME ; void QtMobility::QMediaPlaylist::load(class QIODevice *, char const *)
	?load@QMediaPlaylistProvider@QtMobility@@UAE_NABVQUrl@@PBD@Z @ 511 NONAME ; bool QtMobility::QMediaPlaylistProvider::load(class QUrl const &, char const *)
	?load@QMediaPlaylistProvider@QtMobility@@UAE_NPAVQIODevice@@PBD@Z @ 512 NONAME ; bool QtMobility::QMediaPlaylistProvider::load(class QIODevice *, char const *)
	?loadFailed@QMediaPlaylist@QtMobility@@IAEXXZ @ 513 NONAME ; void QtMobility::QMediaPlaylist::loadFailed(void)
	?loadFailed@QMediaPlaylistProvider@QtMobility@@IAEXW4Error@QMediaPlaylist@2@ABVQString@@@Z @ 514 NONAME ; void QtMobility::QMediaPlaylistProvider::loadFailed(enum QtMobility::QMediaPlaylist::Error, class QString const &)
	?loaded@QMediaPlaylist@QtMobility@@IAEXXZ @ 515 NONAME ; void QtMobility::QMediaPlaylist::loaded(void)
	?loaded@QMediaPlaylistProvider@QtMobility@@IAEXXZ @ 516 NONAME ; void QtMobility::QMediaPlaylistProvider::loaded(void)
	?lockExposure@QCamera@QtMobility@@QAEXXZ @ 517 NONAME ; void QtMobility::QCamera::lockExposure(void)
	?lockWhiteBalance@QCamera@QtMobility@@QAEXXZ @ 518 NONAME ; void QtMobility::QCamera::lockWhiteBalance(void)
	?macroFocusingEnabled@QCamera@QtMobility@@QBE_NXZ @ 519 NONAME ; bool QtMobility::QCamera::macroFocusingEnabled(void) const
	?manualWhiteBalance@QCamera@QtMobility@@QBEHXZ @ 520 NONAME ; int QtMobility::QCamera::manualWhiteBalance(void) const
	?maximumDigitalZoom@QCamera@QtMobility@@QBEMXZ @ 521 NONAME ; float QtMobility::QCamera::maximumDigitalZoom(void) const
	?maximumOpticalZoom@QCamera@QtMobility@@QBEMXZ @ 522 NONAME ; float QtMobility::QCamera::maximumOpticalZoom(void) const
	?media@QLocalMediaPlaylistProvider@QtMobility@@UBE?AVQMediaContent@2@H@Z @ 523 NONAME ; class QtMobility::QMediaContent QtMobility::QLocalMediaPlaylistProvider::media(int) const
	?media@QMediaImageViewer@QtMobility@@QBE?AVQMediaContent@2@XZ @ 524 NONAME ; class QtMobility::QMediaContent QtMobility::QMediaImageViewer::media(void) const
	?media@QMediaPlayer@QtMobility@@QBE?AVQMediaContent@2@XZ @ 525 NONAME ; class QtMobility::QMediaContent QtMobility::QMediaPlayer::media(void) const
	?media@QMediaPlaylist@QtMobility@@QBE?AVQMediaContent@2@H@Z @ 526 NONAME ; class QtMobility::QMediaContent QtMobility::QMediaPlaylist::media(int) const
	?mediaAboutToBeInserted@QMediaPlaylist@QtMobility@@IAEXHH@Z @ 527 NONAME ; void QtMobility::QMediaPlaylist::mediaAboutToBeInserted(int, int)
	?mediaAboutToBeInserted@QMediaPlaylistProvider@QtMobility@@IAEXHH@Z @ 528 NONAME ; void QtMobility::QMediaPlaylistProvider::mediaAboutToBeInserted(int, int)
	?mediaAboutToBeRemoved@QMediaPlaylist@QtMobility@@IAEXHH@Z @ 529 NONAME ; void QtMobility::QMediaPlaylist::mediaAboutToBeRemoved(int, int)
	?mediaAboutToBeRemoved@QMediaPlaylistProvider@QtMobility@@IAEXHH@Z @ 530 NONAME ; void QtMobility::QMediaPlaylistProvider::mediaAboutToBeRemoved(int, int)
	?mediaChanged@QMediaImageViewer@QtMobility@@IAEXABVQMediaContent@2@@Z @ 531 NONAME ; void QtMobility::QMediaImageViewer::mediaChanged(class QtMobility::QMediaContent const &)
	?mediaChanged@QMediaPlayer@QtMobility@@IAEXABVQMediaContent@2@@Z @ 532 NONAME ; void QtMobility::QMediaPlayer::mediaChanged(class QtMobility::QMediaContent const &)
	?mediaChanged@QMediaPlayerControl@QtMobility@@IAEXABVQMediaContent@2@@Z @ 533 NONAME ; void QtMobility::QMediaPlayerControl::mediaChanged(class QtMobility::QMediaContent const &)
	?mediaChanged@QMediaPlaylist@QtMobility@@IAEXHH@Z @ 534 NONAME ; void QtMobility::QMediaPlaylist::mediaChanged(int, int)
	?mediaChanged@QMediaPlaylistProvider@QtMobility@@IAEXHH@Z @ 535 NONAME ; void QtMobility::QMediaPlaylistProvider::mediaChanged(int, int)
	?mediaCount@QLocalMediaPlaylistProvider@QtMobility@@UBEHXZ @ 536 NONAME ; int QtMobility::QLocalMediaPlaylistProvider::mediaCount(void) const
	?mediaCount@QMediaPlaylist@QtMobility@@QBEHXZ @ 537 NONAME ; int QtMobility::QMediaPlaylist::mediaCount(void) const
	?mediaInserted@QMediaPlaylist@QtMobility@@IAEXHH@Z @ 538 NONAME ; void QtMobility::QMediaPlaylist::mediaInserted(int, int)
	?mediaInserted@QMediaPlaylistProvider@QtMobility@@IAEXHH@Z @ 539 NONAME ; void QtMobility::QMediaPlaylistProvider::mediaInserted(int, int)
	?mediaObject@QGraphicsVideoItem@QtMobility@@QBEPAVQMediaObject@2@XZ @ 540 NONAME ; class QtMobility::QMediaObject * QtMobility::QGraphicsVideoItem::mediaObject(void) const
	?mediaObject@QMediaPlaylist@QtMobility@@QBEPAVQMediaObject@2@XZ @ 541 NONAME ; class QtMobility::QMediaObject * QtMobility::QMediaPlaylist::mediaObject(void) const
	?mediaObject@QVideoWidget@QtMobility@@QBEPAVQMediaObject@2@XZ @ 542 NONAME ; class QtMobility::QMediaObject * QtMobility::QVideoWidget::mediaObject(void) const
	?mediaRemoved@QMediaPlaylist@QtMobility@@IAEXHH@Z @ 543 NONAME ; void QtMobility::QMediaPlaylist::mediaRemoved(int, int)
	?mediaRemoved@QMediaPlaylistProvider@QtMobility@@IAEXHH@Z @ 544 NONAME ; void QtMobility::QMediaPlaylistProvider::mediaRemoved(int, int)
	?mediaStatus@QMediaImageViewer@QtMobility@@QBE?AW4MediaStatus@12@XZ @ 545 NONAME ; enum QtMobility::QMediaImageViewer::MediaStatus QtMobility::QMediaImageViewer::mediaStatus(void) const
	?mediaStatus@QMediaPlayer@QtMobility@@QBE?AW4MediaStatus@12@XZ @ 546 NONAME ; enum QtMobility::QMediaPlayer::MediaStatus QtMobility::QMediaPlayer::mediaStatus(void) const
	?mediaStatusChanged@QMediaImageViewer@QtMobility@@IAEXW4MediaStatus@12@@Z @ 547 NONAME ; void QtMobility::QMediaImageViewer::mediaStatusChanged(enum QtMobility::QMediaImageViewer::MediaStatus)
	?mediaStatusChanged@QMediaPlayer@QtMobility@@IAEXW4MediaStatus@12@@Z @ 548 NONAME ; void QtMobility::QMediaPlayer::mediaStatusChanged(enum QtMobility::QMediaPlayer::MediaStatus)
	?mediaStatusChanged@QMediaPlayerControl@QtMobility@@IAEXW4MediaStatus@QMediaPlayer@2@@Z @ 549 NONAME ; void QtMobility::QMediaPlayerControl::mediaStatusChanged(enum QtMobility::QMediaPlayer::MediaStatus)
	?mediaStream@QMediaPlayer@QtMobility@@QBEPBVQIODevice@@XZ @ 550 NONAME ; class QIODevice const * QtMobility::QMediaPlayer::mediaStream(void) const
	?metaData@QMediaObject@QtMobility@@QBE?AVQVariant@@W4MetaData@QtMedia@2@@Z @ 551 NONAME ; class QVariant QtMobility::QMediaObject::metaData(enum QtMobility::QtMedia::MetaData) const
	?metaDataAvailableChanged@QMediaObject@QtMobility@@IAEX_N@Z @ 552 NONAME ; void QtMobility::QMediaObject::metaDataAvailableChanged(bool)
	?metaDataAvailableChanged@QMetaDataControl@QtMobility@@IAEX_N@Z @ 553 NONAME ; void QtMobility::QMetaDataControl::metaDataAvailableChanged(bool)
	?metaDataChanged@QMediaObject@QtMobility@@IAEXXZ @ 554 NONAME ; void QtMobility::QMediaObject::metaDataChanged(void)
	?metaDataChanged@QMetaDataControl@QtMobility@@IAEXXZ @ 555 NONAME ; void QtMobility::QMetaDataControl::metaDataChanged(void)
	?metaDataWritableChanged@QMediaObject@QtMobility@@IAEX_N@Z @ 556 NONAME ; void QtMobility::QMediaObject::metaDataWritableChanged(bool)
	?metaObject@QAudioCaptureSource@QtMobility@@UBEPBUQMetaObject@@XZ @ 557 NONAME ; struct QMetaObject const * QtMobility::QAudioCaptureSource::metaObject(void) const
	?metaObject@QAudioEncoderControl@QtMobility@@UBEPBUQMetaObject@@XZ @ 558 NONAME ; struct QMetaObject const * QtMobility::QAudioEncoderControl::metaObject(void) const
	?metaObject@QAudioEndpointSelector@QtMobility@@UBEPBUQMetaObject@@XZ @ 559 NONAME ; struct QMetaObject const * QtMobility::QAudioEndpointSelector::metaObject(void) const
	?metaObject@QCamera@QtMobility@@UBEPBUQMetaObject@@XZ @ 560 NONAME ; struct QMetaObject const * QtMobility::QCamera::metaObject(void) const
	?metaObject@QCameraControl@QtMobility@@UBEPBUQMetaObject@@XZ @ 561 NONAME ; struct QMetaObject const * QtMobility::QCameraControl::metaObject(void) const
	?metaObject@QCameraExposureControl@QtMobility@@UBEPBUQMetaObject@@XZ @ 562 NONAME ; struct QMetaObject const * QtMobility::QCameraExposureControl::metaObject(void) const
	?metaObject@QCameraFocusControl@QtMobility@@UBEPBUQMetaObject@@XZ @ 563 NONAME ; struct QMetaObject const * QtMobility::QCameraFocusControl::metaObject(void) const
	?metaObject@QGraphicsVideoItem@QtMobility@@UBEPBUQMetaObject@@XZ @ 564 NONAME ; struct QMetaObject const * QtMobility::QGraphicsVideoItem::metaObject(void) const
	?metaObject@QImageCaptureControl@QtMobility@@UBEPBUQMetaObject@@XZ @ 565 NONAME ; struct QMetaObject const * QtMobility::QImageCaptureControl::metaObject(void) const
	?metaObject@QImageEncoderControl@QtMobility@@UBEPBUQMetaObject@@XZ @ 566 NONAME ; struct QMetaObject const * QtMobility::QImageEncoderControl::metaObject(void) const
	?metaObject@QImageProcessingControl@QtMobility@@UBEPBUQMetaObject@@XZ @ 567 NONAME ; struct QMetaObject const * QtMobility::QImageProcessingControl::metaObject(void) const
	?metaObject@QLocalMediaPlaylistProvider@QtMobility@@UBEPBUQMetaObject@@XZ @ 568 NONAME ; struct QMetaObject const * QtMobility::QLocalMediaPlaylistProvider::metaObject(void) const
	?metaObject@QMediaContainerControl@QtMobility@@UBEPBUQMetaObject@@XZ @ 569 NONAME ; struct QMetaObject const * QtMobility::QMediaContainerControl::metaObject(void) const
	?metaObject@QMediaControl@QtMobility@@UBEPBUQMetaObject@@XZ @ 570 NONAME ; struct QMetaObject const * QtMobility::QMediaControl::metaObject(void) const
	?metaObject@QMediaImageViewer@QtMobility@@UBEPBUQMetaObject@@XZ @ 571 NONAME ; struct QMetaObject const * QtMobility::QMediaImageViewer::metaObject(void) const
	?metaObject@QMediaObject@QtMobility@@UBEPBUQMetaObject@@XZ @ 572 NONAME ; struct QMetaObject const * QtMobility::QMediaObject::metaObject(void) const
	?metaObject@QMediaPlayer@QtMobility@@UBEPBUQMetaObject@@XZ @ 573 NONAME ; struct QMetaObject const * QtMobility::QMediaPlayer::metaObject(void) const
	?metaObject@QMediaPlayerControl@QtMobility@@UBEPBUQMetaObject@@XZ @ 574 NONAME ; struct QMetaObject const * QtMobility::QMediaPlayerControl::metaObject(void) const
	?metaObject@QMediaPlaylist@QtMobility@@UBEPBUQMetaObject@@XZ @ 575 NONAME ; struct QMetaObject const * QtMobility::QMediaPlaylist::metaObject(void) const
	?metaObject@QMediaPlaylistControl@QtMobility@@UBEPBUQMetaObject@@XZ @ 576 NONAME ; struct QMetaObject const * QtMobility::QMediaPlaylistControl::metaObject(void) const
	?metaObject@QMediaPlaylistIOPlugin@QtMobility@@UBEPBUQMetaObject@@XZ @ 577 NONAME ; struct QMetaObject const * QtMobility::QMediaPlaylistIOPlugin::metaObject(void) const
	?metaObject@QMediaPlaylistNavigator@QtMobility@@UBEPBUQMetaObject@@XZ @ 578 NONAME ; struct QMetaObject const * QtMobility::QMediaPlaylistNavigator::metaObject(void) const
	?metaObject@QMediaPlaylistProvider@QtMobility@@UBEPBUQMetaObject@@XZ @ 579 NONAME ; struct QMetaObject const * QtMobility::QMediaPlaylistProvider::metaObject(void) const
	?metaObject@QMediaRecorder@QtMobility@@UBEPBUQMetaObject@@XZ @ 580 NONAME ; struct QMetaObject const * QtMobility::QMediaRecorder::metaObject(void) const
	?metaObject@QMediaRecorderControl@QtMobility@@UBEPBUQMetaObject@@XZ @ 581 NONAME ; struct QMetaObject const * QtMobility::QMediaRecorderControl::metaObject(void) const
	?metaObject@QMediaService@QtMobility@@UBEPBUQMetaObject@@XZ @ 582 NONAME ; struct QMetaObject const * QtMobility::QMediaService::metaObject(void) const
	?metaObject@QMediaServiceProvider@QtMobility@@UBEPBUQMetaObject@@XZ @ 583 NONAME ; struct QMetaObject const * QtMobility::QMediaServiceProvider::metaObject(void) const
	?metaObject@QMediaServiceProviderPlugin@QtMobility@@UBEPBUQMetaObject@@XZ @ 584 NONAME ; struct QMetaObject const * QtMobility::QMediaServiceProviderPlugin::metaObject(void) const
	?metaObject@QMediaStreamsControl@QtMobility@@UBEPBUQMetaObject@@XZ @ 585 NONAME ; struct QMetaObject const * QtMobility::QMediaStreamsControl::metaObject(void) const
	?metaObject@QMetaDataControl@QtMobility@@UBEPBUQMetaObject@@XZ @ 586 NONAME ; struct QMetaObject const * QtMobility::QMetaDataControl::metaObject(void) const
	?metaObject@QRadioTuner@QtMobility@@UBEPBUQMetaObject@@XZ @ 587 NONAME ; struct QMetaObject const * QtMobility::QRadioTuner::metaObject(void) const
	?metaObject@QRadioTunerControl@QtMobility@@UBEPBUQMetaObject@@XZ @ 588 NONAME ; struct QMetaObject const * QtMobility::QRadioTunerControl::metaObject(void) const
	?metaObject@QStillImageCapture@QtMobility@@UBEPBUQMetaObject@@XZ @ 589 NONAME ; struct QMetaObject const * QtMobility::QStillImageCapture::metaObject(void) const
	?metaObject@QVideoDeviceControl@QtMobility@@UBEPBUQMetaObject@@XZ @ 590 NONAME ; struct QMetaObject const * QtMobility::QVideoDeviceControl::metaObject(void) const
	?metaObject@QVideoEncoderControl@QtMobility@@UBEPBUQMetaObject@@XZ @ 591 NONAME ; struct QMetaObject const * QtMobility::QVideoEncoderControl::metaObject(void) const
	?metaObject@QVideoOutputControl@QtMobility@@UBEPBUQMetaObject@@XZ @ 592 NONAME ; struct QMetaObject const * QtMobility::QVideoOutputControl::metaObject(void) const
	?metaObject@QVideoRendererControl@QtMobility@@UBEPBUQMetaObject@@XZ @ 593 NONAME ; struct QMetaObject const * QtMobility::QVideoRendererControl::metaObject(void) const
	?metaObject@QVideoWidget@QtMobility@@UBEPBUQMetaObject@@XZ @ 594 NONAME ; struct QMetaObject const * QtMobility::QVideoWidget::metaObject(void) const
	?metaObject@QVideoWidgetControl@QtMobility@@UBEPBUQMetaObject@@XZ @ 595 NONAME ; struct QMetaObject const * QtMobility::QVideoWidgetControl::metaObject(void) const
	?metaObject@QVideoWindowControl@QtMobility@@UBEPBUQMetaObject@@XZ @ 596 NONAME ; struct QMetaObject const * QtMobility::QVideoWindowControl::metaObject(void) const
	?meteringMode@QCamera@QtMobility@@QBE?AW4MeteringMode@12@XZ @ 597 NONAME ; enum QtMobility::QCamera::MeteringMode QtMobility::QCamera::meteringMode(void) const
	?mimeType@QMediaResource@QtMobility@@QBE?AVQString@@XZ @ 598 NONAME ; class QString QtMobility::QMediaResource::mimeType(void) const
	?mimeType@QMediaServiceProviderHint@QtMobility@@QBE?AVQString@@XZ @ 599 NONAME ; class QString QtMobility::QMediaServiceProviderHint::mimeType(void) const
	?moveEvent@QVideoWidget@QtMobility@@MAEXPAVQMoveEvent@@@Z @ 600 NONAME ; void QtMobility::QVideoWidget::moveEvent(class QMoveEvent *)
	?mutedChanged@QMediaPlayer@QtMobility@@IAEX_N@Z @ 601 NONAME ; void QtMobility::QMediaPlayer::mutedChanged(bool)
	?mutedChanged@QMediaPlayerControl@QtMobility@@IAEX_N@Z @ 602 NONAME ; void QtMobility::QMediaPlayerControl::mutedChanged(bool)
	?mutedChanged@QRadioTuner@QtMobility@@IAEX_N@Z @ 603 NONAME ; void QtMobility::QRadioTuner::mutedChanged(bool)
	?mutedChanged@QRadioTunerControl@QtMobility@@IAEX_N@Z @ 604 NONAME ; void QtMobility::QRadioTunerControl::mutedChanged(bool)
	?nativeSize@QGraphicsVideoItem@QtMobility@@QBE?AVQSizeF@@XZ @ 605 NONAME ; class QSizeF QtMobility::QGraphicsVideoItem::nativeSize(void) const
	?nativeSizeChanged@QGraphicsVideoItem@QtMobility@@IAEXABVQSizeF@@@Z @ 606 NONAME ; void QtMobility::QGraphicsVideoItem::nativeSizeChanged(class QSizeF const &)
	?nativeSizeChanged@QVideoWindowControl@QtMobility@@IAEXXZ @ 607 NONAME ; void QtMobility::QVideoWindowControl::nativeSizeChanged(void)
	?next@QMediaPlaylist@QtMobility@@QAEXXZ @ 608 NONAME ; void QtMobility::QMediaPlaylist::next(void)
	?next@QMediaPlaylistNavigator@QtMobility@@QAEXXZ @ 609 NONAME ; void QtMobility::QMediaPlaylistNavigator::next(void)
	?nextIndex@QMediaPlaylist@QtMobility@@QBEHH@Z @ 610 NONAME ; int QtMobility::QMediaPlaylist::nextIndex(int) const
	?nextIndex@QMediaPlaylistNavigator@QtMobility@@QBEHH@Z @ 611 NONAME ; int QtMobility::QMediaPlaylistNavigator::nextIndex(int) const
	?nextItem@QMediaPlaylistNavigator@QtMobility@@QBE?AVQMediaContent@2@H@Z @ 612 NONAME ; class QtMobility::QMediaContent QtMobility::QMediaPlaylistNavigator::nextItem(int) const
	?normalized@QMediaTimeInterval@QtMobility@@QBE?AV12@XZ @ 613 NONAME ; class QtMobility::QMediaTimeInterval QtMobility::QMediaTimeInterval::normalized(void) const
	?notifyInterval@QMediaObject@QtMobility@@QBEHXZ @ 614 NONAME ; int QtMobility::QMediaObject::notifyInterval(void) const
	?notifyIntervalChanged@QMediaObject@QtMobility@@IAEXH@Z @ 615 NONAME ; void QtMobility::QMediaObject::notifyIntervalChanged(int)
	?offset@QGraphicsVideoItem@QtMobility@@QBE?AVQPointF@@XZ @ 616 NONAME ; class QPointF QtMobility::QGraphicsVideoItem::offset(void) const
	?opticalZoom@QCamera@QtMobility@@QBEMXZ @ 617 NONAME ; float QtMobility::QCamera::opticalZoom(void) const
	?opticalZoomChanged@QCamera@QtMobility@@IAEXM@Z @ 618 NONAME ; void QtMobility::QCamera::opticalZoomChanged(float)
	?opticalZoomChanged@QCameraFocusControl@QtMobility@@IAEXM@Z @ 619 NONAME ; void QtMobility::QCameraFocusControl::opticalZoomChanged(float)
	?outputLocation@QMediaRecorder@QtMobility@@QBE?AVQUrl@@XZ @ 620 NONAME ; class QUrl QtMobility::QMediaRecorder::outputLocation(void) const
	?paint@QGraphicsVideoItem@QtMobility@@UAEXPAVQPainter@@PBVQStyleOptionGraphicsItem@@PAVQWidget@@@Z @ 621 NONAME ; void QtMobility::QGraphicsVideoItem::paint(class QPainter *, class QStyleOptionGraphicsItem const *, class QWidget *)
	?paintEvent@QVideoWidget@QtMobility@@MAEXPAVQPaintEvent@@@Z @ 622 NONAME ; void QtMobility::QVideoWidget::paintEvent(class QPaintEvent *)
	?pause@QMediaImageViewer@QtMobility@@QAEXXZ @ 623 NONAME ; void QtMobility::QMediaImageViewer::pause(void)
	?pause@QMediaPlayer@QtMobility@@QAEXXZ @ 624 NONAME ; void QtMobility::QMediaPlayer::pause(void)
	?pause@QMediaRecorder@QtMobility@@QAEXXZ @ 625 NONAME ; void QtMobility::QMediaRecorder::pause(void)
	?play@QMediaImageViewer@QtMobility@@QAEXXZ @ 626 NONAME ; void QtMobility::QMediaImageViewer::play(void)
	?play@QMediaPlayer@QtMobility@@QAEXXZ @ 627 NONAME ; void QtMobility::QMediaPlayer::play(void)
	?playbackMode@QMediaPlaylist@QtMobility@@QBE?AW4PlaybackMode@12@XZ @ 628 NONAME ; enum QtMobility::QMediaPlaylist::PlaybackMode QtMobility::QMediaPlaylist::playbackMode(void) const
	?playbackMode@QMediaPlaylistNavigator@QtMobility@@QBE?AW4PlaybackMode@QMediaPlaylist@2@XZ @ 629 NONAME ; enum QtMobility::QMediaPlaylist::PlaybackMode QtMobility::QMediaPlaylistNavigator::playbackMode(void) const
	?playbackModeChanged@QMediaPlaylist@QtMobility@@IAEXW4PlaybackMode@12@@Z @ 630 NONAME ; void QtMobility::QMediaPlaylist::playbackModeChanged(enum QtMobility::QMediaPlaylist::PlaybackMode)
	?playbackModeChanged@QMediaPlaylistControl@QtMobility@@IAEXW4PlaybackMode@QMediaPlaylist@2@@Z @ 631 NONAME ; void QtMobility::QMediaPlaylistControl::playbackModeChanged(enum QtMobility::QMediaPlaylist::PlaybackMode)
	?playbackModeChanged@QMediaPlaylistNavigator@QtMobility@@IAEXW4PlaybackMode@QMediaPlaylist@2@@Z @ 632 NONAME ; void QtMobility::QMediaPlaylistNavigator::playbackModeChanged(enum QtMobility::QMediaPlaylist::PlaybackMode)
	?playbackRate@QMediaPlayer@QtMobility@@QBEMXZ @ 633 NONAME ; float QtMobility::QMediaPlayer::playbackRate(void) const
	?playbackRateChanged@QMediaPlayer@QtMobility@@IAEXM@Z @ 634 NONAME ; void QtMobility::QMediaPlayer::playbackRateChanged(float)
	?playbackRateChanged@QMediaPlayerControl@QtMobility@@IAEXM@Z @ 635 NONAME ; void QtMobility::QMediaPlayerControl::playbackRateChanged(float)
	?playlist@QMediaPlaylistNavigator@QtMobility@@QBEPAVQMediaPlaylistProvider@2@XZ @ 636 NONAME ; class QtMobility::QMediaPlaylistProvider * QtMobility::QMediaPlaylistNavigator::playlist(void) const
	?playlistProviderChanged@QMediaPlaylistControl@QtMobility@@IAEXXZ @ 637 NONAME ; void QtMobility::QMediaPlaylistControl::playlistProviderChanged(void)
	?position@QMediaPlayer@QtMobility@@QBE_JXZ @ 638 NONAME ; long long QtMobility::QMediaPlayer::position(void) const
	?positionChanged@QMediaPlayer@QtMobility@@IAEX_J@Z @ 639 NONAME ; void QtMobility::QMediaPlayer::positionChanged(long long)
	?positionChanged@QMediaPlayerControl@QtMobility@@IAEX_J@Z @ 640 NONAME ; void QtMobility::QMediaPlayerControl::positionChanged(long long)
	?previous@QMediaPlaylist@QtMobility@@QAEXXZ @ 641 NONAME ; void QtMobility::QMediaPlaylist::previous(void)
	?previous@QMediaPlaylistNavigator@QtMobility@@QAEXXZ @ 642 NONAME ; void QtMobility::QMediaPlaylistNavigator::previous(void)
	?previousIndex@QMediaPlaylist@QtMobility@@QBEHH@Z @ 643 NONAME ; int QtMobility::QMediaPlaylist::previousIndex(int) const
	?previousIndex@QMediaPlaylistNavigator@QtMobility@@QBEHH@Z @ 644 NONAME ; int QtMobility::QMediaPlaylistNavigator::previousIndex(int) const
	?previousItem@QMediaPlaylistNavigator@QtMobility@@QBE?AVQMediaContent@2@H@Z @ 645 NONAME ; class QtMobility::QMediaContent QtMobility::QMediaPlaylistNavigator::previousItem(int) const
	?qt_metacall@QAudioCaptureSource@QtMobility@@UAEHW4Call@QMetaObject@@HPAPAX@Z @ 646 NONAME ; int QtMobility::QAudioCaptureSource::qt_metacall(enum QMetaObject::Call, int, void * *)
	?qt_metacall@QAudioEncoderControl@QtMobility@@UAEHW4Call@QMetaObject@@HPAPAX@Z @ 647 NONAME ; int QtMobility::QAudioEncoderControl::qt_metacall(enum QMetaObject::Call, int, void * *)
	?qt_metacall@QAudioEndpointSelector@QtMobility@@UAEHW4Call@QMetaObject@@HPAPAX@Z @ 648 NONAME ; int QtMobility::QAudioEndpointSelector::qt_metacall(enum QMetaObject::Call, int, void * *)
	?qt_metacall@QCamera@QtMobility@@UAEHW4Call@QMetaObject@@HPAPAX@Z @ 649 NONAME ; int QtMobility::QCamera::qt_metacall(enum QMetaObject::Call, int, void * *)
	?qt_metacall@QCameraControl@QtMobility@@UAEHW4Call@QMetaObject@@HPAPAX@Z @ 650 NONAME ; int QtMobility::QCameraControl::qt_metacall(enum QMetaObject::Call, int, void * *)
	?qt_metacall@QCameraExposureControl@QtMobility@@UAEHW4Call@QMetaObject@@HPAPAX@Z @ 651 NONAME ; int QtMobility::QCameraExposureControl::qt_metacall(enum QMetaObject::Call, int, void * *)
	?qt_metacall@QCameraFocusControl@QtMobility@@UAEHW4Call@QMetaObject@@HPAPAX@Z @ 652 NONAME ; int QtMobility::QCameraFocusControl::qt_metacall(enum QMetaObject::Call, int, void * *)
	?qt_metacall@QGraphicsVideoItem@QtMobility@@UAEHW4Call@QMetaObject@@HPAPAX@Z @ 653 NONAME ; int QtMobility::QGraphicsVideoItem::qt_metacall(enum QMetaObject::Call, int, void * *)
	?qt_metacall@QImageCaptureControl@QtMobility@@UAEHW4Call@QMetaObject@@HPAPAX@Z @ 654 NONAME ; int QtMobility::QImageCaptureControl::qt_metacall(enum QMetaObject::Call, int, void * *)
	?qt_metacall@QImageEncoderControl@QtMobility@@UAEHW4Call@QMetaObject@@HPAPAX@Z @ 655 NONAME ; int QtMobility::QImageEncoderControl::qt_metacall(enum QMetaObject::Call, int, void * *)
	?qt_metacall@QImageProcessingControl@QtMobility@@UAEHW4Call@QMetaObject@@HPAPAX@Z @ 656 NONAME ; int QtMobility::QImageProcessingControl::qt_metacall(enum QMetaObject::Call, int, void * *)
	?qt_metacall@QLocalMediaPlaylistProvider@QtMobility@@UAEHW4Call@QMetaObject@@HPAPAX@Z @ 657 NONAME ; int QtMobility::QLocalMediaPlaylistProvider::qt_metacall(enum QMetaObject::Call, int, void * *)
	?qt_metacall@QMediaContainerControl@QtMobility@@UAEHW4Call@QMetaObject@@HPAPAX@Z @ 658 NONAME ; int QtMobility::QMediaContainerControl::qt_metacall(enum QMetaObject::Call, int, void * *)
	?qt_metacall@QMediaControl@QtMobility@@UAEHW4Call@QMetaObject@@HPAPAX@Z @ 659 NONAME ; int QtMobility::QMediaControl::qt_metacall(enum QMetaObject::Call, int, void * *)
	?qt_metacall@QMediaImageViewer@QtMobility@@UAEHW4Call@QMetaObject@@HPAPAX@Z @ 660 NONAME ; int QtMobility::QMediaImageViewer::qt_metacall(enum QMetaObject::Call, int, void * *)
	?qt_metacall@QMediaObject@QtMobility@@UAEHW4Call@QMetaObject@@HPAPAX@Z @ 661 NONAME ; int QtMobility::QMediaObject::qt_metacall(enum QMetaObject::Call, int, void * *)
	?qt_metacall@QMediaPlayer@QtMobility@@UAEHW4Call@QMetaObject@@HPAPAX@Z @ 662 NONAME ; int QtMobility::QMediaPlayer::qt_metacall(enum QMetaObject::Call, int, void * *)
	?qt_metacall@QMediaPlayerControl@QtMobility@@UAEHW4Call@QMetaObject@@HPAPAX@Z @ 663 NONAME ; int QtMobility::QMediaPlayerControl::qt_metacall(enum QMetaObject::Call, int, void * *)
	?qt_metacall@QMediaPlaylist@QtMobility@@UAEHW4Call@QMetaObject@@HPAPAX@Z @ 664 NONAME ; int QtMobility::QMediaPlaylist::qt_metacall(enum QMetaObject::Call, int, void * *)
	?qt_metacall@QMediaPlaylistControl@QtMobility@@UAEHW4Call@QMetaObject@@HPAPAX@Z @ 665 NONAME ; int QtMobility::QMediaPlaylistControl::qt_metacall(enum QMetaObject::Call, int, void * *)
	?qt_metacall@QMediaPlaylistIOPlugin@QtMobility@@UAEHW4Call@QMetaObject@@HPAPAX@Z @ 666 NONAME ; int QtMobility::QMediaPlaylistIOPlugin::qt_metacall(enum QMetaObject::Call, int, void * *)
	?qt_metacall@QMediaPlaylistNavigator@QtMobility@@UAEHW4Call@QMetaObject@@HPAPAX@Z @ 667 NONAME ; int QtMobility::QMediaPlaylistNavigator::qt_metacall(enum QMetaObject::Call, int, void * *)
	?qt_metacall@QMediaPlaylistProvider@QtMobility@@UAEHW4Call@QMetaObject@@HPAPAX@Z @ 668 NONAME ; int QtMobility::QMediaPlaylistProvider::qt_metacall(enum QMetaObject::Call, int, void * *)
	?qt_metacall@QMediaRecorder@QtMobility@@UAEHW4Call@QMetaObject@@HPAPAX@Z @ 669 NONAME ; int QtMobility::QMediaRecorder::qt_metacall(enum QMetaObject::Call, int, void * *)
	?qt_metacall@QMediaRecorderControl@QtMobility@@UAEHW4Call@QMetaObject@@HPAPAX@Z @ 670 NONAME ; int QtMobility::QMediaRecorderControl::qt_metacall(enum QMetaObject::Call, int, void * *)
	?qt_metacall@QMediaService@QtMobility@@UAEHW4Call@QMetaObject@@HPAPAX@Z @ 671 NONAME ; int QtMobility::QMediaService::qt_metacall(enum QMetaObject::Call, int, void * *)
	?qt_metacall@QMediaServiceProvider@QtMobility@@UAEHW4Call@QMetaObject@@HPAPAX@Z @ 672 NONAME ; int QtMobility::QMediaServiceProvider::qt_metacall(enum QMetaObject::Call, int, void * *)
	?qt_metacall@QMediaServiceProviderPlugin@QtMobility@@UAEHW4Call@QMetaObject@@HPAPAX@Z @ 673 NONAME ; int QtMobility::QMediaServiceProviderPlugin::qt_metacall(enum QMetaObject::Call, int, void * *)
	?qt_metacall@QMediaStreamsControl@QtMobility@@UAEHW4Call@QMetaObject@@HPAPAX@Z @ 674 NONAME ; int QtMobility::QMediaStreamsControl::qt_metacall(enum QMetaObject::Call, int, void * *)
	?qt_metacall@QMetaDataControl@QtMobility@@UAEHW4Call@QMetaObject@@HPAPAX@Z @ 675 NONAME ; int QtMobility::QMetaDataControl::qt_metacall(enum QMetaObject::Call, int, void * *)
	?qt_metacall@QRadioTuner@QtMobility@@UAEHW4Call@QMetaObject@@HPAPAX@Z @ 676 NONAME ; int QtMobility::QRadioTuner::qt_metacall(enum QMetaObject::Call, int, void * *)
	?qt_metacall@QRadioTunerControl@QtMobility@@UAEHW4Call@QMetaObject@@HPAPAX@Z @ 677 NONAME ; int QtMobility::QRadioTunerControl::qt_metacall(enum QMetaObject::Call, int, void * *)
	?qt_metacall@QStillImageCapture@QtMobility@@UAEHW4Call@QMetaObject@@HPAPAX@Z @ 678 NONAME ; int QtMobility::QStillImageCapture::qt_metacall(enum QMetaObject::Call, int, void * *)
	?qt_metacall@QVideoDeviceControl@QtMobility@@UAEHW4Call@QMetaObject@@HPAPAX@Z @ 679 NONAME ; int QtMobility::QVideoDeviceControl::qt_metacall(enum QMetaObject::Call, int, void * *)
	?qt_metacall@QVideoEncoderControl@QtMobility@@UAEHW4Call@QMetaObject@@HPAPAX@Z @ 680 NONAME ; int QtMobility::QVideoEncoderControl::qt_metacall(enum QMetaObject::Call, int, void * *)
	?qt_metacall@QVideoOutputControl@QtMobility@@UAEHW4Call@QMetaObject@@HPAPAX@Z @ 681 NONAME ; int QtMobility::QVideoOutputControl::qt_metacall(enum QMetaObject::Call, int, void * *)
	?qt_metacall@QVideoRendererControl@QtMobility@@UAEHW4Call@QMetaObject@@HPAPAX@Z @ 682 NONAME ; int QtMobility::QVideoRendererControl::qt_metacall(enum QMetaObject::Call, int, void * *)
	?qt_metacall@QVideoWidget@QtMobility@@UAEHW4Call@QMetaObject@@HPAPAX@Z @ 683 NONAME ; int QtMobility::QVideoWidget::qt_metacall(enum QMetaObject::Call, int, void * *)
	?qt_metacall@QVideoWidgetControl@QtMobility@@UAEHW4Call@QMetaObject@@HPAPAX@Z @ 684 NONAME ; int QtMobility::QVideoWidgetControl::qt_metacall(enum QMetaObject::Call, int, void * *)
	?qt_metacall@QVideoWindowControl@QtMobility@@UAEHW4Call@QMetaObject@@HPAPAX@Z @ 685 NONAME ; int QtMobility::QVideoWindowControl::qt_metacall(enum QMetaObject::Call, int, void * *)
	?qt_metacast@QAudioCaptureSource@QtMobility@@UAEPAXPBD@Z @ 686 NONAME ; void * QtMobility::QAudioCaptureSource::qt_metacast(char const *)
	?qt_metacast@QAudioEncoderControl@QtMobility@@UAEPAXPBD@Z @ 687 NONAME ; void * QtMobility::QAudioEncoderControl::qt_metacast(char const *)
	?qt_metacast@QAudioEndpointSelector@QtMobility@@UAEPAXPBD@Z @ 688 NONAME ; void * QtMobility::QAudioEndpointSelector::qt_metacast(char const *)
	?qt_metacast@QCamera@QtMobility@@UAEPAXPBD@Z @ 689 NONAME ; void * QtMobility::QCamera::qt_metacast(char const *)
	?qt_metacast@QCameraControl@QtMobility@@UAEPAXPBD@Z @ 690 NONAME ; void * QtMobility::QCameraControl::qt_metacast(char const *)
	?qt_metacast@QCameraExposureControl@QtMobility@@UAEPAXPBD@Z @ 691 NONAME ; void * QtMobility::QCameraExposureControl::qt_metacast(char const *)
	?qt_metacast@QCameraFocusControl@QtMobility@@UAEPAXPBD@Z @ 692 NONAME ; void * QtMobility::QCameraFocusControl::qt_metacast(char const *)
	?qt_metacast@QGraphicsVideoItem@QtMobility@@UAEPAXPBD@Z @ 693 NONAME ; void * QtMobility::QGraphicsVideoItem::qt_metacast(char const *)
	?qt_metacast@QImageCaptureControl@QtMobility@@UAEPAXPBD@Z @ 694 NONAME ; void * QtMobility::QImageCaptureControl::qt_metacast(char const *)
	?qt_metacast@QImageEncoderControl@QtMobility@@UAEPAXPBD@Z @ 695 NONAME ; void * QtMobility::QImageEncoderControl::qt_metacast(char const *)
	?qt_metacast@QImageProcessingControl@QtMobility@@UAEPAXPBD@Z @ 696 NONAME ; void * QtMobility::QImageProcessingControl::qt_metacast(char const *)
	?qt_metacast@QLocalMediaPlaylistProvider@QtMobility@@UAEPAXPBD@Z @ 697 NONAME ; void * QtMobility::QLocalMediaPlaylistProvider::qt_metacast(char const *)
	?qt_metacast@QMediaContainerControl@QtMobility@@UAEPAXPBD@Z @ 698 NONAME ; void * QtMobility::QMediaContainerControl::qt_metacast(char const *)
	?qt_metacast@QMediaControl@QtMobility@@UAEPAXPBD@Z @ 699 NONAME ; void * QtMobility::QMediaControl::qt_metacast(char const *)
	?qt_metacast@QMediaImageViewer@QtMobility@@UAEPAXPBD@Z @ 700 NONAME ; void * QtMobility::QMediaImageViewer::qt_metacast(char const *)
	?qt_metacast@QMediaObject@QtMobility@@UAEPAXPBD@Z @ 701 NONAME ; void * QtMobility::QMediaObject::qt_metacast(char const *)
	?qt_metacast@QMediaPlayer@QtMobility@@UAEPAXPBD@Z @ 702 NONAME ; void * QtMobility::QMediaPlayer::qt_metacast(char const *)
	?qt_metacast@QMediaPlayerControl@QtMobility@@UAEPAXPBD@Z @ 703 NONAME ; void * QtMobility::QMediaPlayerControl::qt_metacast(char const *)
	?qt_metacast@QMediaPlaylist@QtMobility@@UAEPAXPBD@Z @ 704 NONAME ; void * QtMobility::QMediaPlaylist::qt_metacast(char const *)
	?qt_metacast@QMediaPlaylistControl@QtMobility@@UAEPAXPBD@Z @ 705 NONAME ; void * QtMobility::QMediaPlaylistControl::qt_metacast(char const *)
	?qt_metacast@QMediaPlaylistIOPlugin@QtMobility@@UAEPAXPBD@Z @ 706 NONAME ; void * QtMobility::QMediaPlaylistIOPlugin::qt_metacast(char const *)
	?qt_metacast@QMediaPlaylistNavigator@QtMobility@@UAEPAXPBD@Z @ 707 NONAME ; void * QtMobility::QMediaPlaylistNavigator::qt_metacast(char const *)
	?qt_metacast@QMediaPlaylistProvider@QtMobility@@UAEPAXPBD@Z @ 708 NONAME ; void * QtMobility::QMediaPlaylistProvider::qt_metacast(char const *)
	?qt_metacast@QMediaRecorder@QtMobility@@UAEPAXPBD@Z @ 709 NONAME ; void * QtMobility::QMediaRecorder::qt_metacast(char const *)
	?qt_metacast@QMediaRecorderControl@QtMobility@@UAEPAXPBD@Z @ 710 NONAME ; void * QtMobility::QMediaRecorderControl::qt_metacast(char const *)
	?qt_metacast@QMediaService@QtMobility@@UAEPAXPBD@Z @ 711 NONAME ; void * QtMobility::QMediaService::qt_metacast(char const *)
	?qt_metacast@QMediaServiceProvider@QtMobility@@UAEPAXPBD@Z @ 712 NONAME ; void * QtMobility::QMediaServiceProvider::qt_metacast(char const *)
	?qt_metacast@QMediaServiceProviderPlugin@QtMobility@@UAEPAXPBD@Z @ 713 NONAME ; void * QtMobility::QMediaServiceProviderPlugin::qt_metacast(char const *)
	?qt_metacast@QMediaStreamsControl@QtMobility@@UAEPAXPBD@Z @ 714 NONAME ; void * QtMobility::QMediaStreamsControl::qt_metacast(char const *)
	?qt_metacast@QMetaDataControl@QtMobility@@UAEPAXPBD@Z @ 715 NONAME ; void * QtMobility::QMetaDataControl::qt_metacast(char const *)
	?qt_metacast@QRadioTuner@QtMobility@@UAEPAXPBD@Z @ 716 NONAME ; void * QtMobility::QRadioTuner::qt_metacast(char const *)
	?qt_metacast@QRadioTunerControl@QtMobility@@UAEPAXPBD@Z @ 717 NONAME ; void * QtMobility::QRadioTunerControl::qt_metacast(char const *)
	?qt_metacast@QStillImageCapture@QtMobility@@UAEPAXPBD@Z @ 718 NONAME ; void * QtMobility::QStillImageCapture::qt_metacast(char const *)
	?qt_metacast@QVideoDeviceControl@QtMobility@@UAEPAXPBD@Z @ 719 NONAME ; void * QtMobility::QVideoDeviceControl::qt_metacast(char const *)
	?qt_metacast@QVideoEncoderControl@QtMobility@@UAEPAXPBD@Z @ 720 NONAME ; void * QtMobility::QVideoEncoderControl::qt_metacast(char const *)
	?qt_metacast@QVideoOutputControl@QtMobility@@UAEPAXPBD@Z @ 721 NONAME ; void * QtMobility::QVideoOutputControl::qt_metacast(char const *)
	?qt_metacast@QVideoRendererControl@QtMobility@@UAEPAXPBD@Z @ 722 NONAME ; void * QtMobility::QVideoRendererControl::qt_metacast(char const *)
	?qt_metacast@QVideoWidget@QtMobility@@UAEPAXPBD@Z @ 723 NONAME ; void * QtMobility::QVideoWidget::qt_metacast(char const *)
	?qt_metacast@QVideoWidgetControl@QtMobility@@UAEPAXPBD@Z @ 724 NONAME ; void * QtMobility::QVideoWidgetControl::qt_metacast(char const *)
	?qt_metacast@QVideoWindowControl@QtMobility@@UAEPAXPBD@Z @ 725 NONAME ; void * QtMobility::QVideoWindowControl::qt_metacast(char const *)
	?quality@QAudioEncoderSettings@QtMobility@@QBE?AW4EncodingQuality@QtMedia@2@XZ @ 726 NONAME ; enum QtMobility::QtMedia::EncodingQuality QtMobility::QAudioEncoderSettings::quality(void) const
	?quality@QImageEncoderSettings@QtMobility@@QBE?AW4EncodingQuality@QtMedia@2@XZ @ 727 NONAME ; enum QtMobility::QtMedia::EncodingQuality QtMobility::QImageEncoderSettings::quality(void) const
	?quality@QVideoEncoderSettings@QtMobility@@QBE?AW4EncodingQuality@QtMedia@2@XZ @ 728 NONAME ; enum QtMobility::QtMedia::EncodingQuality QtMobility::QVideoEncoderSettings::quality(void) const
	?readyForCaptureChanged@QImageCaptureControl@QtMobility@@IAEX_N@Z @ 729 NONAME ; void QtMobility::QImageCaptureControl::readyForCaptureChanged(bool)
	?readyForCaptureChanged@QStillImageCapture@QtMobility@@IAEX_N@Z @ 730 NONAME ; void QtMobility::QStillImageCapture::readyForCaptureChanged(bool)
	?record@QMediaRecorder@QtMobility@@QAEXXZ @ 731 NONAME ; void QtMobility::QMediaRecorder::record(void)
	?removeInterval@QMediaTimeRange@QtMobility@@QAEXABVQMediaTimeInterval@2@@Z @ 732 NONAME ; void QtMobility::QMediaTimeRange::removeInterval(class QtMobility::QMediaTimeInterval const &)
	?removeInterval@QMediaTimeRange@QtMobility@@QAEX_J0@Z @ 733 NONAME ; void QtMobility::QMediaTimeRange::removeInterval(long long, long long)
	?removeMedia@QLocalMediaPlaylistProvider@QtMobility@@UAE_NH@Z @ 734 NONAME ; bool QtMobility::QLocalMediaPlaylistProvider::removeMedia(int)
	?removeMedia@QLocalMediaPlaylistProvider@QtMobility@@UAE_NHH@Z @ 735 NONAME ; bool QtMobility::QLocalMediaPlaylistProvider::removeMedia(int, int)
	?removeMedia@QMediaPlaylist@QtMobility@@QAE_NH@Z @ 736 NONAME ; bool QtMobility::QMediaPlaylist::removeMedia(int)
	?removeMedia@QMediaPlaylist@QtMobility@@QAE_NHH@Z @ 737 NONAME ; bool QtMobility::QMediaPlaylist::removeMedia(int, int)
	?removeMedia@QMediaPlaylistProvider@QtMobility@@UAE_NH@Z @ 738 NONAME ; bool QtMobility::QMediaPlaylistProvider::removeMedia(int)
	?removeMedia@QMediaPlaylistProvider@QtMobility@@UAE_NHH@Z @ 739 NONAME ; bool QtMobility::QMediaPlaylistProvider::removeMedia(int, int)
	?removePropertyWatch@QMediaObject@QtMobility@@IAEXABVQByteArray@@@Z @ 740 NONAME ; void QtMobility::QMediaObject::removePropertyWatch(class QByteArray const &)
	?removeTimeRange@QMediaTimeRange@QtMobility@@QAEXABV12@@Z @ 741 NONAME ; void QtMobility::QMediaTimeRange::removeTimeRange(class QtMobility::QMediaTimeRange const &)
	?request@QMediaResource@QtMobility@@QBE?AVQNetworkRequest@@XZ @ 742 NONAME ; class QNetworkRequest QtMobility::QMediaResource::request(void) const
	?resizeEvent@QVideoWidget@QtMobility@@MAEXPAVQResizeEvent@@@Z @ 743 NONAME ; void QtMobility::QVideoWidget::resizeEvent(class QResizeEvent *)
	?resolution@QImageEncoderSettings@QtMobility@@QBE?AVQSize@@XZ @ 744 NONAME ; class QSize QtMobility::QImageEncoderSettings::resolution(void) const
	?resolution@QMediaResource@QtMobility@@QBE?AVQSize@@XZ @ 745 NONAME ; class QSize QtMobility::QMediaResource::resolution(void) const
	?resolution@QVideoEncoderSettings@QtMobility@@QBE?AVQSize@@XZ @ 746 NONAME ; class QSize QtMobility::QVideoEncoderSettings::resolution(void) const
	?resources@QMediaContent@QtMobility@@QBE?AV?$QList@VQMediaResource@QtMobility@@@@XZ @ 747 NONAME ; class QList<class QtMobility::QMediaResource> QtMobility::QMediaContent::resources(void) const
	?sampleRate@QAudioEncoderSettings@QtMobility@@QBEHXZ @ 748 NONAME ; int QtMobility::QAudioEncoderSettings::sampleRate(void) const
	?sampleRate@QMediaResource@QtMobility@@QBEHXZ @ 749 NONAME ; int QtMobility::QMediaResource::sampleRate(void) const
	?saturation@QVideoWidget@QtMobility@@QBEHXZ @ 750 NONAME ; int QtMobility::QVideoWidget::saturation(void) const
	?saturationChanged@QVideoWidget@QtMobility@@IAEXH@Z @ 751 NONAME ; void QtMobility::QVideoWidget::saturationChanged(int)
	?saturationChanged@QVideoWidgetControl@QtMobility@@IAEXH@Z @ 752 NONAME ; void QtMobility::QVideoWidgetControl::saturationChanged(int)
	?saturationChanged@QVideoWindowControl@QtMobility@@IAEXH@Z @ 753 NONAME ; void QtMobility::QVideoWindowControl::saturationChanged(int)
	?save@QMediaPlaylist@QtMobility@@QAE_NABVQUrl@@PBD@Z @ 754 NONAME ; bool QtMobility::QMediaPlaylist::save(class QUrl const &, char const *)
	?save@QMediaPlaylist@QtMobility@@QAE_NPAVQIODevice@@PBD@Z @ 755 NONAME ; bool QtMobility::QMediaPlaylist::save(class QIODevice *, char const *)
	?save@QMediaPlaylistProvider@QtMobility@@UAE_NABVQUrl@@PBD@Z @ 756 NONAME ; bool QtMobility::QMediaPlaylistProvider::save(class QUrl const &, char const *)
	?save@QMediaPlaylistProvider@QtMobility@@UAE_NPAVQIODevice@@PBD@Z @ 757 NONAME ; bool QtMobility::QMediaPlaylistProvider::save(class QIODevice *, char const *)
	?searchBackward@QRadioTuner@QtMobility@@QAEXXZ @ 758 NONAME ; void QtMobility::QRadioTuner::searchBackward(void)
	?searchForward@QRadioTuner@QtMobility@@QAEXXZ @ 759 NONAME ; void QtMobility::QRadioTuner::searchForward(void)
	?searchingChanged@QRadioTuner@QtMobility@@IAEX_N@Z @ 760 NONAME ; void QtMobility::QRadioTuner::searchingChanged(bool)
	?searchingChanged@QRadioTunerControl@QtMobility@@IAEX_N@Z @ 761 NONAME ; void QtMobility::QRadioTunerControl::searchingChanged(bool)
	?seekableChanged@QMediaPlayer@QtMobility@@IAEX_N@Z @ 762 NONAME ; void QtMobility::QMediaPlayer::seekableChanged(bool)
	?seekableChanged@QMediaPlayerControl@QtMobility@@IAEX_N@Z @ 763 NONAME ; void QtMobility::QMediaPlayerControl::seekableChanged(bool)
	?selectedDeviceChanged@QVideoDeviceControl@QtMobility@@IAEXABVQString@@@Z @ 764 NONAME ; void QtMobility::QVideoDeviceControl::selectedDeviceChanged(class QString const &)
	?selectedDeviceChanged@QVideoDeviceControl@QtMobility@@IAEXH@Z @ 765 NONAME ; void QtMobility::QVideoDeviceControl::selectedDeviceChanged(int)
	?service@QMediaObject@QtMobility@@UBEPAVQMediaService@2@XZ @ 766 NONAME ; class QtMobility::QMediaService * QtMobility::QMediaObject::service(void) const
	?setAspectRatioMode@QGraphicsVideoItem@QtMobility@@QAEXW4AspectRatioMode@Qt@@@Z @ 767 NONAME ; void QtMobility::QGraphicsVideoItem::setAspectRatioMode(enum Qt::AspectRatioMode)
	?setAspectRatioMode@QVideoWidget@QtMobility@@QAEXW4AspectRatioMode@12@@Z @ 768 NONAME ; void QtMobility::QVideoWidget::setAspectRatioMode(enum QtMobility::QVideoWidget::AspectRatioMode)
	?setAudioBitRate@QMediaResource@QtMobility@@QAEXH@Z @ 769 NONAME ; void QtMobility::QMediaResource::setAudioBitRate(int)
	?setAudioCodec@QMediaResource@QtMobility@@QAEXABVQString@@@Z @ 770 NONAME ; void QtMobility::QMediaResource::setAudioCodec(class QString const &)
	?setAudioInput@QAudioCaptureSource@QtMobility@@QAEXABVQString@@@Z @ 771 NONAME ; void QtMobility::QAudioCaptureSource::setAudioInput(class QString const &)
	?setAutoAperture@QCamera@QtMobility@@QAEXXZ @ 772 NONAME ; void QtMobility::QCamera::setAutoAperture(void)
	?setAutoIsoSensitivity@QCamera@QtMobility@@QAEXXZ @ 773 NONAME ; void QtMobility::QCamera::setAutoIsoSensitivity(void)
	?setAutoShutterSpeed@QCamera@QtMobility@@QAEXXZ @ 774 NONAME ; void QtMobility::QCamera::setAutoShutterSpeed(void)
	?setBand@QRadioTuner@QtMobility@@QAEXW4Band@12@@Z @ 775 NONAME ; void QtMobility::QRadioTuner::setBand(enum QtMobility::QRadioTuner::Band)
	?setBitRate@QAudioEncoderSettings@QtMobility@@QAEXH@Z @ 776 NONAME ; void QtMobility::QAudioEncoderSettings::setBitRate(int)
	?setBitRate@QVideoEncoderSettings@QtMobility@@QAEXH@Z @ 777 NONAME ; void QtMobility::QVideoEncoderSettings::setBitRate(int)
	?setBrightness@QVideoWidget@QtMobility@@QAEXH@Z @ 778 NONAME ; void QtMobility::QVideoWidget::setBrightness(int)
	?setCaptureMode@QCamera@QtMobility@@QAEXW4CaptureMode@12@@Z @ 779 NONAME ; void QtMobility::QCamera::setCaptureMode(enum QtMobility::QCamera::CaptureMode)
	?setChannelCount@QAudioEncoderSettings@QtMobility@@QAEXH@Z @ 780 NONAME ; void QtMobility::QAudioEncoderSettings::setChannelCount(int)
	?setChannelCount@QMediaResource@QtMobility@@QAEXH@Z @ 781 NONAME ; void QtMobility::QMediaResource::setChannelCount(int)
	?setCodec@QAudioEncoderSettings@QtMobility@@QAEXABVQString@@@Z @ 782 NONAME ; void QtMobility::QAudioEncoderSettings::setCodec(class QString const &)
	?setCodec@QImageEncoderSettings@QtMobility@@QAEXABVQString@@@Z @ 783 NONAME ; void QtMobility::QImageEncoderSettings::setCodec(class QString const &)
	?setCodec@QVideoEncoderSettings@QtMobility@@QAEXABVQString@@@Z @ 784 NONAME ; void QtMobility::QVideoEncoderSettings::setCodec(class QString const &)
	?setContrast@QVideoWidget@QtMobility@@QAEXH@Z @ 785 NONAME ; void QtMobility::QVideoWidget::setContrast(int)
	?setCurrentIndex@QMediaPlaylist@QtMobility@@QAEXH@Z @ 786 NONAME ; void QtMobility::QMediaPlaylist::setCurrentIndex(int)
	?setCustomFocusPoint@QCamera@QtMobility@@QAEXABVQPointF@@@Z @ 787 NONAME ; void QtMobility::QCamera::setCustomFocusPoint(class QPointF const &)
	?setDataSize@QMediaResource@QtMobility@@QAEX_J@Z @ 788 NONAME ; void QtMobility::QMediaResource::setDataSize(long long)
	?setEncodingMode@QAudioEncoderSettings@QtMobility@@QAEXW4EncodingMode@QtMedia@2@@Z @ 789 NONAME ; void QtMobility::QAudioEncoderSettings::setEncodingMode(enum QtMobility::QtMedia::EncodingMode)
	?setEncodingMode@QVideoEncoderSettings@QtMobility@@QAEXW4EncodingMode@QtMedia@2@@Z @ 790 NONAME ; void QtMobility::QVideoEncoderSettings::setEncodingMode(enum QtMobility::QtMedia::EncodingMode)
	?setEncodingSettings@QMediaRecorder@QtMobility@@QAEXABVQAudioEncoderSettings@2@ABVQVideoEncoderSettings@2@ABVQString@@@Z @ 791 NONAME ; void QtMobility::QMediaRecorder::setEncodingSettings(class QtMobility::QAudioEncoderSettings const &, class QtMobility::QVideoEncoderSettings const &, class QString const &)
	?setEncodingSettings@QStillImageCapture@QtMobility@@QAEXABVQImageEncoderSettings@2@@Z @ 792 NONAME ; void QtMobility::QStillImageCapture::setEncodingSettings(class QtMobility::QImageEncoderSettings const &)
	?setExposureCompensation@QCamera@QtMobility@@QAEXM@Z @ 793 NONAME ; void QtMobility::QCamera::setExposureCompensation(float)
	?setExposureMode@QCamera@QtMobility@@QAEXW4ExposureMode@12@@Z @ 794 NONAME ; void QtMobility::QCamera::setExposureMode(enum QtMobility::QCamera::ExposureMode)
	?setExtendedMetaData@QMediaObject@QtMobility@@QAEXABVQString@@ABVQVariant@@@Z @ 795 NONAME ; void QtMobility::QMediaObject::setExtendedMetaData(class QString const &, class QVariant const &)
	?setFlashMode@QCamera@QtMobility@@QAEXV?$QFlags@W4FlashMode@QCamera@QtMobility@@@@@Z @ 796 NONAME ; void QtMobility::QCamera::setFlashMode(class QFlags<enum QtMobility::QCamera::FlashMode>)
	?setFocusMode@QCamera@QtMobility@@QAEXW4FocusMode@12@@Z @ 797 NONAME ; void QtMobility::QCamera::setFocusMode(enum QtMobility::QCamera::FocusMode)
	?setFocusPointMode@QCamera@QtMobility@@QAEXW4FocusPointMode@12@@Z @ 798 NONAME ; void QtMobility::QCamera::setFocusPointMode(enum QtMobility::QCamera::FocusPointMode)
	?setFrameRate@QVideoEncoderSettings@QtMobility@@QAEXM@Z @ 799 NONAME ; void QtMobility::QVideoEncoderSettings::setFrameRate(float)
	?setFrequency@QRadioTuner@QtMobility@@QAEXH@Z @ 800 NONAME ; void QtMobility::QRadioTuner::setFrequency(int)
	?setFullScreen@QVideoWidget@QtMobility@@QAEX_N@Z @ 801 NONAME ; void QtMobility::QVideoWidget::setFullScreen(bool)
	?setHue@QVideoWidget@QtMobility@@QAEXH@Z @ 802 NONAME ; void QtMobility::QVideoWidget::setHue(int)
	?setLanguage@QMediaResource@QtMobility@@QAEXABVQString@@@Z @ 803 NONAME ; void QtMobility::QMediaResource::setLanguage(class QString const &)
	?setMacroFocusingEnabled@QCamera@QtMobility@@QAEX_N@Z @ 804 NONAME ; void QtMobility::QCamera::setMacroFocusingEnabled(bool)
	?setManualAperture@QCamera@QtMobility@@QAEXM@Z @ 805 NONAME ; void QtMobility::QCamera::setManualAperture(float)
	?setManualIsoSensitivity@QCamera@QtMobility@@QAEXH@Z @ 806 NONAME ; void QtMobility::QCamera::setManualIsoSensitivity(int)
	?setManualShutterSpeed@QCamera@QtMobility@@QAEXM@Z @ 807 NONAME ; void QtMobility::QCamera::setManualShutterSpeed(float)
	?setManualWhiteBalance@QCamera@QtMobility@@QAEXH@Z @ 808 NONAME ; void QtMobility::QCamera::setManualWhiteBalance(int)
	?setMedia@QMediaImageViewer@QtMobility@@QAEXABVQMediaContent@2@@Z @ 809 NONAME ; void QtMobility::QMediaImageViewer::setMedia(class QtMobility::QMediaContent const &)
	?setMedia@QMediaPlayer@QtMobility@@QAEXABVQMediaContent@2@PAVQIODevice@@@Z @ 810 NONAME ; void QtMobility::QMediaPlayer::setMedia(class QtMobility::QMediaContent const &, class QIODevice *)
	?setMediaObject@QGraphicsVideoItem@QtMobility@@QAEXPAVQMediaObject@2@@Z @ 811 NONAME ; void QtMobility::QGraphicsVideoItem::setMediaObject(class QtMobility::QMediaObject *)
	?setMediaObject@QMediaPlaylist@QtMobility@@QAEXPAVQMediaObject@2@@Z @ 812 NONAME ; void QtMobility::QMediaPlaylist::setMediaObject(class QtMobility::QMediaObject *)
	?setMediaObject@QVideoWidget@QtMobility@@QAEXPAVQMediaObject@2@@Z @ 813 NONAME ; void QtMobility::QVideoWidget::setMediaObject(class QtMobility::QMediaObject *)
	?setMetaData@QMediaObject@QtMobility@@QAEXW4MetaData@QtMedia@2@ABVQVariant@@@Z @ 814 NONAME ; void QtMobility::QMediaObject::setMetaData(enum QtMobility::QtMedia::MetaData, class QVariant const &)
	?setMeteringMode@QCamera@QtMobility@@QAEXW4MeteringMode@12@@Z @ 815 NONAME ; void QtMobility::QCamera::setMeteringMode(enum QtMobility::QCamera::MeteringMode)
	?setMuted@QMediaPlayer@QtMobility@@QAEX_N@Z @ 816 NONAME ; void QtMobility::QMediaPlayer::setMuted(bool)
	?setMuted@QRadioTuner@QtMobility@@QAEX_N@Z @ 817 NONAME ; void QtMobility::QRadioTuner::setMuted(bool)
	?setNotifyInterval@QMediaObject@QtMobility@@QAEXH@Z @ 818 NONAME ; void QtMobility::QMediaObject::setNotifyInterval(int)
	?setOffset@QGraphicsVideoItem@QtMobility@@QAEXABVQPointF@@@Z @ 819 NONAME ; void QtMobility::QGraphicsVideoItem::setOffset(class QPointF const &)
	?setOutputLocation@QMediaRecorder@QtMobility@@QAE_NABVQUrl@@@Z @ 820 NONAME ; bool QtMobility::QMediaRecorder::setOutputLocation(class QUrl const &)
	?setPlaybackMode@QMediaPlaylist@QtMobility@@QAEXW4PlaybackMode@12@@Z @ 821 NONAME ; void QtMobility::QMediaPlaylist::setPlaybackMode(enum QtMobility::QMediaPlaylist::PlaybackMode)
	?setPlaybackMode@QMediaPlaylistNavigator@QtMobility@@QAEXW4PlaybackMode@QMediaPlaylist@2@@Z @ 822 NONAME ; void QtMobility::QMediaPlaylistNavigator::setPlaybackMode(enum QtMobility::QMediaPlaylist::PlaybackMode)
	?setPlaybackRate@QMediaPlayer@QtMobility@@QAEXM@Z @ 823 NONAME ; void QtMobility::QMediaPlayer::setPlaybackRate(float)
	?setPlaylist@QMediaPlaylistNavigator@QtMobility@@QAEXPAVQMediaPlaylistProvider@2@@Z @ 824 NONAME ; void QtMobility::QMediaPlaylistNavigator::setPlaylist(class QtMobility::QMediaPlaylistProvider *)
	?setPosition@QMediaPlayer@QtMobility@@QAEX_J@Z @ 825 NONAME ; void QtMobility::QMediaPlayer::setPosition(long long)
	?setQuality@QAudioEncoderSettings@QtMobility@@QAEXW4EncodingQuality@QtMedia@2@@Z @ 826 NONAME ; void QtMobility::QAudioEncoderSettings::setQuality(enum QtMobility::QtMedia::EncodingQuality)
	?setQuality@QImageEncoderSettings@QtMobility@@QAEXW4EncodingQuality@QtMedia@2@@Z @ 827 NONAME ; void QtMobility::QImageEncoderSettings::setQuality(enum QtMobility::QtMedia::EncodingQuality)
	?setQuality@QVideoEncoderSettings@QtMobility@@QAEXW4EncodingQuality@QtMedia@2@@Z @ 828 NONAME ; void QtMobility::QVideoEncoderSettings::setQuality(enum QtMobility::QtMedia::EncodingQuality)
	?setResolution@QImageEncoderSettings@QtMobility@@QAEXABVQSize@@@Z @ 829 NONAME ; void QtMobility::QImageEncoderSettings::setResolution(class QSize const &)
	?setResolution@QImageEncoderSettings@QtMobility@@QAEXHH@Z @ 830 NONAME ; void QtMobility::QImageEncoderSettings::setResolution(int, int)
	?setResolution@QMediaResource@QtMobility@@QAEXABVQSize@@@Z @ 831 NONAME ; void QtMobility::QMediaResource::setResolution(class QSize const &)
	?setResolution@QMediaResource@QtMobility@@QAEXHH@Z @ 832 NONAME ; void QtMobility::QMediaResource::setResolution(int, int)
	?setResolution@QVideoEncoderSettings@QtMobility@@QAEXABVQSize@@@Z @ 833 NONAME ; void QtMobility::QVideoEncoderSettings::setResolution(class QSize const &)
	?setResolution@QVideoEncoderSettings@QtMobility@@QAEXHH@Z @ 834 NONAME ; void QtMobility::QVideoEncoderSettings::setResolution(int, int)
	?setSampleRate@QAudioEncoderSettings@QtMobility@@QAEXH@Z @ 835 NONAME ; void QtMobility::QAudioEncoderSettings::setSampleRate(int)
	?setSampleRate@QMediaResource@QtMobility@@QAEXH@Z @ 836 NONAME ; void QtMobility::QMediaResource::setSampleRate(int)
	?setSaturation@QVideoWidget@QtMobility@@QAEXH@Z @ 837 NONAME ; void QtMobility::QVideoWidget::setSaturation(int)
	?setSize@QGraphicsVideoItem@QtMobility@@QAEXABVQSizeF@@@Z @ 838 NONAME ; void QtMobility::QGraphicsVideoItem::setSize(class QSizeF const &)
	?setStereoMode@QRadioTuner@QtMobility@@QAEXW4StereoMode@12@@Z @ 839 NONAME ; void QtMobility::QRadioTuner::setStereoMode(enum QtMobility::QRadioTuner::StereoMode)
	?setTimeout@QMediaImageViewer@QtMobility@@QAEXH@Z @ 840 NONAME ; void QtMobility::QMediaImageViewer::setTimeout(int)
	?setVideoBitRate@QMediaResource@QtMobility@@QAEXH@Z @ 841 NONAME ; void QtMobility::QMediaResource::setVideoBitRate(int)
	?setVideoCodec@QMediaResource@QtMobility@@QAEXABVQString@@@Z @ 842 NONAME ; void QtMobility::QMediaResource::setVideoCodec(class QString const &)
	?setVolume@QMediaPlayer@QtMobility@@QAEXH@Z @ 843 NONAME ; void QtMobility::QMediaPlayer::setVolume(int)
	?setVolume@QRadioTuner@QtMobility@@QAEXH@Z @ 844 NONAME ; void QtMobility::QRadioTuner::setVolume(int)
	?setWhiteBalanceMode@QCamera@QtMobility@@QAEXW4WhiteBalanceMode@12@@Z @ 845 NONAME ; void QtMobility::QCamera::setWhiteBalanceMode(enum QtMobility::QCamera::WhiteBalanceMode)
	?setupMetaData@QMediaObject@QtMobility@@AAEXXZ @ 846 NONAME ; void QtMobility::QMediaObject::setupMetaData(void)
	?showEvent@QVideoWidget@QtMobility@@MAEXPAVQShowEvent@@@Z @ 847 NONAME ; void QtMobility::QVideoWidget::showEvent(class QShowEvent *)
	?shuffle@QLocalMediaPlaylistProvider@QtMobility@@UAEXXZ @ 848 NONAME ; void QtMobility::QLocalMediaPlaylistProvider::shuffle(void)
	?shuffle@QMediaPlaylist@QtMobility@@QAEXXZ @ 849 NONAME ; void QtMobility::QMediaPlaylist::shuffle(void)
	?shuffle@QMediaPlaylistProvider@QtMobility@@UAEXXZ @ 850 NONAME ; void QtMobility::QMediaPlaylistProvider::shuffle(void)
	?shutterSpeed@QCamera@QtMobility@@QBEMXZ @ 851 NONAME ; float QtMobility::QCamera::shutterSpeed(void) const
	?shutterSpeedChanged@QCamera@QtMobility@@IAEXM@Z @ 852 NONAME ; void QtMobility::QCamera::shutterSpeedChanged(float)
	?shutterSpeedChanged@QCameraExposureControl@QtMobility@@IAEXM@Z @ 853 NONAME ; void QtMobility::QCameraExposureControl::shutterSpeedChanged(float)
	?signalStrength@QRadioTuner@QtMobility@@QBEHXZ @ 854 NONAME ; int QtMobility::QRadioTuner::signalStrength(void) const
	?signalStrengthChanged@QRadioTuner@QtMobility@@IAEXH@Z @ 855 NONAME ; void QtMobility::QRadioTuner::signalStrengthChanged(int)
	?signalStrengthChanged@QRadioTunerControl@QtMobility@@IAEXH@Z @ 856 NONAME ; void QtMobility::QRadioTunerControl::signalStrengthChanged(int)
	?size@QGraphicsVideoItem@QtMobility@@QBE?AVQSizeF@@XZ @ 857 NONAME ; class QSizeF QtMobility::QGraphicsVideoItem::size(void) const
	?sizeHint@QVideoWidget@QtMobility@@UBE?AVQSize@@XZ @ 858 NONAME ; class QSize QtMobility::QVideoWidget::sizeHint(void) const
	?start@QCamera@QtMobility@@QAEXXZ @ 859 NONAME ; void QtMobility::QCamera::start(void)
	?start@QMediaTimeInterval@QtMobility@@QBE_JXZ @ 860 NONAME ; long long QtMobility::QMediaTimeInterval::start(void) const
	?start@QRadioTuner@QtMobility@@QAEXXZ @ 861 NONAME ; void QtMobility::QRadioTuner::start(void)
	?startFocusing@QCamera@QtMobility@@QAEXXZ @ 862 NONAME ; void QtMobility::QCamera::startFocusing(void)
	?state@QCamera@QtMobility@@QBE?AW4State@12@XZ @ 863 NONAME ; enum QtMobility::QCamera::State QtMobility::QCamera::state(void) const
	?state@QMediaImageViewer@QtMobility@@QBE?AW4State@12@XZ @ 864 NONAME ; enum QtMobility::QMediaImageViewer::State QtMobility::QMediaImageViewer::state(void) const
	?state@QMediaPlayer@QtMobility@@QBE?AW4State@12@XZ @ 865 NONAME ; enum QtMobility::QMediaPlayer::State QtMobility::QMediaPlayer::state(void) const
	?state@QMediaRecorder@QtMobility@@QBE?AW4State@12@XZ @ 866 NONAME ; enum QtMobility::QMediaRecorder::State QtMobility::QMediaRecorder::state(void) const
	?state@QRadioTuner@QtMobility@@QBE?AW4State@12@XZ @ 867 NONAME ; enum QtMobility::QRadioTuner::State QtMobility::QRadioTuner::state(void) const
	?stateChanged@QCamera@QtMobility@@IAEXW4State@12@@Z @ 868 NONAME ; void QtMobility::QCamera::stateChanged(enum QtMobility::QCamera::State)
	?stateChanged@QCameraControl@QtMobility@@IAEXW4State@QCamera@2@@Z @ 869 NONAME ; void QtMobility::QCameraControl::stateChanged(enum QtMobility::QCamera::State)
	?stateChanged@QMediaImageViewer@QtMobility@@IAEXW4State@12@@Z @ 870 NONAME ; void QtMobility::QMediaImageViewer::stateChanged(enum QtMobility::QMediaImageViewer::State)
	?stateChanged@QMediaPlayer@QtMobility@@IAEXW4State@12@@Z @ 871 NONAME ; void QtMobility::QMediaPlayer::stateChanged(enum QtMobility::QMediaPlayer::State)
	?stateChanged@QMediaPlayerControl@QtMobility@@IAEXW4State@QMediaPlayer@2@@Z @ 872 NONAME ; void QtMobility::QMediaPlayerControl::stateChanged(enum QtMobility::QMediaPlayer::State)
	?stateChanged@QMediaRecorder@QtMobility@@IAEXW4State@12@@Z @ 873 NONAME ; void QtMobility::QMediaRecorder::stateChanged(enum QtMobility::QMediaRecorder::State)
	?stateChanged@QMediaRecorderControl@QtMobility@@IAEXW4State@QMediaRecorder@2@@Z @ 874 NONAME ; void QtMobility::QMediaRecorderControl::stateChanged(enum QtMobility::QMediaRecorder::State)
	?stateChanged@QRadioTuner@QtMobility@@IAEXW4State@12@@Z @ 875 NONAME ; void QtMobility::QRadioTuner::stateChanged(enum QtMobility::QRadioTuner::State)
	?stateChanged@QRadioTunerControl@QtMobility@@IAEXW4State@QRadioTuner@2@@Z @ 876 NONAME ; void QtMobility::QRadioTunerControl::stateChanged(enum QtMobility::QRadioTuner::State)
	?statusChanged@QAudioCaptureSource@QtMobility@@AAEXXZ @ 877 NONAME ; void QtMobility::QAudioCaptureSource::statusChanged(void)
	?stereoMode@QRadioTuner@QtMobility@@QBE?AW4StereoMode@12@XZ @ 878 NONAME ; enum QtMobility::QRadioTuner::StereoMode QtMobility::QRadioTuner::stereoMode(void) const
	?stereoStatusChanged@QRadioTuner@QtMobility@@IAEX_N@Z @ 879 NONAME ; void QtMobility::QRadioTuner::stereoStatusChanged(bool)
	?stereoStatusChanged@QRadioTunerControl@QtMobility@@IAEX_N@Z @ 880 NONAME ; void QtMobility::QRadioTunerControl::stereoStatusChanged(bool)
	?stop@QCamera@QtMobility@@QAEXXZ @ 881 NONAME ; void QtMobility::QCamera::stop(void)
	?stop@QMediaImageViewer@QtMobility@@QAEXXZ @ 882 NONAME ; void QtMobility::QMediaImageViewer::stop(void)
	?stop@QMediaPlayer@QtMobility@@QAEXXZ @ 883 NONAME ; void QtMobility::QMediaPlayer::stop(void)
	?stop@QMediaRecorder@QtMobility@@QAEXXZ @ 884 NONAME ; void QtMobility::QMediaRecorder::stop(void)
	?stop@QRadioTuner@QtMobility@@QAEXXZ @ 885 NONAME ; void QtMobility::QRadioTuner::stop(void)
	?streamsChanged@QMediaStreamsControl@QtMobility@@IAEXXZ @ 886 NONAME ; void QtMobility::QMediaStreamsControl::streamsChanged(void)
	?supportedApertures@QCamera@QtMobility@@QBE?AV?$QList@M@@PA_N@Z @ 887 NONAME ; class QList<float> QtMobility::QCamera::supportedApertures(bool *) const
	?supportedAudioCodecs@QMediaRecorder@QtMobility@@QBE?AVQStringList@@XZ @ 888 NONAME ; class QStringList QtMobility::QMediaRecorder::supportedAudioCodecs(void) const
	?supportedAudioSampleRates@QMediaRecorder@QtMobility@@QBE?AV?$QList@H@@ABVQAudioEncoderSettings@2@PA_N@Z @ 889 NONAME ; class QList<int> QtMobility::QMediaRecorder::supportedAudioSampleRates(class QtMobility::QAudioEncoderSettings const &, bool *) const
	?supportedCaptureModes@QCamera@QtMobility@@QBE?AV?$QFlags@W4CaptureMode@QCamera@QtMobility@@@@XZ @ 890 NONAME ; class QFlags<enum QtMobility::QCamera::CaptureMode> QtMobility::QCamera::supportedCaptureModes(void) const
	?supportedContainers@QMediaRecorder@QtMobility@@QBE?AVQStringList@@XZ @ 891 NONAME ; class QStringList QtMobility::QMediaRecorder::supportedContainers(void) const
	?supportedExposureModes@QCamera@QtMobility@@QBE?AV?$QFlags@W4ExposureMode@QCamera@QtMobility@@@@XZ @ 892 NONAME ; class QFlags<enum QtMobility::QCamera::ExposureMode> QtMobility::QCamera::supportedExposureModes(void) const
	?supportedFlashModes@QCamera@QtMobility@@QBE?AV?$QFlags@W4FlashMode@QCamera@QtMobility@@@@XZ @ 893 NONAME ; class QFlags<enum QtMobility::QCamera::FlashMode> QtMobility::QCamera::supportedFlashModes(void) const
	?supportedFocusModes@QCamera@QtMobility@@QBE?AV?$QFlags@W4FocusMode@QCamera@QtMobility@@@@XZ @ 894 NONAME ; class QFlags<enum QtMobility::QCamera::FocusMode> QtMobility::QCamera::supportedFocusModes(void) const
	?supportedFocusPointModes@QCamera@QtMobility@@QBE?AV?$QFlags@W4FocusPointMode@QCamera@QtMobility@@@@XZ @ 895 NONAME ; class QFlags<enum QtMobility::QCamera::FocusPointMode> QtMobility::QCamera::supportedFocusPointModes(void) const
	?supportedFrameRates@QMediaRecorder@QtMobility@@QBE?AV?$QList@M@@ABVQVideoEncoderSettings@2@PA_N@Z @ 896 NONAME ; class QList<float> QtMobility::QMediaRecorder::supportedFrameRates(class QtMobility::QVideoEncoderSettings const &, bool *) const
	?supportedImageCodecs@QStillImageCapture@QtMobility@@QBE?AVQStringList@@XZ @ 897 NONAME ; class QStringList QtMobility::QStillImageCapture::supportedImageCodecs(void) const
	?supportedIsoSensitivities@QCamera@QtMobility@@QBE?AV?$QList@H@@PA_N@Z @ 898 NONAME ; class QList<int> QtMobility::QCamera::supportedIsoSensitivities(bool *) const
	?supportedMeteringModes@QCamera@QtMobility@@QBE?AV?$QFlags@W4MeteringMode@QCamera@QtMobility@@@@XZ @ 899 NONAME ; class QFlags<enum QtMobility::QCamera::MeteringMode> QtMobility::QCamera::supportedMeteringModes(void) const
	?supportedMimeTypes@QMediaPlayer@QtMobility@@SA?AVQStringList@@V?$QFlags@W4Flag@QMediaPlayer@QtMobility@@@@@Z @ 900 NONAME ; class QStringList QtMobility::QMediaPlayer::supportedMimeTypes(class QFlags<enum QtMobility::QMediaPlayer::Flag>)
	?supportedMimeTypes@QMediaServiceProvider@QtMobility@@UBE?AVQStringList@@ABVQByteArray@@H@Z @ 901 NONAME ; class QStringList QtMobility::QMediaServiceProvider::supportedMimeTypes(class QByteArray const &, int) const
	?supportedResolutions@QMediaRecorder@QtMobility@@QBE?AV?$QList@VQSize@@@@ABVQVideoEncoderSettings@2@PA_N@Z @ 902 NONAME ; class QList<class QSize> QtMobility::QMediaRecorder::supportedResolutions(class QtMobility::QVideoEncoderSettings const &, bool *) const
	?supportedResolutions@QStillImageCapture@QtMobility@@QBE?AV?$QList@VQSize@@@@ABVQImageEncoderSettings@2@PA_N@Z @ 903 NONAME ; class QList<class QSize> QtMobility::QStillImageCapture::supportedResolutions(class QtMobility::QImageEncoderSettings const &, bool *) const
	?supportedShutterSpeeds@QCamera@QtMobility@@QBE?AV?$QList@M@@PA_N@Z @ 904 NONAME ; class QList<float> QtMobility::QCamera::supportedShutterSpeeds(bool *) const
	?supportedVideoCodecs@QMediaRecorder@QtMobility@@QBE?AVQStringList@@XZ @ 905 NONAME ; class QStringList QtMobility::QMediaRecorder::supportedVideoCodecs(void) const
	?supportedWhiteBalanceModes@QCamera@QtMobility@@QBE?AV?$QFlags@W4WhiteBalanceMode@QCamera@QtMobility@@@@XZ @ 906 NONAME ; class QFlags<enum QtMobility::QCamera::WhiteBalanceMode> QtMobility::QCamera::supportedWhiteBalanceModes(void) const
	?surroundingItemsChanged@QMediaPlaylistNavigator@QtMobility@@IAEXXZ @ 907 NONAME ; void QtMobility::QMediaPlaylistNavigator::surroundingItemsChanged(void)
	?timeout@QMediaImageViewer@QtMobility@@QBEHXZ @ 908 NONAME ; int QtMobility::QMediaImageViewer::timeout(void) const
	?timerEvent@QGraphicsVideoItem@QtMobility@@MAEXPAVQTimerEvent@@@Z @ 909 NONAME ; void QtMobility::QGraphicsVideoItem::timerEvent(class QTimerEvent *)
	?timerEvent@QMediaImageViewer@QtMobility@@MAEXPAVQTimerEvent@@@Z @ 910 NONAME ; void QtMobility::QMediaImageViewer::timerEvent(class QTimerEvent *)
	?tr@QAudioCaptureSource@QtMobility@@SA?AVQString@@PBD0@Z @ 911 NONAME ; class QString QtMobility::QAudioCaptureSource::tr(char const *, char const *)
	?tr@QAudioCaptureSource@QtMobility@@SA?AVQString@@PBD0H@Z @ 912 NONAME ; class QString QtMobility::QAudioCaptureSource::tr(char const *, char const *, int)
	?tr@QAudioEncoderControl@QtMobility@@SA?AVQString@@PBD0@Z @ 913 NONAME ; class QString QtMobility::QAudioEncoderControl::tr(char const *, char const *)
	?tr@QAudioEncoderControl@QtMobility@@SA?AVQString@@PBD0H@Z @ 914 NONAME ; class QString QtMobility::QAudioEncoderControl::tr(char const *, char const *, int)
	?tr@QAudioEndpointSelector@QtMobility@@SA?AVQString@@PBD0@Z @ 915 NONAME ; class QString QtMobility::QAudioEndpointSelector::tr(char const *, char const *)
	?tr@QAudioEndpointSelector@QtMobility@@SA?AVQString@@PBD0H@Z @ 916 NONAME ; class QString QtMobility::QAudioEndpointSelector::tr(char const *, char const *, int)
	?tr@QCamera@QtMobility@@SA?AVQString@@PBD0@Z @ 917 NONAME ; class QString QtMobility::QCamera::tr(char const *, char const *)
	?tr@QCamera@QtMobility@@SA?AVQString@@PBD0H@Z @ 918 NONAME ; class QString QtMobility::QCamera::tr(char const *, char const *, int)
	?tr@QCameraControl@QtMobility@@SA?AVQString@@PBD0@Z @ 919 NONAME ; class QString QtMobility::QCameraControl::tr(char const *, char const *)
	?tr@QCameraControl@QtMobility@@SA?AVQString@@PBD0H@Z @ 920 NONAME ; class QString QtMobility::QCameraControl::tr(char const *, char const *, int)
	?tr@QCameraExposureControl@QtMobility@@SA?AVQString@@PBD0@Z @ 921 NONAME ; class QString QtMobility::QCameraExposureControl::tr(char const *, char const *)
	?tr@QCameraExposureControl@QtMobility@@SA?AVQString@@PBD0H@Z @ 922 NONAME ; class QString QtMobility::QCameraExposureControl::tr(char const *, char const *, int)
	?tr@QCameraFocusControl@QtMobility@@SA?AVQString@@PBD0@Z @ 923 NONAME ; class QString QtMobility::QCameraFocusControl::tr(char const *, char const *)
	?tr@QCameraFocusControl@QtMobility@@SA?AVQString@@PBD0H@Z @ 924 NONAME ; class QString QtMobility::QCameraFocusControl::tr(char const *, char const *, int)
	?tr@QGraphicsVideoItem@QtMobility@@SA?AVQString@@PBD0@Z @ 925 NONAME ; class QString QtMobility::QGraphicsVideoItem::tr(char const *, char const *)
	?tr@QGraphicsVideoItem@QtMobility@@SA?AVQString@@PBD0H@Z @ 926 NONAME ; class QString QtMobility::QGraphicsVideoItem::tr(char const *, char const *, int)
	?tr@QImageCaptureControl@QtMobility@@SA?AVQString@@PBD0@Z @ 927 NONAME ; class QString QtMobility::QImageCaptureControl::tr(char const *, char const *)
	?tr@QImageCaptureControl@QtMobility@@SA?AVQString@@PBD0H@Z @ 928 NONAME ; class QString QtMobility::QImageCaptureControl::tr(char const *, char const *, int)
	?tr@QImageEncoderControl@QtMobility@@SA?AVQString@@PBD0@Z @ 929 NONAME ; class QString QtMobility::QImageEncoderControl::tr(char const *, char const *)
	?tr@QImageEncoderControl@QtMobility@@SA?AVQString@@PBD0H@Z @ 930 NONAME ; class QString QtMobility::QImageEncoderControl::tr(char const *, char const *, int)
	?tr@QImageProcessingControl@QtMobility@@SA?AVQString@@PBD0@Z @ 931 NONAME ; class QString QtMobility::QImageProcessingControl::tr(char const *, char const *)
	?tr@QImageProcessingControl@QtMobility@@SA?AVQString@@PBD0H@Z @ 932 NONAME ; class QString QtMobility::QImageProcessingControl::tr(char const *, char const *, int)
	?tr@QLocalMediaPlaylistProvider@QtMobility@@SA?AVQString@@PBD0@Z @ 933 NONAME ; class QString QtMobility::QLocalMediaPlaylistProvider::tr(char const *, char const *)
	?tr@QLocalMediaPlaylistProvider@QtMobility@@SA?AVQString@@PBD0H@Z @ 934 NONAME ; class QString QtMobility::QLocalMediaPlaylistProvider::tr(char const *, char const *, int)
	?tr@QMediaContainerControl@QtMobility@@SA?AVQString@@PBD0@Z @ 935 NONAME ; class QString QtMobility::QMediaContainerControl::tr(char const *, char const *)
	?tr@QMediaContainerControl@QtMobility@@SA?AVQString@@PBD0H@Z @ 936 NONAME ; class QString QtMobility::QMediaContainerControl::tr(char const *, char const *, int)
	?tr@QMediaControl@QtMobility@@SA?AVQString@@PBD0@Z @ 937 NONAME ; class QString QtMobility::QMediaControl::tr(char const *, char const *)
	?tr@QMediaControl@QtMobility@@SA?AVQString@@PBD0H@Z @ 938 NONAME ; class QString QtMobility::QMediaControl::tr(char const *, char const *, int)
	?tr@QMediaImageViewer@QtMobility@@SA?AVQString@@PBD0@Z @ 939 NONAME ; class QString QtMobility::QMediaImageViewer::tr(char const *, char const *)
	?tr@QMediaImageViewer@QtMobility@@SA?AVQString@@PBD0H@Z @ 940 NONAME ; class QString QtMobility::QMediaImageViewer::tr(char const *, char const *, int)
	?tr@QMediaObject@QtMobility@@SA?AVQString@@PBD0@Z @ 941 NONAME ; class QString QtMobility::QMediaObject::tr(char const *, char const *)
	?tr@QMediaObject@QtMobility@@SA?AVQString@@PBD0H@Z @ 942 NONAME ; class QString QtMobility::QMediaObject::tr(char const *, char const *, int)
	?tr@QMediaPlayer@QtMobility@@SA?AVQString@@PBD0@Z @ 943 NONAME ; class QString QtMobility::QMediaPlayer::tr(char const *, char const *)
	?tr@QMediaPlayer@QtMobility@@SA?AVQString@@PBD0H@Z @ 944 NONAME ; class QString QtMobility::QMediaPlayer::tr(char const *, char const *, int)
	?tr@QMediaPlayerControl@QtMobility@@SA?AVQString@@PBD0@Z @ 945 NONAME ; class QString QtMobility::QMediaPlayerControl::tr(char const *, char const *)
	?tr@QMediaPlayerControl@QtMobility@@SA?AVQString@@PBD0H@Z @ 946 NONAME ; class QString QtMobility::QMediaPlayerControl::tr(char const *, char const *, int)
	?tr@QMediaPlaylist@QtMobility@@SA?AVQString@@PBD0@Z @ 947 NONAME ; class QString QtMobility::QMediaPlaylist::tr(char const *, char const *)
	?tr@QMediaPlaylist@QtMobility@@SA?AVQString@@PBD0H@Z @ 948 NONAME ; class QString QtMobility::QMediaPlaylist::tr(char const *, char const *, int)
	?tr@QMediaPlaylistControl@QtMobility@@SA?AVQString@@PBD0@Z @ 949 NONAME ; class QString QtMobility::QMediaPlaylistControl::tr(char const *, char const *)
	?tr@QMediaPlaylistControl@QtMobility@@SA?AVQString@@PBD0H@Z @ 950 NONAME ; class QString QtMobility::QMediaPlaylistControl::tr(char const *, char const *, int)
	?tr@QMediaPlaylistIOPlugin@QtMobility@@SA?AVQString@@PBD0@Z @ 951 NONAME ; class QString QtMobility::QMediaPlaylistIOPlugin::tr(char const *, char const *)
	?tr@QMediaPlaylistIOPlugin@QtMobility@@SA?AVQString@@PBD0H@Z @ 952 NONAME ; class QString QtMobility::QMediaPlaylistIOPlugin::tr(char const *, char const *, int)
	?tr@QMediaPlaylistNavigator@QtMobility@@SA?AVQString@@PBD0@Z @ 953 NONAME ; class QString QtMobility::QMediaPlaylistNavigator::tr(char const *, char const *)
	?tr@QMediaPlaylistNavigator@QtMobility@@SA?AVQString@@PBD0H@Z @ 954 NONAME ; class QString QtMobility::QMediaPlaylistNavigator::tr(char const *, char const *, int)
	?tr@QMediaPlaylistProvider@QtMobility@@SA?AVQString@@PBD0@Z @ 955 NONAME ; class QString QtMobility::QMediaPlaylistProvider::tr(char const *, char const *)
	?tr@QMediaPlaylistProvider@QtMobility@@SA?AVQString@@PBD0H@Z @ 956 NONAME ; class QString QtMobility::QMediaPlaylistProvider::tr(char const *, char const *, int)
	?tr@QMediaRecorder@QtMobility@@SA?AVQString@@PBD0@Z @ 957 NONAME ; class QString QtMobility::QMediaRecorder::tr(char const *, char const *)
	?tr@QMediaRecorder@QtMobility@@SA?AVQString@@PBD0H@Z @ 958 NONAME ; class QString QtMobility::QMediaRecorder::tr(char const *, char const *, int)
	?tr@QMediaRecorderControl@QtMobility@@SA?AVQString@@PBD0@Z @ 959 NONAME ; class QString QtMobility::QMediaRecorderControl::tr(char const *, char const *)
	?tr@QMediaRecorderControl@QtMobility@@SA?AVQString@@PBD0H@Z @ 960 NONAME ; class QString QtMobility::QMediaRecorderControl::tr(char const *, char const *, int)
	?tr@QMediaService@QtMobility@@SA?AVQString@@PBD0@Z @ 961 NONAME ; class QString QtMobility::QMediaService::tr(char const *, char const *)
	?tr@QMediaService@QtMobility@@SA?AVQString@@PBD0H@Z @ 962 NONAME ; class QString QtMobility::QMediaService::tr(char const *, char const *, int)
	?tr@QMediaServiceProvider@QtMobility@@SA?AVQString@@PBD0@Z @ 963 NONAME ; class QString QtMobility::QMediaServiceProvider::tr(char const *, char const *)
	?tr@QMediaServiceProvider@QtMobility@@SA?AVQString@@PBD0H@Z @ 964 NONAME ; class QString QtMobility::QMediaServiceProvider::tr(char const *, char const *, int)
	?tr@QMediaServiceProviderPlugin@QtMobility@@SA?AVQString@@PBD0@Z @ 965 NONAME ; class QString QtMobility::QMediaServiceProviderPlugin::tr(char const *, char const *)
	?tr@QMediaServiceProviderPlugin@QtMobility@@SA?AVQString@@PBD0H@Z @ 966 NONAME ; class QString QtMobility::QMediaServiceProviderPlugin::tr(char const *, char const *, int)
	?tr@QMediaStreamsControl@QtMobility@@SA?AVQString@@PBD0@Z @ 967 NONAME ; class QString QtMobility::QMediaStreamsControl::tr(char const *, char const *)
	?tr@QMediaStreamsControl@QtMobility@@SA?AVQString@@PBD0H@Z @ 968 NONAME ; class QString QtMobility::QMediaStreamsControl::tr(char const *, char const *, int)
	?tr@QMetaDataControl@QtMobility@@SA?AVQString@@PBD0@Z @ 969 NONAME ; class QString QtMobility::QMetaDataControl::tr(char const *, char const *)
	?tr@QMetaDataControl@QtMobility@@SA?AVQString@@PBD0H@Z @ 970 NONAME ; class QString QtMobility::QMetaDataControl::tr(char const *, char const *, int)
	?tr@QRadioTuner@QtMobility@@SA?AVQString@@PBD0@Z @ 971 NONAME ; class QString QtMobility::QRadioTuner::tr(char const *, char const *)
	?tr@QRadioTuner@QtMobility@@SA?AVQString@@PBD0H@Z @ 972 NONAME ; class QString QtMobility::QRadioTuner::tr(char const *, char const *, int)
	?tr@QRadioTunerControl@QtMobility@@SA?AVQString@@PBD0@Z @ 973 NONAME ; class QString QtMobility::QRadioTunerControl::tr(char const *, char const *)
	?tr@QRadioTunerControl@QtMobility@@SA?AVQString@@PBD0H@Z @ 974 NONAME ; class QString QtMobility::QRadioTunerControl::tr(char const *, char const *, int)
	?tr@QStillImageCapture@QtMobility@@SA?AVQString@@PBD0@Z @ 975 NONAME ; class QString QtMobility::QStillImageCapture::tr(char const *, char const *)
	?tr@QStillImageCapture@QtMobility@@SA?AVQString@@PBD0H@Z @ 976 NONAME ; class QString QtMobility::QStillImageCapture::tr(char const *, char const *, int)
	?tr@QVideoDeviceControl@QtMobility@@SA?AVQString@@PBD0@Z @ 977 NONAME ; class QString QtMobility::QVideoDeviceControl::tr(char const *, char const *)
	?tr@QVideoDeviceControl@QtMobility@@SA?AVQString@@PBD0H@Z @ 978 NONAME ; class QString QtMobility::QVideoDeviceControl::tr(char const *, char const *, int)
	?tr@QVideoEncoderControl@QtMobility@@SA?AVQString@@PBD0@Z @ 979 NONAME ; class QString QtMobility::QVideoEncoderControl::tr(char const *, char const *)
	?tr@QVideoEncoderControl@QtMobility@@SA?AVQString@@PBD0H@Z @ 980 NONAME ; class QString QtMobility::QVideoEncoderControl::tr(char const *, char const *, int)
	?tr@QVideoOutputControl@QtMobility@@SA?AVQString@@PBD0@Z @ 981 NONAME ; class QString QtMobility::QVideoOutputControl::tr(char const *, char const *)
	?tr@QVideoOutputControl@QtMobility@@SA?AVQString@@PBD0H@Z @ 982 NONAME ; class QString QtMobility::QVideoOutputControl::tr(char const *, char const *, int)
	?tr@QVideoRendererControl@QtMobility@@SA?AVQString@@PBD0@Z @ 983 NONAME ; class QString QtMobility::QVideoRendererControl::tr(char const *, char const *)
	?tr@QVideoRendererControl@QtMobility@@SA?AVQString@@PBD0H@Z @ 984 NONAME ; class QString QtMobility::QVideoRendererControl::tr(char const *, char const *, int)
	?tr@QVideoWidget@QtMobility@@SA?AVQString@@PBD0@Z @ 985 NONAME ; class QString QtMobility::QVideoWidget::tr(char const *, char const *)
	?tr@QVideoWidget@QtMobility@@SA?AVQString@@PBD0H@Z @ 986 NONAME ; class QString QtMobility::QVideoWidget::tr(char const *, char const *, int)
	?tr@QVideoWidgetControl@QtMobility@@SA?AVQString@@PBD0@Z @ 987 NONAME ; class QString QtMobility::QVideoWidgetControl::tr(char const *, char const *)
	?tr@QVideoWidgetControl@QtMobility@@SA?AVQString@@PBD0H@Z @ 988 NONAME ; class QString QtMobility::QVideoWidgetControl::tr(char const *, char const *, int)
	?tr@QVideoWindowControl@QtMobility@@SA?AVQString@@PBD0@Z @ 989 NONAME ; class QString QtMobility::QVideoWindowControl::tr(char const *, char const *)
	?tr@QVideoWindowControl@QtMobility@@SA?AVQString@@PBD0H@Z @ 990 NONAME ; class QString QtMobility::QVideoWindowControl::tr(char const *, char const *, int)
	?trUtf8@QAudioCaptureSource@QtMobility@@SA?AVQString@@PBD0@Z @ 991 NONAME ; class QString QtMobility::QAudioCaptureSource::trUtf8(char const *, char const *)
	?trUtf8@QAudioCaptureSource@QtMobility@@SA?AVQString@@PBD0H@Z @ 992 NONAME ; class QString QtMobility::QAudioCaptureSource::trUtf8(char const *, char const *, int)
	?trUtf8@QAudioEncoderControl@QtMobility@@SA?AVQString@@PBD0@Z @ 993 NONAME ; class QString QtMobility::QAudioEncoderControl::trUtf8(char const *, char const *)
	?trUtf8@QAudioEncoderControl@QtMobility@@SA?AVQString@@PBD0H@Z @ 994 NONAME ; class QString QtMobility::QAudioEncoderControl::trUtf8(char const *, char const *, int)
	?trUtf8@QAudioEndpointSelector@QtMobility@@SA?AVQString@@PBD0@Z @ 995 NONAME ; class QString QtMobility::QAudioEndpointSelector::trUtf8(char const *, char const *)
	?trUtf8@QAudioEndpointSelector@QtMobility@@SA?AVQString@@PBD0H@Z @ 996 NONAME ; class QString QtMobility::QAudioEndpointSelector::trUtf8(char const *, char const *, int)
	?trUtf8@QCamera@QtMobility@@SA?AVQString@@PBD0@Z @ 997 NONAME ; class QString QtMobility::QCamera::trUtf8(char const *, char const *)
	?trUtf8@QCamera@QtMobility@@SA?AVQString@@PBD0H@Z @ 998 NONAME ; class QString QtMobility::QCamera::trUtf8(char const *, char const *, int)
	?trUtf8@QCameraControl@QtMobility@@SA?AVQString@@PBD0@Z @ 999 NONAME ; class QString QtMobility::QCameraControl::trUtf8(char const *, char const *)
	?trUtf8@QCameraControl@QtMobility@@SA?AVQString@@PBD0H@Z @ 1000 NONAME ; class QString QtMobility::QCameraControl::trUtf8(char const *, char const *, int)
	?trUtf8@QCameraExposureControl@QtMobility@@SA?AVQString@@PBD0@Z @ 1001 NONAME ; class QString QtMobility::QCameraExposureControl::trUtf8(char const *, char const *)
	?trUtf8@QCameraExposureControl@QtMobility@@SA?AVQString@@PBD0H@Z @ 1002 NONAME ; class QString QtMobility::QCameraExposureControl::trUtf8(char const *, char const *, int)
	?trUtf8@QCameraFocusControl@QtMobility@@SA?AVQString@@PBD0@Z @ 1003 NONAME ; class QString QtMobility::QCameraFocusControl::trUtf8(char const *, char const *)
	?trUtf8@QCameraFocusControl@QtMobility@@SA?AVQString@@PBD0H@Z @ 1004 NONAME ; class QString QtMobility::QCameraFocusControl::trUtf8(char const *, char const *, int)
	?trUtf8@QGraphicsVideoItem@QtMobility@@SA?AVQString@@PBD0@Z @ 1005 NONAME ; class QString QtMobility::QGraphicsVideoItem::trUtf8(char const *, char const *)
	?trUtf8@QGraphicsVideoItem@QtMobility@@SA?AVQString@@PBD0H@Z @ 1006 NONAME ; class QString QtMobility::QGraphicsVideoItem::trUtf8(char const *, char const *, int)
	?trUtf8@QImageCaptureControl@QtMobility@@SA?AVQString@@PBD0@Z @ 1007 NONAME ; class QString QtMobility::QImageCaptureControl::trUtf8(char const *, char const *)
	?trUtf8@QImageCaptureControl@QtMobility@@SA?AVQString@@PBD0H@Z @ 1008 NONAME ; class QString QtMobility::QImageCaptureControl::trUtf8(char const *, char const *, int)
	?trUtf8@QImageEncoderControl@QtMobility@@SA?AVQString@@PBD0@Z @ 1009 NONAME ; class QString QtMobility::QImageEncoderControl::trUtf8(char const *, char const *)
	?trUtf8@QImageEncoderControl@QtMobility@@SA?AVQString@@PBD0H@Z @ 1010 NONAME ; class QString QtMobility::QImageEncoderControl::trUtf8(char const *, char const *, int)
	?trUtf8@QImageProcessingControl@QtMobility@@SA?AVQString@@PBD0@Z @ 1011 NONAME ; class QString QtMobility::QImageProcessingControl::trUtf8(char const *, char const *)
	?trUtf8@QImageProcessingControl@QtMobility@@SA?AVQString@@PBD0H@Z @ 1012 NONAME ; class QString QtMobility::QImageProcessingControl::trUtf8(char const *, char const *, int)
	?trUtf8@QLocalMediaPlaylistProvider@QtMobility@@SA?AVQString@@PBD0@Z @ 1013 NONAME ; class QString QtMobility::QLocalMediaPlaylistProvider::trUtf8(char const *, char const *)
	?trUtf8@QLocalMediaPlaylistProvider@QtMobility@@SA?AVQString@@PBD0H@Z @ 1014 NONAME ; class QString QtMobility::QLocalMediaPlaylistProvider::trUtf8(char const *, char const *, int)
	?trUtf8@QMediaContainerControl@QtMobility@@SA?AVQString@@PBD0@Z @ 1015 NONAME ; class QString QtMobility::QMediaContainerControl::trUtf8(char const *, char const *)
	?trUtf8@QMediaContainerControl@QtMobility@@SA?AVQString@@PBD0H@Z @ 1016 NONAME ; class QString QtMobility::QMediaContainerControl::trUtf8(char const *, char const *, int)
	?trUtf8@QMediaControl@QtMobility@@SA?AVQString@@PBD0@Z @ 1017 NONAME ; class QString QtMobility::QMediaControl::trUtf8(char const *, char const *)
	?trUtf8@QMediaControl@QtMobility@@SA?AVQString@@PBD0H@Z @ 1018 NONAME ; class QString QtMobility::QMediaControl::trUtf8(char const *, char const *, int)
	?trUtf8@QMediaImageViewer@QtMobility@@SA?AVQString@@PBD0@Z @ 1019 NONAME ; class QString QtMobility::QMediaImageViewer::trUtf8(char const *, char const *)
	?trUtf8@QMediaImageViewer@QtMobility@@SA?AVQString@@PBD0H@Z @ 1020 NONAME ; class QString QtMobility::QMediaImageViewer::trUtf8(char const *, char const *, int)
	?trUtf8@QMediaObject@QtMobility@@SA?AVQString@@PBD0@Z @ 1021 NONAME ; class QString QtMobility::QMediaObject::trUtf8(char const *, char const *)
	?trUtf8@QMediaObject@QtMobility@@SA?AVQString@@PBD0H@Z @ 1022 NONAME ; class QString QtMobility::QMediaObject::trUtf8(char const *, char const *, int)
	?trUtf8@QMediaPlayer@QtMobility@@SA?AVQString@@PBD0@Z @ 1023 NONAME ; class QString QtMobility::QMediaPlayer::trUtf8(char const *, char const *)
	?trUtf8@QMediaPlayer@QtMobility@@SA?AVQString@@PBD0H@Z @ 1024 NONAME ; class QString QtMobility::QMediaPlayer::trUtf8(char const *, char const *, int)
	?trUtf8@QMediaPlayerControl@QtMobility@@SA?AVQString@@PBD0@Z @ 1025 NONAME ; class QString QtMobility::QMediaPlayerControl::trUtf8(char const *, char const *)
	?trUtf8@QMediaPlayerControl@QtMobility@@SA?AVQString@@PBD0H@Z @ 1026 NONAME ; class QString QtMobility::QMediaPlayerControl::trUtf8(char const *, char const *, int)
	?trUtf8@QMediaPlaylist@QtMobility@@SA?AVQString@@PBD0@Z @ 1027 NONAME ; class QString QtMobility::QMediaPlaylist::trUtf8(char const *, char const *)
	?trUtf8@QMediaPlaylist@QtMobility@@SA?AVQString@@PBD0H@Z @ 1028 NONAME ; class QString QtMobility::QMediaPlaylist::trUtf8(char const *, char const *, int)
	?trUtf8@QMediaPlaylistControl@QtMobility@@SA?AVQString@@PBD0@Z @ 1029 NONAME ; class QString QtMobility::QMediaPlaylistControl::trUtf8(char const *, char const *)
	?trUtf8@QMediaPlaylistControl@QtMobility@@SA?AVQString@@PBD0H@Z @ 1030 NONAME ; class QString QtMobility::QMediaPlaylistControl::trUtf8(char const *, char const *, int)
	?trUtf8@QMediaPlaylistIOPlugin@QtMobility@@SA?AVQString@@PBD0@Z @ 1031 NONAME ; class QString QtMobility::QMediaPlaylistIOPlugin::trUtf8(char const *, char const *)
	?trUtf8@QMediaPlaylistIOPlugin@QtMobility@@SA?AVQString@@PBD0H@Z @ 1032 NONAME ; class QString QtMobility::QMediaPlaylistIOPlugin::trUtf8(char const *, char const *, int)
	?trUtf8@QMediaPlaylistNavigator@QtMobility@@SA?AVQString@@PBD0@Z @ 1033 NONAME ; class QString QtMobility::QMediaPlaylistNavigator::trUtf8(char const *, char const *)
	?trUtf8@QMediaPlaylistNavigator@QtMobility@@SA?AVQString@@PBD0H@Z @ 1034 NONAME ; class QString QtMobility::QMediaPlaylistNavigator::trUtf8(char const *, char const *, int)
	?trUtf8@QMediaPlaylistProvider@QtMobility@@SA?AVQString@@PBD0@Z @ 1035 NONAME ; class QString QtMobility::QMediaPlaylistProvider::trUtf8(char const *, char const *)
	?trUtf8@QMediaPlaylistProvider@QtMobility@@SA?AVQString@@PBD0H@Z @ 1036 NONAME ; class QString QtMobility::QMediaPlaylistProvider::trUtf8(char const *, char const *, int)
	?trUtf8@QMediaRecorder@QtMobility@@SA?AVQString@@PBD0@Z @ 1037 NONAME ; class QString QtMobility::QMediaRecorder::trUtf8(char const *, char const *)
	?trUtf8@QMediaRecorder@QtMobility@@SA?AVQString@@PBD0H@Z @ 1038 NONAME ; class QString QtMobility::QMediaRecorder::trUtf8(char const *, char const *, int)
	?trUtf8@QMediaRecorderControl@QtMobility@@SA?AVQString@@PBD0@Z @ 1039 NONAME ; class QString QtMobility::QMediaRecorderControl::trUtf8(char const *, char const *)
	?trUtf8@QMediaRecorderControl@QtMobility@@SA?AVQString@@PBD0H@Z @ 1040 NONAME ; class QString QtMobility::QMediaRecorderControl::trUtf8(char const *, char const *, int)
	?trUtf8@QMediaService@QtMobility@@SA?AVQString@@PBD0@Z @ 1041 NONAME ; class QString QtMobility::QMediaService::trUtf8(char const *, char const *)
	?trUtf8@QMediaService@QtMobility@@SA?AVQString@@PBD0H@Z @ 1042 NONAME ; class QString QtMobility::QMediaService::trUtf8(char const *, char const *, int)
	?trUtf8@QMediaServiceProvider@QtMobility@@SA?AVQString@@PBD0@Z @ 1043 NONAME ; class QString QtMobility::QMediaServiceProvider::trUtf8(char const *, char const *)
	?trUtf8@QMediaServiceProvider@QtMobility@@SA?AVQString@@PBD0H@Z @ 1044 NONAME ; class QString QtMobility::QMediaServiceProvider::trUtf8(char const *, char const *, int)
	?trUtf8@QMediaServiceProviderPlugin@QtMobility@@SA?AVQString@@PBD0@Z @ 1045 NONAME ; class QString QtMobility::QMediaServiceProviderPlugin::trUtf8(char const *, char const *)
	?trUtf8@QMediaServiceProviderPlugin@QtMobility@@SA?AVQString@@PBD0H@Z @ 1046 NONAME ; class QString QtMobility::QMediaServiceProviderPlugin::trUtf8(char const *, char const *, int)
	?trUtf8@QMediaStreamsControl@QtMobility@@SA?AVQString@@PBD0@Z @ 1047 NONAME ; class QString QtMobility::QMediaStreamsControl::trUtf8(char const *, char const *)
	?trUtf8@QMediaStreamsControl@QtMobility@@SA?AVQString@@PBD0H@Z @ 1048 NONAME ; class QString QtMobility::QMediaStreamsControl::trUtf8(char const *, char const *, int)
	?trUtf8@QMetaDataControl@QtMobility@@SA?AVQString@@PBD0@Z @ 1049 NONAME ; class QString QtMobility::QMetaDataControl::trUtf8(char const *, char const *)
	?trUtf8@QMetaDataControl@QtMobility@@SA?AVQString@@PBD0H@Z @ 1050 NONAME ; class QString QtMobility::QMetaDataControl::trUtf8(char const *, char const *, int)
	?trUtf8@QRadioTuner@QtMobility@@SA?AVQString@@PBD0@Z @ 1051 NONAME ; class QString QtMobility::QRadioTuner::trUtf8(char const *, char const *)
	?trUtf8@QRadioTuner@QtMobility@@SA?AVQString@@PBD0H@Z @ 1052 NONAME ; class QString QtMobility::QRadioTuner::trUtf8(char const *, char const *, int)
	?trUtf8@QRadioTunerControl@QtMobility@@SA?AVQString@@PBD0@Z @ 1053 NONAME ; class QString QtMobility::QRadioTunerControl::trUtf8(char const *, char const *)
	?trUtf8@QRadioTunerControl@QtMobility@@SA?AVQString@@PBD0H@Z @ 1054 NONAME ; class QString QtMobility::QRadioTunerControl::trUtf8(char const *, char const *, int)
	?trUtf8@QStillImageCapture@QtMobility@@SA?AVQString@@PBD0@Z @ 1055 NONAME ; class QString QtMobility::QStillImageCapture::trUtf8(char const *, char const *)
	?trUtf8@QStillImageCapture@QtMobility@@SA?AVQString@@PBD0H@Z @ 1056 NONAME ; class QString QtMobility::QStillImageCapture::trUtf8(char const *, char const *, int)
	?trUtf8@QVideoDeviceControl@QtMobility@@SA?AVQString@@PBD0@Z @ 1057 NONAME ; class QString QtMobility::QVideoDeviceControl::trUtf8(char const *, char const *)
	?trUtf8@QVideoDeviceControl@QtMobility@@SA?AVQString@@PBD0H@Z @ 1058 NONAME ; class QString QtMobility::QVideoDeviceControl::trUtf8(char const *, char const *, int)
	?trUtf8@QVideoEncoderControl@QtMobility@@SA?AVQString@@PBD0@Z @ 1059 NONAME ; class QString QtMobility::QVideoEncoderControl::trUtf8(char const *, char const *)
	?trUtf8@QVideoEncoderControl@QtMobility@@SA?AVQString@@PBD0H@Z @ 1060 NONAME ; class QString QtMobility::QVideoEncoderControl::trUtf8(char const *, char const *, int)
	?trUtf8@QVideoOutputControl@QtMobility@@SA?AVQString@@PBD0@Z @ 1061 NONAME ; class QString QtMobility::QVideoOutputControl::trUtf8(char const *, char const *)
	?trUtf8@QVideoOutputControl@QtMobility@@SA?AVQString@@PBD0H@Z @ 1062 NONAME ; class QString QtMobility::QVideoOutputControl::trUtf8(char const *, char const *, int)
	?trUtf8@QVideoRendererControl@QtMobility@@SA?AVQString@@PBD0@Z @ 1063 NONAME ; class QString QtMobility::QVideoRendererControl::trUtf8(char const *, char const *)
	?trUtf8@QVideoRendererControl@QtMobility@@SA?AVQString@@PBD0H@Z @ 1064 NONAME ; class QString QtMobility::QVideoRendererControl::trUtf8(char const *, char const *, int)
	?trUtf8@QVideoWidget@QtMobility@@SA?AVQString@@PBD0@Z @ 1065 NONAME ; class QString QtMobility::QVideoWidget::trUtf8(char const *, char const *)
	?trUtf8@QVideoWidget@QtMobility@@SA?AVQString@@PBD0H@Z @ 1066 NONAME ; class QString QtMobility::QVideoWidget::trUtf8(char const *, char const *, int)
	?trUtf8@QVideoWidgetControl@QtMobility@@SA?AVQString@@PBD0@Z @ 1067 NONAME ; class QString QtMobility::QVideoWidgetControl::trUtf8(char const *, char const *)
	?trUtf8@QVideoWidgetControl@QtMobility@@SA?AVQString@@PBD0H@Z @ 1068 NONAME ; class QString QtMobility::QVideoWidgetControl::trUtf8(char const *, char const *, int)
	?trUtf8@QVideoWindowControl@QtMobility@@SA?AVQString@@PBD0@Z @ 1069 NONAME ; class QString QtMobility::QVideoWindowControl::trUtf8(char const *, char const *)
	?trUtf8@QVideoWindowControl@QtMobility@@SA?AVQString@@PBD0H@Z @ 1070 NONAME ; class QString QtMobility::QVideoWindowControl::trUtf8(char const *, char const *, int)
	?translated@QMediaTimeInterval@QtMobility@@QBE?AV12@_J@Z @ 1071 NONAME ; class QtMobility::QMediaTimeInterval QtMobility::QMediaTimeInterval::translated(long long) const
	?type@QMediaServiceProviderHint@QtMobility@@QBE?AW4Type@12@XZ @ 1072 NONAME ; enum QtMobility::QMediaServiceProviderHint::Type QtMobility::QMediaServiceProviderHint::type(void) const
	?unbind@QMediaImageViewer@QtMobility@@UAEXPAVQObject@@@Z @ 1073 NONAME ; void QtMobility::QMediaImageViewer::unbind(class QObject *)
	?unbind@QMediaObject@QtMobility@@UAEXPAVQObject@@@Z @ 1074 NONAME ; void QtMobility::QMediaObject::unbind(class QObject *)
	?unbind@QMediaPlayer@QtMobility@@UAEXPAVQObject@@@Z @ 1075 NONAME ; void QtMobility::QMediaPlayer::unbind(class QObject *)
	?unlockExposure@QCamera@QtMobility@@QAEXXZ @ 1076 NONAME ; void QtMobility::QCamera::unlockExposure(void)
	?unlockWhiteBalance@QCamera@QtMobility@@QAEXXZ @ 1077 NONAME ; void QtMobility::QCamera::unlockWhiteBalance(void)
	?url@QMediaResource@QtMobility@@QBE?AVQUrl@@XZ @ 1078 NONAME ; class QUrl QtMobility::QMediaResource::url(void) const
	?videoAvailableChanged@QMediaPlayer@QtMobility@@IAEX_N@Z @ 1079 NONAME ; void QtMobility::QMediaPlayer::videoAvailableChanged(bool)
	?videoAvailableChanged@QMediaPlayerControl@QtMobility@@IAEX_N@Z @ 1080 NONAME ; void QtMobility::QMediaPlayerControl::videoAvailableChanged(bool)
	?videoBitRate@QMediaResource@QtMobility@@QBEHXZ @ 1081 NONAME ; int QtMobility::QMediaResource::videoBitRate(void) const
	?videoCodec@QMediaResource@QtMobility@@QBE?AVQString@@XZ @ 1082 NONAME ; class QString QtMobility::QMediaResource::videoCodec(void) const
	?videoCodecDescription@QMediaRecorder@QtMobility@@QBE?AVQString@@ABV3@@Z @ 1083 NONAME ; class QString QtMobility::QMediaRecorder::videoCodecDescription(class QString const &) const
	?videoSettings@QMediaRecorder@QtMobility@@QBE?AVQVideoEncoderSettings@2@XZ @ 1084 NONAME ; class QtMobility::QVideoEncoderSettings QtMobility::QMediaRecorder::videoSettings(void) const
	?volume@QMediaPlayer@QtMobility@@QBEHXZ @ 1085 NONAME ; int QtMobility::QMediaPlayer::volume(void) const
	?volume@QRadioTuner@QtMobility@@QBEHXZ @ 1086 NONAME ; int QtMobility::QRadioTuner::volume(void) const
	?volumeChanged@QMediaPlayer@QtMobility@@IAEXH@Z @ 1087 NONAME ; void QtMobility::QMediaPlayer::volumeChanged(int)
	?volumeChanged@QMediaPlayerControl@QtMobility@@IAEXH@Z @ 1088 NONAME ; void QtMobility::QMediaPlayerControl::volumeChanged(int)
	?volumeChanged@QRadioTuner@QtMobility@@IAEXH@Z @ 1089 NONAME ; void QtMobility::QRadioTuner::volumeChanged(int)
	?volumeChanged@QRadioTunerControl@QtMobility@@IAEXH@Z @ 1090 NONAME ; void QtMobility::QRadioTunerControl::volumeChanged(int)
	?whiteBalanceLocked@QCamera@QtMobility@@IAEXXZ @ 1091 NONAME ; void QtMobility::QCamera::whiteBalanceLocked(void)
	?whiteBalanceLocked@QImageProcessingControl@QtMobility@@IAEXXZ @ 1092 NONAME ; void QtMobility::QImageProcessingControl::whiteBalanceLocked(void)
	?whiteBalanceMode@QCamera@QtMobility@@QBE?AW4WhiteBalanceMode@12@XZ @ 1093 NONAME ; enum QtMobility::QCamera::WhiteBalanceMode QtMobility::QCamera::whiteBalanceMode(void) const
	?writableChanged@QMetaDataControl@QtMobility@@IAEX_N@Z @ 1094 NONAME ; void QtMobility::QMetaDataControl::writableChanged(bool)
	?zoomTo@QCamera@QtMobility@@QAEXMM@Z @ 1095 NONAME ; void QtMobility::QCamera::zoomTo(float, float)
	?staticMetaObject@QStillImageCapture@QtMobility@@2UQMetaObject@@B @ 1096 NONAME ; struct QMetaObject const QtMobility::QStillImageCapture::staticMetaObject
	?staticMetaObject@QImageCaptureControl@QtMobility@@2UQMetaObject@@B @ 1097 NONAME ; struct QMetaObject const QtMobility::QImageCaptureControl::staticMetaObject
	?staticMetaObject@QMediaPlaylistProvider@QtMobility@@2UQMetaObject@@B @ 1098 NONAME ; struct QMetaObject const QtMobility::QMediaPlaylistProvider::staticMetaObject
	?staticMetaObject@QImageProcessingControl@QtMobility@@2UQMetaObject@@B @ 1099 NONAME ; struct QMetaObject const QtMobility::QImageProcessingControl::staticMetaObject
	?staticMetaObject@QCameraExposureControl@QtMobility@@2UQMetaObject@@B @ 1100 NONAME ; struct QMetaObject const QtMobility::QCameraExposureControl::staticMetaObject
	?staticMetaObject@QLocalMediaPlaylistProvider@QtMobility@@2UQMetaObject@@B @ 1101 NONAME ; struct QMetaObject const QtMobility::QLocalMediaPlaylistProvider::staticMetaObject
	?staticMetaObject@QAudioEncoderControl@QtMobility@@2UQMetaObject@@B @ 1102 NONAME ; struct QMetaObject const QtMobility::QAudioEncoderControl::staticMetaObject
	?staticMetaObject@QVideoRendererControl@QtMobility@@2UQMetaObject@@B @ 1103 NONAME ; struct QMetaObject const QtMobility::QVideoRendererControl::staticMetaObject
	?staticMetaObject@QMetaDataControl@QtMobility@@2UQMetaObject@@B @ 1104 NONAME ; struct QMetaObject const QtMobility::QMetaDataControl::staticMetaObject
	?staticMetaObject@QMediaRecorderControl@QtMobility@@2UQMetaObject@@B @ 1105 NONAME ; struct QMetaObject const QtMobility::QMediaRecorderControl::staticMetaObject
	?staticMetaObject@QMediaImageViewer@QtMobility@@2UQMetaObject@@B @ 1106 NONAME ; struct QMetaObject const QtMobility::QMediaImageViewer::staticMetaObject
	?staticMetaObject@QVideoWidgetControl@QtMobility@@2UQMetaObject@@B @ 1107 NONAME ; struct QMetaObject const QtMobility::QVideoWidgetControl::staticMetaObject
	?staticMetaObject@QCameraFocusControl@QtMobility@@2UQMetaObject@@B @ 1108 NONAME ; struct QMetaObject const QtMobility::QCameraFocusControl::staticMetaObject
	?staticMetaObject@QMediaPlaylistIOPlugin@QtMobility@@2UQMetaObject@@B @ 1109 NONAME ; struct QMetaObject const QtMobility::QMediaPlaylistIOPlugin::staticMetaObject
	?staticMetaObject@QMediaStreamsControl@QtMobility@@2UQMetaObject@@B @ 1110 NONAME ; struct QMetaObject const QtMobility::QMediaStreamsControl::staticMetaObject
	?staticMetaObject@QMediaPlayer@QtMobility@@2UQMetaObject@@B @ 1111 NONAME ; struct QMetaObject const QtMobility::QMediaPlayer::staticMetaObject
	?staticMetaObject@QCameraControl@QtMobility@@2UQMetaObject@@B @ 1112 NONAME ; struct QMetaObject const QtMobility::QCameraControl::staticMetaObject
	?staticMetaObject@QCamera@QtMobility@@2UQMetaObject@@B @ 1113 NONAME ; struct QMetaObject const QtMobility::QCamera::staticMetaObject
	?staticMetaObject@QVideoWindowControl@QtMobility@@2UQMetaObject@@B @ 1114 NONAME ; struct QMetaObject const QtMobility::QVideoWindowControl::staticMetaObject
	?staticMetaObject@QMediaControl@QtMobility@@2UQMetaObject@@B @ 1115 NONAME ; struct QMetaObject const QtMobility::QMediaControl::staticMetaObject
	?staticMetaObject@QImageEncoderControl@QtMobility@@2UQMetaObject@@B @ 1116 NONAME ; struct QMetaObject const QtMobility::QImageEncoderControl::staticMetaObject
	?staticMetaObject@QMediaPlaylistNavigator@QtMobility@@2UQMetaObject@@B @ 1117 NONAME ; struct QMetaObject const QtMobility::QMediaPlaylistNavigator::staticMetaObject
	?staticMetaObject@QAudioCaptureSource@QtMobility@@2UQMetaObject@@B @ 1118 NONAME ; struct QMetaObject const QtMobility::QAudioCaptureSource::staticMetaObject
	?staticMetaObject@QRadioTunerControl@QtMobility@@2UQMetaObject@@B @ 1119 NONAME ; struct QMetaObject const QtMobility::QRadioTunerControl::staticMetaObject
	?staticMetaObject@QMediaPlaylistControl@QtMobility@@2UQMetaObject@@B @ 1120 NONAME ; struct QMetaObject const QtMobility::QMediaPlaylistControl::staticMetaObject
	?staticMetaObject@QVideoDeviceControl@QtMobility@@2UQMetaObject@@B @ 1121 NONAME ; struct QMetaObject const QtMobility::QVideoDeviceControl::staticMetaObject
	?staticMetaObject@QMediaContainerControl@QtMobility@@2UQMetaObject@@B @ 1122 NONAME ; struct QMetaObject const QtMobility::QMediaContainerControl::staticMetaObject
	?staticMetaObject@QRadioTuner@QtMobility@@2UQMetaObject@@B @ 1123 NONAME ; struct QMetaObject const QtMobility::QRadioTuner::staticMetaObject
	?staticMetaObject@QMediaRecorder@QtMobility@@2UQMetaObject@@B @ 1124 NONAME ; struct QMetaObject const QtMobility::QMediaRecorder::staticMetaObject
	?staticMetaObject@QMediaPlayerControl@QtMobility@@2UQMetaObject@@B @ 1125 NONAME ; struct QMetaObject const QtMobility::QMediaPlayerControl::staticMetaObject
	?staticMetaObject@QMediaServiceProviderPlugin@QtMobility@@2UQMetaObject@@B @ 1126 NONAME ; struct QMetaObject const QtMobility::QMediaServiceProviderPlugin::staticMetaObject
	?staticMetaObject@QMediaServiceProvider@QtMobility@@2UQMetaObject@@B @ 1127 NONAME ; struct QMetaObject const QtMobility::QMediaServiceProvider::staticMetaObject
	?staticMetaObject@QVideoOutputControl@QtMobility@@2UQMetaObject@@B @ 1128 NONAME ; struct QMetaObject const QtMobility::QVideoOutputControl::staticMetaObject
	?staticMetaObject@QMediaPlaylist@QtMobility@@2UQMetaObject@@B @ 1129 NONAME ; struct QMetaObject const QtMobility::QMediaPlaylist::staticMetaObject
	?staticMetaObject@QMediaService@QtMobility@@2UQMetaObject@@B @ 1130 NONAME ; struct QMetaObject const QtMobility::QMediaService::staticMetaObject
	?staticMetaObject@QMediaObject@QtMobility@@2UQMetaObject@@B @ 1131 NONAME ; struct QMetaObject const QtMobility::QMediaObject::staticMetaObject
	?staticMetaObject@QVideoEncoderControl@QtMobility@@2UQMetaObject@@B @ 1132 NONAME ; struct QMetaObject const QtMobility::QVideoEncoderControl::staticMetaObject
	?staticMetaObject@QAudioEndpointSelector@QtMobility@@2UQMetaObject@@B @ 1133 NONAME ; struct QMetaObject const QtMobility::QAudioEndpointSelector::staticMetaObject
	?staticMetaObject@QGraphicsVideoItem@QtMobility@@2UQMetaObject@@B @ 1134 NONAME ; struct QMetaObject const QtMobility::QGraphicsVideoItem::staticMetaObject
	?staticMetaObject@QVideoWidget@QtMobility@@2UQMetaObject@@B @ 1135 NONAME ; struct QMetaObject const QtMobility::QVideoWidget::staticMetaObject

