EXPORTS
	??0QAbstractVideoBuffer@@IAE@AAVQAbstractVideoBufferPrivate@@W4HandleType@0@@Z @ 1 NONAME ; QAbstractVideoBuffer::QAbstractVideoBuffer(class QAbstractVideoBufferPrivate &, enum QAbstractVideoBuffer::HandleType)
	??0QAbstractVideoBuffer@@QAE@W4HandleType@0@@Z @ 2 NONAME ; QAbstractVideoBuffer::QAbstractVideoBuffer(enum QAbstractVideoBuffer::HandleType)
	??0QAbstractVideoSurface@@IAE@AAVQAbstractVideoSurfacePrivate@@PAVQObject@@@Z @ 3 NONAME ; QAbstractVideoSurface::QAbstractVideoSurface(class QAbstractVideoSurfacePrivate &, class QObject *)
	??0QAbstractVideoSurface@@QAE@PAVQObject@@@Z @ 4 NONAME ; QAbstractVideoSurface::QAbstractVideoSurface(class QObject *)
	??0QAudioDeviceInfo@@AAE@ABVQString@@ABVQByteArray@@W4Mode@QAudio@@@Z @ 5 NONAME ; QAudioDeviceInfo::QAudioDeviceInfo(class QString const &, class QByteArray const &, enum QAudio::Mode)
	??0QAudioDeviceInfo@@QAE@ABV0@@Z @ 6 NONAME ; QAudioDeviceInfo::QAudioDeviceInfo(class QAudioDeviceInfo const &)
	??0QAudioDeviceInfo@@QAE@XZ @ 7 NONAME ; QAudioDeviceInfo::QAudioDeviceInfo(void)
	??0QAudioEnginePlugin@@QAE@PAVQObject@@@Z @ 8 NONAME ABSENT ; QAudioEnginePlugin::QAudioEnginePlugin(class QObject *)
	??0QAudioFormat@@QAE@ABV0@@Z @ 9 NONAME ; QAudioFormat::QAudioFormat(class QAudioFormat const &)
	??0QAudioFormat@@QAE@XZ @ 10 NONAME ; QAudioFormat::QAudioFormat(void)
	??0QAudioInput@@QAE@ABVQAudioDeviceInfo@@ABVQAudioFormat@@PAVQObject@@@Z @ 11 NONAME ; QAudioInput::QAudioInput(class QAudioDeviceInfo const &, class QAudioFormat const &, class QObject *)
	??0QAudioInput@@QAE@ABVQAudioFormat@@PAVQObject@@@Z @ 12 NONAME ; QAudioInput::QAudioInput(class QAudioFormat const &, class QObject *)
	??0QAudioOutput@@QAE@ABVQAudioDeviceInfo@@ABVQAudioFormat@@PAVQObject@@@Z @ 13 NONAME ; QAudioOutput::QAudioOutput(class QAudioDeviceInfo const &, class QAudioFormat const &, class QObject *)
	??0QAudioOutput@@QAE@ABVQAudioFormat@@PAVQObject@@@Z @ 14 NONAME ; QAudioOutput::QAudioOutput(class QAudioFormat const &, class QObject *)
	??0QImageVideoBuffer@@QAE@ABVQImage@@@Z @ 15 NONAME ; QImageVideoBuffer::QImageVideoBuffer(class QImage const &)
	??0QMemoryVideoBuffer@@QAE@ABVQByteArray@@H@Z @ 16 NONAME ; QMemoryVideoBuffer::QMemoryVideoBuffer(class QByteArray const &, int)
	??0QVideoFrame@@QAE@ABV0@@Z @ 17 NONAME ; QVideoFrame::QVideoFrame(class QVideoFrame const &)
	??0QVideoFrame@@QAE@ABVQImage@@@Z @ 18 NONAME ; QVideoFrame::QVideoFrame(class QImage const &)
	??0QVideoFrame@@QAE@HABVQSize@@HW4PixelFormat@0@@Z @ 19 NONAME ; QVideoFrame::QVideoFrame(int, class QSize const &, int, enum QVideoFrame::PixelFormat)
	??0QVideoFrame@@QAE@PAVQAbstractVideoBuffer@@ABVQSize@@W4PixelFormat@0@@Z @ 20 NONAME ; QVideoFrame::QVideoFrame(class QAbstractVideoBuffer *, class QSize const &, enum QVideoFrame::PixelFormat)
	??0QVideoFrame@@QAE@XZ @ 21 NONAME ; QVideoFrame::QVideoFrame(void)
	??0QVideoSurfaceFormat@@QAE@ABV0@@Z @ 22 NONAME ; QVideoSurfaceFormat::QVideoSurfaceFormat(class QVideoSurfaceFormat const &)
	??0QVideoSurfaceFormat@@QAE@ABVQSize@@W4PixelFormat@QVideoFrame@@W4HandleType@QAbstractVideoBuffer@@@Z @ 23 NONAME ; QVideoSurfaceFormat::QVideoSurfaceFormat(class QSize const &, enum QVideoFrame::PixelFormat, enum QAbstractVideoBuffer::HandleType)
	??0QVideoSurfaceFormat@@QAE@XZ @ 24 NONAME ; QVideoSurfaceFormat::QVideoSurfaceFormat(void)
	??1QAbstractAudioDeviceInfo@@UAE@XZ @ 25 NONAME ; QAbstractAudioDeviceInfo::~QAbstractAudioDeviceInfo(void)
	??1QAbstractAudioInput@@UAE@XZ @ 26 NONAME ; QAbstractAudioInput::~QAbstractAudioInput(void)
	??1QAbstractAudioOutput@@UAE@XZ @ 27 NONAME ; QAbstractAudioOutput::~QAbstractAudioOutput(void)
	??1QAbstractVideoBuffer@@UAE@XZ @ 28 NONAME ; QAbstractVideoBuffer::~QAbstractVideoBuffer(void)
	??1QAbstractVideoSurface@@UAE@XZ @ 29 NONAME ; QAbstractVideoSurface::~QAbstractVideoSurface(void)
	??1QAudioDeviceInfo@@QAE@XZ @ 30 NONAME ; QAudioDeviceInfo::~QAudioDeviceInfo(void)
	??1QAudioEngineFactoryInterface@@UAE@XZ @ 31 NONAME ABSENT ; QAudioEngineFactoryInterface::~QAudioEngineFactoryInterface(void)
	??1QAudioEnginePlugin@@UAE@XZ @ 32 NONAME ABSENT ; QAudioEnginePlugin::~QAudioEnginePlugin(void)
	??1QAudioFormat@@QAE@XZ @ 33 NONAME ; QAudioFormat::~QAudioFormat(void)
	??1QAudioInput@@UAE@XZ @ 34 NONAME ; QAudioInput::~QAudioInput(void)
	??1QAudioOutput@@UAE@XZ @ 35 NONAME ; QAudioOutput::~QAudioOutput(void)
	??1QImageVideoBuffer@@UAE@XZ @ 36 NONAME ; QImageVideoBuffer::~QImageVideoBuffer(void)
	??1QMemoryVideoBuffer@@UAE@XZ @ 37 NONAME ; QMemoryVideoBuffer::~QMemoryVideoBuffer(void)
	??1QVideoFrame@@QAE@XZ @ 38 NONAME ; QVideoFrame::~QVideoFrame(void)
	??1QVideoSurfaceFormat@@QAE@XZ @ 39 NONAME ; QVideoSurfaceFormat::~QVideoSurfaceFormat(void)
	??4QAudioDeviceInfo@@QAEAAV0@ABV0@@Z @ 40 NONAME ; class QAudioDeviceInfo & QAudioDeviceInfo::operator=(class QAudioDeviceInfo const &)
	??4QAudioFormat@@QAEAAV0@ABV0@@Z @ 41 NONAME ; class QAudioFormat & QAudioFormat::operator=(class QAudioFormat const &)
	??4QVideoFrame@@QAEAAV0@ABV0@@Z @ 42 NONAME ; class QVideoFrame & QVideoFrame::operator=(class QVideoFrame const &)
	??4QVideoSurfaceFormat@@QAEAAV0@ABV0@@Z @ 43 NONAME ; class QVideoSurfaceFormat & QVideoSurfaceFormat::operator=(class QVideoSurfaceFormat const &)
	??6@YA?AVQDebug@@V0@ABVQVideoSurfaceFormat@@@Z @ 44 NONAME ; class QDebug operator<<(class QDebug, class QVideoSurfaceFormat const &)
	??8QAudioFormat@@QBE_NABV0@@Z @ 45 NONAME ; bool QAudioFormat::operator==(class QAudioFormat const &) const
	??8QVideoSurfaceFormat@@QBE_NABV0@@Z @ 46 NONAME ; bool QVideoSurfaceFormat::operator==(class QVideoSurfaceFormat const &) const
	??9QAudioFormat@@QBE_NABV0@@Z @ 47 NONAME ; bool QAudioFormat::operator!=(class QAudioFormat const &) const
	??9QVideoSurfaceFormat@@QBE_NABV0@@Z @ 48 NONAME ; bool QVideoSurfaceFormat::operator!=(class QVideoSurfaceFormat const &) const
	??_EQAbstractAudioDeviceInfo@@UAE@I@Z @ 49 NONAME ; QAbstractAudioDeviceInfo::~QAbstractAudioDeviceInfo(unsigned int)
	??_EQAbstractAudioInput@@UAE@I@Z @ 50 NONAME ; QAbstractAudioInput::~QAbstractAudioInput(unsigned int)
	??_EQAbstractAudioOutput@@UAE@I@Z @ 51 NONAME ; QAbstractAudioOutput::~QAbstractAudioOutput(unsigned int)
	??_EQAbstractVideoBuffer@@UAE@I@Z @ 52 NONAME ; QAbstractVideoBuffer::~QAbstractVideoBuffer(unsigned int)
	??_EQAbstractVideoSurface@@UAE@I@Z @ 53 NONAME ; QAbstractVideoSurface::~QAbstractVideoSurface(unsigned int)
	??_EQAudioEngineFactoryInterface@@UAE@I@Z @ 54 NONAME ABSENT ; QAudioEngineFactoryInterface::~QAudioEngineFactoryInterface(unsigned int)
	??_EQAudioEnginePlugin@@UAE@I@Z @ 55 NONAME ABSENT ; QAudioEnginePlugin::~QAudioEnginePlugin(unsigned int)
	??_EQAudioInput@@UAE@I@Z @ 56 NONAME ; QAudioInput::~QAudioInput(unsigned int)
	??_EQAudioOutput@@UAE@I@Z @ 57 NONAME ; QAudioOutput::~QAudioOutput(unsigned int)
	??_EQImageVideoBuffer@@UAE@I@Z @ 58 NONAME ; QImageVideoBuffer::~QImageVideoBuffer(unsigned int)
	??_EQMemoryVideoBuffer@@UAE@I@Z @ 59 NONAME ; QMemoryVideoBuffer::~QMemoryVideoBuffer(unsigned int)
	?activeChanged@QAbstractVideoSurface@@IAEX_N@Z @ 60 NONAME ; void QAbstractVideoSurface::activeChanged(bool)
	?availableDevices@QAudioDeviceInfo@@SA?AV?$QList@VQAudioDeviceInfo@@@@W4Mode@QAudio@@@Z @ 61 NONAME ; class QList<class QAudioDeviceInfo> QAudioDeviceInfo::availableDevices(enum QAudio::Mode)
	?bits@QVideoFrame@@QAEPAEXZ @ 62 NONAME ; unsigned char * QVideoFrame::bits(void)
	?bits@QVideoFrame@@QBEPBEXZ @ 63 NONAME ; unsigned char const * QVideoFrame::bits(void) const
	?bufferSize@QAudioInput@@QBEHXZ @ 64 NONAME ; int QAudioInput::bufferSize(void) const
	?bufferSize@QAudioOutput@@QBEHXZ @ 65 NONAME ; int QAudioOutput::bufferSize(void) const
	?byteOrder@QAudioFormat@@QBE?AW4Endian@1@XZ @ 66 NONAME ; enum QAudioFormat::Endian QAudioFormat::byteOrder(void) const
	?bytesFree@QAudioOutput@@QBEHXZ @ 67 NONAME ; int QAudioOutput::bytesFree(void) const
	?bytesPerLine@QVideoFrame@@QBEHXZ @ 68 NONAME ; int QVideoFrame::bytesPerLine(void) const
	?bytesReady@QAudioInput@@QBEHXZ @ 69 NONAME ; int QAudioInput::bytesReady(void) const
	?channels@QAudioFormat@@QBEHXZ @ 70 NONAME ; int QAudioFormat::channels(void) const
	?codec@QAudioFormat@@QBE?AVQString@@XZ @ 71 NONAME ; class QString QAudioFormat::codec(void) const
	?d_func@QAbstractVideoBuffer@@AAEPAVQAbstractVideoBufferPrivate@@XZ @ 72 NONAME ; class QAbstractVideoBufferPrivate * QAbstractVideoBuffer::d_func(void)
	?d_func@QAbstractVideoBuffer@@ABEPBVQAbstractVideoBufferPrivate@@XZ @ 73 NONAME ; class QAbstractVideoBufferPrivate const * QAbstractVideoBuffer::d_func(void) const
	?d_func@QAbstractVideoSurface@@AAEPAVQAbstractVideoSurfacePrivate@@XZ @ 74 NONAME ; class QAbstractVideoSurfacePrivate * QAbstractVideoSurface::d_func(void)
	?d_func@QAbstractVideoSurface@@ABEPBVQAbstractVideoSurfacePrivate@@XZ @ 75 NONAME ; class QAbstractVideoSurfacePrivate const * QAbstractVideoSurface::d_func(void) const
	?d_func@QImageVideoBuffer@@AAEPAVQImageVideoBufferPrivate@@XZ @ 76 NONAME ; class QImageVideoBufferPrivate * QImageVideoBuffer::d_func(void)
	?d_func@QImageVideoBuffer@@ABEPBVQImageVideoBufferPrivate@@XZ @ 77 NONAME ; class QImageVideoBufferPrivate const * QImageVideoBuffer::d_func(void) const
	?d_func@QMemoryVideoBuffer@@AAEPAVQMemoryVideoBufferPrivate@@XZ @ 78 NONAME ; class QMemoryVideoBufferPrivate * QMemoryVideoBuffer::d_func(void)
	?d_func@QMemoryVideoBuffer@@ABEPBVQMemoryVideoBufferPrivate@@XZ @ 79 NONAME ; class QMemoryVideoBufferPrivate const * QMemoryVideoBuffer::d_func(void) const
	?defaultInputDevice@QAudioDeviceInfo@@SA?AV1@XZ @ 80 NONAME ; class QAudioDeviceInfo QAudioDeviceInfo::defaultInputDevice(void)
	?defaultOutputDevice@QAudioDeviceInfo@@SA?AV1@XZ @ 81 NONAME ; class QAudioDeviceInfo QAudioDeviceInfo::defaultOutputDevice(void)
	?deviceName@QAudioDeviceInfo@@QBE?AVQString@@XZ @ 82 NONAME ; class QString QAudioDeviceInfo::deviceName(void) const
	?elapsedUSecs@QAudioInput@@QBE_JXZ @ 83 NONAME ; long long QAudioInput::elapsedUSecs(void) const
	?elapsedUSecs@QAudioOutput@@QBE_JXZ @ 84 NONAME ; long long QAudioOutput::elapsedUSecs(void) const
	?endTime@QVideoFrame@@QBE_JXZ @ 85 NONAME ; long long QVideoFrame::endTime(void) const
	?error@QAbstractVideoSurface@@QBE?AW4Error@1@XZ @ 86 NONAME ; enum QAbstractVideoSurface::Error QAbstractVideoSurface::error(void) const
	?error@QAudioInput@@QBE?AW4Error@QAudio@@XZ @ 87 NONAME ; enum QAudio::Error QAudioInput::error(void) const
	?error@QAudioOutput@@QBE?AW4Error@QAudio@@XZ @ 88 NONAME ; enum QAudio::Error QAudioOutput::error(void) const
	?fieldType@QVideoFrame@@QBE?AW4FieldType@1@XZ @ 89 NONAME ; enum QVideoFrame::FieldType QVideoFrame::fieldType(void) const
	?format@QAudioInput@@QBE?AVQAudioFormat@@XZ @ 90 NONAME ; class QAudioFormat QAudioInput::format(void) const
	?format@QAudioOutput@@QBE?AVQAudioFormat@@XZ @ 91 NONAME ; class QAudioFormat QAudioOutput::format(void) const
	?frameHeight@QVideoSurfaceFormat@@QBEHXZ @ 92 NONAME ; int QVideoSurfaceFormat::frameHeight(void) const
	?frameRate@QVideoSurfaceFormat@@QBEMXZ @ 93 NONAME ; float QVideoSurfaceFormat::frameRate(void) const
	?frameSize@QVideoSurfaceFormat@@QBE?AVQSize@@XZ @ 94 NONAME ; class QSize QVideoSurfaceFormat::frameSize(void) const
	?frameWidth@QVideoSurfaceFormat@@QBEHXZ @ 95 NONAME ; int QVideoSurfaceFormat::frameWidth(void) const
	?frequency@QAudioFormat@@QBEHXZ @ 96 NONAME ; int QAudioFormat::frequency(void) const
	?getStaticMetaObject@QAbstractAudioDeviceInfo@@SAABUQMetaObject@@XZ @ 97 NONAME ; struct QMetaObject const & QAbstractAudioDeviceInfo::getStaticMetaObject(void)
	?getStaticMetaObject@QAbstractAudioInput@@SAABUQMetaObject@@XZ @ 98 NONAME ; struct QMetaObject const & QAbstractAudioInput::getStaticMetaObject(void)
	?getStaticMetaObject@QAbstractAudioOutput@@SAABUQMetaObject@@XZ @ 99 NONAME ; struct QMetaObject const & QAbstractAudioOutput::getStaticMetaObject(void)
	?getStaticMetaObject@QAbstractVideoSurface@@SAABUQMetaObject@@XZ @ 100 NONAME ; struct QMetaObject const & QAbstractVideoSurface::getStaticMetaObject(void)
	?getStaticMetaObject@QAudioEnginePlugin@@SAABUQMetaObject@@XZ @ 101 NONAME ABSENT ; struct QMetaObject const & QAudioEnginePlugin::getStaticMetaObject(void)
	?getStaticMetaObject@QAudioInput@@SAABUQMetaObject@@XZ @ 102 NONAME ; struct QMetaObject const & QAudioInput::getStaticMetaObject(void)
	?getStaticMetaObject@QAudioOutput@@SAABUQMetaObject@@XZ @ 103 NONAME ; struct QMetaObject const & QAudioOutput::getStaticMetaObject(void)
	?handle@QAbstractVideoBuffer@@UBE?AVQVariant@@XZ @ 104 NONAME ; class QVariant QAbstractVideoBuffer::handle(void) const
	?handle@QAudioDeviceInfo@@ABE?AVQByteArray@@XZ @ 105 NONAME ; class QByteArray QAudioDeviceInfo::handle(void) const
	?handle@QVideoFrame@@QBE?AVQVariant@@XZ @ 106 NONAME ; class QVariant QVideoFrame::handle(void) const
	?handleType@QAbstractVideoBuffer@@QBE?AW4HandleType@1@XZ @ 107 NONAME ; enum QAbstractVideoBuffer::HandleType QAbstractVideoBuffer::handleType(void) const
	?handleType@QVideoFrame@@QBE?AW4HandleType@QAbstractVideoBuffer@@XZ @ 108 NONAME ; enum QAbstractVideoBuffer::HandleType QVideoFrame::handleType(void) const
	?handleType@QVideoSurfaceFormat@@QBE?AW4HandleType@QAbstractVideoBuffer@@XZ @ 109 NONAME ; enum QAbstractVideoBuffer::HandleType QVideoSurfaceFormat::handleType(void) const
	?height@QVideoFrame@@QBEHXZ @ 110 NONAME ; int QVideoFrame::height(void) const
	?imageFormatFromPixelFormat@QVideoFrame@@SA?AW4Format@QImage@@W4PixelFormat@1@@Z @ 111 NONAME ; enum QImage::Format QVideoFrame::imageFormatFromPixelFormat(enum QVideoFrame::PixelFormat)
	?isActive@QAbstractVideoSurface@@QBE_NXZ @ 112 NONAME ; bool QAbstractVideoSurface::isActive(void) const
	?isFormatSupported@QAbstractVideoSurface@@UBE_NABVQVideoSurfaceFormat@@@Z @ 113 NONAME ; bool QAbstractVideoSurface::isFormatSupported(class QVideoSurfaceFormat const &) const
	?isFormatSupported@QAudioDeviceInfo@@QBE_NABVQAudioFormat@@@Z @ 114 NONAME ; bool QAudioDeviceInfo::isFormatSupported(class QAudioFormat const &) const
	?isMapped@QVideoFrame@@QBE_NXZ @ 115 NONAME ; bool QVideoFrame::isMapped(void) const
	?isNull@QAudioDeviceInfo@@QBE_NXZ @ 116 NONAME ; bool QAudioDeviceInfo::isNull(void) const
	?isReadable@QVideoFrame@@QBE_NXZ @ 117 NONAME ; bool QVideoFrame::isReadable(void) const
	?isValid@QAudioFormat@@QBE_NXZ @ 118 NONAME ; bool QAudioFormat::isValid(void) const
	?isValid@QVideoFrame@@QBE_NXZ @ 119 NONAME ; bool QVideoFrame::isValid(void) const
	?isValid@QVideoSurfaceFormat@@QBE_NXZ @ 120 NONAME ; bool QVideoSurfaceFormat::isValid(void) const
	?isWritable@QVideoFrame@@QBE_NXZ @ 121 NONAME ; bool QVideoFrame::isWritable(void) const
	?map@QImageVideoBuffer@@UAEPAEW4MapMode@QAbstractVideoBuffer@@PAH1@Z @ 122 NONAME ; unsigned char * QImageVideoBuffer::map(enum QAbstractVideoBuffer::MapMode, int *, int *)
	?map@QMemoryVideoBuffer@@UAEPAEW4MapMode@QAbstractVideoBuffer@@PAH1@Z @ 123 NONAME ; unsigned char * QMemoryVideoBuffer::map(enum QAbstractVideoBuffer::MapMode, int *, int *)
	?map@QVideoFrame@@QAE_NW4MapMode@QAbstractVideoBuffer@@@Z @ 124 NONAME ; bool QVideoFrame::map(enum QAbstractVideoBuffer::MapMode)
	?mapMode@QImageVideoBuffer@@UBE?AW4MapMode@QAbstractVideoBuffer@@XZ @ 125 NONAME ; enum QAbstractVideoBuffer::MapMode QImageVideoBuffer::mapMode(void) const
	?mapMode@QMemoryVideoBuffer@@UBE?AW4MapMode@QAbstractVideoBuffer@@XZ @ 126 NONAME ; enum QAbstractVideoBuffer::MapMode QMemoryVideoBuffer::mapMode(void) const
	?mapMode@QVideoFrame@@QBE?AW4MapMode@QAbstractVideoBuffer@@XZ @ 127 NONAME ; enum QAbstractVideoBuffer::MapMode QVideoFrame::mapMode(void) const
	?mappedBytes@QVideoFrame@@QBEHXZ @ 128 NONAME ; int QVideoFrame::mappedBytes(void) const
	?metaObject@QAbstractAudioDeviceInfo@@UBEPBUQMetaObject@@XZ @ 129 NONAME ; struct QMetaObject const * QAbstractAudioDeviceInfo::metaObject(void) const
	?metaObject@QAbstractAudioInput@@UBEPBUQMetaObject@@XZ @ 130 NONAME ; struct QMetaObject const * QAbstractAudioInput::metaObject(void) const
	?metaObject@QAbstractAudioOutput@@UBEPBUQMetaObject@@XZ @ 131 NONAME ; struct QMetaObject const * QAbstractAudioOutput::metaObject(void) const
	?metaObject@QAbstractVideoSurface@@UBEPBUQMetaObject@@XZ @ 132 NONAME ; struct QMetaObject const * QAbstractVideoSurface::metaObject(void) const
	?metaObject@QAudioEnginePlugin@@UBEPBUQMetaObject@@XZ @ 133 NONAME ABSENT ; struct QMetaObject const * QAudioEnginePlugin::metaObject(void) const
	?metaObject@QAudioInput@@UBEPBUQMetaObject@@XZ @ 134 NONAME ; struct QMetaObject const * QAudioInput::metaObject(void) const
	?metaObject@QAudioOutput@@UBEPBUQMetaObject@@XZ @ 135 NONAME ; struct QMetaObject const * QAudioOutput::metaObject(void) const
	?mode@QAudioDeviceInfo@@ABE?AW4Mode@QAudio@@XZ @ 136 NONAME ; enum QAudio::Mode QAudioDeviceInfo::mode(void) const
	?nearestFormat@QAbstractVideoSurface@@UBE?AVQVideoSurfaceFormat@@ABV2@@Z @ 137 NONAME ; class QVideoSurfaceFormat QAbstractVideoSurface::nearestFormat(class QVideoSurfaceFormat const &) const
	?nearestFormat@QAudioDeviceInfo@@QBE?AVQAudioFormat@@ABV2@@Z @ 138 NONAME ; class QAudioFormat QAudioDeviceInfo::nearestFormat(class QAudioFormat const &) const
	?notify@QAbstractAudioInput@@IAEXXZ @ 139 NONAME ; void QAbstractAudioInput::notify(void)
	?notify@QAbstractAudioOutput@@IAEXXZ @ 140 NONAME ; void QAbstractAudioOutput::notify(void)
	?notify@QAudioInput@@IAEXXZ @ 141 NONAME ; void QAudioInput::notify(void)
	?notify@QAudioOutput@@IAEXXZ @ 142 NONAME ; void QAudioOutput::notify(void)
	?notifyInterval@QAudioInput@@QBEHXZ @ 143 NONAME ; int QAudioInput::notifyInterval(void) const
	?notifyInterval@QAudioOutput@@QBEHXZ @ 144 NONAME ; int QAudioOutput::notifyInterval(void) const
	?periodSize@QAudioInput@@QBEHXZ @ 145 NONAME ; int QAudioInput::periodSize(void) const
	?periodSize@QAudioOutput@@QBEHXZ @ 146 NONAME ; int QAudioOutput::periodSize(void) const
	?pixelAspectRatio@QVideoSurfaceFormat@@QBE?AVQSize@@XZ @ 147 NONAME ; class QSize QVideoSurfaceFormat::pixelAspectRatio(void) const
	?pixelFormat@QVideoFrame@@QBE?AW4PixelFormat@1@XZ @ 148 NONAME ; enum QVideoFrame::PixelFormat QVideoFrame::pixelFormat(void) const
	?pixelFormat@QVideoSurfaceFormat@@QBE?AW4PixelFormat@QVideoFrame@@XZ @ 149 NONAME ; enum QVideoFrame::PixelFormat QVideoSurfaceFormat::pixelFormat(void) const
	?pixelFormatFromImageFormat@QVideoFrame@@SA?AW4PixelFormat@1@W4Format@QImage@@@Z @ 150 NONAME ; enum QVideoFrame::PixelFormat QVideoFrame::pixelFormatFromImageFormat(enum QImage::Format)
	?preferredFormat@QAudioDeviceInfo@@QBE?AVQAudioFormat@@XZ @ 151 NONAME ; class QAudioFormat QAudioDeviceInfo::preferredFormat(void) const
	?processedUSecs@QAudioInput@@QBE_JXZ @ 152 NONAME ; long long QAudioInput::processedUSecs(void) const
	?processedUSecs@QAudioOutput@@QBE_JXZ @ 153 NONAME ; long long QAudioOutput::processedUSecs(void) const
	?property@QVideoSurfaceFormat@@QBE?AVQVariant@@PBD@Z @ 154 NONAME ; class QVariant QVideoSurfaceFormat::property(char const *) const
	?propertyNames@QVideoSurfaceFormat@@QBE?AV?$QList@VQByteArray@@@@XZ @ 155 NONAME ; class QList<class QByteArray> QVideoSurfaceFormat::propertyNames(void) const
	?qt_metacall@QAbstractAudioDeviceInfo@@UAEHW4Call@QMetaObject@@HPAPAX@Z @ 156 NONAME ; int QAbstractAudioDeviceInfo::qt_metacall(enum QMetaObject::Call, int, void * *)
	?qt_metacall@QAbstractAudioInput@@UAEHW4Call@QMetaObject@@HPAPAX@Z @ 157 NONAME ; int QAbstractAudioInput::qt_metacall(enum QMetaObject::Call, int, void * *)
	?qt_metacall@QAbstractAudioOutput@@UAEHW4Call@QMetaObject@@HPAPAX@Z @ 158 NONAME ; int QAbstractAudioOutput::qt_metacall(enum QMetaObject::Call, int, void * *)
	?qt_metacall@QAbstractVideoSurface@@UAEHW4Call@QMetaObject@@HPAPAX@Z @ 159 NONAME ; int QAbstractVideoSurface::qt_metacall(enum QMetaObject::Call, int, void * *)
	?qt_metacall@QAudioEnginePlugin@@UAEHW4Call@QMetaObject@@HPAPAX@Z @ 160 NONAME ABSENT ; int QAudioEnginePlugin::qt_metacall(enum QMetaObject::Call, int, void * *)
	?qt_metacall@QAudioInput@@UAEHW4Call@QMetaObject@@HPAPAX@Z @ 161 NONAME ; int QAudioInput::qt_metacall(enum QMetaObject::Call, int, void * *)
	?qt_metacall@QAudioOutput@@UAEHW4Call@QMetaObject@@HPAPAX@Z @ 162 NONAME ; int QAudioOutput::qt_metacall(enum QMetaObject::Call, int, void * *)
	?qt_metacast@QAbstractAudioDeviceInfo@@UAEPAXPBD@Z @ 163 NONAME ; void * QAbstractAudioDeviceInfo::qt_metacast(char const *)
	?qt_metacast@QAbstractAudioInput@@UAEPAXPBD@Z @ 164 NONAME ; void * QAbstractAudioInput::qt_metacast(char const *)
	?qt_metacast@QAbstractAudioOutput@@UAEPAXPBD@Z @ 165 NONAME ; void * QAbstractAudioOutput::qt_metacast(char const *)
	?qt_metacast@QAbstractVideoSurface@@UAEPAXPBD@Z @ 166 NONAME ; void * QAbstractVideoSurface::qt_metacast(char const *)
	?qt_metacast@QAudioEnginePlugin@@UAEPAXPBD@Z @ 167 NONAME ABSENT ; void * QAudioEnginePlugin::qt_metacast(char const *)
	?qt_metacast@QAudioInput@@UAEPAXPBD@Z @ 168 NONAME ; void * QAudioInput::qt_metacast(char const *)
	?qt_metacast@QAudioOutput@@UAEPAXPBD@Z @ 169 NONAME ; void * QAudioOutput::qt_metacast(char const *)
	?realm@QAudioDeviceInfo@@ABE?AVQString@@XZ @ 170 NONAME ; class QString QAudioDeviceInfo::realm(void) const
	?reset@QAudioInput@@QAEXXZ @ 171 NONAME ; void QAudioInput::reset(void)
	?reset@QAudioOutput@@QAEXXZ @ 172 NONAME ; void QAudioOutput::reset(void)
	?resume@QAudioInput@@QAEXXZ @ 173 NONAME ; void QAudioInput::resume(void)
	?resume@QAudioOutput@@QAEXXZ @ 174 NONAME ; void QAudioOutput::resume(void)
	?sampleSize@QAudioFormat@@QBEHXZ @ 175 NONAME ; int QAudioFormat::sampleSize(void) const
	?sampleType@QAudioFormat@@QBE?AW4SampleType@1@XZ @ 176 NONAME ; enum QAudioFormat::SampleType QAudioFormat::sampleType(void) const
	?scanLineDirection@QVideoSurfaceFormat@@QBE?AW4Direction@1@XZ @ 177 NONAME ; enum QVideoSurfaceFormat::Direction QVideoSurfaceFormat::scanLineDirection(void) const
	?setBufferSize@QAudioInput@@QAEXH@Z @ 178 NONAME ; void QAudioInput::setBufferSize(int)
	?setBufferSize@QAudioOutput@@QAEXH@Z @ 179 NONAME ; void QAudioOutput::setBufferSize(int)
	?setByteOrder@QAudioFormat@@QAEXW4Endian@1@@Z @ 180 NONAME ; void QAudioFormat::setByteOrder(enum QAudioFormat::Endian)
	?setChannels@QAudioFormat@@QAEXH@Z @ 181 NONAME ; void QAudioFormat::setChannels(int)
	?setCodec@QAudioFormat@@QAEXABVQString@@@Z @ 182 NONAME ; void QAudioFormat::setCodec(class QString const &)
	?setEndTime@QVideoFrame@@QAEX_J@Z @ 183 NONAME ; void QVideoFrame::setEndTime(long long)
	?setError@QAbstractVideoSurface@@IAEXW4Error@1@@Z @ 184 NONAME ; void QAbstractVideoSurface::setError(enum QAbstractVideoSurface::Error)
	?setFieldType@QVideoFrame@@QAEXW4FieldType@1@@Z @ 185 NONAME ; void QVideoFrame::setFieldType(enum QVideoFrame::FieldType)
	?setFrameRate@QVideoSurfaceFormat@@QAEXM@Z @ 186 NONAME ; void QVideoSurfaceFormat::setFrameRate(float)
	?setFrameSize@QVideoSurfaceFormat@@QAEXABVQSize@@@Z @ 187 NONAME ; void QVideoSurfaceFormat::setFrameSize(class QSize const &)
	?setFrameSize@QVideoSurfaceFormat@@QAEXHH@Z @ 188 NONAME ; void QVideoSurfaceFormat::setFrameSize(int, int)
	?setFrequency@QAudioFormat@@QAEXH@Z @ 189 NONAME ; void QAudioFormat::setFrequency(int)
	?setNotifyInterval@QAudioInput@@QAEXH@Z @ 190 NONAME ; void QAudioInput::setNotifyInterval(int)
	?setNotifyInterval@QAudioOutput@@QAEXH@Z @ 191 NONAME ; void QAudioOutput::setNotifyInterval(int)
	?setPixelAspectRatio@QVideoSurfaceFormat@@QAEXABVQSize@@@Z @ 192 NONAME ; void QVideoSurfaceFormat::setPixelAspectRatio(class QSize const &)
	?setPixelAspectRatio@QVideoSurfaceFormat@@QAEXHH@Z @ 193 NONAME ; void QVideoSurfaceFormat::setPixelAspectRatio(int, int)
	?setProperty@QVideoSurfaceFormat@@QAEXPBDABVQVariant@@@Z @ 194 NONAME ; void QVideoSurfaceFormat::setProperty(char const *, class QVariant const &)
	?setSampleSize@QAudioFormat@@QAEXH@Z @ 195 NONAME ; void QAudioFormat::setSampleSize(int)
	?setSampleType@QAudioFormat@@QAEXW4SampleType@1@@Z @ 196 NONAME ; void QAudioFormat::setSampleType(enum QAudioFormat::SampleType)
	?setScanLineDirection@QVideoSurfaceFormat@@QAEXW4Direction@1@@Z @ 197 NONAME ; void QVideoSurfaceFormat::setScanLineDirection(enum QVideoSurfaceFormat::Direction)
	?setStartTime@QVideoFrame@@QAEX_J@Z @ 198 NONAME ; void QVideoFrame::setStartTime(long long)
	?setViewport@QVideoSurfaceFormat@@QAEXABVQRect@@@Z @ 199 NONAME ; void QVideoSurfaceFormat::setViewport(class QRect const &)
	?setYCbCrColorSpace@QVideoSurfaceFormat@@QAEXW4YCbCrColorSpace@1@@Z @ 200 NONAME ; void QVideoSurfaceFormat::setYCbCrColorSpace(enum QVideoSurfaceFormat::YCbCrColorSpace)
	?size@QVideoFrame@@QBE?AVQSize@@XZ @ 201 NONAME ; class QSize QVideoFrame::size(void) const
	?sizeHint@QVideoSurfaceFormat@@QBE?AVQSize@@XZ @ 202 NONAME ; class QSize QVideoSurfaceFormat::sizeHint(void) const
	?start@QAbstractVideoSurface@@UAE_NABVQVideoSurfaceFormat@@@Z @ 203 NONAME ; bool QAbstractVideoSurface::start(class QVideoSurfaceFormat const &)
	?start@QAudioInput@@QAEPAVQIODevice@@XZ @ 204 NONAME ; class QIODevice * QAudioInput::start(void)
	?start@QAudioInput@@QAEXPAVQIODevice@@@Z @ 205 NONAME ABSENT ; void QAudioInput::start(class QIODevice *)
	?start@QAudioOutput@@QAEPAVQIODevice@@XZ @ 206 NONAME ; class QIODevice * QAudioOutput::start(void)
	?start@QAudioOutput@@QAEXPAVQIODevice@@@Z @ 207 NONAME ; void QAudioOutput::start(class QIODevice *)
	?startTime@QVideoFrame@@QBE_JXZ @ 208 NONAME ; long long QVideoFrame::startTime(void) const
	?state@QAudioInput@@QBE?AW4State@QAudio@@XZ @ 209 NONAME ; enum QAudio::State QAudioInput::state(void) const
	?state@QAudioOutput@@QBE?AW4State@QAudio@@XZ @ 210 NONAME ; enum QAudio::State QAudioOutput::state(void) const
	?stateChanged@QAbstractAudioInput@@IAEXW4State@QAudio@@@Z @ 211 NONAME ; void QAbstractAudioInput::stateChanged(enum QAudio::State)
	?stateChanged@QAbstractAudioOutput@@IAEXW4State@QAudio@@@Z @ 212 NONAME ; void QAbstractAudioOutput::stateChanged(enum QAudio::State)
	?stateChanged@QAudioInput@@IAEXW4State@QAudio@@@Z @ 213 NONAME ; void QAudioInput::stateChanged(enum QAudio::State)
	?stateChanged@QAudioOutput@@IAEXW4State@QAudio@@@Z @ 214 NONAME ; void QAudioOutput::stateChanged(enum QAudio::State)
	?stop@QAbstractVideoSurface@@UAEXXZ @ 215 NONAME ; void QAbstractVideoSurface::stop(void)
	?stop@QAudioInput@@QAEXXZ @ 216 NONAME ; void QAudioInput::stop(void)
	?stop@QAudioOutput@@QAEXXZ @ 217 NONAME ; void QAudioOutput::stop(void)
	?supportedByteOrders@QAudioDeviceInfo@@QBE?AV?$QList@W4Endian@QAudioFormat@@@@XZ @ 218 NONAME ; class QList<enum QAudioFormat::Endian> QAudioDeviceInfo::supportedByteOrders(void) const
	?supportedChannels@QAudioDeviceInfo@@QBE?AV?$QList@H@@XZ @ 219 NONAME ; class QList<int> QAudioDeviceInfo::supportedChannels(void) const
	?supportedCodecs@QAudioDeviceInfo@@QBE?AVQStringList@@XZ @ 220 NONAME ; class QStringList QAudioDeviceInfo::supportedCodecs(void) const
	?supportedFormatsChanged@QAbstractVideoSurface@@IAEXXZ @ 221 NONAME ; void QAbstractVideoSurface::supportedFormatsChanged(void)
	?supportedFrequencies@QAudioDeviceInfo@@QBE?AV?$QList@H@@XZ @ 222 NONAME ; class QList<int> QAudioDeviceInfo::supportedFrequencies(void) const
	?supportedSampleSizes@QAudioDeviceInfo@@QBE?AV?$QList@H@@XZ @ 223 NONAME ABSENT ; class QList<int> QAudioDeviceInfo::supportedSampleSizes(void) const
	?supportedSampleTypes@QAudioDeviceInfo@@QBE?AV?$QList@W4SampleType@QAudioFormat@@@@XZ @ 224 NONAME ; class QList<enum QAudioFormat::SampleType> QAudioDeviceInfo::supportedSampleTypes(void) const
	?surfaceFormat@QAbstractVideoSurface@@QBE?AVQVideoSurfaceFormat@@XZ @ 225 NONAME ; class QVideoSurfaceFormat QAbstractVideoSurface::surfaceFormat(void) const
	?surfaceFormatChanged@QAbstractVideoSurface@@IAEXABVQVideoSurfaceFormat@@@Z @ 226 NONAME ; void QAbstractVideoSurface::surfaceFormatChanged(class QVideoSurfaceFormat const &)
	?suspend@QAudioInput@@QAEXXZ @ 227 NONAME ; void QAudioInput::suspend(void)
	?suspend@QAudioOutput@@QAEXXZ @ 228 NONAME ; void QAudioOutput::suspend(void)
	?tr@QAbstractAudioDeviceInfo@@SA?AVQString@@PBD0@Z @ 229 NONAME ; class QString QAbstractAudioDeviceInfo::tr(char const *, char const *)
	?tr@QAbstractAudioDeviceInfo@@SA?AVQString@@PBD0H@Z @ 230 NONAME ; class QString QAbstractAudioDeviceInfo::tr(char const *, char const *, int)
	?tr@QAbstractAudioInput@@SA?AVQString@@PBD0@Z @ 231 NONAME ; class QString QAbstractAudioInput::tr(char const *, char const *)
	?tr@QAbstractAudioInput@@SA?AVQString@@PBD0H@Z @ 232 NONAME ; class QString QAbstractAudioInput::tr(char const *, char const *, int)
	?tr@QAbstractAudioOutput@@SA?AVQString@@PBD0@Z @ 233 NONAME ; class QString QAbstractAudioOutput::tr(char const *, char const *)
	?tr@QAbstractAudioOutput@@SA?AVQString@@PBD0H@Z @ 234 NONAME ; class QString QAbstractAudioOutput::tr(char const *, char const *, int)
	?tr@QAbstractVideoSurface@@SA?AVQString@@PBD0@Z @ 235 NONAME ; class QString QAbstractVideoSurface::tr(char const *, char const *)
	?tr@QAbstractVideoSurface@@SA?AVQString@@PBD0H@Z @ 236 NONAME ; class QString QAbstractVideoSurface::tr(char const *, char const *, int)
	?tr@QAudioEnginePlugin@@SA?AVQString@@PBD0@Z @ 237 NONAME ABSENT ; class QString QAudioEnginePlugin::tr(char const *, char const *)
	?tr@QAudioEnginePlugin@@SA?AVQString@@PBD0H@Z @ 238 NONAME ABSENT ; class QString QAudioEnginePlugin::tr(char const *, char const *, int)
	?tr@QAudioInput@@SA?AVQString@@PBD0@Z @ 239 NONAME ; class QString QAudioInput::tr(char const *, char const *)
	?tr@QAudioInput@@SA?AVQString@@PBD0H@Z @ 240 NONAME ; class QString QAudioInput::tr(char const *, char const *, int)
	?tr@QAudioOutput@@SA?AVQString@@PBD0@Z @ 241 NONAME ; class QString QAudioOutput::tr(char const *, char const *)
	?tr@QAudioOutput@@SA?AVQString@@PBD0H@Z @ 242 NONAME ; class QString QAudioOutput::tr(char const *, char const *, int)
	?trUtf8@QAbstractAudioDeviceInfo@@SA?AVQString@@PBD0@Z @ 243 NONAME ; class QString QAbstractAudioDeviceInfo::trUtf8(char const *, char const *)
	?trUtf8@QAbstractAudioDeviceInfo@@SA?AVQString@@PBD0H@Z @ 244 NONAME ; class QString QAbstractAudioDeviceInfo::trUtf8(char const *, char const *, int)
	?trUtf8@QAbstractAudioInput@@SA?AVQString@@PBD0@Z @ 245 NONAME ; class QString QAbstractAudioInput::trUtf8(char const *, char const *)
	?trUtf8@QAbstractAudioInput@@SA?AVQString@@PBD0H@Z @ 246 NONAME ; class QString QAbstractAudioInput::trUtf8(char const *, char const *, int)
	?trUtf8@QAbstractAudioOutput@@SA?AVQString@@PBD0@Z @ 247 NONAME ; class QString QAbstractAudioOutput::trUtf8(char const *, char const *)
	?trUtf8@QAbstractAudioOutput@@SA?AVQString@@PBD0H@Z @ 248 NONAME ; class QString QAbstractAudioOutput::trUtf8(char const *, char const *, int)
	?trUtf8@QAbstractVideoSurface@@SA?AVQString@@PBD0@Z @ 249 NONAME ; class QString QAbstractVideoSurface::trUtf8(char const *, char const *)
	?trUtf8@QAbstractVideoSurface@@SA?AVQString@@PBD0H@Z @ 250 NONAME ; class QString QAbstractVideoSurface::trUtf8(char const *, char const *, int)
	?trUtf8@QAudioEnginePlugin@@SA?AVQString@@PBD0@Z @ 251 NONAME ABSENT ; class QString QAudioEnginePlugin::trUtf8(char const *, char const *)
	?trUtf8@QAudioEnginePlugin@@SA?AVQString@@PBD0H@Z @ 252 NONAME ABSENT ; class QString QAudioEnginePlugin::trUtf8(char const *, char const *, int)
	?trUtf8@QAudioInput@@SA?AVQString@@PBD0@Z @ 253 NONAME ; class QString QAudioInput::trUtf8(char const *, char const *)
	?trUtf8@QAudioInput@@SA?AVQString@@PBD0H@Z @ 254 NONAME ; class QString QAudioInput::trUtf8(char const *, char const *, int)
	?trUtf8@QAudioOutput@@SA?AVQString@@PBD0@Z @ 255 NONAME ; class QString QAudioOutput::trUtf8(char const *, char const *)
	?trUtf8@QAudioOutput@@SA?AVQString@@PBD0H@Z @ 256 NONAME ; class QString QAudioOutput::trUtf8(char const *, char const *, int)
	?unmap@QImageVideoBuffer@@UAEXXZ @ 257 NONAME ; void QImageVideoBuffer::unmap(void)
	?unmap@QMemoryVideoBuffer@@UAEXXZ @ 258 NONAME ; void QMemoryVideoBuffer::unmap(void)
	?unmap@QVideoFrame@@QAEXXZ @ 259 NONAME ; void QVideoFrame::unmap(void)
	?viewport@QVideoSurfaceFormat@@QBE?AVQRect@@XZ @ 260 NONAME ; class QRect QVideoSurfaceFormat::viewport(void) const
	?width@QVideoFrame@@QBEHXZ @ 261 NONAME ; int QVideoFrame::width(void) const
	?yCbCrColorSpace@QVideoSurfaceFormat@@QBE?AW4YCbCrColorSpace@1@XZ @ 262 NONAME ; enum QVideoSurfaceFormat::YCbCrColorSpace QVideoSurfaceFormat::yCbCrColorSpace(void) const
	?staticMetaObject@QAudioEnginePlugin@@2UQMetaObject@@B @ 263 NONAME ABSENT ; struct QMetaObject const QAudioEnginePlugin::staticMetaObject
	?staticMetaObject@QAudioInput@@2UQMetaObject@@B @ 264 NONAME ; struct QMetaObject const QAudioInput::staticMetaObject
	?staticMetaObject@QAbstractAudioDeviceInfo@@2UQMetaObject@@B @ 265 NONAME ; struct QMetaObject const QAbstractAudioDeviceInfo::staticMetaObject
	?staticMetaObject@QAbstractVideoSurface@@2UQMetaObject@@B @ 266 NONAME ; struct QMetaObject const QAbstractVideoSurface::staticMetaObject
	?staticMetaObject@QAbstractAudioOutput@@2UQMetaObject@@B @ 267 NONAME ; struct QMetaObject const QAbstractAudioOutput::staticMetaObject
	?staticMetaObject@QAudioOutput@@2UQMetaObject@@B @ 268 NONAME ; struct QMetaObject const QAudioOutput::staticMetaObject
	?staticMetaObject@QAbstractAudioInput@@2UQMetaObject@@B @ 269 NONAME ; struct QMetaObject const QAbstractAudioInput::staticMetaObject
	?isReady@QPainterVideoSurface@@QBE_NXZ @ 270 NONAME ; bool QPainterVideoSurface::isReady(void) const
	?tr@QMediaRecorderControl@@SA?AVQString@@PBD0H@Z @ 271 NONAME ; class QString QMediaRecorderControl::tr(char const *, char const *, int)
	?stop@QRadioTuner@@QAEXXZ @ 272 NONAME ; void QRadioTuner::stop(void)
	?setSampleRate@QAudioFormat@@QAEXH@Z @ 273 NONAME ; void QAudioFormat::setSampleRate(int)
	?setBrightness@QPainterVideoSurface@@QAEXH@Z @ 274 NONAME ; void QPainterVideoSurface::setBrightness(int)
	??1QMediaServiceProvider@@UAE@XZ @ 275 NONAME ; QMediaServiceProvider::~QMediaServiceProvider(void)
	?getStaticMetaObject@QMediaImageViewerService@@SAABUQMetaObject@@XZ @ 276 NONAME ; struct QMetaObject const & QMediaImageViewerService::getStaticMetaObject(void)
	?qt_metacall@QAudioCaptureSource@@UAEHW4Call@QMetaObject@@HPAPAX@Z @ 277 NONAME ; int QAudioCaptureSource::qt_metacall(enum QMetaObject::Call, int, void * *)
	?mediaRemoved@QMediaPlaylist@@IAEXHH@Z @ 278 NONAME ; void QMediaPlaylist::mediaRemoved(int, int)
	?isSearching@QRadioTuner@@QBE_NXZ @ 279 NONAME ; bool QRadioTuner::isSearching(void) const
	??0QMediaResource@@QAE@ABVQNetworkRequest@@ABVQString@@@Z @ 280 NONAME ; QMediaResource::QMediaResource(class QNetworkRequest const &, class QString const &)
	?devicesChanged@QVideoDeviceControl@@IAEXXZ @ 281 NONAME ; void QVideoDeviceControl::devicesChanged(void)
	?supportedVideoCodecs@QMediaRecorder@@QBE?AVQStringList@@XZ @ 282 NONAME ; class QStringList QMediaRecorder::supportedVideoCodecs(void) const
	?searchForward@QRadioTuner@@QAEXXZ @ 283 NONAME ; void QRadioTuner::searchForward(void)
	?saturation@QVideoWidget@@QBEHXZ @ 284 NONAME ; int QVideoWidget::saturation(void) const
	?mediaInserted@QMediaPlaylistProvider@@IAEXHH@Z @ 285 NONAME ; void QMediaPlaylistProvider::mediaInserted(int, int)
	?insertMedia@QMediaPlaylist@@QAE_NHABVQMediaContent@@@Z @ 286 NONAME ; bool QMediaPlaylist::insertMedia(int, class QMediaContent const &)
	?staticMetaObject@QGraphicsVideoItem@@2UQMetaObject@@B @ 287 NONAME ; struct QMetaObject const QGraphicsVideoItem::staticMetaObject
	??_EQMediaServiceSupportedFormatsInterface@@UAE@I@Z @ 288 NONAME ; QMediaServiceSupportedFormatsInterface::~QMediaServiceSupportedFormatsInterface(unsigned int)
	?staticMetaObject@QVideoDeviceControl@@2UQMetaObject@@B @ 289 NONAME ; struct QMetaObject const QVideoDeviceControl::staticMetaObject
	?tr@QImageEncoderControl@@SA?AVQString@@PBD0H@Z @ 290 NONAME ; class QString QImageEncoderControl::tr(char const *, char const *, int)
	?stateChanged@QMediaRecorder@@IAEXW4State@1@@Z @ 291 NONAME ; void QMediaRecorder::stateChanged(enum QMediaRecorder::State)
	??1QMediaTimeRange@@QAE@XZ @ 292 NONAME ; QMediaTimeRange::~QMediaTimeRange(void)
	?playlistChanged@QMediaPlaylistSourceControl@@IAEXPAVQMediaPlaylist@@@Z @ 293 NONAME ; void QMediaPlaylistSourceControl::playlistChanged(class QMediaPlaylist *)
	?staticMetaObject@QSoundEffect@@2UQMetaObject@@B @ 294 NONAME ; struct QMetaObject const QSoundEffect::staticMetaObject
	?error@QMediaPlayerControl@@IAEXHABVQString@@@Z @ 295 NONAME ; void QMediaPlayerControl::error(int, class QString const &)
	?d_func@QMediaPlaylist@@ABEPBVQMediaPlaylistPrivate@@XZ @ 296 NONAME ; class QMediaPlaylistPrivate const * QMediaPlaylist::d_func(void) const
	?metaObject@QRadioTuner@@UBEPBUQMetaObject@@XZ @ 297 NONAME ; struct QMetaObject const * QRadioTuner::metaObject(void) const
	?staticMetaObject@QVideoWidget@@2UQMetaObject@@B @ 298 NONAME ; struct QMetaObject const QVideoWidget::staticMetaObject
	??_EQMediaControl@@UAE@I@Z @ 299 NONAME ; QMediaControl::~QMediaControl(unsigned int)
	?media@QMediaPlaylist@@QBE?AVQMediaContent@@H@Z @ 300 NONAME ; class QMediaContent QMediaPlaylist::media(int) const
	??0QAudioCaptureSource@@QAE@PAVQObject@@PAVQMediaServiceProvider@@@Z @ 301 NONAME ; QAudioCaptureSource::QAudioCaptureSource(class QObject *, class QMediaServiceProvider *)
	??1QMediaControl@@UAE@XZ @ 302 NONAME ; QMediaControl::~QMediaControl(void)
	?staticMetaObject@QMediaObject@@2UQMetaObject@@B @ 303 NONAME ; struct QMetaObject const QMediaObject::staticMetaObject
	?qt_metacast@QMediaPlaylistProvider@@UAEPAXPBD@Z @ 304 NONAME ; void * QMediaPlaylistProvider::qt_metacast(char const *)
	??0QMediaServiceProviderHint@@QAE@ABVQByteArray@@@Z @ 305 NONAME ; QMediaServiceProviderHint::QMediaServiceProviderHint(class QByteArray const &)
	?qt_metacast@QSoundEffect@@UAEPAXPBD@Z @ 306 NONAME ; void * QSoundEffect::qt_metacast(char const *)
	?searchingChanged@QRadioTunerControl@@IAEX_N@Z @ 307 NONAME ; void QRadioTunerControl::searchingChanged(bool)
	?end@QMediaTimeInterval@@QBE_JXZ @ 308 NONAME ; long long QMediaTimeInterval::end(void) const
	??0QImageEncoderControl@@IAE@PAVQObject@@@Z @ 309 NONAME ; QImageEncoderControl::QImageEncoderControl(class QObject *)
	?d_func@QGraphicsVideoItem@@AAEPAVQGraphicsVideoItemPrivate@@XZ @ 310 NONAME ; class QGraphicsVideoItemPrivate * QGraphicsVideoItem::d_func(void)
	?d_func@QRadioTuner@@AAEPAVQRadioTunerPrivate@@XZ @ 311 NONAME ; class QRadioTunerPrivate * QRadioTuner::d_func(void)
	?trUtf8@QMediaPlaylistProvider@@SA?AVQString@@PBD0H@Z @ 312 NONAME ; class QString QMediaPlaylistProvider::trUtf8(char const *, char const *, int)
	?staticMetaObject@QMediaPlaylistIOPlugin@@2UQMetaObject@@B @ 313 NONAME ; struct QMetaObject const QMediaPlaylistIOPlugin::staticMetaObject
	?isStereo@QRadioTuner@@QBE_NXZ @ 314 NONAME ; bool QRadioTuner::isStereo(void) const
	?tr@QAudioEndpointSelector@@SA?AVQString@@PBD0H@Z @ 315 NONAME ; class QString QAudioEndpointSelector::tr(char const *, char const *, int)
	?tr@QMediaImageViewer@@SA?AVQString@@PBD0@Z @ 316 NONAME ; class QString QMediaImageViewer::tr(char const *, char const *)
	??_EQMediaServiceProvider@@UAE@I@Z @ 317 NONAME ; QMediaServiceProvider::~QMediaServiceProvider(unsigned int)
	?setStereoMode@QRadioTuner@@QAEXW4StereoMode@1@@Z @ 318 NONAME ; void QRadioTuner::setStereoMode(enum QRadioTuner::StereoMode)
	?qt_metacall@QMediaServiceProvider@@UAEHW4Call@QMetaObject@@HPAPAX@Z @ 319 NONAME ; int QMediaServiceProvider::qt_metacall(enum QMetaObject::Call, int, void * *)
	?trUtf8@QMediaObject@@SA?AVQString@@PBD0H@Z @ 320 NONAME ; class QString QMediaObject::trUtf8(char const *, char const *, int)
	?metaObject@QVideoEncoderControl@@UBEPBUQMetaObject@@XZ @ 321 NONAME ; struct QMetaObject const * QVideoEncoderControl::metaObject(void) const
	??_EQVideoEncoderControl@@UAE@I@Z @ 322 NONAME ; QVideoEncoderControl::~QVideoEncoderControl(unsigned int)
	?getStaticMetaObject@QGraphicsVideoItem@@SAABUQMetaObject@@XZ @ 323 NONAME ; struct QMetaObject const & QGraphicsVideoItem::getStaticMetaObject(void)
	??1QAudioEncoderSettings@@QAE@XZ @ 324 NONAME ; QAudioEncoderSettings::~QAudioEncoderSettings(void)
	?metaDataChanged@QMediaRecorder@@IAEXXZ @ 325 NONAME ; void QMediaRecorder::metaDataChanged(void)
	??1QMediaBindableInterface@@UAE@XZ @ 326 NONAME ; QMediaBindableInterface::~QMediaBindableInterface(void)
	??1QRadioTunerControl@@UAE@XZ @ 327 NONAME ; QRadioTunerControl::~QRadioTunerControl(void)
	??1QMediaContainerControl@@UAE@XZ @ 328 NONAME ; QMediaContainerControl::~QMediaContainerControl(void)
	?channelCount@QAudioFormat@@QBEHXZ @ 329 NONAME ; int QAudioFormat::channelCount(void) const
	?previousIndex@QMediaPlaylistNavigator@@QBEHH@Z @ 330 NONAME ; int QMediaPlaylistNavigator::previousIndex(int) const
	?trUtf8@QGraphicsVideoItem@@SA?AVQString@@PBD0H@Z @ 331 NONAME ; class QString QGraphicsVideoItem::trUtf8(char const *, char const *, int)
	?positionChanged@QMediaPlayerControl@@IAEX_J@Z @ 332 NONAME ; void QMediaPlayerControl::positionChanged(long long)
	?metaObject@QMediaServiceProviderPlugin@@UBEPBUQMetaObject@@XZ @ 333 NONAME ; struct QMetaObject const * QMediaServiceProviderPlugin::metaObject(void) const
	?currentMediaChanged@QMediaPlaylist@@IAEXABVQMediaContent@@@Z @ 334 NONAME ; void QMediaPlaylist::currentMediaChanged(class QMediaContent const &)
	?searchBackward@QRadioTuner@@QAEXXZ @ 335 NONAME ; void QRadioTuner::searchBackward(void)
	?getStaticMetaObject@QMediaPlaylist@@SAABUQMetaObject@@XZ @ 336 NONAME ; struct QMetaObject const & QMediaPlaylist::getStaticMetaObject(void)
	?qt_metacast@QMediaPlaylistControl@@UAEPAXPBD@Z @ 337 NONAME ; void * QMediaPlaylistControl::qt_metacast(char const *)
	?audioSettings@QMediaRecorder@@QBE?AVQAudioEncoderSettings@@XZ @ 338 NONAME ; class QAudioEncoderSettings QMediaRecorder::audioSettings(void) const
	?qt_metacast@QVideoEncoderControl@@UAEPAXPBD@Z @ 339 NONAME ; void * QVideoEncoderControl::qt_metacast(char const *)
	?availableMetaData@QMediaObject@@QBE?AV?$QList@W4MetaData@QtMultimedia@@@@XZ @ 340 NONAME ; class QList<enum QtMultimedia::MetaData> QMediaObject::availableMetaData(void) const
	?addMedia@QLocalMediaPlaylistProvider@@UAE_NABV?$QList@VQMediaContent@@@@@Z @ 341 NONAME ; bool QLocalMediaPlaylistProvider::addMedia(class QList<class QMediaContent> const &)
	?staticMetaObject@QLocalMediaPlaylistProvider@@2UQMetaObject@@B @ 342 NONAME ; struct QMetaObject const QLocalMediaPlaylistProvider::staticMetaObject
	?addMedia@QMediaPlaylist@@QAE_NABV?$QList@VQMediaContent@@@@@Z @ 343 NONAME ; bool QMediaPlaylist::addMedia(class QList<class QMediaContent> const &)
	?hueChanged@QVideoWidget@@IAEXH@Z @ 344 NONAME ; void QVideoWidget::hueChanged(int)
	??4QVideoEncoderSettings@@QAEAAV0@ABV0@@Z @ 345 NONAME ; class QVideoEncoderSettings & QVideoEncoderSettings::operator=(class QVideoEncoderSettings const &)
	?qt_metacast@QVideoWidget@@UAEPAXPBD@Z @ 346 NONAME ; void * QVideoWidget::qt_metacast(char const *)
	?activeAudioInput@QAudioCaptureSource@@QBE?AVQString@@XZ @ 347 NONAME ; class QString QAudioCaptureSource::activeAudioInput(void) const
	?supportedChannelCounts@QAudioDeviceInfo@@QBE?AV?$QList@H@@XZ @ 348 NONAME ; class QList<int> QAudioDeviceInfo::supportedChannelCounts(void) const
	?getStaticMetaObject@QMediaPlaylistControl@@SAABUQMetaObject@@XZ @ 349 NONAME ; struct QMetaObject const & QMediaPlaylistControl::getStaticMetaObject(void)
	?setMuted@QMediaRecorder@@QAEX_N@Z @ 350 NONAME ; void QMediaRecorder::setMuted(bool)
	?qt_metacall@QMetaDataReaderControl@@UAEHW4Call@QMetaObject@@HPAPAX@Z @ 351 NONAME ; int QMetaDataReaderControl::qt_metacall(enum QMetaObject::Call, int, void * *)
	??H@YA?AVQMediaTimeRange@@ABV0@0@Z @ 352 NONAME ; class QMediaTimeRange operator+(class QMediaTimeRange const &, class QMediaTimeRange const &)
	?record@QMediaRecorder@@QAEXXZ @ 353 NONAME ; void QMediaRecorder::record(void)
	?metaObject@QMediaService@@UBEPBUQMetaObject@@XZ @ 354 NONAME ; struct QMetaObject const * QMediaService::metaObject(void) const
	?isMuted@QRadioTuner@@QBE_NXZ @ 355 NONAME ; bool QRadioTuner::isMuted(void) const
	?availabilityChanged@QMediaObject@@IAEX_N@Z @ 356 NONAME ; void QMediaObject::availabilityChanged(bool)
	?trUtf8@QVideoEncoderControl@@SA?AVQString@@PBD0@Z @ 357 NONAME ; class QString QVideoEncoderControl::trUtf8(char const *, char const *)
	?trUtf8@QMetaDataReaderControl@@SA?AVQString@@PBD0@Z @ 358 NONAME ; class QString QMetaDataReaderControl::trUtf8(char const *, char const *)
	?setLanguage@QMediaResource@@QAEXABVQString@@@Z @ 359 NONAME ; void QMediaResource::setLanguage(class QString const &)
	??0QMediaResource@@QAE@ABVQUrl@@ABVQString@@@Z @ 360 NONAME ; QMediaResource::QMediaResource(class QUrl const &, class QString const &)
	?volume@QSoundEffect@@QBEHXZ @ 361 NONAME ; int QSoundEffect::volume(void) const
	?start@QPainterVideoSurface@@UAE_NABVQVideoSurfaceFormat@@@Z @ 362 NONAME ; bool QPainterVideoSurface::start(class QVideoSurfaceFormat const &)
	?mutedChanged@QRadioTuner@@IAEX_N@Z @ 363 NONAME ; void QRadioTuner::mutedChanged(bool)
	?currentIndex@QMediaPlaylist@@QBEHXZ @ 364 NONAME ; int QMediaPlaylist::currentIndex(void) const
	?quality@QAudioEncoderSettings@@QBE?AW4EncodingQuality@QtMultimedia@@XZ @ 365 NONAME ; enum QtMultimedia::EncodingQuality QAudioEncoderSettings::quality(void) const
	?aspectRatioMode@QGraphicsVideoItem@@QBE?AW4AspectRatioMode@Qt@@XZ @ 366 NONAME ; enum Qt::AspectRatioMode QGraphicsVideoItem::aspectRatioMode(void) const
	??0QMediaTimeRange@@QAE@ABVQMediaTimeInterval@@@Z @ 367 NONAME ; QMediaTimeRange::QMediaTimeRange(class QMediaTimeInterval const &)
	?qt_metacall@QMediaPlaylistProvider@@UAEHW4Call@QMetaObject@@HPAPAX@Z @ 368 NONAME ; int QMediaPlaylistProvider::qt_metacall(enum QMetaObject::Call, int, void * *)
	??_EQVideoWidgetControl@@UAE@I@Z @ 369 NONAME ; QVideoWidgetControl::~QVideoWidgetControl(unsigned int)
	?trUtf8@QVideoDeviceControl@@SA?AVQString@@PBD0H@Z @ 370 NONAME ; class QString QVideoDeviceControl::trUtf8(char const *, char const *, int)
	?seekableChanged@QMediaPlayer@@IAEX_N@Z @ 371 NONAME ; void QMediaPlayer::seekableChanged(bool)
	?tr@QMediaPlaylistControl@@SA?AVQString@@PBD0@Z @ 372 NONAME ; class QString QMediaPlaylistControl::tr(char const *, char const *)
	?setVolume@QMediaPlayer@@QAEXH@Z @ 373 NONAME ; void QMediaPlayer::setVolume(int)
	?setPlaylist@QMediaPlaylistNavigator@@QAEXPAVQMediaPlaylistProvider@@@Z @ 374 NONAME ; void QMediaPlaylistNavigator::setPlaylist(class QMediaPlaylistProvider *)
	?setMuted@QSoundEffect@@QAEX_N@Z @ 375 NONAME ; void QSoundEffect::setMuted(bool)
	?trUtf8@QAudioEncoderControl@@SA?AVQString@@PBD0@Z @ 376 NONAME ; class QString QAudioEncoderControl::trUtf8(char const *, char const *)
	?sampleRate@QAudioFormat@@QBEHXZ @ 377 NONAME ; int QAudioFormat::sampleRate(void) const
	?getStaticMetaObject@QMediaObject@@SAABUQMetaObject@@XZ @ 378 NONAME ; struct QMetaObject const & QMediaObject::getStaticMetaObject(void)
	??1QMediaServiceProviderHint@@QAE@XZ @ 379 NONAME ; QMediaServiceProviderHint::~QMediaServiceProviderHint(void)
	?mediaCount@QMediaPlaylist@@QBEHXZ @ 380 NONAME ; int QMediaPlaylist::mediaCount(void) const
	?load@QMediaPlaylist@@QAEXABVQUrl@@PBD@Z @ 381 NONAME ; void QMediaPlaylist::load(class QUrl const &, char const *)
	?earliestTime@QMediaTimeRange@@QBE_JXZ @ 382 NONAME ; long long QMediaTimeRange::earliestTime(void) const
	?tr@QMediaContainerControl@@SA?AVQString@@PBD0H@Z @ 383 NONAME ; class QString QMediaContainerControl::tr(char const *, char const *, int)
	?setSource@QSoundEffect@@QAEXABVQUrl@@@Z @ 384 NONAME ; void QSoundEffect::setSource(class QUrl const &)
	?setExtendedMetaData@QMediaRecorder@@QAEXABVQString@@ABVQVariant@@@Z @ 385 NONAME ; void QMediaRecorder::setExtendedMetaData(class QString const &, class QVariant const &)
	?availabilityError@QAudioCaptureSource@@UBE?AW4AvailabilityError@QtMultimedia@@XZ @ 386 NONAME ; enum QtMultimedia::AvailabilityError QAudioCaptureSource::availabilityError(void) const
	??0QMediaPlaylistSourceControl@@IAE@PAVQObject@@@Z @ 387 NONAME ; QMediaPlaylistSourceControl::QMediaPlaylistSourceControl(class QObject *)
	?qt_metacast@QMetaDataReaderControl@@UAEPAXPBD@Z @ 388 NONAME ; void * QMetaDataReaderControl::qt_metacast(char const *)
	?tr@QVideoWidget@@SA?AVQString@@PBD0@Z @ 389 NONAME ; class QString QVideoWidget::tr(char const *, char const *)
	?getStaticMetaObject@QMediaPlaylistNavigator@@SAABUQMetaObject@@XZ @ 390 NONAME ; struct QMetaObject const & QMediaPlaylistNavigator::getStaticMetaObject(void)
	??0QMediaControl@@IAE@AAVQMediaControlPrivate@@PAVQObject@@@Z @ 391 NONAME ; QMediaControl::QMediaControl(class QMediaControlPrivate &, class QObject *)
	?videoAvailableChanged@QMediaPlayerControl@@IAEX_N@Z @ 392 NONAME ; void QMediaPlayerControl::videoAvailableChanged(bool)
	?tr@QLocalMediaPlaylistProvider@@SA?AVQString@@PBD0@Z @ 393 NONAME ; class QString QLocalMediaPlaylistProvider::tr(char const *, char const *)
	?supportedResolutions@QMediaRecorder@@QBE?AV?$QList@VQSize@@@@ABVQVideoEncoderSettings@@PA_N@Z @ 394 NONAME ; class QList<class QSize> QMediaRecorder::supportedResolutions(class QVideoEncoderSettings const &, bool *) const
	??0QMediaPluginLoader@@QAE@PBDABVQString@@W4CaseSensitivity@Qt@@@Z @ 395 NONAME ; QMediaPluginLoader::QMediaPluginLoader(char const *, class QString const &, enum Qt::CaseSensitivity)
	?qt_metacast@QMediaImageViewer@@UAEPAXPBD@Z @ 396 NONAME ; void * QMediaImageViewer::qt_metacast(char const *)
	?contrast@QVideoWidget@@QBEHXZ @ 397 NONAME ; int QVideoWidget::contrast(void) const
	??_EQMetaDataWriterControl@@UAE@I@Z @ 398 NONAME ; QMetaDataWriterControl::~QMetaDataWriterControl(unsigned int)
	?previous@QMediaPlaylistNavigator@@QAEXXZ @ 399 NONAME ; void QMediaPlaylistNavigator::previous(void)
	?qt_metacall@QAudioSystemPlugin@@UAEHW4Call@QMetaObject@@HPAPAX@Z @ 400 NONAME ; int QAudioSystemPlugin::qt_metacall(enum QMetaObject::Call, int, void * *)
	?fullScreenChanged@QVideoWidget@@IAEX_N@Z @ 401 NONAME ; void QVideoWidget::fullScreenChanged(bool)
	?setSaturation@QVideoWidget@@QAEXH@Z @ 402 NONAME ; void QVideoWidget::setSaturation(int)
	?qt_metacast@QMediaImageViewerService@@UAEPAXPBD@Z @ 403 NONAME ; void * QMediaImageViewerService::qt_metacast(char const *)
	?bandChanged@QRadioTuner@@IAEXW4Band@1@@Z @ 404 NONAME ; void QRadioTuner::bandChanged(enum QRadioTuner::Band)
	?d_func@QMediaPlayer@@ABEPBVQMediaPlayerPrivate@@XZ @ 405 NONAME ; class QMediaPlayerPrivate const * QMediaPlayer::d_func(void) const
	?loadFailed@QMediaPlaylistProvider@@IAEXW4Error@QMediaPlaylist@@ABVQString@@@Z @ 406 NONAME ; void QMediaPlaylistProvider::loadFailed(enum QMediaPlaylist::Error, class QString const &)
	??_EQMediaPlayer@@UAE@I@Z @ 407 NONAME ; QMediaPlayer::~QMediaPlayer(unsigned int)
	?tr@QSoundEffect@@SA?AVQString@@PBD0@Z @ 408 NONAME ; class QString QSoundEffect::tr(char const *, char const *)
	?mimeType@QMediaResource@@QBE?AVQString@@XZ @ 409 NONAME ; class QString QMediaResource::mimeType(void) const
	??0QAudioEncoderSettings@@QAE@ABV0@@Z @ 410 NONAME ; QAudioEncoderSettings::QAudioEncoderSettings(class QAudioEncoderSettings const &)
	?videoAvailableChanged@QMediaPlayer@@IAEX_N@Z @ 411 NONAME ; void QMediaPlayer::videoAvailableChanged(bool)
	?setMetaData@QMediaRecorder@@QAEXW4MetaData@QtMultimedia@@ABVQVariant@@@Z @ 412 NONAME ; void QMediaRecorder::setMetaData(enum QtMultimedia::MetaData, class QVariant const &)
	?stateChanged@QMediaRecorderControl@@IAEXW4State@QMediaRecorder@@@Z @ 413 NONAME ; void QMediaRecorderControl::stateChanged(enum QMediaRecorder::State)
	?sampleRate@QMediaResource@@QBEHXZ @ 414 NONAME ; int QMediaResource::sampleRate(void) const
	??0QRadioTunerControl@@IAE@PAVQObject@@@Z @ 415 NONAME ; QRadioTunerControl::QRadioTunerControl(class QObject *)
	?staticMetaObject@QMediaPlaylist@@2UQMetaObject@@B @ 416 NONAME ; struct QMetaObject const QMediaPlaylist::staticMetaObject
	??0QMediaContent@@QAE@ABV?$QList@VQMediaResource@@@@@Z @ 417 NONAME ; QMediaContent::QMediaContent(class QList<class QMediaResource> const &)
	?qt_metacast@QMediaServiceProviderPlugin@@UAEPAXPBD@Z @ 418 NONAME ; void * QMediaServiceProviderPlugin::qt_metacast(char const *)
	?deviceDescription@QMediaServiceProvider@@UAE?AVQString@@ABVQByteArray@@0@Z @ 419 NONAME ; class QString QMediaServiceProvider::deviceDescription(class QByteArray const &, class QByteArray const &)
	??9@YA_NABVQMediaTimeInterval@@0@Z @ 420 NONAME ; bool operator!=(class QMediaTimeInterval const &, class QMediaTimeInterval const &)
	??_EQVideoRendererControl@@UAE@I@Z @ 421 NONAME ; QVideoRendererControl::~QVideoRendererControl(unsigned int)
	?setAudioBitRate@QMediaResource@@QAEXH@Z @ 422 NONAME ; void QMediaResource::setAudioBitRate(int)
	?setFullScreen@QVideoWidget@@QAEX_N@Z @ 423 NONAME ; void QVideoWidget::setFullScreen(bool)
	?qt_metacall@QPainterVideoSurface@@UAEHW4Call@QMetaObject@@HPAPAX@Z @ 424 NONAME ; int QPainterVideoSurface::qt_metacall(enum QMetaObject::Call, int, void * *)
	?metaObject@QGraphicsVideoItem@@UBEPBUQMetaObject@@XZ @ 425 NONAME ; struct QMetaObject const * QGraphicsVideoItem::metaObject(void) const
	??0QVideoWidget@@QAE@PAVQWidget@@@Z @ 426 NONAME ; QVideoWidget::QVideoWidget(class QWidget *)
	??_EQMediaPlayerControl@@UAE@I@Z @ 427 NONAME ; QMediaPlayerControl::~QMediaPlayerControl(unsigned int)
	?setLoops@QSoundEffect@@QAEXH@Z @ 428 NONAME ; void QSoundEffect::setLoops(int)
	?d_func@QMediaService@@AAEPAVQMediaServicePrivate@@XZ @ 429 NONAME ; class QMediaServicePrivate * QMediaService::d_func(void)
	?audioCodecDescription@QMediaRecorder@@QBE?AVQString@@ABV2@@Z @ 430 NONAME ; class QString QMediaRecorder::audioCodecDescription(class QString const &) const
	?setAspectRatioMode@QGraphicsVideoItem@@QAEXW4AspectRatioMode@Qt@@@Z @ 431 NONAME ; void QGraphicsVideoItem::setAspectRatioMode(enum Qt::AspectRatioMode)
	?isVideoAvailable@QMediaPlayer@@QBE_NXZ @ 432 NONAME ; bool QMediaPlayer::isVideoAvailable(void) const
	?playbackMode@QMediaPlaylist@@QBE?AW4PlaybackMode@1@XZ @ 433 NONAME ; enum QMediaPlaylist::PlaybackMode QMediaPlaylist::playbackMode(void) const
	?metaDataChanged@QMediaObject@@IAEXXZ @ 434 NONAME ; void QMediaObject::metaDataChanged(void)
	?trUtf8@QAudioCaptureSource@@SA?AVQString@@PBD0@Z @ 435 NONAME ; class QString QAudioCaptureSource::trUtf8(char const *, char const *)
	?translated@QMediaTimeInterval@@QBE?AV1@_J@Z @ 436 NONAME ; class QMediaTimeInterval QMediaTimeInterval::translated(long long) const
	?trUtf8@QGraphicsVideoItem@@SA?AVQString@@PBD0@Z @ 437 NONAME ; class QString QGraphicsVideoItem::trUtf8(char const *, char const *)
	?supportedAudioSampleRates@QMediaRecorder@@QBE?AV?$QList@H@@ABVQAudioEncoderSettings@@PA_N@Z @ 438 NONAME ; class QList<int> QMediaRecorder::supportedAudioSampleRates(class QAudioEncoderSettings const &, bool *) const
	?save@QMediaPlaylist@@QAE_NPAVQIODevice@@PBD@Z @ 439 NONAME ; bool QMediaPlaylist::save(class QIODevice *, char const *)
	?setPlaylist@QMediaPlayer@@QAEXPAVQMediaPlaylist@@@Z @ 440 NONAME ; void QMediaPlayer::setPlaylist(class QMediaPlaylist *)
	?setMediaObject@QMediaRecorder@@MAE_NPAVQMediaObject@@@Z @ 441 NONAME ; bool QMediaRecorder::setMediaObject(class QMediaObject *)
	?metaObject@QMetaDataReaderControl@@UBEPBUQMetaObject@@XZ @ 442 NONAME ABSENT ; struct QMetaObject const * QMetaDataReaderControl::metaObject(void) const
	?itemAt@QMediaPlaylistNavigator@@QBE?AVQMediaContent@@H@Z @ 443 NONAME ; class QMediaContent QMediaPlaylistNavigator::itemAt(int) const
	?mediaStatus@QMediaPlayer@@QBE?AW4MediaStatus@1@XZ @ 444 NONAME ; enum QMediaPlayer::MediaStatus QMediaPlayer::mediaStatus(void) const
	?bitRate@QVideoEncoderSettings@@QBEHXZ @ 445 NONAME ; int QVideoEncoderSettings::bitRate(void) const
	?d_func@QMediaControl@@ABEPBVQMediaControlPrivate@@XZ @ 446 NONAME ; class QMediaControlPrivate const * QMediaControl::d_func(void) const
	?tr@QMediaPlaylistIOPlugin@@SA?AVQString@@PBD0H@Z @ 447 NONAME ; class QString QMediaPlaylistIOPlugin::tr(char const *, char const *, int)
	?extendedMetaData@QMediaObject@@QBE?AVQVariant@@ABVQString@@@Z @ 448 NONAME ; class QVariant QMediaObject::extendedMetaData(class QString const &) const
	?duration@QMediaPlayer@@QBE_JXZ @ 449 NONAME ; long long QMediaPlayer::duration(void) const
	?brightness@QPainterVideoSurface@@QBEHXZ @ 450 NONAME ; int QPainterVideoSurface::brightness(void) const
	?audioAvailableChanged@QMediaPlayer@@IAEX_N@Z @ 451 NONAME ; void QMediaPlayer::audioAvailableChanged(bool)
	??9QAudioEncoderSettings@@QBE_NABV0@@Z @ 452 NONAME ; bool QAudioEncoderSettings::operator!=(class QAudioEncoderSettings const &) const
	?qt_metacast@QPainterVideoSurface@@UAEPAXPBD@Z @ 453 NONAME ; void * QPainterVideoSurface::qt_metacast(char const *)
	?getStaticMetaObject@QVideoWidget@@SAABUQMetaObject@@XZ @ 454 NONAME ; struct QMetaObject const & QVideoWidget::getStaticMetaObject(void)
	??1QMediaPlaylistSourceControl@@UAE@XZ @ 455 NONAME ; QMediaPlaylistSourceControl::~QMediaPlaylistSourceControl(void)
	?tr@QVideoWindowControl@@SA?AVQString@@PBD0@Z @ 456 NONAME ; class QString QVideoWindowControl::tr(char const *, char const *)
	??1QMediaContent@@QAE@XZ @ 457 NONAME ; QMediaContent::~QMediaContent(void)
	??0QRadioTuner@@QAE@PAVQObject@@PAVQMediaServiceProvider@@@Z @ 458 NONAME ; QRadioTuner::QRadioTuner(class QObject *, class QMediaServiceProvider *)
	?qt_metacall@QVideoWidget@@UAEHW4Call@QMetaObject@@HPAPAX@Z @ 459 NONAME ; int QVideoWidget::qt_metacall(enum QMetaObject::Call, int, void * *)
	?setSampleRate@QAudioEncoderSettings@@QAEXH@Z @ 460 NONAME ; void QAudioEncoderSettings::setSampleRate(int)
	?type@QMediaServiceProviderHint@@QBE?AW4Type@1@XZ @ 461 NONAME ; enum QMediaServiceProviderHint::Type QMediaServiceProviderHint::type(void) const
	?staticMetaObject@QVideoWidgetControl@@2UQMetaObject@@B @ 462 NONAME ; struct QMetaObject const QVideoWidgetControl::staticMetaObject
	?isNormal@QMediaTimeInterval@@QBE_NXZ @ 463 NONAME ; bool QMediaTimeInterval::isNormal(void) const
	??_EQMediaService@@UAE@I@Z @ 464 NONAME ; QMediaService::~QMediaService(unsigned int)
	?setChannelCount@QAudioEncoderSettings@@QAEXH@Z @ 465 NONAME ; void QAudioEncoderSettings::setChannelCount(int)
	?qt_metacall@QRadioTunerControl@@UAEHW4Call@QMetaObject@@HPAPAX@Z @ 466 NONAME ; int QRadioTunerControl::qt_metacall(enum QMetaObject::Call, int, void * *)
	?activeAudioInputChanged@QAudioCaptureSource@@IAEXABVQString@@@Z @ 467 NONAME ; void QAudioCaptureSource::activeAudioInputChanged(class QString const &)
	?d_func@QMediaObject@@ABEPBVQMediaObjectPrivate@@XZ @ 468 NONAME ; class QMediaObjectPrivate const * QMediaObject::d_func(void) const
	??_EQAudioSystemPlugin@@UAE@I@Z @ 469 NONAME ; QAudioSystemPlugin::~QAudioSystemPlugin(unsigned int)
	?errorString@QMediaPlaylist@@QBE?AVQString@@XZ @ 470 NONAME ; class QString QMediaPlaylist::errorString(void) const
	?trUtf8@QRadioTunerControl@@SA?AVQString@@PBD0H@Z @ 471 NONAME ; class QString QRadioTunerControl::trUtf8(char const *, char const *, int)
	?getStaticMetaObject@QSoundEffect@@SAABUQMetaObject@@XZ @ 472 NONAME ; struct QMetaObject const & QSoundEffect::getStaticMetaObject(void)
	?trUtf8@QAudioSystemPlugin@@SA?AVQString@@PBD0H@Z @ 473 NONAME ; class QString QAudioSystemPlugin::trUtf8(char const *, char const *, int)
	?trUtf8@QMediaPlayerControl@@SA?AVQString@@PBD0@Z @ 474 NONAME ; class QString QMediaPlayerControl::trUtf8(char const *, char const *)
	??1QMediaPlayer@@UAE@XZ @ 475 NONAME ; QMediaPlayer::~QMediaPlayer(void)
	?isBandSupported@QRadioTuner@@QBE_NW4Band@1@@Z @ 476 NONAME ; bool QRadioTuner::isBandSupported(enum QRadioTuner::Band) const
	?trUtf8@QMediaPlayer@@SA?AVQString@@PBD0H@Z @ 477 NONAME ; class QString QMediaPlayer::trUtf8(char const *, char const *, int)
	?supportedAudioCodecs@QMediaRecorder@@QBE?AVQStringList@@XZ @ 478 NONAME ; class QStringList QMediaRecorder::supportedAudioCodecs(void) const
	??0QMediaContainerControl@@IAE@PAVQObject@@@Z @ 479 NONAME ; QMediaContainerControl::QMediaContainerControl(class QObject *)
	??0QMediaContent@@QAE@ABVQUrl@@@Z @ 480 NONAME ; QMediaContent::QMediaContent(class QUrl const &)
	?mediaStatusChanged@QMediaPlayerControl@@IAEXW4MediaStatus@QMediaPlayer@@@Z @ 481 NONAME ; void QMediaPlayerControl::mediaStatusChanged(enum QMediaPlayer::MediaStatus)
	?trUtf8@QRadioTuner@@SA?AVQString@@PBD0H@Z @ 482 NONAME ; class QString QRadioTuner::trUtf8(char const *, char const *, int)
	?trUtf8@QMediaPlaylist@@SA?AVQString@@PBD0H@Z @ 483 NONAME ; class QString QMediaPlaylist::trUtf8(char const *, char const *, int)
	??_EQMediaPlaylistReader@@UAE@I@Z @ 484 NONAME ; QMediaPlaylistReader::~QMediaPlaylistReader(unsigned int)
	?channelCount@QMediaResource@@QBEHXZ @ 485 NONAME ; int QMediaResource::channelCount(void) const
	?tr@QSoundEffect@@SA?AVQString@@PBD0H@Z @ 486 NONAME ; class QString QSoundEffect::tr(char const *, char const *, int)
	?qt_metacall@QMediaRecorderControl@@UAEHW4Call@QMetaObject@@HPAPAX@Z @ 487 NONAME ; int QMediaRecorderControl::qt_metacall(enum QMetaObject::Call, int, void * *)
	?metaData@QMediaRecorder@@QBE?AVQVariant@@W4MetaData@QtMultimedia@@@Z @ 488 NONAME ; class QVariant QMediaRecorder::metaData(enum QtMultimedia::MetaData) const
	?setHue@QVideoWidget@@QAEXH@Z @ 489 NONAME ; void QVideoWidget::setHue(int)
	?createPainter@QPainterVideoSurface@@AAEXXZ @ 490 NONAME ; void QPainterVideoSurface::createPainter(void)
	?tr@QGraphicsVideoItem@@SA?AVQString@@PBD0@Z @ 491 NONAME ; class QString QGraphicsVideoItem::tr(char const *, char const *)
	?contrastChanged@QVideoWindowControl@@IAEXH@Z @ 492 NONAME ; void QVideoWindowControl::contrastChanged(int)
	?addMedia@QMediaPlaylistProvider@@UAE_NABV?$QList@VQMediaContent@@@@@Z @ 493 NONAME ; bool QMediaPlaylistProvider::addMedia(class QList<class QMediaContent> const &)
	?isFormatSupported@QPainterVideoSurface@@QBE_NABVQVideoSurfaceFormat@@PAV2@@Z @ 494 NONAME ; bool QPainterVideoSurface::isFormatSupported(class QVideoSurfaceFormat const &, class QVideoSurfaceFormat *) const
	?error@QMediaRecorderControl@@IAEXHABVQString@@@Z @ 495 NONAME ; void QMediaRecorderControl::error(int, class QString const &)
	??0QMediaTimeInterval@@QAE@_J0@Z @ 496 NONAME ; QMediaTimeInterval::QMediaTimeInterval(long long, long long)
	??0QMediaPlaylistNavigator@@QAE@PAVQMediaPlaylistProvider@@PAVQObject@@@Z @ 497 NONAME ; QMediaPlaylistNavigator::QMediaPlaylistNavigator(class QMediaPlaylistProvider *, class QObject *)
	?latestTime@QMediaTimeRange@@QBE_JXZ @ 498 NONAME ; long long QMediaTimeRange::latestTime(void) const
	??_EQAudioCaptureSource@@UAE@I@Z @ 499 NONAME ; QAudioCaptureSource::~QAudioCaptureSource(unsigned int)
	?d_func@QMediaRecorder@@ABEPBVQMediaRecorderPrivate@@XZ @ 500 NONAME ; class QMediaRecorderPrivate const * QMediaRecorder::d_func(void) const
	?setChannelCount@QAudioFormat@@QAEXH@Z @ 501 NONAME ; void QAudioFormat::setChannelCount(int)
	??0QMediaRecorder@@QAE@PAVQMediaObject@@PAVQObject@@@Z @ 502 NONAME ; QMediaRecorder::QMediaRecorder(class QMediaObject *, class QObject *)
	?qt_metacall@QMediaPlayerControl@@UAEHW4Call@QMetaObject@@HPAPAX@Z @ 503 NONAME ; int QMediaPlayerControl::qt_metacall(enum QMetaObject::Call, int, void * *)
	??1QPainterVideoSurface@@UAE@XZ @ 504 NONAME ; QPainterVideoSurface::~QPainterVideoSurface(void)
	?d_func@QMediaPlaylist@@AAEPAVQMediaPlaylistPrivate@@XZ @ 505 NONAME ; class QMediaPlaylistPrivate * QMediaPlaylist::d_func(void)
	?trUtf8@QAudioEndpointSelector@@SA?AVQString@@PBD0@Z @ 506 NONAME ; class QString QAudioEndpointSelector::trUtf8(char const *, char const *)
	?shuffle@QMediaPlaylist@@QAEXXZ @ 507 NONAME ; void QMediaPlaylist::shuffle(void)
	?metaObject@QSoundEffect@@UBEPBUQMetaObject@@XZ @ 508 NONAME ; struct QMetaObject const * QSoundEffect::metaObject(void) const
	?loops@QSoundEffect@@QBEHXZ @ 509 NONAME ; int QSoundEffect::loops(void) const
	??_EQMediaPlaylist@@UAE@I@Z @ 510 NONAME ; QMediaPlaylist::~QMediaPlaylist(unsigned int)
	??0QVideoWindowControl@@IAE@PAVQObject@@@Z @ 511 NONAME ; QVideoWindowControl::QVideoWindowControl(class QObject *)
	?trUtf8@QMediaPlaylistIOPlugin@@SA?AVQString@@PBD0@Z @ 512 NONAME ; class QString QMediaPlaylistIOPlugin::trUtf8(char const *, char const *)
	?stateChanged@QRadioTunerControl@@IAEXW4State@QRadioTuner@@@Z @ 513 NONAME ; void QRadioTunerControl::stateChanged(enum QRadioTuner::State)
	?addMedia@QLocalMediaPlaylistProvider@@UAE_NABVQMediaContent@@@Z @ 514 NONAME ; bool QLocalMediaPlaylistProvider::addMedia(class QMediaContent const &)
	?encodingMode@QVideoEncoderSettings@@QBE?AW4EncodingMode@QtMultimedia@@XZ @ 515 NONAME ; enum QtMultimedia::EncodingMode QVideoEncoderSettings::encodingMode(void) const
	?qt_metacast@QMediaStreamsControl@@UAEPAXPBD@Z @ 516 NONAME ; void * QMediaStreamsControl::qt_metacast(char const *)
	?searchingChanged@QRadioTuner@@IAEX_N@Z @ 517 NONAME ; void QRadioTuner::searchingChanged(bool)
	?keys@QMediaPluginLoader@@QBE?AVQStringList@@XZ @ 518 NONAME ; class QStringList QMediaPluginLoader::keys(void) const
	?seekableChanged@QMediaPlayerControl@@IAEX_N@Z @ 519 NONAME ; void QMediaPlayerControl::seekableChanged(bool)
	?getStaticMetaObject@QRadioTunerControl@@SAABUQMetaObject@@XZ @ 520 NONAME ; struct QMetaObject const & QRadioTunerControl::getStaticMetaObject(void)
	??0QMediaServiceProviderHint@@QAE@ABV0@@Z @ 521 NONAME ; QMediaServiceProviderHint::QMediaServiceProviderHint(class QMediaServiceProviderHint const &)
	??_EQMediaPlaylistNavigator@@UAE@I@Z @ 522 NONAME ; QMediaPlaylistNavigator::~QMediaPlaylistNavigator(unsigned int)
	?qt_metacall@QMediaRecorder@@UAEHW4Call@QMetaObject@@HPAPAX@Z @ 523 NONAME ; int QMediaRecorder::qt_metacall(enum QMetaObject::Call, int, void * *)
	??0QAudioEncoderSettings@@QAE@XZ @ 524 NONAME ; QAudioEncoderSettings::QAudioEncoderSettings(void)
	?setCodec@QImageEncoderSettings@@QAEXABVQString@@@Z @ 525 NONAME ; void QImageEncoderSettings::setCodec(class QString const &)
	?getStaticMetaObject@QMediaPlaylistSourceControl@@SAABUQMetaObject@@XZ @ 526 NONAME ; struct QMetaObject const & QMediaPlaylistSourceControl::getStaticMetaObject(void)
	?metaObject@QMediaServiceProvider@@UBEPBUQMetaObject@@XZ @ 527 NONAME ; struct QMetaObject const * QMediaServiceProvider::metaObject(void) const
	?setTimeout@QMediaImageViewer@@QAEXH@Z @ 528 NONAME ; void QMediaImageViewer::setTimeout(int)
	??0QMediaRecorderControl@@IAE@PAVQObject@@@Z @ 529 NONAME ; QMediaRecorderControl::QMediaRecorderControl(class QObject *)
	?staticMetaObject@QVideoWindowControl@@2UQMetaObject@@B @ 530 NONAME ; struct QMetaObject const QVideoWindowControl::staticMetaObject
	?setVolume@QRadioTuner@@QAEXH@Z @ 531 NONAME ; void QRadioTuner::setVolume(int)
	?saturation@QPainterVideoSurface@@QBEHXZ @ 532 NONAME ; int QPainterVideoSurface::saturation(void) const
	?qt_metacall@QAudioEndpointSelector@@UAEHW4Call@QMetaObject@@HPAPAX@Z @ 533 NONAME ; int QAudioEndpointSelector::qt_metacall(enum QMetaObject::Call, int, void * *)
	?setFrequency@QRadioTuner@@QAEXH@Z @ 534 NONAME ; void QRadioTuner::setFrequency(int)
	?cancelSearch@QRadioTuner@@QAEXXZ @ 535 NONAME ; void QRadioTuner::cancelSearch(void)
	?metaObject@QMediaPlaylistProvider@@UBEPBUQMetaObject@@XZ @ 536 NONAME ; struct QMetaObject const * QMediaPlaylistProvider::metaObject(void) const
	?mediaCount@QLocalMediaPlaylistProvider@@UBEHXZ @ 537 NONAME ; int QLocalMediaPlaylistProvider::mediaCount(void) const
	?tr@QMediaServiceProviderPlugin@@SA?AVQString@@PBD0H@Z @ 538 NONAME ; class QString QMediaServiceProviderPlugin::tr(char const *, char const *, int)
	?staticMetaObject@QImageEncoderControl@@2UQMetaObject@@B @ 539 NONAME ; struct QMetaObject const QImageEncoderControl::staticMetaObject
	?stop@QMediaPlayer@@QAEXXZ @ 540 NONAME ; void QMediaPlayer::stop(void)
	?tr@QMediaService@@SA?AVQString@@PBD0@Z @ 541 NONAME ; class QString QMediaService::tr(char const *, char const *)
	?bind@QMediaPlayer@@UAE_NPAVQObject@@@Z @ 542 NONAME ; bool QMediaPlayer::bind(class QObject *)
	?writableChanged@QMetaDataWriterControl@@IAEX_N@Z @ 543 NONAME ; void QMetaDataWriterControl::writableChanged(bool)
	?staticMetaObject@QMediaPlaylistSourceControl@@2UQMetaObject@@B @ 544 NONAME ; struct QMetaObject const QMediaPlaylistSourceControl::staticMetaObject
	?availableExtendedMetaData@QMediaRecorder@@QBE?AVQStringList@@XZ @ 545 NONAME ; class QStringList QMediaRecorder::availableExtendedMetaData(void) const
	?qt_metacast@QMediaObject@@UAEPAXPBD@Z @ 546 NONAME ; void * QMediaObject::qt_metacast(char const *)
	?setStaticPlugins@QMediaPluginLoader@@SAXABVQString@@ABV?$QList@PAVQObject@@@@@Z @ 547 NONAME ; void QMediaPluginLoader::setStaticPlugins(class QString const &, class QList<class QObject *> const &)
	?qt_metacast@QMediaPlaylistIOPlugin@@UAEPAXPBD@Z @ 548 NONAME ; void * QMediaPlaylistIOPlugin::qt_metacast(char const *)
	?media@QMediaImageViewer@@QBE?AVQMediaContent@@XZ @ 549 NONAME ; class QMediaContent QMediaImageViewer::media(void) const
	?isNull@QMediaServiceProviderHint@@QBE_NXZ @ 550 NONAME ; bool QMediaServiceProviderHint::isNull(void) const
	?metaObject@QRadioTunerControl@@UBEPBUQMetaObject@@XZ @ 551 NONAME ; struct QMetaObject const * QRadioTunerControl::metaObject(void) const
	?metaObject@QMediaRecorderControl@@UBEPBUQMetaObject@@XZ @ 552 NONAME ; struct QMetaObject const * QMediaRecorderControl::metaObject(void) const
	??1QMediaObject@@UAE@XZ @ 553 NONAME ; QMediaObject::~QMediaObject(void)
	?metaObject@QAudioSystemPlugin@@UBEPBUQMetaObject@@XZ @ 554 NONAME ; struct QMetaObject const * QAudioSystemPlugin::metaObject(void) const
	??_EQRadioTunerControl@@UAE@I@Z @ 555 NONAME ; QRadioTunerControl::~QRadioTunerControl(unsigned int)
	?paintEvent@QVideoWidget@@MAEXPAVQPaintEvent@@@Z @ 556 NONAME ; void QVideoWidget::paintEvent(class QPaintEvent *)
	?bufferStatusChanged@QMediaPlayerControl@@IAEXH@Z @ 557 NONAME ; void QMediaPlayerControl::bufferStatusChanged(int)
	?addMedia@QMediaPlaylistProvider@@UAE_NABVQMediaContent@@@Z @ 558 NONAME ; bool QMediaPlaylistProvider::addMedia(class QMediaContent const &)
	??0QMediaPlaylistIOPlugin@@QAE@PAVQObject@@@Z @ 559 NONAME ; QMediaPlaylistIOPlugin::QMediaPlaylistIOPlugin(class QObject *)
	??4QMediaServiceProviderHint@@QAEAAV0@ABV0@@Z @ 560 NONAME ; class QMediaServiceProviderHint & QMediaServiceProviderHint::operator=(class QMediaServiceProviderHint const &)
	?qt_metacast@QVideoRendererControl@@UAEPAXPBD@Z @ 561 NONAME ; void * QVideoRendererControl::qt_metacast(char const *)
	?containerMimeType@QMediaRecorder@@QBE?AVQString@@XZ @ 562 NONAME ; class QString QMediaRecorder::containerMimeType(void) const
	??YQMediaTimeRange@@QAEAAV0@ABVQMediaTimeInterval@@@Z @ 563 NONAME ; class QMediaTimeRange & QMediaTimeRange::operator+=(class QMediaTimeInterval const &)
	??9QVideoEncoderSettings@@QBE_NABV0@@Z @ 564 NONAME ; bool QVideoEncoderSettings::operator!=(class QVideoEncoderSettings const &) const
	?error@QMediaPlaylist@@QBE?AW4Error@1@XZ @ 565 NONAME ; enum QMediaPlaylist::Error QMediaPlaylist::error(void) const
	??8@YA_NABVQMediaTimeRange@@0@Z @ 566 NONAME ; bool operator==(class QMediaTimeRange const &, class QMediaTimeRange const &)
	?qt_metacall@QImageEncoderControl@@UAEHW4Call@QMetaObject@@HPAPAX@Z @ 567 NONAME ; int QImageEncoderControl::qt_metacall(enum QMetaObject::Call, int, void * *)
	??0QVideoEncoderSettings@@QAE@ABV0@@Z @ 568 NONAME ; QVideoEncoderSettings::QVideoEncoderSettings(class QVideoEncoderSettings const &)
	??0QMediaImageViewer@@QAE@PAVQObject@@@Z @ 569 NONAME ; QMediaImageViewer::QMediaImageViewer(class QObject *)
	?device@QMediaServiceProviderHint@@QBE?AVQByteArray@@XZ @ 570 NONAME ; class QByteArray QMediaServiceProviderHint::device(void) const
	?qt_metacast@QMediaRecorder@@UAEPAXPBD@Z @ 571 NONAME ; void * QMediaRecorder::qt_metacast(char const *)
	??0QMediaServiceProviderHint@@QAE@ABVQString@@ABVQStringList@@@Z @ 572 NONAME ; QMediaServiceProviderHint::QMediaServiceProviderHint(class QString const &, class QStringList const &)
	?staticMetaObject@QRadioTuner@@2UQMetaObject@@B @ 573 NONAME ; struct QMetaObject const QRadioTuner::staticMetaObject
	?mutedChanged@QMediaRecorder@@IAEX_N@Z @ 574 NONAME ; void QMediaRecorder::mutedChanged(bool)
	?trUtf8@QVideoWidget@@SA?AVQString@@PBD0H@Z @ 575 NONAME ; class QString QVideoWidget::trUtf8(char const *, char const *, int)
	?playbackModeChanged@QMediaPlaylistControl@@IAEXW4PlaybackMode@QMediaPlaylist@@@Z @ 576 NONAME ; void QMediaPlaylistControl::playbackModeChanged(enum QMediaPlaylist::PlaybackMode)
	??1QImageEncoderControl@@UAE@XZ @ 577 NONAME ; QImageEncoderControl::~QImageEncoderControl(void)
	?volume@QRadioTuner@@QBEHXZ @ 578 NONAME ; int QRadioTuner::volume(void) const
	?trUtf8@QMediaStreamsControl@@SA?AVQString@@PBD0H@Z @ 579 NONAME ; class QString QMediaStreamsControl::trUtf8(char const *, char const *, int)
	??1QAudioSystemPlugin@@UAE@XZ @ 580 NONAME ; QAudioSystemPlugin::~QAudioSystemPlugin(void)
	?load@QMediaPlaylistProvider@@UAE_NABVQUrl@@PBD@Z @ 581 NONAME ; bool QMediaPlaylistProvider::load(class QUrl const &, char const *)
	??9QMediaContent@@QBE_NABV0@@Z @ 582 NONAME ; bool QMediaContent::operator!=(class QMediaContent const &) const
	?hueChanged@QVideoWidgetControl@@IAEXH@Z @ 583 NONAME ; void QVideoWidgetControl::hueChanged(int)
	?tr@QMediaPlaylistControl@@SA?AVQString@@PBD0H@Z @ 584 NONAME ; class QString QMediaPlaylistControl::tr(char const *, char const *, int)
	?setChannelCount@QMediaResource@@QAEXH@Z @ 585 NONAME ; void QMediaResource::setChannelCount(int)
	?qt_metacast@QRadioTuner@@UAEPAXPBD@Z @ 586 NONAME ; void * QRadioTuner::qt_metacast(char const *)
	?isReadOnly@QMediaPlaylistProvider@@UBE_NXZ @ 587 NONAME ; bool QMediaPlaylistProvider::isReadOnly(void) const
	?trUtf8@QMediaPlaylistProvider@@SA?AVQString@@PBD0@Z @ 588 NONAME ; class QString QMediaPlaylistProvider::trUtf8(char const *, char const *)
	?audioAvailableChanged@QMediaPlayerControl@@IAEX_N@Z @ 589 NONAME ; void QMediaPlayerControl::audioAvailableChanged(bool)
	?timerEvent@QGraphicsVideoItem@@MAEXPAVQTimerEvent@@@Z @ 590 NONAME ; void QGraphicsVideoItem::timerEvent(class QTimerEvent *)
	?nextIndex@QMediaPlaylistNavigator@@QBEHH@Z @ 591 NONAME ; int QMediaPlaylistNavigator::nextIndex(int) const
	??8QAudioEncoderSettings@@QBE_NABV0@@Z @ 592 NONAME ; bool QAudioEncoderSettings::operator==(class QAudioEncoderSettings const &) const
	?qt_metacall@QMediaStreamsControl@@UAEHW4Call@QMetaObject@@HPAPAX@Z @ 593 NONAME ; int QMediaStreamsControl::qt_metacall(enum QMetaObject::Call, int, void * *)
	?mediaObject@QGraphicsVideoItem@@UBEPAVQMediaObject@@XZ @ 594 NONAME ; class QMediaObject * QGraphicsVideoItem::mediaObject(void) const
	?tr@QVideoEncoderControl@@SA?AVQString@@PBD0H@Z @ 595 NONAME ; class QString QVideoEncoderControl::tr(char const *, char const *, int)
	?trUtf8@QMediaPlaylist@@SA?AVQString@@PBD0@Z @ 596 NONAME ; class QString QMediaPlaylist::trUtf8(char const *, char const *)
	?getStaticMetaObject@QAudioCaptureSource@@SAABUQMetaObject@@XZ @ 597 NONAME ; struct QMetaObject const & QAudioCaptureSource::getStaticMetaObject(void)
	?isContinuous@QMediaTimeRange@@QBE_NXZ @ 598 NONAME ; bool QMediaTimeRange::isContinuous(void) const
	?insertMedia@QMediaPlaylistProvider@@UAE_NHABV?$QList@VQMediaContent@@@@@Z @ 599 NONAME ; bool QMediaPlaylistProvider::insertMedia(int, class QList<class QMediaContent> const &)
	?staticMetaObject@QMediaStreamsControl@@2UQMetaObject@@B @ 600 NONAME ; struct QMetaObject const QMediaStreamsControl::staticMetaObject
	?qt_metacast@QMediaPlaylistNavigator@@UAEPAXPBD@Z @ 601 NONAME ; void * QMediaPlaylistNavigator::qt_metacast(char const *)
	?activeEndpointChanged@QAudioEndpointSelector@@IAEXABVQString@@@Z @ 602 NONAME ; void QAudioEndpointSelector::activeEndpointChanged(class QString const &)
	?save@QMediaPlaylist@@QAE_NABVQUrl@@PBD@Z @ 603 NONAME ; bool QMediaPlaylist::save(class QUrl const &, char const *)
	?d_func@QMediaImageViewerService@@ABEPBVQMediaImageViewerServicePrivate@@XZ @ 604 NONAME ; class QMediaImageViewerServicePrivate const * QMediaImageViewerService::d_func(void) const
	?setCodec@QVideoEncoderSettings@@QAEXABVQString@@@Z @ 605 NONAME ; void QVideoEncoderSettings::setCodec(class QString const &)
	?d_func@QAudioCaptureSource@@ABEPBVQAudioCaptureSourcePrivate@@XZ @ 606 NONAME ; class QAudioCaptureSourcePrivate const * QAudioCaptureSource::d_func(void) const
	?trUtf8@QMediaImageViewer@@SA?AVQString@@PBD0@Z @ 607 NONAME ; class QString QMediaImageViewer::trUtf8(char const *, char const *)
	?pause@QMediaPlayer@@QAEXXZ @ 608 NONAME ; void QMediaPlayer::pause(void)
	?staticMetaObject@QMediaControl@@2UQMetaObject@@B @ 609 NONAME ; struct QMetaObject const QMediaControl::staticMetaObject
	?isAvailable@QRadioTuner@@UBE_NXZ @ 610 NONAME ; bool QRadioTuner::isAvailable(void) const
	??G@YA?AVQMediaTimeRange@@ABV0@0@Z @ 611 NONAME ; class QMediaTimeRange operator-(class QMediaTimeRange const &, class QMediaTimeRange const &)
	?qt_metacast@QImageEncoderControl@@UAEPAXPBD@Z @ 612 NONAME ; void * QImageEncoderControl::qt_metacast(char const *)
	??0QMediaServiceProviderHint@@QAE@XZ @ 613 NONAME ; QMediaServiceProviderHint::QMediaServiceProviderHint(void)
	??9QImageEncoderSettings@@QBE_NABV0@@Z @ 614 NONAME ; bool QImageEncoderSettings::operator!=(class QImageEncoderSettings const &) const
	?play@QMediaImageViewer@@QAEXXZ @ 615 NONAME ; void QMediaImageViewer::play(void)
	?setPosition@QMediaPlayer@@QAEX_J@Z @ 616 NONAME ; void QMediaPlayer::setPosition(long long)
	?setResolution@QMediaResource@@QAEXHH@Z @ 617 NONAME ; void QMediaResource::setResolution(int, int)
	??_EQVideoDeviceControl@@UAE@I@Z @ 618 NONAME ; QVideoDeviceControl::~QVideoDeviceControl(unsigned int)
	?addInterval@QMediaTimeRange@@QAEX_J0@Z @ 619 NONAME ; void QMediaTimeRange::addInterval(long long, long long)
	??0QMediaContent@@QAE@ABV0@@Z @ 620 NONAME ; QMediaContent::QMediaContent(class QMediaContent const &)
	?videoBitRate@QMediaResource@@QBEHXZ @ 621 NONAME ; int QMediaResource::videoBitRate(void) const
	?statusChanged@QAudioCaptureSource@@AAEXXZ @ 622 NONAME ; void QAudioCaptureSource::statusChanged(void)
	?setReady@QPainterVideoSurface@@QAEX_N@Z @ 623 NONAME ; void QPainterVideoSurface::setReady(bool)
	?setMediaObject@QGraphicsVideoItem@@MAE_NPAVQMediaObject@@@Z @ 624 NONAME ; bool QGraphicsVideoItem::setMediaObject(class QMediaObject *)
	??0QMetaDataWriterControl@@IAE@PAVQObject@@@Z @ 625 NONAME ; QMetaDataWriterControl::QMetaDataWriterControl(class QObject *)
	?frequencyChanged@QRadioTuner@@IAEXH@Z @ 626 NONAME ; void QRadioTuner::frequencyChanged(int)
	?hideEvent@QVideoWidget@@MAEXPAVQHideEvent@@@Z @ 627 NONAME ; void QVideoWidget::hideEvent(class QHideEvent *)
	?supportedMimeTypes@QMediaServiceProvider@@UBE?AVQStringList@@ABVQByteArray@@H@Z @ 628 NONAME ; class QStringList QMediaServiceProvider::supportedMimeTypes(class QByteArray const &, int) const
	?qt_metacast@QMediaPlayer@@UAEPAXPBD@Z @ 629 NONAME ; void * QMediaPlayer::qt_metacast(char const *)
	?metaDataAvailableChanged@QMediaRecorder@@IAEX_N@Z @ 630 NONAME ; void QMediaRecorder::metaDataAvailableChanged(bool)
	?metaDataAvailableChanged@QMediaObject@@IAEX_N@Z @ 631 NONAME ; void QMediaObject::metaDataAvailableChanged(bool)
	?trUtf8@QRadioTunerControl@@SA?AVQString@@PBD0@Z @ 632 NONAME ; class QString QRadioTunerControl::trUtf8(char const *, char const *)
	?metaDataAvailableChanged@QMetaDataReaderControl@@IAEX_N@Z @ 633 NONAME ; void QMetaDataReaderControl::metaDataAvailableChanged(bool)
	?setHue@QPainterVideoSurface@@QAEXH@Z @ 634 NONAME ; void QPainterVideoSurface::setHue(int)
	?request@QMediaResource@@QBE?AVQNetworkRequest@@XZ @ 635 NONAME ; class QNetworkRequest QMediaResource::request(void) const
	??1QMediaService@@UAE@XZ @ 636 NONAME ; QMediaService::~QMediaService(void)
	?volume@QMediaPlayer@@QBEHXZ @ 637 NONAME ; int QMediaPlayer::volume(void) const
	?tr@QMetaDataReaderControl@@SA?AVQString@@PBD0@Z @ 638 NONAME ; class QString QMetaDataReaderControl::tr(char const *, char const *)
	?supportedContainers@QMediaRecorder@@QBE?AVQStringList@@XZ @ 639 NONAME ; class QStringList QMediaRecorder::supportedContainers(void) const
	?d_func@QVideoWidget@@ABEPBVQVideoWidgetPrivate@@XZ @ 640 NONAME ; class QVideoWidgetPrivate const * QVideoWidget::d_func(void) const
	?durationChanged@QMediaRecorder@@IAEX_J@Z @ 641 NONAME ; void QMediaRecorder::durationChanged(long long)
	?trUtf8@QVideoWidgetControl@@SA?AVQString@@PBD0H@Z @ 642 NONAME ; class QString QVideoWidgetControl::trUtf8(char const *, char const *, int)
	?errorString@QMediaRecorder@@QBE?AVQString@@XZ @ 643 NONAME ; class QString QMediaRecorder::errorString(void) const
	?getStaticMetaObject@QMediaPlayerControl@@SAABUQMetaObject@@XZ @ 644 NONAME ; struct QMetaObject const & QMediaPlayerControl::getStaticMetaObject(void)
	?trUtf8@QMetaDataWriterControl@@SA?AVQString@@PBD0H@Z @ 645 NONAME ; class QString QMetaDataWriterControl::trUtf8(char const *, char const *, int)
	?defaultServiceProvider@QMediaServiceProvider@@SAPAV1@XZ @ 646 NONAME ; class QMediaServiceProvider * QMediaServiceProvider::defaultServiceProvider(void)
	?tr@QAudioCaptureSource@@SA?AVQString@@PBD0H@Z @ 647 NONAME ; class QString QAudioCaptureSource::tr(char const *, char const *, int)
	?start@QMediaTimeInterval@@QBE_JXZ @ 648 NONAME ; long long QMediaTimeInterval::start(void) const
	?staticMetaObject@QMediaPlaylistProvider@@2UQMetaObject@@B @ 649 NONAME ; struct QMetaObject const QMediaPlaylistProvider::staticMetaObject
	?isEmpty@QMediaTimeRange@@QBE_NXZ @ 650 NONAME ; bool QMediaTimeRange::isEmpty(void) const
	?staticMetaObject@QMediaPlaylistNavigator@@2UQMetaObject@@B @ 651 NONAME ; struct QMetaObject const QMediaPlaylistNavigator::staticMetaObject
	?features@QMediaServiceProviderHint@@QBE?AV?$QFlags@W4Feature@QMediaServiceProviderHint@@@@XZ @ 652 NONAME ; class QFlags<enum QMediaServiceProviderHint::Feature> QMediaServiceProviderHint::features(void) const
	?isNull@QMediaResource@@QBE_NXZ @ 653 NONAME ; bool QMediaResource::isNull(void) const
	??8QMediaResource@@QBE_NABV0@@Z @ 654 NONAME ; bool QMediaResource::operator==(class QMediaResource const &) const
	?bufferStatusChanged@QMediaPlayer@@IAEXH@Z @ 655 NONAME ; void QMediaPlayer::bufferStatusChanged(int)
	?d_func@QRadioTuner@@ABEPBVQRadioTunerPrivate@@XZ @ 656 NONAME ; class QRadioTunerPrivate const * QRadioTuner::d_func(void) const
	?trUtf8@QAudioEncoderControl@@SA?AVQString@@PBD0H@Z @ 657 NONAME ; class QString QAudioEncoderControl::trUtf8(char const *, char const *, int)
	?trUtf8@QMediaPlayer@@SA?AVQString@@PBD0@Z @ 658 NONAME ; class QString QMediaPlayer::trUtf8(char const *, char const *)
	??8@YA_NABVQMediaTimeInterval@@0@Z @ 659 NONAME ; bool operator==(class QMediaTimeInterval const &, class QMediaTimeInterval const &)
	?containerDescription@QMediaRecorder@@QBE?AVQString@@ABV2@@Z @ 660 NONAME ; class QString QMediaRecorder::containerDescription(class QString const &) const
	?trUtf8@QVideoWindowControl@@SA?AVQString@@PBD0H@Z @ 661 NONAME ; class QString QVideoWindowControl::trUtf8(char const *, char const *, int)
	?isMuted@QSoundEffect@@QBE_NXZ @ 662 NONAME ; bool QSoundEffect::isMuted(void) const
	?volumeChanged@QMediaPlayer@@IAEXH@Z @ 663 NONAME ; void QMediaPlayer::volumeChanged(int)
	??1QVideoWidgetControl@@UAE@XZ @ 664 NONAME ; QVideoWidgetControl::~QVideoWidgetControl(void)
	??_EQMediaRecorderControl@@UAE@I@Z @ 665 NONAME ; QMediaRecorderControl::~QMediaRecorderControl(unsigned int)
	?volumeChanged@QRadioTunerControl@@IAEXH@Z @ 666 NONAME ; void QRadioTunerControl::volumeChanged(int)
	??_EQMediaContainerControl@@UAE@I@Z @ 667 NONAME ; QMediaContainerControl::~QMediaContainerControl(unsigned int)
	?setQuality@QVideoEncoderSettings@@QAEXW4EncodingQuality@QtMultimedia@@@Z @ 668 NONAME ; void QVideoEncoderSettings::setQuality(enum QtMultimedia::EncodingQuality)
	??8QMediaContent@@QBE_NABV0@@Z @ 669 NONAME ; bool QMediaContent::operator==(class QMediaContent const &) const
	?getStaticMetaObject@QImageEncoderControl@@SAABUQMetaObject@@XZ @ 670 NONAME ; struct QMetaObject const & QImageEncoderControl::getStaticMetaObject(void)
	?durationChanged@QMediaRecorderControl@@IAEX_J@Z @ 671 NONAME ; void QMediaRecorderControl::durationChanged(long long)
	?getStaticMetaObject@QMetaDataReaderControl@@SAABUQMetaObject@@XZ @ 672 NONAME ; struct QMetaObject const & QMetaDataReaderControl::getStaticMetaObject(void)
	?hue@QVideoWidget@@QBEHXZ @ 673 NONAME ; int QVideoWidget::hue(void) const
	?tr@QMediaObject@@SA?AVQString@@PBD0H@Z @ 674 NONAME ; class QString QMediaObject::tr(char const *, char const *, int)
	?tr@QMediaImageViewerService@@SA?AVQString@@PBD0@Z @ 675 NONAME ; class QString QMediaImageViewerService::tr(char const *, char const *)
	?fullScreenChanged@QVideoWindowControl@@IAEX_N@Z @ 676 NONAME ; void QVideoWindowControl::fullScreenChanged(bool)
	?play@QSoundEffect@@QAEXXZ @ 677 NONAME ; void QSoundEffect::play(void)
	?contains@QMediaTimeRange@@QBE_N_J@Z @ 678 NONAME ; bool QMediaTimeRange::contains(long long) const
	?setMuted@QMediaPlayer@@QAEX_N@Z @ 679 NONAME ; void QMediaPlayer::setMuted(bool)
	?tr@QRadioTunerControl@@SA?AVQString@@PBD0@Z @ 680 NONAME ; class QString QRadioTunerControl::tr(char const *, char const *)
	?addPropertyWatch@QMediaObject@@IAEXABVQByteArray@@@Z @ 681 NONAME ; void QMediaObject::addPropertyWatch(class QByteArray const &)
	??_EQMediaPlaylistIOPlugin@@UAE@I@Z @ 682 NONAME ; QMediaPlaylistIOPlugin::~QMediaPlaylistIOPlugin(unsigned int)
	?trUtf8@QMediaPlayerControl@@SA?AVQString@@PBD0H@Z @ 683 NONAME ; class QString QMediaPlayerControl::trUtf8(char const *, char const *, int)
	?setVideoBitRate@QMediaResource@@QAEXH@Z @ 684 NONAME ; void QMediaResource::setVideoBitRate(int)
	?qt_metacall@QRadioTuner@@UAEHW4Call@QMetaObject@@HPAPAX@Z @ 685 NONAME ; int QRadioTuner::qt_metacall(enum QMetaObject::Call, int, void * *)
	?frequencyChanged@QRadioTunerControl@@IAEXH@Z @ 686 NONAME ; void QRadioTunerControl::frequencyChanged(int)
	?pause@QMediaRecorder@@QAEXXZ @ 687 NONAME ; void QMediaRecorder::pause(void)
	?intervals@QMediaTimeRange@@QBE?AV?$QList@VQMediaTimeInterval@@@@XZ @ 688 NONAME ; class QList<class QMediaTimeInterval> QMediaTimeRange::intervals(void) const
	?fullScreenChanged@QVideoWidgetControl@@IAEX_N@Z @ 689 NONAME ; void QVideoWidgetControl::fullScreenChanged(bool)
	?trUtf8@QPainterVideoSurface@@SA?AVQString@@PBD0H@Z @ 690 NONAME ; class QString QPainterVideoSurface::trUtf8(char const *, char const *, int)
	?tr@QMediaServiceProviderPlugin@@SA?AVQString@@PBD0@Z @ 691 NONAME ; class QString QMediaServiceProviderPlugin::tr(char const *, char const *)
	?stateChanged@QMediaPlayerControl@@IAEXW4State@QMediaPlayer@@@Z @ 692 NONAME ; void QMediaPlayerControl::stateChanged(enum QMediaPlayer::State)
	?previous@QMediaPlaylist@@QAEXXZ @ 693 NONAME ; void QMediaPlaylist::previous(void)
	?stereoMode@QRadioTuner@@QBE?AW4StereoMode@1@XZ @ 694 NONAME ; enum QRadioTuner::StereoMode QRadioTuner::stereoMode(void) const
	?metaObject@QMediaPlaylist@@UBEPBUQMetaObject@@XZ @ 695 NONAME ; struct QMetaObject const * QMediaPlaylist::metaObject(void) const
	?trUtf8@QVideoWindowControl@@SA?AVQString@@PBD0@Z @ 696 NONAME ; class QString QVideoWindowControl::trUtf8(char const *, char const *)
	?stop@QMediaRecorder@@QAEXXZ @ 697 NONAME ; void QMediaRecorder::stop(void)
	?setPlaybackMode@QMediaPlaylistNavigator@@QAEXW4PlaybackMode@QMediaPlaylist@@@Z @ 698 NONAME ; void QMediaPlaylistNavigator::setPlaybackMode(enum QMediaPlaylist::PlaybackMode)
	?tr@QMediaPlaylist@@SA?AVQString@@PBD0@Z @ 699 NONAME ; class QString QMediaPlaylist::tr(char const *, char const *)
	?playbackRate@QMediaPlayer@@QBEMXZ @ 700 NONAME ; float QMediaPlayer::playbackRate(void) const
	?metaObject@QMediaStreamsControl@@UBEPBUQMetaObject@@XZ @ 701 NONAME ; struct QMetaObject const * QMediaStreamsControl::metaObject(void) const
	?metaObject@QMediaObject@@UBEPBUQMetaObject@@XZ @ 702 NONAME ; struct QMetaObject const * QMediaObject::metaObject(void) const
	?d_func@QMediaRecorder@@AAEPAVQMediaRecorderPrivate@@XZ @ 703 NONAME ; class QMediaRecorderPrivate * QMediaRecorder::d_func(void)
	?brightnessChanged@QVideoWindowControl@@IAEXH@Z @ 704 NONAME ; void QVideoWindowControl::brightnessChanged(int)
	?stereoStatusChanged@QRadioTuner@@IAEX_N@Z @ 705 NONAME ; void QRadioTuner::stereoStatusChanged(bool)
	?staticMetaObject@QMetaDataReaderControl@@2UQMetaObject@@B @ 706 NONAME ; struct QMetaObject const QMetaDataReaderControl::staticMetaObject
	?isNull@QAudioEncoderSettings@@QBE_NXZ @ 707 NONAME ; bool QAudioEncoderSettings::isNull(void) const
	?instance@QMediaPluginLoader@@QAEPAVQObject@@ABVQString@@@Z @ 708 NONAME ; class QObject * QMediaPluginLoader::instance(class QString const &)
	?setAudioInput@QAudioCaptureSource@@QAEXABVQString@@@Z @ 709 NONAME ; void QAudioCaptureSource::setAudioInput(class QString const &)
	?mediaAboutToBeRemoved@QMediaPlaylist@@IAEXHH@Z @ 710 NONAME ; void QMediaPlaylist::mediaAboutToBeRemoved(int, int)
	??8QVideoEncoderSettings@@QBE_NABV0@@Z @ 711 NONAME ; bool QVideoEncoderSettings::operator==(class QVideoEncoderSettings const &) const
	?availabilityError@QRadioTuner@@UBE?AW4AvailabilityError@QtMultimedia@@XZ @ 712 NONAME ; enum QtMultimedia::AvailabilityError QRadioTuner::availabilityError(void) const
	??0QMediaResource@@QAE@XZ @ 713 NONAME ; QMediaResource::QMediaResource(void)
	?staticMetaObject@QAudioEncoderControl@@2UQMetaObject@@B @ 714 NONAME ; struct QMetaObject const QAudioEncoderControl::staticMetaObject
	?isAvailable@QMediaObject@@UBE_NXZ @ 715 NONAME ; bool QMediaObject::isAvailable(void) const
	?trUtf8@QVideoRendererControl@@SA?AVQString@@PBD0@Z @ 716 NONAME ; class QString QVideoRendererControl::trUtf8(char const *, char const *)
	??0QAudioEncoderControl@@IAE@PAVQObject@@@Z @ 717 NONAME ; QAudioEncoderControl::QAudioEncoderControl(class QObject *)
	?playlistProviderChanged@QMediaPlaylistControl@@IAEXXZ @ 718 NONAME ; void QMediaPlaylistControl::playlistProviderChanged(void)
	??4QMediaContent@@QAEAAV0@ABV0@@Z @ 719 NONAME ; class QMediaContent & QMediaContent::operator=(class QMediaContent const &)
	?getStaticMetaObject@QMediaStreamsControl@@SAABUQMetaObject@@XZ @ 720 NONAME ; struct QMetaObject const & QMediaStreamsControl::getStaticMetaObject(void)
	??1QAudioEncoderControl@@UAE@XZ @ 721 NONAME ; QAudioEncoderControl::~QAudioEncoderControl(void)
	?trUtf8@QLocalMediaPlaylistProvider@@SA?AVQString@@PBD0H@Z @ 722 NONAME ; class QString QLocalMediaPlaylistProvider::trUtf8(char const *, char const *, int)
	?getStaticMetaObject@QPainterVideoSurface@@SAABUQMetaObject@@XZ @ 723 NONAME ; struct QMetaObject const & QPainterVideoSurface::getStaticMetaObject(void)
	?trUtf8@QMediaPlaylistSourceControl@@SA?AVQString@@PBD0H@Z @ 724 NONAME ; class QString QMediaPlaylistSourceControl::trUtf8(char const *, char const *, int)
	?setOutputLocation@QMediaRecorder@@QAE_NABVQUrl@@@Z @ 725 NONAME ; bool QMediaRecorder::setOutputLocation(class QUrl const &)
	?canonicalRequest@QMediaContent@@QBE?AVQNetworkRequest@@XZ @ 726 NONAME ; class QNetworkRequest QMediaContent::canonicalRequest(void) const
	?error@QRadioTuner@@QBE?AW4Error@1@XZ @ 727 NONAME ; enum QRadioTuner::Error QRadioTuner::error(void) const
	?codec@QVideoEncoderSettings@@QBE?AVQString@@XZ @ 728 NONAME ; class QString QVideoEncoderSettings::codec(void) const
	?qt_metacall@QAudioEncoderControl@@UAEHW4Call@QMetaObject@@HPAPAX@Z @ 729 NONAME ; int QAudioEncoderControl::qt_metacall(enum QMetaObject::Call, int, void * *)
	?trUtf8@QMediaService@@SA?AVQString@@PBD0H@Z @ 730 NONAME ; class QString QMediaService::trUtf8(char const *, char const *, int)
	?removeMedia@QMediaPlaylistProvider@@UAE_NHH@Z @ 731 NONAME ; bool QMediaPlaylistProvider::removeMedia(int, int)
	??_EQMediaImageViewerService@@UAE@I@Z @ 732 NONAME ; QMediaImageViewerService::~QMediaImageViewerService(unsigned int)
	?saturationChanged@QVideoWindowControl@@IAEXH@Z @ 733 NONAME ; void QVideoWindowControl::saturationChanged(int)
	??0QMediaPlaylistControl@@IAE@PAVQObject@@@Z @ 734 NONAME ; QMediaPlaylistControl::QMediaPlaylistControl(class QObject *)
	?error@QMediaRecorder@@QBE?AW4Error@1@XZ @ 735 NONAME ; enum QMediaRecorder::Error QMediaRecorder::error(void) const
	?canonicalResource@QMediaContent@@QBE?AVQMediaResource@@XZ @ 736 NONAME ; class QMediaResource QMediaContent::canonicalResource(void) const
	?quality@QImageEncoderSettings@@QBE?AW4EncodingQuality@QtMultimedia@@XZ @ 737 NONAME ; enum QtMultimedia::EncodingQuality QImageEncoderSettings::quality(void) const
	??0QMediaService@@IAE@AAVQMediaServicePrivate@@PAVQObject@@@Z @ 738 NONAME ; QMediaService::QMediaService(class QMediaServicePrivate &, class QObject *)
	?playlist@QMediaPlaylistNavigator@@QBEPAVQMediaPlaylistProvider@@XZ @ 739 NONAME ; class QMediaPlaylistProvider * QMediaPlaylistNavigator::playlist(void) const
	?metaObject@QAudioCaptureSource@@UBEPBUQMetaObject@@XZ @ 740 NONAME ; struct QMetaObject const * QAudioCaptureSource::metaObject(void) const
	?staticMetaObject@QMetaDataWriterControl@@2UQMetaObject@@B @ 741 NONAME ; struct QMetaObject const QMetaDataWriterControl::staticMetaObject
	?staticMetaObject@QMediaPlaylistControl@@2UQMetaObject@@B @ 742 NONAME ; struct QMetaObject const QMediaPlaylistControl::staticMetaObject
	?qt_metacast@QVideoDeviceControl@@UAEPAXPBD@Z @ 743 NONAME ; void * QVideoDeviceControl::qt_metacast(char const *)
	?metaObject@QVideoRendererControl@@UBEPBUQMetaObject@@XZ @ 744 NONAME ; struct QMetaObject const * QVideoRendererControl::metaObject(void) const
	??1QMediaPlaylistReader@@UAE@XZ @ 745 NONAME ; QMediaPlaylistReader::~QMediaPlaylistReader(void)
	?qt_metacall@QMetaDataWriterControl@@UAEHW4Call@QMetaObject@@HPAPAX@Z @ 746 NONAME ; int QMetaDataWriterControl::qt_metacall(enum QMetaObject::Call, int, void * *)
	?tr@QMediaPlaylist@@SA?AVQString@@PBD0H@Z @ 747 NONAME ; class QString QMediaPlaylist::tr(char const *, char const *, int)
	?setEncodingMode@QVideoEncoderSettings@@QAEXW4EncodingMode@QtMultimedia@@@Z @ 748 NONAME ; void QVideoEncoderSettings::setEncodingMode(enum QtMultimedia::EncodingMode)
	??1QMediaServiceFeaturesInterface@@UAE@XZ @ 749 NONAME ; QMediaServiceFeaturesInterface::~QMediaServiceFeaturesInterface(void)
	?errorString@QMediaPlayer@@QBE?AVQString@@XZ @ 750 NONAME ; class QString QMediaPlayer::errorString(void) const
	?qt_metacall@QMediaImageViewerService@@UAEHW4Call@QMetaObject@@HPAPAX@Z @ 751 NONAME ; int QMediaImageViewerService::qt_metacall(enum QMetaObject::Call, int, void * *)
	?loadFailed@QMediaPlaylist@@IAEXXZ @ 752 NONAME ; void QMediaPlaylist::loadFailed(void)
	?elapsedTime@QMediaImageViewer@@QBEHXZ @ 753 NONAME ; int QMediaImageViewer::elapsedTime(void) const
	?loaded@QMediaPlaylist@@IAEXXZ @ 754 NONAME ; void QMediaPlaylist::loaded(void)
	?mediaObject@QVideoWidget@@UBEPAVQMediaObject@@XZ @ 755 NONAME ; class QMediaObject * QVideoWidget::mediaObject(void) const
	??8QImageEncoderSettings@@QBE_NABV0@@Z @ 756 NONAME ; bool QImageEncoderSettings::operator==(class QImageEncoderSettings const &) const
	??1QMediaPlaylistNavigator@@UAE@XZ @ 757 NONAME ; QMediaPlaylistNavigator::~QMediaPlaylistNavigator(void)
	?tr@QVideoEncoderControl@@SA?AVQString@@PBD0@Z @ 758 NONAME ; class QString QVideoEncoderControl::tr(char const *, char const *)
	?qt_metacast@QMediaRecorderControl@@UAEPAXPBD@Z @ 759 NONAME ; void * QMediaRecorderControl::qt_metacast(char const *)
	?devices@QMediaServiceProvider@@UBE?AV?$QList@VQByteArray@@@@ABVQByteArray@@@Z @ 760 NONAME ; class QList<class QByteArray> QMediaServiceProvider::devices(class QByteArray const &) const
	?staticMetaObject@QMediaRecorderControl@@2UQMetaObject@@B @ 761 NONAME ; struct QMetaObject const QMediaRecorderControl::staticMetaObject
	?qt_metacall@QMediaPlaylist@@UAEHW4Call@QMetaObject@@HPAPAX@Z @ 762 NONAME ; int QMediaPlaylist::qt_metacall(enum QMetaObject::Call, int, void * *)
	?setBrightness@QVideoWidget@@QAEXH@Z @ 763 NONAME ; void QVideoWidget::setBrightness(int)
	??4QImageEncoderSettings@@QAEAAV0@ABV0@@Z @ 764 NONAME ; class QImageEncoderSettings & QImageEncoderSettings::operator=(class QImageEncoderSettings const &)
	?qt_metacall@QVideoWidgetControl@@UAEHW4Call@QMetaObject@@HPAPAX@Z @ 765 NONAME ; int QVideoWidgetControl::qt_metacall(enum QMetaObject::Call, int, void * *)
	??_EQAudioSystemFactoryInterface@@UAE@I@Z @ 766 NONAME ; QAudioSystemFactoryInterface::~QAudioSystemFactoryInterface(unsigned int)
	?isNull@QMediaContent@@QBE_NXZ @ 767 NONAME ; bool QMediaContent::isNull(void) const
	??1QVideoDeviceControl@@UAE@XZ @ 768 NONAME ; QVideoDeviceControl::~QVideoDeviceControl(void)
	?trUtf8@QMediaImageViewerService@@SA?AVQString@@PBD0H@Z @ 769 NONAME ; class QString QMediaImageViewerService::trUtf8(char const *, char const *, int)
	?tr@QVideoDeviceControl@@SA?AVQString@@PBD0H@Z @ 770 NONAME ; class QString QVideoDeviceControl::tr(char const *, char const *, int)
	?pause@QMediaImageViewer@@QAEXXZ @ 771 NONAME ; void QMediaImageViewer::pause(void)
	?trUtf8@QMediaServiceProvider@@SA?AVQString@@PBD0@Z @ 772 NONAME ; class QString QMediaServiceProvider::trUtf8(char const *, char const *)
	?tr@QMediaPlaylistSourceControl@@SA?AVQString@@PBD0@Z @ 773 NONAME ; class QString QMediaPlaylistSourceControl::tr(char const *, char const *)
	?state@QMediaPlayer@@QBE?AW4State@1@XZ @ 774 NONAME ; enum QMediaPlayer::State QMediaPlayer::state(void) const
	?tr@QAudioEncoderControl@@SA?AVQString@@PBD0@Z @ 775 NONAME ; class QString QAudioEncoderControl::tr(char const *, char const *)
	?bind@QMediaObject@@UAE_NPAVQObject@@@Z @ 776 NONAME ; bool QMediaObject::bind(class QObject *)
	?metaDataChanged@QMetaDataReaderControl@@IAEXXZ @ 777 NONAME ; void QMetaDataReaderControl::metaDataChanged(void)
	?playlist@QMediaPlayer@@QBEPAVQMediaPlaylist@@XZ @ 778 NONAME ; class QMediaPlaylist * QMediaPlayer::playlist(void) const
	?metaObject@QAudioEncoderControl@@UBEPBUQMetaObject@@XZ @ 779 NONAME ; struct QMetaObject const * QAudioEncoderControl::metaObject(void) const
	?previousItem@QMediaPlaylistNavigator@@QBE?AVQMediaContent@@H@Z @ 780 NONAME ; class QMediaContent QMediaPlaylistNavigator::previousItem(int) const
	??0QMediaTimeInterval@@QAE@ABV0@@Z @ 781 NONAME ; QMediaTimeInterval::QMediaTimeInterval(class QMediaTimeInterval const &)
	?tr@QAudioEndpointSelector@@SA?AVQString@@PBD0@Z @ 782 NONAME ; class QString QAudioEndpointSelector::tr(char const *, char const *)
	?qt_metacall@QGraphicsVideoItem@@UAEHW4Call@QMetaObject@@HPAPAX@Z @ 783 NONAME ; int QGraphicsVideoItem::qt_metacall(enum QMetaObject::Call, int, void * *)
	?tr@QMetaDataReaderControl@@SA?AVQString@@PBD0H@Z @ 784 NONAME ; class QString QMetaDataReaderControl::tr(char const *, char const *, int)
	?mediaChanged@QMediaPlaylistProvider@@IAEXHH@Z @ 785 NONAME ; void QMediaPlaylistProvider::mediaChanged(int, int)
	??1QMediaPluginLoader@@QAE@XZ @ 786 NONAME ; QMediaPluginLoader::~QMediaPluginLoader(void)
	?service@QMediaObject@@UBEPAVQMediaService@@XZ @ 787 NONAME ; class QMediaService * QMediaObject::service(void) const
	?tr@QMediaPlaylistIOPlugin@@SA?AVQString@@PBD0@Z @ 788 NONAME ; class QString QMediaPlaylistIOPlugin::tr(char const *, char const *)
	?removePropertyWatch@QMediaObject@@IAEXABVQByteArray@@@Z @ 789 NONAME ; void QMediaObject::removePropertyWatch(class QByteArray const &)
	?contrast@QPainterVideoSurface@@QBEHXZ @ 790 NONAME ; int QPainterVideoSurface::contrast(void) const
	?metaObject@QMediaControl@@UBEPBUQMetaObject@@XZ @ 791 NONAME ; struct QMetaObject const * QMediaControl::metaObject(void) const
	??1QMediaStreamsControl@@UAE@XZ @ 792 NONAME ; QMediaStreamsControl::~QMediaStreamsControl(void)
	?codec@QImageEncoderSettings@@QBE?AVQString@@XZ @ 793 NONAME ; class QString QImageEncoderSettings::codec(void) const
	?frequencyStep@QRadioTuner@@QBEHW4Band@1@@Z @ 794 NONAME ; int QRadioTuner::frequencyStep(enum QRadioTuner::Band) const
	??1QVideoRendererControl@@UAE@XZ @ 795 NONAME ; QVideoRendererControl::~QVideoRendererControl(void)
	?setNotifyInterval@QMediaObject@@QAEXH@Z @ 796 NONAME ; void QMediaObject::setNotifyInterval(int)
	?metaDataChanged@QMetaDataWriterControl@@IAEXXZ @ 797 NONAME ; void QMetaDataWriterControl::metaDataChanged(void)
	??_EQMetaDataReaderControl@@UAE@I@Z @ 798 NONAME ; QMetaDataReaderControl::~QMetaDataReaderControl(unsigned int)
	?clear@QMediaTimeRange@@QAEXXZ @ 799 NONAME ; void QMediaTimeRange::clear(void)
	?setOffset@QGraphicsVideoItem@@QAEXABVQPointF@@@Z @ 800 NONAME ; void QGraphicsVideoItem::setOffset(class QPointF const &)
	??_EQAudioEncoderControl@@UAE@I@Z @ 801 NONAME ; QAudioEncoderControl::~QAudioEncoderControl(unsigned int)
	?qt_metacast@QLocalMediaPlaylistProvider@@UAEPAXPBD@Z @ 802 NONAME ; void * QLocalMediaPlaylistProvider::qt_metacast(char const *)
	?resizeEvent@QVideoWidget@@MAEXPAVQResizeEvent@@@Z @ 803 NONAME ; void QVideoWidget::resizeEvent(class QResizeEvent *)
	?isReadOnly@QLocalMediaPlaylistProvider@@UBE_NXZ @ 804 NONAME ; bool QLocalMediaPlaylistProvider::isReadOnly(void) const
	?d_func@QMediaPlayer@@AAEPAVQMediaPlayerPrivate@@XZ @ 805 NONAME ; class QMediaPlayerPrivate * QMediaPlayer::d_func(void)
	?elapsedTimeChanged@QMediaImageViewer@@IAEXH@Z @ 806 NONAME ; void QMediaImageViewer::elapsedTimeChanged(int)
	?metaDataWritableChanged@QMediaRecorder@@IAEX_N@Z @ 807 NONAME ; void QMediaRecorder::metaDataWritableChanged(bool)
	?loopsChanged@QSoundEffect@@IAEXXZ @ 808 NONAME ; void QSoundEffect::loopsChanged(void)
	?setDataSize@QMediaResource@@QAEX_J@Z @ 809 NONAME ; void QMediaResource::setDataSize(long long)
	?trUtf8@QAudioEndpointSelector@@SA?AVQString@@PBD0H@Z @ 810 NONAME ; class QString QAudioEndpointSelector::trUtf8(char const *, char const *, int)
	?audioDescription@QAudioCaptureSource@@QBE?AVQString@@ABV2@@Z @ 811 NONAME ; class QString QAudioCaptureSource::audioDescription(class QString const &) const
	?media@QLocalMediaPlaylistProvider@@UBE?AVQMediaContent@@H@Z @ 812 NONAME ; class QMediaContent QLocalMediaPlaylistProvider::media(int) const
	?metaObject@QPainterVideoSurface@@UBEPBUQMetaObject@@XZ @ 813 NONAME ; struct QMetaObject const * QPainterVideoSurface::metaObject(void) const
	??0QVideoWidgetControl@@IAE@PAVQObject@@@Z @ 814 NONAME ; QVideoWidgetControl::QVideoWidgetControl(class QObject *)
	??1QImageEncoderSettings@@QAE@XZ @ 815 NONAME ; QImageEncoderSettings::~QImageEncoderSettings(void)
	?isAvailable@QAudioCaptureSource@@UBE_NXZ @ 816 NONAME ; bool QAudioCaptureSource::isAvailable(void) const
	?getStaticMetaObject@QAudioEndpointSelector@@SAABUQMetaObject@@XZ @ 817 NONAME ; struct QMetaObject const & QAudioEndpointSelector::getStaticMetaObject(void)
	??0QMediaObject@@IAE@PAVQObject@@PAVQMediaService@@@Z @ 818 NONAME ; QMediaObject::QMediaObject(class QObject *, class QMediaService *)
	?addTimeRange@QMediaTimeRange@@QAEXABV1@@Z @ 819 NONAME ; void QMediaTimeRange::addTimeRange(class QMediaTimeRange const &)
	?timerEvent@QMediaImageViewer@@MAEXPAVQTimerEvent@@@Z @ 820 NONAME ; void QMediaImageViewer::timerEvent(class QTimerEvent *)
	?getStaticMetaObject@QMediaPlaylistIOPlugin@@SAABUQMetaObject@@XZ @ 821 NONAME ; struct QMetaObject const & QMediaPlaylistIOPlugin::getStaticMetaObject(void)
	?metaObject@QLocalMediaPlaylistProvider@@UBEPBUQMetaObject@@XZ @ 822 NONAME ; struct QMetaObject const * QLocalMediaPlaylistProvider::metaObject(void) const
	?currentIndexChanged@QMediaPlaylist@@IAEXH@Z @ 823 NONAME ; void QMediaPlaylist::currentIndexChanged(int)
	?requestControl@QMediaImageViewerService@@UAEPAVQMediaControl@@PBD@Z @ 824 NONAME ; class QMediaControl * QMediaImageViewerService::requestControl(char const *)
	?videoCodecDescription@QMediaRecorder@@QBE?AVQString@@ABV2@@Z @ 825 NONAME ; class QString QMediaRecorder::videoCodecDescription(class QString const &) const
	?trUtf8@QMediaImageViewer@@SA?AVQString@@PBD0H@Z @ 826 NONAME ; class QString QMediaImageViewer::trUtf8(char const *, char const *, int)
	?stop@QMediaImageViewer@@QAEXXZ @ 827 NONAME ; void QMediaImageViewer::stop(void)
	?metaObject@QMediaPlaylistSourceControl@@UBEPBUQMetaObject@@XZ @ 828 NONAME ; struct QMetaObject const * QMediaPlaylistSourceControl::metaObject(void) const
	?availableEndpointsChanged@QAudioEndpointSelector@@IAEXXZ @ 829 NONAME ; void QAudioEndpointSelector::availableEndpointsChanged(void)
	?isNull@QVideoEncoderSettings@@QBE_NXZ @ 830 NONAME ; bool QVideoEncoderSettings::isNull(void) const
	?qt_metacast@QMediaPlayerControl@@UAEPAXPBD@Z @ 831 NONAME ; void * QMediaPlayerControl::qt_metacast(char const *)
	?setMediaObject@QMediaPlaylist@@MAE_NPAVQMediaObject@@@Z @ 832 NONAME ; bool QMediaPlaylist::setMediaObject(class QMediaObject *)
	?supportedMimeTypes@QMediaPlayer@@SA?AVQStringList@@V?$QFlags@W4Flag@QMediaPlayer@@@@@Z @ 833 NONAME ; class QStringList QMediaPlayer::supportedMimeTypes(class QFlags<enum QMediaPlayer::Flag>)
	?source@QSoundEffect@@QBE?AVQUrl@@XZ @ 834 NONAME ; class QUrl QSoundEffect::source(void) const
	?addMedia@QMediaPlaylist@@QAE_NABVQMediaContent@@@Z @ 835 NONAME ; bool QMediaPlaylist::addMedia(class QMediaContent const &)
	?metaObject@QMediaPlaylistNavigator@@UBEPBUQMetaObject@@XZ @ 836 NONAME ; struct QMetaObject const * QMediaPlaylistNavigator::metaObject(void) const
	?tr@QMediaPlayer@@SA?AVQString@@PBD0H@Z @ 837 NONAME ; class QString QMediaPlayer::tr(char const *, char const *, int)
	?staticMetaObject@QRadioTunerControl@@2UQMetaObject@@B @ 838 NONAME ; struct QMetaObject const QRadioTunerControl::staticMetaObject
	?dataSize@QMediaResource@@QBE_JXZ @ 839 NONAME ; long long QMediaResource::dataSize(void) const
	?tr@QMediaPlaylistNavigator@@SA?AVQString@@PBD0@Z @ 840 NONAME ; class QString QMediaPlaylistNavigator::tr(char const *, char const *)
	?paint@QPainterVideoSurface@@QAEXPAVQPainter@@ABVQRectF@@1@Z @ 841 NONAME ; void QPainterVideoSurface::paint(class QPainter *, class QRectF const &, class QRectF const &)
	?tr@QMediaService@@SA?AVQString@@PBD0H@Z @ 842 NONAME ; class QString QMediaService::tr(char const *, char const *, int)
	?resolution@QVideoEncoderSettings@@QBE?AVQSize@@XZ @ 843 NONAME ; class QSize QVideoEncoderSettings::resolution(void) const
	?setContrast@QVideoWidget@@QAEXH@Z @ 844 NONAME ; void QVideoWidget::setContrast(int)
	??1QMediaServiceSupportedFormatsInterface@@UAE@XZ @ 845 NONAME ; QMediaServiceSupportedFormatsInterface::~QMediaServiceSupportedFormatsInterface(void)
	?quality@QVideoEncoderSettings@@QBE?AW4EncodingQuality@QtMultimedia@@XZ @ 846 NONAME ; enum QtMultimedia::EncodingQuality QVideoEncoderSettings::quality(void) const
	?activeStreamsChanged@QMediaStreamsControl@@IAEXXZ @ 847 NONAME ; void QMediaStreamsControl::activeStreamsChanged(void)
	?aspectRatioMode@QVideoWidget@@QBE?AW4AspectRatioMode@Qt@@XZ @ 848 NONAME ; enum Qt::AspectRatioMode QVideoWidget::aspectRatioMode(void) const
	??1QMediaRecorder@@UAE@XZ @ 849 NONAME ; QMediaRecorder::~QMediaRecorder(void)
	?next@QMediaPlaylistNavigator@@QAEXXZ @ 850 NONAME ; void QMediaPlaylistNavigator::next(void)
	?setMedia@QMediaPlayer@@QAEXABVQMediaContent@@PAVQIODevice@@@Z @ 851 NONAME ; void QMediaPlayer::setMedia(class QMediaContent const &, class QIODevice *)
	??_EQMediaPlaylistControl@@UAE@I@Z @ 852 NONAME ; QMediaPlaylistControl::~QMediaPlaylistControl(unsigned int)
	??1QMetaDataReaderControl@@UAE@XZ @ 853 NONAME ; QMetaDataReaderControl::~QMetaDataReaderControl(void)
	?qt_metacall@QVideoEncoderControl@@UAEHW4Call@QMetaObject@@HPAPAX@Z @ 854 NONAME ; int QVideoEncoderControl::qt_metacall(enum QMetaObject::Call, int, void * *)
	?mediaInserted@QMediaPlaylist@@IAEXHH@Z @ 855 NONAME ; void QMediaPlaylist::mediaInserted(int, int)
	?currentIndex@QMediaPlaylistNavigator@@QBEHXZ @ 856 NONAME ; int QMediaPlaylistNavigator::currentIndex(void) const
	?volumeChanged@QSoundEffect@@IAEXXZ @ 857 NONAME ; void QSoundEffect::volumeChanged(void)
	?duration@QMediaRecorder@@QBE_JXZ @ 858 NONAME ; long long QMediaRecorder::duration(void) const
	??0QMediaContent@@QAE@XZ @ 859 NONAME ; QMediaContent::QMediaContent(void)
	?metaObject@QMediaPlayer@@UBEPBUQMetaObject@@XZ @ 860 NONAME ; struct QMetaObject const * QMediaPlayer::metaObject(void) const
	?language@QMediaResource@@QBE?AVQString@@XZ @ 861 NONAME ; class QString QMediaResource::language(void) const
	?networkManager@QMediaImageViewerService@@QBEPAVQNetworkAccessManager@@XZ @ 862 NONAME ; class QNetworkAccessManager * QMediaImageViewerService::networkManager(void) const
	?trUtf8@QLocalMediaPlaylistProvider@@SA?AVQString@@PBD0@Z @ 863 NONAME ; class QString QLocalMediaPlaylistProvider::trUtf8(char const *, char const *)
	?isMetaDataAvailable@QMediaRecorder@@QBE_NXZ @ 864 NONAME ; bool QMediaRecorder::isMetaDataAvailable(void) const
	??1QGraphicsVideoItem@@UAE@XZ @ 865 NONAME ; QGraphicsVideoItem::~QGraphicsVideoItem(void)
	?tr@QVideoDeviceControl@@SA?AVQString@@PBD0@Z @ 866 NONAME ; class QString QVideoDeviceControl::tr(char const *, char const *)
	??0QVideoDeviceControl@@IAE@PAVQObject@@@Z @ 867 NONAME ; QVideoDeviceControl::QVideoDeviceControl(class QObject *)
	?frequency@QRadioTuner@@QBEHXZ @ 868 NONAME ; int QRadioTuner::frequency(void) const
	?trUtf8@QMediaContainerControl@@SA?AVQString@@PBD0@Z @ 869 NONAME ; class QString QMediaContainerControl::trUtf8(char const *, char const *)
	?tr@QMediaPlaylistProvider@@SA?AVQString@@PBD0@Z @ 870 NONAME ; class QString QMediaPlaylistProvider::tr(char const *, char const *)
	?metaObject@QMetaDataWriterControl@@UBEPBUQMetaObject@@XZ @ 871 NONAME ; struct QMetaObject const * QMetaDataWriterControl::metaObject(void) const
	?metaObject@QVideoDeviceControl@@UBEPBUQMetaObject@@XZ @ 872 NONAME ; struct QMetaObject const * QVideoDeviceControl::metaObject(void) const
	?removeMedia@QMediaPlaylist@@QAE_NH@Z @ 873 NONAME ; bool QMediaPlaylist::removeMedia(int)
	??1QMetaDataWriterControl@@UAE@XZ @ 874 NONAME ; QMetaDataWriterControl::~QMetaDataWriterControl(void)
	?trUtf8@QImageEncoderControl@@SA?AVQString@@PBD0@Z @ 875 NONAME ; class QString QImageEncoderControl::trUtf8(char const *, char const *)
	?d_func@QMediaObject@@AAEPAVQMediaObjectPrivate@@XZ @ 876 NONAME ; class QMediaObjectPrivate * QMediaObject::d_func(void)
	?getStaticMetaObject@QVideoWindowControl@@SAABUQMetaObject@@XZ @ 877 NONAME ; struct QMetaObject const & QVideoWindowControl::getStaticMetaObject(void)
	??0QAudioEndpointSelector@@IAE@PAVQObject@@@Z @ 878 NONAME ; QAudioEndpointSelector::QAudioEndpointSelector(class QObject *)
	?mediaStatus@QMediaImageViewer@@QBE?AW4MediaStatus@1@XZ @ 879 NONAME ; enum QMediaImageViewer::MediaStatus QMediaImageViewer::mediaStatus(void) const
	?tr@QVideoWidgetControl@@SA?AVQString@@PBD0@Z @ 880 NONAME ; class QString QVideoWidgetControl::tr(char const *, char const *)
	?trUtf8@QMediaRecorderControl@@SA?AVQString@@PBD0@Z @ 881 NONAME ; class QString QMediaRecorderControl::trUtf8(char const *, char const *)
	?qt_metacall@QMediaPlaylistNavigator@@UAEHW4Call@QMetaObject@@HPAPAX@Z @ 882 NONAME ; int QMediaPlaylistNavigator::qt_metacall(enum QMetaObject::Call, int, void * *)
	?metaObject@QMediaPlaylistControl@@UBEPBUQMetaObject@@XZ @ 883 NONAME ; struct QMetaObject const * QMediaPlaylistControl::metaObject(void) const
	?normalized@QMediaTimeInterval@@QBE?AV1@XZ @ 884 NONAME ; class QMediaTimeInterval QMediaTimeInterval::normalized(void) const
	?durationChanged@QMediaPlayerControl@@IAEX_J@Z @ 885 NONAME ; void QMediaPlayerControl::durationChanged(long long)
	?trUtf8@QMediaContainerControl@@SA?AVQString@@PBD0H@Z @ 886 NONAME ; class QString QMediaContainerControl::trUtf8(char const *, char const *, int)
	?staticMetaObject@QMediaImageViewerService@@2UQMetaObject@@B @ 887 NONAME ; struct QMetaObject const QMediaImageViewerService::staticMetaObject
	?mediaChanged@QMediaImageViewer@@IAEXABVQMediaContent@@@Z @ 888 NONAME ; void QMediaImageViewer::mediaChanged(class QMediaContent const &)
	?errorString@QRadioTuner@@QBE?AVQString@@XZ @ 889 NONAME ; class QString QRadioTuner::errorString(void) const
	?d_func@QMediaPlaylistNavigator@@ABEPBVQMediaPlaylistNavigatorPrivate@@XZ @ 890 NONAME ; class QMediaPlaylistNavigatorPrivate const * QMediaPlaylistNavigator::d_func(void) const
	?contrastChanged@QVideoWidgetControl@@IAEXH@Z @ 891 NONAME ; void QVideoWidgetControl::contrastChanged(int)
	??0QVideoRendererControl@@IAE@PAVQObject@@@Z @ 892 NONAME ; QVideoRendererControl::QVideoRendererControl(class QObject *)
	?trUtf8@QMediaObject@@SA?AVQString@@PBD0@Z @ 893 NONAME ; class QString QMediaObject::trUtf8(char const *, char const *)
	?tr@QMediaImageViewer@@SA?AVQString@@PBD0H@Z @ 894 NONAME ; class QString QMediaImageViewer::tr(char const *, char const *, int)
	?videoSettings@QMediaRecorder@@QBE?AVQVideoEncoderSettings@@XZ @ 895 NONAME ; class QVideoEncoderSettings QMediaRecorder::videoSettings(void) const
	?playbackModeChanged@QMediaPlaylist@@IAEXW4PlaybackMode@1@@Z @ 896 NONAME ; void QMediaPlaylist::playbackModeChanged(enum QMediaPlaylist::PlaybackMode)
	?setMediaObject@QVideoWidget@@MAE_NPAVQMediaObject@@@Z @ 897 NONAME ; bool QVideoWidget::setMediaObject(class QMediaObject *)
	??1QMediaPlaylistProvider@@UAE@XZ @ 898 NONAME ; QMediaPlaylistProvider::~QMediaPlaylistProvider(void)
	?qt_metacall@QMediaImageViewer@@UAEHW4Call@QMetaObject@@HPAPAX@Z @ 899 NONAME ; int QMediaImageViewer::qt_metacall(enum QMetaObject::Call, int, void * *)
	?tr@QMediaPlaylistProvider@@SA?AVQString@@PBD0H@Z @ 900 NONAME ; class QString QMediaPlaylistProvider::tr(char const *, char const *, int)
	?tr@QMediaPlaylistNavigator@@SA?AVQString@@PBD0H@Z @ 901 NONAME ; class QString QMediaPlaylistNavigator::tr(char const *, char const *, int)
	?hue@QPainterVideoSurface@@QBEHXZ @ 902 NONAME ; int QPainterVideoSurface::hue(void) const
	?showEvent@QVideoWidget@@MAEXPAVQShowEvent@@@Z @ 903 NONAME ; void QVideoWidget::showEvent(class QShowEvent *)
	?codecs@QMediaServiceProviderHint@@QBE?AVQStringList@@XZ @ 904 NONAME ; class QStringList QMediaServiceProviderHint::codecs(void) const
	?error@QMediaPlayer@@QBE?AW4Error@1@XZ @ 905 NONAME ; enum QMediaPlayer::Error QMediaPlayer::error(void) const
	?insertMedia@QLocalMediaPlaylistProvider@@UAE_NHABV?$QList@VQMediaContent@@@@@Z @ 906 NONAME ; bool QLocalMediaPlaylistProvider::insertMedia(int, class QList<class QMediaContent> const &)
	?mediaStream@QMediaPlayer@@QBEPBVQIODevice@@XZ @ 907 NONAME ; class QIODevice const * QMediaPlayer::mediaStream(void) const
	??0QMediaPlaylistProvider@@IAE@AAVQMediaPlaylistProviderPrivate@@PAVQObject@@@Z @ 908 NONAME ; QMediaPlaylistProvider::QMediaPlaylistProvider(class QMediaPlaylistProviderPrivate &, class QObject *)
	?audioInputs@QAudioCaptureSource@@QBE?AV?$QList@VQString@@@@XZ @ 909 NONAME ; class QList<class QString> QAudioCaptureSource::audioInputs(void) const
	?setResolution@QImageEncoderSettings@@QAEXABVQSize@@@Z @ 910 NONAME ; void QImageEncoderSettings::setResolution(class QSize const &)
	??0QImageEncoderSettings@@QAE@ABV0@@Z @ 911 NONAME ; QImageEncoderSettings::QImageEncoderSettings(class QImageEncoderSettings const &)
	?state@QMediaImageViewer@@QBE?AW4State@1@XZ @ 912 NONAME ; enum QMediaImageViewer::State QMediaImageViewer::state(void) const
	?errorChanged@QAbstractAudioOutput@@IAEXW4Error@QAudio@@@Z @ 913 NONAME ; void QAbstractAudioOutput::errorChanged(enum QAudio::Error)
	?clear@QMediaPlaylist@@QAE_NXZ @ 914 NONAME ; bool QMediaPlaylist::clear(void)
	?surroundingItemsChanged@QMediaPlaylistNavigator@@IAEXXZ @ 915 NONAME ; void QMediaPlaylistNavigator::surroundingItemsChanged(void)
	?d_func@QMediaService@@ABEPBVQMediaServicePrivate@@XZ @ 916 NONAME ; class QMediaServicePrivate const * QMediaService::d_func(void) const
	?getStaticMetaObject@QMediaPlaylistProvider@@SAABUQMetaObject@@XZ @ 917 NONAME ; struct QMetaObject const & QMediaPlaylistProvider::getStaticMetaObject(void)
	?availablePlaybackRangesChanged@QMediaPlayerControl@@IAEXABVQMediaTimeRange@@@Z @ 918 NONAME ; void QMediaPlayerControl::availablePlaybackRangesChanged(class QMediaTimeRange const &)
	??1QVideoEncoderSettings@@QAE@XZ @ 919 NONAME ; QVideoEncoderSettings::~QVideoEncoderSettings(void)
	?clear@QLocalMediaPlaylistProvider@@UAE_NXZ @ 920 NONAME ; bool QLocalMediaPlaylistProvider::clear(void)
	?setSampleRate@QMediaResource@@QAEXH@Z @ 921 NONAME ; void QMediaResource::setSampleRate(int)
	?setBand@QRadioTuner@@QAEXW4Band@1@@Z @ 922 NONAME ; void QRadioTuner::setBand(enum QRadioTuner::Band)
	?mediaChanged@QMediaPlayerControl@@IAEXABVQMediaContent@@@Z @ 923 NONAME ; void QMediaPlayerControl::mediaChanged(class QMediaContent const &)
	??0QPainterVideoSurface@@QAE@PAVQObject@@@Z @ 924 NONAME ; QPainterVideoSurface::QPainterVideoSurface(class QObject *)
	?removeMedia@QMediaPlaylist@@QAE_NHH@Z @ 925 NONAME ; bool QMediaPlaylist::removeMedia(int, int)
	?d_func@QGraphicsVideoItem@@ABEPBVQGraphicsVideoItemPrivate@@XZ @ 926 NONAME ; class QGraphicsVideoItemPrivate const * QGraphicsVideoItem::d_func(void) const
	?setPlaylist@QMediaImageViewer@@QAEXPAVQMediaPlaylist@@@Z @ 927 NONAME ; void QMediaImageViewer::setPlaylist(class QMediaPlaylist *)
	?itemChange@QGraphicsVideoItem@@MAE?AVQVariant@@W4GraphicsItemChange@QGraphicsItem@@ABV2@@Z @ 928 NONAME ; class QVariant QGraphicsVideoItem::itemChange(enum QGraphicsItem::GraphicsItemChange, class QVariant const &)
	?stateChanged@QRadioTuner@@IAEXW4State@1@@Z @ 929 NONAME ; void QRadioTuner::stateChanged(enum QRadioTuner::State)
	?supportedPixelFormats@QPainterVideoSurface@@UBE?AV?$QList@W4PixelFormat@QVideoFrame@@@@W4HandleType@QAbstractVideoBuffer@@@Z @ 930 NONAME ; class QList<enum QVideoFrame::PixelFormat> QPainterVideoSurface::supportedPixelFormats(enum QAbstractVideoBuffer::HandleType) const
	?getStaticMetaObject@QMediaControl@@SAABUQMetaObject@@XZ @ 931 NONAME ; struct QMetaObject const & QMediaControl::getStaticMetaObject(void)
	?qt_metacall@QMediaService@@UAEHW4Call@QMetaObject@@HPAPAX@Z @ 932 NONAME ; int QMediaService::qt_metacall(enum QMetaObject::Call, int, void * *)
	?bitRate@QAudioEncoderSettings@@QBEHXZ @ 933 NONAME ; int QAudioEncoderSettings::bitRate(void) const
	?mediaObject@QMediaRecorder@@UBEPAVQMediaObject@@XZ @ 934 NONAME ; class QMediaObject * QMediaRecorder::mediaObject(void) const
	?trUtf8@QMediaStreamsControl@@SA?AVQString@@PBD0@Z @ 935 NONAME ; class QString QMediaStreamsControl::trUtf8(char const *, char const *)
	??0QMediaResource@@QAE@ABV0@@Z @ 936 NONAME ; QMediaResource::QMediaResource(class QMediaResource const &)
	?d_func@QMediaPlaylistNavigator@@AAEPAVQMediaPlaylistNavigatorPrivate@@XZ @ 937 NONAME ; class QMediaPlaylistNavigatorPrivate * QMediaPlaylistNavigator::d_func(void)
	?save@QMediaPlaylistProvider@@UAE_NABVQUrl@@PBD@Z @ 938 NONAME ; bool QMediaPlaylistProvider::save(class QUrl const &, char const *)
	?frequencyRange@QRadioTuner@@QBE?AU?$QPair@HH@@W4Band@1@@Z @ 939 NONAME ; struct QPair<int, int> QRadioTuner::frequencyRange(enum QRadioTuner::Band) const
	?trUtf8@QPainterVideoSurface@@SA?AVQString@@PBD0@Z @ 940 NONAME ; class QString QPainterVideoSurface::trUtf8(char const *, char const *)
	?setResolution@QMediaResource@@QAEXABVQSize@@@Z @ 941 NONAME ; void QMediaResource::setResolution(class QSize const &)
	??1QAudioCaptureSource@@UAE@XZ @ 942 NONAME ; QAudioCaptureSource::~QAudioCaptureSource(void)
	?positionChanged@QMediaPlayer@@IAEX_J@Z @ 943 NONAME ; void QMediaPlayer::positionChanged(long long)
	?staticMetaObject@QMediaRecorder@@2UQMetaObject@@B @ 944 NONAME ; struct QMetaObject const QMediaRecorder::staticMetaObject
	?setMuted@QRadioTuner@@QAEX_N@Z @ 945 NONAME ; void QRadioTuner::setMuted(bool)
	?getStaticMetaObject@QMediaRecorder@@SAABUQMetaObject@@XZ @ 946 NONAME ; struct QMetaObject const & QMediaRecorder::getStaticMetaObject(void)
	?streamsChanged@QMediaStreamsControl@@IAEXXZ @ 947 NONAME ; void QMediaStreamsControl::streamsChanged(void)
	??0QMediaServiceProviderHint@@QAE@V?$QFlags@W4Feature@QMediaServiceProviderHint@@@@@Z @ 948 NONAME ; QMediaServiceProviderHint::QMediaServiceProviderHint(class QFlags<enum QMediaServiceProviderHint::Feature>)
	?mediaStatusChanged@QMediaPlayer@@IAEXW4MediaStatus@1@@Z @ 949 NONAME ; void QMediaPlayer::mediaStatusChanged(enum QMediaPlayer::MediaStatus)
	?trUtf8@QMediaPlaylistIOPlugin@@SA?AVQString@@PBD0H@Z @ 950 NONAME ; class QString QMediaPlaylistIOPlugin::trUtf8(char const *, char const *, int)
	?tr@QVideoWidget@@SA?AVQString@@PBD0H@Z @ 951 NONAME ; class QString QVideoWidget::tr(char const *, char const *, int)
	?nextIndex@QMediaPlaylist@@QBEHH@Z @ 952 NONAME ; int QMediaPlaylist::nextIndex(int) const
	??0QMediaService@@IAE@PAVQObject@@@Z @ 953 NONAME ; QMediaService::QMediaService(class QObject *)
	?qt_metacall@QMediaPlayer@@UAEHW4Call@QMetaObject@@HPAPAX@Z @ 954 NONAME ; int QMediaPlayer::qt_metacall(enum QMetaObject::Call, int, void * *)
	??4QAudioEncoderSettings@@QAEAAV0@ABV0@@Z @ 955 NONAME ; class QAudioEncoderSettings & QAudioEncoderSettings::operator=(class QAudioEncoderSettings const &)
	??_EQMediaStreamsControl@@UAE@I@Z @ 956 NONAME ; QMediaStreamsControl::~QMediaStreamsControl(unsigned int)
	?playbackModeChanged@QMediaPlaylistNavigator@@IAEXW4PlaybackMode@QMediaPlaylist@@@Z @ 957 NONAME ; void QMediaPlaylistNavigator::playbackModeChanged(enum QMediaPlaylist::PlaybackMode)
	?staticMetaObject@QAudioCaptureSource@@2UQMetaObject@@B @ 958 NONAME ; struct QMetaObject const QAudioCaptureSource::staticMetaObject
	?staticMetaObject@QMediaContainerControl@@2UQMetaObject@@B @ 959 NONAME ; struct QMetaObject const QMediaContainerControl::staticMetaObject
	?sourceChanged@QSoundEffect@@IAEXXZ @ 960 NONAME ; void QSoundEffect::sourceChanged(void)
	??9@YA_NABVQMediaTimeRange@@0@Z @ 961 NONAME ; bool operator!=(class QMediaTimeRange const &, class QMediaTimeRange const &)
	?availableAudioInputsChanged@QAudioCaptureSource@@IAEXXZ @ 962 NONAME ; void QAudioCaptureSource::availableAudioInputsChanged(void)
	?load@QMediaPlaylist@@QAEXPAVQIODevice@@PBD@Z @ 963 NONAME ; void QMediaPlaylist::load(class QIODevice *, char const *)
	?currentMediaChanged@QMediaPlaylistControl@@IAEXABVQMediaContent@@@Z @ 964 NONAME ; void QMediaPlaylistControl::currentMediaChanged(class QMediaContent const &)
	?isReadOnly@QMediaPlaylist@@QBE_NXZ @ 965 NONAME ; bool QMediaPlaylist::isReadOnly(void) const
	?supportedFrameRates@QMediaRecorder@@QBE?AV?$QList@M@@ABVQVideoEncoderSettings@@PA_N@Z @ 966 NONAME ; class QList<float> QMediaRecorder::supportedFrameRates(class QVideoEncoderSettings const &, bool *) const
	?mediaObject@QMediaPlaylist@@UBEPAVQMediaObject@@XZ @ 967 NONAME ; class QMediaObject * QMediaPlaylist::mediaObject(void) const
	?start@QRadioTuner@@QAEXXZ @ 968 NONAME ; void QRadioTuner::start(void)
	?play@QMediaPlayer@@QAEXXZ @ 969 NONAME ; void QMediaPlayer::play(void)
	??1QAudioEndpointSelector@@UAE@XZ @ 970 NONAME ; QAudioEndpointSelector::~QAudioEndpointSelector(void)
	?trUtf8@QVideoWidget@@SA?AVQString@@PBD0@Z @ 971 NONAME ; class QString QVideoWidget::trUtf8(char const *, char const *)
	?stereoStatusChanged@QRadioTunerControl@@IAEX_N@Z @ 972 NONAME ; void QRadioTunerControl::stereoStatusChanged(bool)
	??4QMediaResource@@QAEAAV0@ABV0@@Z @ 973 NONAME ; class QMediaResource & QMediaResource::operator=(class QMediaResource const &)
	?qt_metacast@QAudioCaptureSource@@UAEPAXPBD@Z @ 974 NONAME ; void * QAudioCaptureSource::qt_metacast(char const *)
	?metaObject@QVideoWidget@@UBEPBUQMetaObject@@XZ @ 975 NONAME ; struct QMetaObject const * QVideoWidget::metaObject(void) const
	?defaultAudioInput@QAudioCaptureSource@@QBE?AVQString@@XZ @ 976 NONAME ; class QString QAudioCaptureSource::defaultAudioInput(void) const
	?trUtf8@QImageEncoderControl@@SA?AVQString@@PBD0H@Z @ 977 NONAME ; class QString QImageEncoderControl::trUtf8(char const *, char const *, int)
	??1QMediaPlaylistWriter@@UAE@XZ @ 978 NONAME ; QMediaPlaylistWriter::~QMediaPlaylistWriter(void)
	?staticMetaObject@QAudioSystemPlugin@@2UQMetaObject@@B @ 979 NONAME ; struct QMetaObject const QAudioSystemPlugin::staticMetaObject
	?position@QMediaPlayer@@QBE_JXZ @ 980 NONAME ; long long QMediaPlayer::position(void) const
	??_EQMediaPlaylistIOInterface@@UAE@I@Z @ 981 NONAME ; QMediaPlaylistIOInterface::~QMediaPlaylistIOInterface(unsigned int)
	??_EQVideoWidget@@UAE@I@Z @ 982 NONAME ; QVideoWidget::~QVideoWidget(unsigned int)
	?contains@QMediaTimeInterval@@QBE_N_J@Z @ 983 NONAME ; bool QMediaTimeInterval::contains(long long) const
	?errorChanged@QAbstractAudioInput@@IAEXW4Error@QAudio@@@Z @ 984 NONAME ; void QAbstractAudioInput::errorChanged(enum QAudio::Error)
	??_EQMediaServiceSupportedDevicesInterface@@UAE@I@Z @ 985 NONAME ; QMediaServiceSupportedDevicesInterface::~QMediaServiceSupportedDevicesInterface(unsigned int)
	?brightnessChanged@QVideoWidget@@IAEXH@Z @ 986 NONAME ; void QVideoWidget::brightnessChanged(int)
	??_EQMediaPlaylistProvider@@UAE@I@Z @ 987 NONAME ; QMediaPlaylistProvider::~QMediaPlaylistProvider(unsigned int)
	?setResolution@QVideoEncoderSettings@@QAEXHH@Z @ 988 NONAME ; void QVideoEncoderSettings::setResolution(int, int)
	?trUtf8@QMediaControl@@SA?AVQString@@PBD0@Z @ 989 NONAME ; class QString QMediaControl::trUtf8(char const *, char const *)
	?supportedSampleRates@QAudioDeviceInfo@@QBE?AV?$QList@H@@XZ @ 990 NONAME ; class QList<int> QAudioDeviceInfo::supportedSampleRates(void) const
	??_EQMediaObject@@UAE@I@Z @ 991 NONAME ; QMediaObject::~QMediaObject(unsigned int)
	?load@QMediaPluginLoader@@AAEXXZ @ 992 NONAME ; void QMediaPluginLoader::load(void)
	?trUtf8@QSoundEffect@@SA?AVQString@@PBD0@Z @ 993 NONAME ; class QString QSoundEffect::trUtf8(char const *, char const *)
	?qt_metacast@QGraphicsVideoItem@@UAEPAXPBD@Z @ 994 NONAME ; void * QGraphicsVideoItem::qt_metacast(char const *)
	?tr@QRadioTuner@@SA?AVQString@@PBD0H@Z @ 995 NONAME ; class QString QRadioTuner::tr(char const *, char const *, int)
	?notifyIntervalChanged@QMediaObject@@IAEXH@Z @ 996 NONAME ; void QMediaObject::notifyIntervalChanged(int)
	?setMedia@QMediaImageViewer@@QAEXABVQMediaContent@@@Z @ 997 NONAME ; void QMediaImageViewer::setMedia(class QMediaContent const &)
	?tr@QMediaStreamsControl@@SA?AVQString@@PBD0H@Z @ 998 NONAME ; class QString QMediaStreamsControl::tr(char const *, char const *, int)
	??YQMediaTimeRange@@QAEAAV0@ABV0@@Z @ 999 NONAME ; class QMediaTimeRange & QMediaTimeRange::operator+=(class QMediaTimeRange const &)
	??0QMediaImageViewerService@@QAE@PAVQObject@@@Z @ 1000 NONAME ; QMediaImageViewerService::QMediaImageViewerService(class QObject *)
	?qt_metacast@QAudioSystemPlugin@@UAEPAXPBD@Z @ 1001 NONAME ; void * QAudioSystemPlugin::qt_metacast(char const *)
	?setVideoOutput@QMediaPlayer@@QAEXPAVQVideoWidget@@@Z @ 1002 NONAME ; void QMediaPlayer::setVideoOutput(class QVideoWidget *)
	?mutedChanged@QMediaRecorderControl@@IAEX_N@Z @ 1003 NONAME ; void QMediaRecorderControl::mutedChanged(bool)
	??1QMediaPlaylistIOInterface@@UAE@XZ @ 1004 NONAME ; QMediaPlaylistIOInterface::~QMediaPlaylistIOInterface(void)
	?isMetaDataWritable@QMediaRecorder@@QBE_NXZ @ 1005 NONAME ; bool QMediaRecorder::isMetaDataWritable(void) const
	?qt_metacall@QMediaPlaylistSourceControl@@UAEHW4Call@QMetaObject@@HPAPAX@Z @ 1006 NONAME ; int QMediaPlaylistSourceControl::qt_metacall(enum QMetaObject::Call, int, void * *)
	?trUtf8@QMediaImageViewerService@@SA?AVQString@@PBD0@Z @ 1007 NONAME ; class QString QMediaImageViewerService::trUtf8(char const *, char const *)
	??0QMediaPlayer@@QAE@PAVQObject@@V?$QFlags@W4Flag@QMediaPlayer@@@@PAVQMediaServiceProvider@@@Z @ 1008 NONAME ; QMediaPlayer::QMediaPlayer(class QObject *, class QFlags<enum QMediaPlayer::Flag>, class QMediaServiceProvider *)
	?mediaRemoved@QMediaPlaylistProvider@@IAEXHH@Z @ 1009 NONAME ; void QMediaPlaylistProvider::mediaRemoved(int, int)
	?audioBitRate@QMediaResource@@QBEHXZ @ 1010 NONAME ; int QMediaResource::audioBitRate(void) const
	?qt_metacast@QMetaDataWriterControl@@UAEPAXPBD@Z @ 1011 NONAME ; void * QMetaDataWriterControl::qt_metacast(char const *)
	?trUtf8@QMediaRecorder@@SA?AVQString@@PBD0H@Z @ 1012 NONAME ; class QString QMediaRecorder::trUtf8(char const *, char const *, int)
	??0QSoundEffect@@QAE@PAVQObject@@@Z @ 1013 NONAME ; QSoundEffect::QSoundEffect(class QObject *)
	?d_func@QMediaImageViewerService@@AAEPAVQMediaImageViewerServicePrivate@@XZ @ 1014 NONAME ; class QMediaImageViewerServicePrivate * QMediaImageViewerService::d_func(void)
	?bufferStatus@QMediaPlayer@@QBEHXZ @ 1015 NONAME ; int QMediaPlayer::bufferStatus(void) const
	??0QMediaTimeRange@@QAE@_J0@Z @ 1016 NONAME ; QMediaTimeRange::QMediaTimeRange(long long, long long)
	?mediaAboutToBeInserted@QMediaPlaylistProvider@@IAEXHH@Z @ 1017 NONAME ; void QMediaPlaylistProvider::mediaAboutToBeInserted(int, int)
	?setAspectRatioMode@QVideoWidget@@QAEXW4AspectRatioMode@Qt@@@Z @ 1018 NONAME ; void QVideoWidget::setAspectRatioMode(enum Qt::AspectRatioMode)
	?qt_metacall@QVideoWindowControl@@UAEHW4Call@QMetaObject@@HPAPAX@Z @ 1019 NONAME ; int QVideoWindowControl::qt_metacall(enum QMetaObject::Call, int, void * *)
	?stop@QPainterVideoSurface@@UAEXXZ @ 1020 NONAME ; void QPainterVideoSurface::stop(void)
	?currentIndexChanged@QMediaPlaylistNavigator@@IAEXH@Z @ 1021 NONAME ; void QMediaPlaylistNavigator::currentIndexChanged(int)
	?qt_metacall@QVideoRendererControl@@UAEHW4Call@QMetaObject@@HPAPAX@Z @ 1022 NONAME ; int QVideoRendererControl::qt_metacall(enum QMetaObject::Call, int, void * *)
	?setResolution@QVideoEncoderSettings@@QAEXABVQSize@@@Z @ 1023 NONAME ; void QVideoEncoderSettings::setResolution(class QSize const &)
	??0QImageEncoderSettings@@QAE@XZ @ 1024 NONAME ; QImageEncoderSettings::QImageEncoderSettings(void)
	?d_func@QMediaPlaylistProvider@@ABEPBVQMediaPlaylistProviderPrivate@@XZ @ 1025 NONAME ; class QMediaPlaylistProviderPrivate const * QMediaPlaylistProvider::d_func(void) const
	??0QMediaTimeRange@@QAE@XZ @ 1026 NONAME ; QMediaTimeRange::QMediaTimeRange(void)
	?shuffle@QMediaPlaylistProvider@@UAEXXZ @ 1027 NONAME ; void QMediaPlaylistProvider::shuffle(void)
	?trUtf8@QMetaDataWriterControl@@SA?AVQString@@PBD0@Z @ 1028 NONAME ; class QString QMetaDataWriterControl::trUtf8(char const *, char const *)
	?staticMetaObject@QAudioEndpointSelector@@2UQMetaObject@@B @ 1029 NONAME ; struct QMetaObject const QAudioEndpointSelector::staticMetaObject
	??1QMediaPlayerControl@@UAE@XZ @ 1030 NONAME ; QMediaPlayerControl::~QMediaPlayerControl(void)
	?d_func@QMediaControl@@AAEPAVQMediaControlPrivate@@XZ @ 1031 NONAME ; class QMediaControlPrivate * QMediaControl::d_func(void)
	?hasSupport@QMediaServiceProvider@@UBE?AW4SupportEstimate@QtMultimedia@@ABVQByteArray@@ABVQString@@ABVQStringList@@H@Z @ 1032 NONAME ; enum QtMultimedia::SupportEstimate QMediaServiceProvider::hasSupport(class QByteArray const &, class QString const &, class QStringList const &, int) const
	?metaDataAvailableChanged@QMetaDataWriterControl@@IAEX_N@Z @ 1033 NONAME ; void QMetaDataWriterControl::metaDataAvailableChanged(bool)
	?tr@QLocalMediaPlaylistProvider@@SA?AVQString@@PBD0H@Z @ 1034 NONAME ; class QString QLocalMediaPlaylistProvider::tr(char const *, char const *, int)
	?removeMedia@QLocalMediaPlaylistProvider@@UAE_NHH@Z @ 1035 NONAME ; bool QLocalMediaPlaylistProvider::removeMedia(int, int)
	?trUtf8@QMediaServiceProvider@@SA?AVQString@@PBD0H@Z @ 1036 NONAME ; class QString QMediaServiceProvider::trUtf8(char const *, char const *, int)
	?isMuted@QMediaPlayer@@QBE_NXZ @ 1037 NONAME ; bool QMediaPlayer::isMuted(void) const
	?tr@QMediaPlaylistSourceControl@@SA?AVQString@@PBD0H@Z @ 1038 NONAME ; class QString QMediaPlaylistSourceControl::tr(char const *, char const *, int)
	?metaObject@QAudioEndpointSelector@@UBEPBUQMetaObject@@XZ @ 1039 NONAME ; struct QMetaObject const * QAudioEndpointSelector::metaObject(void) const
	??9QMediaResource@@QBE_NABV0@@Z @ 1040 NONAME ; bool QMediaResource::operator!=(class QMediaResource const &) const
	??0QMediaStreamsControl@@IAE@PAVQObject@@@Z @ 1041 NONAME ; QMediaStreamsControl::QMediaStreamsControl(class QObject *)
	?url@QMediaResource@@QBE?AVQUrl@@XZ @ 1042 NONAME ; class QUrl QMediaResource::url(void) const
	??ZQMediaTimeRange@@QAEAAV0@ABVQMediaTimeInterval@@@Z @ 1043 NONAME ; class QMediaTimeRange & QMediaTimeRange::operator-=(class QMediaTimeInterval const &)
	?canonicalUrl@QMediaContent@@QBE?AVQUrl@@XZ @ 1044 NONAME ; class QUrl QMediaContent::canonicalUrl(void) const
	?tr@QVideoWidgetControl@@SA?AVQString@@PBD0H@Z @ 1045 NONAME ; class QString QVideoWidgetControl::tr(char const *, char const *, int)
	?d_func@QLocalMediaPlaylistProvider@@ABEPBVQLocalMediaPlaylistProviderPrivate@@XZ @ 1046 NONAME ; class QLocalMediaPlaylistProviderPrivate const * QLocalMediaPlaylistProvider::d_func(void) const
	?timeout@QMediaImageViewer@@QBEHXZ @ 1047 NONAME ; int QMediaImageViewer::timeout(void) const
	?trUtf8@QMediaPlaylistControl@@SA?AVQString@@PBD0@Z @ 1048 NONAME ; class QString QMediaPlaylistControl::trUtf8(char const *, char const *)
	?d_func@QVideoWidget@@AAEPAVQVideoWidgetPrivate@@XZ @ 1049 NONAME ; class QVideoWidgetPrivate * QVideoWidget::d_func(void)
	?playbackMode@QMediaPlaylistNavigator@@QBE?AW4PlaybackMode@QMediaPlaylist@@XZ @ 1050 NONAME ; enum QMediaPlaylist::PlaybackMode QMediaPlaylistNavigator::playbackMode(void) const
	?qt_metacast@QMediaPlaylist@@UAEPAXPBD@Z @ 1051 NONAME ; void * QMediaPlaylist::qt_metacast(char const *)
	?d_func@QMediaImageViewer@@AAEPAVQMediaImageViewerPrivate@@XZ @ 1052 NONAME ; class QMediaImageViewerPrivate * QMediaImageViewer::d_func(void)
	??_EQVideoWindowControl@@UAE@I@Z @ 1053 NONAME ; QVideoWindowControl::~QVideoWindowControl(unsigned int)
	?error@QRadioTuner@@IAEXW4Error@1@@Z @ 1054 NONAME ; void QRadioTuner::error(enum QRadioTuner::Error)
	??_EQAudioEndpointSelector@@UAE@I@Z @ 1055 NONAME ; QAudioEndpointSelector::~QAudioEndpointSelector(unsigned int)
	?isAvailable@QMediaRecorder@@QBE_NXZ @ 1056 NONAME ; bool QMediaRecorder::isAvailable(void) const
	?staticMetaObject@QMediaService@@2UQMetaObject@@B @ 1057 NONAME ; struct QMetaObject const QMediaService::staticMetaObject
	?tr@QMediaImageViewerService@@SA?AVQString@@PBD0H@Z @ 1058 NONAME ; class QString QMediaImageViewerService::tr(char const *, char const *, int)
	?d_func@QAudioCaptureSource@@AAEPAVQAudioCaptureSourcePrivate@@XZ @ 1059 NONAME ; class QAudioCaptureSourcePrivate * QAudioCaptureSource::d_func(void)
	?tr@QAudioEncoderControl@@SA?AVQString@@PBD0H@Z @ 1060 NONAME ; class QString QAudioEncoderControl::tr(char const *, char const *, int)
	?addInterval@QMediaTimeRange@@QAEXABVQMediaTimeInterval@@@Z @ 1061 NONAME ; void QMediaTimeRange::addInterval(class QMediaTimeInterval const &)
	??_EQMediaPlaylistSourceControl@@UAE@I@Z @ 1062 NONAME ; QMediaPlaylistSourceControl::~QMediaPlaylistSourceControl(unsigned int)
	?trUtf8@QMediaRecorderControl@@SA?AVQString@@PBD0H@Z @ 1063 NONAME ; class QString QMediaRecorderControl::trUtf8(char const *, char const *, int)
	?nextItem@QMediaPlaylistNavigator@@QBE?AVQMediaContent@@H@Z @ 1064 NONAME ; class QMediaContent QMediaPlaylistNavigator::nextItem(int) const
	?clear@QMediaPlaylistProvider@@UAE_NXZ @ 1065 NONAME ; bool QMediaPlaylistProvider::clear(void)
	?isNull@QImageEncoderSettings@@QBE_NXZ @ 1066 NONAME ; bool QImageEncoderSettings::isNull(void) const
	?saturationChanged@QVideoWidget@@IAEXH@Z @ 1067 NONAME ; void QVideoWidget::saturationChanged(int)
	??4QMediaTimeRange@@QAEAAV0@ABVQMediaTimeInterval@@@Z @ 1068 NONAME ; class QMediaTimeRange & QMediaTimeRange::operator=(class QMediaTimeInterval const &)
	?qt_metacast@QVideoWindowControl@@UAEPAXPBD@Z @ 1069 NONAME ; void * QVideoWindowControl::qt_metacast(char const *)
	?nativeSizeChanged@QVideoWindowControl@@IAEXXZ @ 1070 NONAME ; void QVideoWindowControl::nativeSizeChanged(void)
	?sampleRate@QAudioEncoderSettings@@QBEHXZ @ 1071 NONAME ; int QAudioEncoderSettings::sampleRate(void) const
	?tr@QVideoWindowControl@@SA?AVQString@@PBD0H@Z @ 1072 NONAME ; class QString QVideoWindowControl::tr(char const *, char const *, int)
	?signalStrengthChanged@QRadioTunerControl@@IAEXH@Z @ 1073 NONAME ; void QRadioTunerControl::signalStrengthChanged(int)
	?jump@QMediaPlaylistNavigator@@QAEXH@Z @ 1074 NONAME ; void QMediaPlaylistNavigator::jump(int)
	??8QMediaServiceProviderHint@@QBE_NABV0@@Z @ 1075 NONAME ; bool QMediaServiceProviderHint::operator==(class QMediaServiceProviderHint const &) const
	?qt_metacall@QMediaPlaylistIOPlugin@@UAEHW4Call@QMetaObject@@HPAPAX@Z @ 1076 NONAME ; int QMediaPlaylistIOPlugin::qt_metacall(enum QMetaObject::Call, int, void * *)
	?encodingMode@QAudioEncoderSettings@@QBE?AW4EncodingMode@QtMultimedia@@XZ @ 1077 NONAME ; enum QtMultimedia::EncodingMode QAudioEncoderSettings::encodingMode(void) const
	?qt_metacast@QAudioEndpointSelector@@UAEPAXPBD@Z @ 1078 NONAME ; void * QAudioEndpointSelector::qt_metacast(char const *)
	??0QMediaContent@@QAE@ABVQNetworkRequest@@@Z @ 1079 NONAME ; QMediaContent::QMediaContent(class QNetworkRequest const &)
	?durationChanged@QMediaPlayer@@IAEX_J@Z @ 1080 NONAME ; void QMediaPlayer::durationChanged(long long)
	?qt_metacall@QSoundEffect@@UAEHW4Call@QMetaObject@@HPAPAX@Z @ 1081 NONAME ; int QSoundEffect::qt_metacall(enum QMetaObject::Call, int, void * *)
	?setVolume@QSoundEffect@@QAEXH@Z @ 1082 NONAME ; void QSoundEffect::setVolume(int)
	?setCurrentIndex@QMediaPlaylist@@QAEXH@Z @ 1083 NONAME ; void QMediaPlaylist::setCurrentIndex(int)
	?size@QGraphicsVideoItem@@QBE?AVQSizeF@@XZ @ 1084 NONAME ; class QSizeF QGraphicsVideoItem::size(void) const
	?signalStrengthChanged@QRadioTuner@@IAEXH@Z @ 1085 NONAME ; void QRadioTuner::signalStrengthChanged(int)
	?selectedDeviceChanged@QVideoDeviceControl@@IAEXH@Z @ 1086 NONAME ; void QVideoDeviceControl::selectedDeviceChanged(int)
	?availabilityError@QMediaObject@@UBE?AW4AvailabilityError@QtMultimedia@@XZ @ 1087 NONAME ; enum QtMultimedia::AvailabilityError QMediaObject::availabilityError(void) const
	?metaObject@QImageEncoderControl@@UBEPBUQMetaObject@@XZ @ 1088 NONAME ; struct QMetaObject const * QImageEncoderControl::metaObject(void) const
	?staticMetaObject@QMediaImageViewer@@2UQMetaObject@@B @ 1089 NONAME ; struct QMetaObject const QMediaImageViewer::staticMetaObject
	?extendedMetaData@QMediaRecorder@@QBE?AVQVariant@@ABVQString@@@Z @ 1090 NONAME ; class QVariant QMediaRecorder::extendedMetaData(class QString const &) const
	?mutedChanged@QRadioTunerControl@@IAEX_N@Z @ 1091 NONAME ; void QRadioTunerControl::mutedChanged(bool)
	?paint@QGraphicsVideoItem@@UAEXPAVQPainter@@PBVQStyleOptionGraphicsItem@@PAVQWidget@@@Z @ 1092 NONAME ; void QGraphicsVideoItem::paint(class QPainter *, class QStyleOptionGraphicsItem const *, class QWidget *)
	?tr@QMediaPlayerControl@@SA?AVQString@@PBD0H@Z @ 1093 NONAME ; class QString QMediaPlayerControl::tr(char const *, char const *, int)
	?tr@QPainterVideoSurface@@SA?AVQString@@PBD0H@Z @ 1094 NONAME ; class QString QPainterVideoSurface::tr(char const *, char const *, int)
	?availabilityError@QMediaRecorder@@QBE?AW4AvailabilityError@QtMultimedia@@XZ @ 1095 NONAME ; enum QtMultimedia::AvailabilityError QMediaRecorder::availabilityError(void) const
	?mediaStatusChanged@QMediaImageViewer@@IAEXW4MediaStatus@1@@Z @ 1096 NONAME ; void QMediaImageViewer::mediaStatusChanged(enum QMediaImageViewer::MediaStatus)
	?setVideoCodec@QMediaResource@@QAEXABVQString@@@Z @ 1097 NONAME ; void QMediaResource::setVideoCodec(class QString const &)
	?brightnessChanged@QVideoWidgetControl@@IAEXH@Z @ 1098 NONAME ; void QVideoWidgetControl::brightnessChanged(int)
	?staticMetaObject@QVideoRendererControl@@2UQMetaObject@@B @ 1099 NONAME ; struct QMetaObject const QVideoRendererControl::staticMetaObject
	??0QMediaPlaylist@@QAE@PAVQObject@@@Z @ 1100 NONAME ; QMediaPlaylist::QMediaPlaylist(class QObject *)
	?qt_metacall@QLocalMediaPlaylistProvider@@UAEHW4Call@QMetaObject@@HPAPAX@Z @ 1101 NONAME ; int QLocalMediaPlaylistProvider::qt_metacall(enum QMetaObject::Call, int, void * *)
	?getStaticMetaObject@QVideoRendererControl@@SAABUQMetaObject@@XZ @ 1102 NONAME ; struct QMetaObject const & QVideoRendererControl::getStaticMetaObject(void)
	?metaObject@QMediaContainerControl@@UBEPBUQMetaObject@@XZ @ 1103 NONAME ; struct QMetaObject const * QMediaContainerControl::metaObject(void) const
	??_EQSoundEffect@@UAE@I@Z @ 1104 NONAME ; QSoundEffect::~QSoundEffect(unsigned int)
	??1QMediaPlaylistIOPlugin@@UAE@XZ @ 1105 NONAME ; QMediaPlaylistIOPlugin::~QMediaPlaylistIOPlugin(void)
	?playbackRateChanged@QMediaPlayerControl@@IAEXM@Z @ 1106 NONAME ; void QMediaPlayerControl::playbackRateChanged(float)
	?setSaturation@QPainterVideoSurface@@QAEXH@Z @ 1107 NONAME ; void QPainterVideoSurface::setSaturation(int)
	?staticMetaObject@QMediaPlayerControl@@2UQMetaObject@@B @ 1108 NONAME ; struct QMetaObject const QMediaPlayerControl::staticMetaObject
	??0QVideoEncoderSettings@@QAE@XZ @ 1109 NONAME ; QVideoEncoderSettings::QVideoEncoderSettings(void)
	?trUtf8@QVideoDeviceControl@@SA?AVQString@@PBD0@Z @ 1110 NONAME ; class QString QVideoDeviceControl::trUtf8(char const *, char const *)
	??0QMediaControl@@IAE@PAVQObject@@@Z @ 1111 NONAME ; QMediaControl::QMediaControl(class QObject *)
	?currentItem@QMediaPlaylistNavigator@@QBE?AVQMediaContent@@XZ @ 1112 NONAME ; class QMediaContent QMediaPlaylistNavigator::currentItem(void) const
	?mediaAboutToBeRemoved@QMediaPlaylistProvider@@IAEXHH@Z @ 1113 NONAME ; void QMediaPlaylistProvider::mediaAboutToBeRemoved(int, int)
	?tr@QVideoRendererControl@@SA?AVQString@@PBD0@Z @ 1114 NONAME ; class QString QVideoRendererControl::tr(char const *, char const *)
	?boundingRect@QGraphicsVideoItem@@UBE?AVQRectF@@XZ @ 1115 NONAME ; class QRectF QGraphicsVideoItem::boundingRect(void) const
	?qt_metacast@QAudioEncoderControl@@UAEPAXPBD@Z @ 1116 NONAME ; void * QAudioEncoderControl::qt_metacast(char const *)
	?qt_metacast@QMediaContainerControl@@UAEPAXPBD@Z @ 1117 NONAME ; void * QMediaContainerControl::qt_metacast(char const *)
	?trUtf8@QVideoWidgetControl@@SA?AVQString@@PBD0@Z @ 1118 NONAME ; class QString QVideoWidgetControl::trUtf8(char const *, char const *)
	??1QMediaServiceSupportedDevicesInterface@@UAE@XZ @ 1119 NONAME ; QMediaServiceSupportedDevicesInterface::~QMediaServiceSupportedDevicesInterface(void)
	??1QAudioSystemFactoryInterface@@UAE@XZ @ 1120 NONAME ; QAudioSystemFactoryInterface::~QAudioSystemFactoryInterface(void)
	?qt_metacast@QRadioTunerControl@@UAEPAXPBD@Z @ 1121 NONAME ; void * QRadioTunerControl::qt_metacast(char const *)
	?setEncodingMode@QAudioEncoderSettings@@QAEXW4EncodingMode@QtMultimedia@@@Z @ 1122 NONAME ; void QAudioEncoderSettings::setEncodingMode(enum QtMultimedia::EncodingMode)
	?qt_metacall@QMediaContainerControl@@UAEHW4Call@QMetaObject@@HPAPAX@Z @ 1123 NONAME ; int QMediaContainerControl::qt_metacall(enum QMetaObject::Call, int, void * *)
	?qt_metacast@QMediaPlaylistSourceControl@@UAEPAXPBD@Z @ 1124 NONAME ; void * QMediaPlaylistSourceControl::qt_metacast(char const *)
	?qt_metacast@QMediaServiceProvider@@UAEPAXPBD@Z @ 1125 NONAME ; void * QMediaServiceProvider::qt_metacast(char const *)
	??1QMediaRecorderControl@@UAE@XZ @ 1126 NONAME ; QMediaRecorderControl::~QMediaRecorderControl(void)
	?isMetaDataAvailable@QMediaObject@@QBE_NXZ @ 1127 NONAME ; bool QMediaObject::isMetaDataAvailable(void) const
	?saturationChanged@QVideoWidgetControl@@IAEXH@Z @ 1128 NONAME ; void QVideoWidgetControl::saturationChanged(int)
	?channelCount@QAudioEncoderSettings@@QBEHXZ @ 1129 NONAME ; int QAudioEncoderSettings::channelCount(void) const
	?d_func@QMediaImageViewer@@ABEPBVQMediaImageViewerPrivate@@XZ @ 1130 NONAME ; class QMediaImageViewerPrivate const * QMediaImageViewer::d_func(void) const
	?getStaticMetaObject@QAudioSystemPlugin@@SAABUQMetaObject@@XZ @ 1131 NONAME ; struct QMetaObject const & QAudioSystemPlugin::getStaticMetaObject(void)
	??1QLocalMediaPlaylistProvider@@UAE@XZ @ 1132 NONAME ; QLocalMediaPlaylistProvider::~QLocalMediaPlaylistProvider(void)
	??_EQPainterVideoSurface@@UAE@I@Z @ 1133 NONAME ; QPainterVideoSurface::~QPainterVideoSurface(unsigned int)
	?state@QRadioTuner@@QBE?AW4State@1@XZ @ 1134 NONAME ; enum QRadioTuner::State QRadioTuner::state(void) const
	?metaObject@QVideoWidgetControl@@UBEPBUQMetaObject@@XZ @ 1135 NONAME ; struct QMetaObject const * QVideoWidgetControl::metaObject(void) const
	??0QMetaDataReaderControl@@IAE@PAVQObject@@@Z @ 1136 NONAME ; QMetaDataReaderControl::QMetaDataReaderControl(class QObject *)
	?qt_metacall@QMediaControl@@UAEHW4Call@QMetaObject@@HPAPAX@Z @ 1137 NONAME ; int QMediaControl::qt_metacall(enum QMetaObject::Call, int, void * *)
	?frameRate@QVideoEncoderSettings@@QBEMXZ @ 1138 NONAME ; float QVideoEncoderSettings::frameRate(void) const
	?tr@QMediaContainerControl@@SA?AVQString@@PBD0@Z @ 1139 NONAME ; class QString QMediaContainerControl::tr(char const *, char const *)
	??4QMediaTimeRange@@QAEAAV0@ABV0@@Z @ 1140 NONAME ; class QMediaTimeRange & QMediaTimeRange::operator=(class QMediaTimeRange const &)
	?qt_metacast@QVideoWidgetControl@@UAEPAXPBD@Z @ 1141 NONAME ; void * QVideoWidgetControl::qt_metacast(char const *)
	?unbind@QMediaImageViewer@@UAEXPAVQObject@@@Z @ 1142 NONAME ; void QMediaImageViewer::unbind(class QObject *)
	?signalStrength@QRadioTuner@@QBEHXZ @ 1143 NONAME ; int QRadioTuner::signalStrength(void) const
	?metaData@QMediaObject@@QBE?AVQVariant@@W4MetaData@QtMultimedia@@@Z @ 1144 NONAME ; class QVariant QMediaObject::metaData(enum QtMultimedia::MetaData) const
	?videoCodec@QMediaResource@@QBE?AVQString@@XZ @ 1145 NONAME ; class QString QMediaResource::videoCodec(void) const
	?band@QRadioTuner@@QBE?AW4Band@1@XZ @ 1146 NONAME ; enum QRadioTuner::Band QRadioTuner::band(void) const
	?staticMetaObject@QMediaServiceProviderPlugin@@2UQMetaObject@@B @ 1147 NONAME ; struct QMetaObject const QMediaServiceProviderPlugin::staticMetaObject
	?insertMedia@QMediaPlaylistProvider@@UAE_NHABVQMediaContent@@@Z @ 1148 NONAME ; bool QMediaPlaylistProvider::insertMedia(int, class QMediaContent const &)
	??1QRadioTuner@@UAE@XZ @ 1149 NONAME ; QRadioTuner::~QRadioTuner(void)
	?error@QMediaPlayer@@IAEXW4Error@1@@Z @ 1150 NONAME ; void QMediaPlayer::error(enum QMediaPlayer::Error)
	?tr@QGraphicsVideoItem@@SA?AVQString@@PBD0H@Z @ 1151 NONAME ; class QString QGraphicsVideoItem::tr(char const *, char const *, int)
	?getStaticMetaObject@QMediaServiceProvider@@SAABUQMetaObject@@XZ @ 1152 NONAME ; struct QMetaObject const & QMediaServiceProvider::getStaticMetaObject(void)
	?setBitRate@QAudioEncoderSettings@@QAEXH@Z @ 1153 NONAME ; void QAudioEncoderSettings::setBitRate(int)
	?isSeekable@QMediaPlayer@@QBE_NXZ @ 1154 NONAME ; bool QMediaPlayer::isSeekable(void) const
	?metaObject@QMediaPlaylistIOPlugin@@UBEPBUQMetaObject@@XZ @ 1155 NONAME ; struct QMetaObject const * QMediaPlaylistIOPlugin::metaObject(void) const
	?tr@QMediaPlayer@@SA?AVQString@@PBD0@Z @ 1156 NONAME ; class QString QMediaPlayer::tr(char const *, char const *)
	?setCodec@QAudioEncoderSettings@@QAEXABVQString@@@Z @ 1157 NONAME ; void QAudioEncoderSettings::setCodec(class QString const &)
	??_EQMediaBindableInterface@@UAE@I@Z @ 1158 NONAME ; QMediaBindableInterface::~QMediaBindableInterface(unsigned int)
	?setPlaybackMode@QMediaPlaylist@@QAEXW4PlaybackMode@1@@Z @ 1159 NONAME ; void QMediaPlaylist::setPlaybackMode(enum QMediaPlaylist::PlaybackMode)
	?volumeChanged@QRadioTuner@@IAEXH@Z @ 1160 NONAME ; void QRadioTuner::volumeChanged(int)
	?metaObject@QMediaImageViewerService@@UBEPBUQMetaObject@@XZ @ 1161 NONAME ; struct QMetaObject const * QMediaImageViewerService::metaObject(void) const
	?metaObject@QVideoWindowControl@@UBEPBUQMetaObject@@XZ @ 1162 NONAME ; struct QMetaObject const * QVideoWindowControl::metaObject(void) const
	?trUtf8@QMediaControl@@SA?AVQString@@PBD0H@Z @ 1163 NONAME ; class QString QMediaControl::trUtf8(char const *, char const *, int)
	?setNetworkManager@QMediaImageViewerService@@QAEXPAVQNetworkAccessManager@@@Z @ 1164 NONAME ; void QMediaImageViewerService::setNetworkManager(class QNetworkAccessManager *)
	?selectedDeviceChanged@QVideoDeviceControl@@IAEXABVQString@@@Z @ 1165 NONAME ; void QVideoDeviceControl::selectedDeviceChanged(class QString const &)
	?setFrameRate@QVideoEncoderSettings@@QAEXM@Z @ 1166 NONAME ; void QVideoEncoderSettings::setFrameRate(float)
	?getStaticMetaObject@QMediaImageViewer@@SAABUQMetaObject@@XZ @ 1167 NONAME ; struct QMetaObject const & QMediaImageViewer::getStaticMetaObject(void)
	??_EQMediaImageViewer@@UAE@I@Z @ 1168 NONAME ; QMediaImageViewer::~QMediaImageViewer(unsigned int)
	??0QMediaPlaylistProvider@@QAE@PAVQObject@@@Z @ 1169 NONAME ; QMediaPlaylistProvider::QMediaPlaylistProvider(class QObject *)
	?setContrast@QPainterVideoSurface@@QAEXH@Z @ 1170 NONAME ; void QPainterVideoSurface::setContrast(int)
	?trUtf8@QMediaServiceProviderPlugin@@SA?AVQString@@PBD0@Z @ 1171 NONAME ; class QString QMediaServiceProviderPlugin::trUtf8(char const *, char const *)
	?tr@QMediaServiceProvider@@SA?AVQString@@PBD0@Z @ 1172 NONAME ; class QString QMediaServiceProvider::tr(char const *, char const *)
	?loaded@QMediaPlaylistProvider@@IAEXXZ @ 1173 NONAME ; void QMediaPlaylistProvider::loaded(void)
	?staticMetaObject@QMediaPlayer@@2UQMetaObject@@B @ 1174 NONAME ; struct QMetaObject const QMediaPlayer::staticMetaObject
	??1QMediaPlaylist@@UAE@XZ @ 1175 NONAME ; QMediaPlaylist::~QMediaPlaylist(void)
	?error@QRadioTunerControl@@IAEXW4Error@QRadioTuner@@@Z @ 1176 NONAME ; void QRadioTunerControl::error(enum QRadioTuner::Error)
	?playbackRateChanged@QMediaPlayer@@IAEXM@Z @ 1177 NONAME ; void QMediaPlayer::playbackRateChanged(float)
	?getStaticMetaObject@QMediaContainerControl@@SAABUQMetaObject@@XZ @ 1178 NONAME ; struct QMetaObject const & QMediaContainerControl::getStaticMetaObject(void)
	?mimeType@QMediaServiceProviderHint@@QBE?AVQString@@XZ @ 1179 NONAME ; class QString QMediaServiceProviderHint::mimeType(void) const
	?outputLocation@QMediaRecorder@@QBE?AVQUrl@@XZ @ 1180 NONAME ; class QUrl QMediaRecorder::outputLocation(void) const
	?load@QMediaPlaylistProvider@@UAE_NPAVQIODevice@@PBD@Z @ 1181 NONAME ; bool QMediaPlaylistProvider::load(class QIODevice *, char const *)
	?error@QMediaRecorder@@IAEXW4Error@1@@Z @ 1182 NONAME ; void QMediaRecorder::error(enum QMediaRecorder::Error)
	?metaObject@QMediaPlayerControl@@UBEPBUQMetaObject@@XZ @ 1183 NONAME ; struct QMetaObject const * QMediaPlayerControl::metaObject(void) const
	??_EQMediaServiceFeaturesInterface@@UAE@I@Z @ 1184 NONAME ; QMediaServiceFeaturesInterface::~QMediaServiceFeaturesInterface(unsigned int)
	?moveEvent@QVideoWidget@@MAEXPAVQMoveEvent@@@Z @ 1185 NONAME ; void QVideoWidget::moveEvent(class QMoveEvent *)
	?audioCodec@QMediaResource@@QBE?AVQString@@XZ @ 1186 NONAME ; class QString QMediaResource::audioCodec(void) const
	??_EQGraphicsVideoItem@@UAE@I@Z @ 1187 NONAME ; QGraphicsVideoItem::~QGraphicsVideoItem(unsigned int)
	?staticMetaObject@QVideoEncoderControl@@2UQMetaObject@@B @ 1188 NONAME ; struct QMetaObject const QVideoEncoderControl::staticMetaObject
	??1QMediaImageViewerService@@UAE@XZ @ 1189 NONAME ; QMediaImageViewerService::~QMediaImageViewerService(void)
	??_EQLocalMediaPlaylistProvider@@UAE@I@Z @ 1190 NONAME ; QLocalMediaPlaylistProvider::~QLocalMediaPlaylistProvider(unsigned int)
	?trUtf8@QSoundEffect@@SA?AVQString@@PBD0H@Z @ 1191 NONAME ; class QString QSoundEffect::trUtf8(char const *, char const *, int)
	?getStaticMetaObject@QMediaService@@SAABUQMetaObject@@XZ @ 1192 NONAME ; struct QMetaObject const & QMediaService::getStaticMetaObject(void)
	?trUtf8@QMediaRecorder@@SA?AVQString@@PBD0@Z @ 1193 NONAME ; class QString QMediaRecorder::trUtf8(char const *, char const *)
	?setResolution@QImageEncoderSettings@@QAEXHH@Z @ 1194 NONAME ; void QImageEncoderSettings::setResolution(int, int)
	??_EQRadioTuner@@UAE@I@Z @ 1195 NONAME ; QRadioTuner::~QRadioTuner(unsigned int)
	?setVideoOutput@QMediaPlayer@@QAEXPAVQGraphicsVideoItem@@@Z @ 1196 NONAME ; void QMediaPlayer::setVideoOutput(class QGraphicsVideoItem *)
	?staticMetaObject@QPainterVideoSurface@@2UQMetaObject@@B @ 1197 NONAME ; struct QMetaObject const QPainterVideoSurface::staticMetaObject
	?setSize@QGraphicsVideoItem@@QAEXABVQSizeF@@@Z @ 1198 NONAME ; void QGraphicsVideoItem::setSize(class QSizeF const &)
	?codec@QAudioEncoderSettings@@QBE?AVQString@@XZ @ 1199 NONAME ; class QString QAudioEncoderSettings::codec(void) const
	?trUtf8@QMediaPlaylistNavigator@@SA?AVQString@@PBD0H@Z @ 1200 NONAME ; class QString QMediaPlaylistNavigator::trUtf8(char const *, char const *, int)
	??1QMediaImageViewer@@UAE@XZ @ 1201 NONAME ; QMediaImageViewer::~QMediaImageViewer(void)
	?instances@QMediaPluginLoader@@QAE?AV?$QList@PAVQObject@@@@ABVQString@@@Z @ 1202 NONAME ; class QList<class QObject *> QMediaPluginLoader::instances(class QString const &)
	?getStaticMetaObject@QLocalMediaPlaylistProvider@@SAABUQMetaObject@@XZ @ 1203 NONAME ; struct QMetaObject const & QLocalMediaPlaylistProvider::getStaticMetaObject(void)
	??1QMediaResource@@QAE@XZ @ 1204 NONAME ; QMediaResource::~QMediaResource(void)
	?save@QMediaPlaylistProvider@@UAE_NPAVQIODevice@@PBD@Z @ 1205 NONAME ; bool QMediaPlaylistProvider::save(class QIODevice *, char const *)
	?removeTimeRange@QMediaTimeRange@@QAEXABV1@@Z @ 1206 NONAME ; void QMediaTimeRange::removeTimeRange(class QMediaTimeRange const &)
	?d_func@QLocalMediaPlaylistProvider@@AAEPAVQLocalMediaPlaylistProviderPrivate@@XZ @ 1207 NONAME ; class QLocalMediaPlaylistProviderPrivate * QLocalMediaPlaylistProvider::d_func(void)
	?metaObject@QMediaRecorder@@UBEPBUQMetaObject@@XZ @ 1208 NONAME ; struct QMetaObject const * QMediaRecorder::metaObject(void) const
	?d_func@QMediaPlaylistProvider@@AAEPAVQMediaPlaylistProviderPrivate@@XZ @ 1209 NONAME ; class QMediaPlaylistProviderPrivate * QMediaPlaylistProvider::d_func(void)
	??0QMediaObject@@IAE@AAVQMediaObjectPrivate@@PAVQObject@@PAVQMediaService@@@Z @ 1210 NONAME ; QMediaObject::QMediaObject(class QMediaObjectPrivate &, class QObject *, class QMediaService *)
	?tr@QMetaDataWriterControl@@SA?AVQString@@PBD0H@Z @ 1211 NONAME ; class QString QMetaDataWriterControl::tr(char const *, char const *, int)
	?isAudioAvailable@QMediaPlayer@@QBE_NXZ @ 1212 NONAME ; bool QMediaPlayer::isAudioAvailable(void) const
	?mediaAboutToBeInserted@QMediaPlaylist@@IAEXHH@Z @ 1213 NONAME ; void QMediaPlaylist::mediaAboutToBeInserted(int, int)
	?qt_metacall@QMediaObject@@UAEHW4Call@QMetaObject@@HPAPAX@Z @ 1214 NONAME ; int QMediaObject::qt_metacall(enum QMetaObject::Call, int, void * *)
	?getStaticMetaObject@QMediaPlayer@@SAABUQMetaObject@@XZ @ 1215 NONAME ; struct QMetaObject const & QMediaPlayer::getStaticMetaObject(void)
	?staticMetaObject@QMediaServiceProvider@@2UQMetaObject@@B @ 1216 NONAME ; struct QMetaObject const QMediaServiceProvider::staticMetaObject
	?getStaticMetaObject@QVideoEncoderControl@@SAABUQMetaObject@@XZ @ 1217 NONAME ; struct QMetaObject const & QVideoEncoderControl::getStaticMetaObject(void)
	?availableMetaData@QMediaRecorder@@QBE?AV?$QList@W4MetaData@QtMultimedia@@@@XZ @ 1218 NONAME ; class QList<enum QtMultimedia::MetaData> QMediaRecorder::availableMetaData(void) const
	?qt_metacall@QMediaPlaylistControl@@UAEHW4Call@QMetaObject@@HPAPAX@Z @ 1219 NONAME ; int QMediaPlaylistControl::qt_metacall(enum QMetaObject::Call, int, void * *)
	??0QLocalMediaPlaylistProvider@@QAE@PAVQObject@@@Z @ 1220 NONAME ; QLocalMediaPlaylistProvider::QLocalMediaPlaylistProvider(class QObject *)
	?notifyInterval@QMediaObject@@QBEHXZ @ 1221 NONAME ; int QMediaObject::notifyInterval(void) const
	??0QMediaContent@@QAE@ABVQMediaResource@@@Z @ 1222 NONAME ; QMediaContent::QMediaContent(class QMediaResource const &)
	?qt_metacall@QVideoDeviceControl@@UAEHW4Call@QMetaObject@@HPAPAX@Z @ 1223 NONAME ; int QVideoDeviceControl::qt_metacall(enum QMetaObject::Call, int, void * *)
	?setDefaultServiceProvider@QMediaServiceProvider@@SAXPAV1@@Z @ 1224 NONAME ; void QMediaServiceProvider::setDefaultServiceProvider(class QMediaServiceProvider *)
	??_EQMediaPlaylistWriter@@UAE@I@Z @ 1225 NONAME ; QMediaPlaylistWriter::~QMediaPlaylistWriter(unsigned int)
	?trUtf8@QAudioSystemPlugin@@SA?AVQString@@PBD0@Z @ 1226 NONAME ; class QString QAudioSystemPlugin::trUtf8(char const *, char const *)
	?getStaticMetaObject@QAudioEncoderControl@@SAABUQMetaObject@@XZ @ 1227 NONAME ; struct QMetaObject const & QAudioEncoderControl::getStaticMetaObject(void)
	?resources@QMediaContent@@QBE?AV?$QList@VQMediaResource@@@@XZ @ 1228 NONAME ; class QList<class QMediaResource> QMediaContent::resources(void) const
	?shuffle@QLocalMediaPlaylistProvider@@UAEXXZ @ 1229 NONAME ; void QLocalMediaPlaylistProvider::shuffle(void)
	?nativeSize@QGraphicsVideoItem@@QBE?AVQSizeF@@XZ @ 1230 NONAME ; class QSizeF QGraphicsVideoItem::nativeSize(void) const
	?setEncodingSettings@QMediaRecorder@@QAEXABVQAudioEncoderSettings@@ABVQVideoEncoderSettings@@ABVQString@@@Z @ 1231 NONAME ; void QMediaRecorder::setEncodingSettings(class QAudioEncoderSettings const &, class QVideoEncoderSettings const &, class QString const &)
	?event@QVideoWidget@@MAE_NPAVQEvent@@@Z @ 1232 NONAME ; bool QVideoWidget::event(class QEvent *)
	?tr@QAudioCaptureSource@@SA?AVQString@@PBD0@Z @ 1233 NONAME ; class QString QAudioCaptureSource::tr(char const *, char const *)
	?volumeChanged@QMediaPlayerControl@@IAEXH@Z @ 1234 NONAME ; void QMediaPlayerControl::volumeChanged(int)
	?trUtf8@QVideoRendererControl@@SA?AVQString@@PBD0H@Z @ 1235 NONAME ; class QString QVideoRendererControl::trUtf8(char const *, char const *, int)
	?trUtf8@QMediaPlaylistSourceControl@@SA?AVQString@@PBD0@Z @ 1236 NONAME ; class QString QMediaPlaylistSourceControl::trUtf8(char const *, char const *)
	?isMuted@QMediaRecorder@@QBE_NXZ @ 1237 NONAME ; bool QMediaRecorder::isMuted(void) const
	?trUtf8@QMediaService@@SA?AVQString@@PBD0@Z @ 1238 NONAME ; class QString QMediaService::trUtf8(char const *, char const *)
	?getStaticMetaObject@QMediaRecorderControl@@SAABUQMetaObject@@XZ @ 1239 NONAME ; struct QMetaObject const & QMediaRecorderControl::getStaticMetaObject(void)
	??0QAudioSystemPlugin@@QAE@PAVQObject@@@Z @ 1240 NONAME ; QAudioSystemPlugin::QAudioSystemPlugin(class QObject *)
	?resolution@QImageEncoderSettings@@QBE?AVQSize@@XZ @ 1241 NONAME ; class QSize QImageEncoderSettings::resolution(void) const
	?setPlaybackRate@QMediaPlayer@@QAEXM@Z @ 1242 NONAME ; void QMediaPlayer::setPlaybackRate(float)
	?availableExtendedMetaData@QMediaObject@@QBE?AVQStringList@@XZ @ 1243 NONAME ; class QStringList QMediaObject::availableExtendedMetaData(void) const
	??ZQMediaTimeRange@@QAEAAV0@ABV0@@Z @ 1244 NONAME ; class QMediaTimeRange & QMediaTimeRange::operator-=(class QMediaTimeRange const &)
	?brightness@QVideoWidget@@QBEHXZ @ 1245 NONAME ; int QVideoWidget::brightness(void) const
	??0QMediaTimeRange@@QAE@ABV0@@Z @ 1246 NONAME ; QMediaTimeRange::QMediaTimeRange(class QMediaTimeRange const &)
	?state@QMediaRecorder@@QBE?AW4State@1@XZ @ 1247 NONAME ; enum QMediaRecorder::State QMediaRecorder::state(void) const
	?tr@QMediaRecorder@@SA?AVQString@@PBD0H@Z @ 1248 NONAME ; class QString QMediaRecorder::tr(char const *, char const *, int)
	?trUtf8@QVideoEncoderControl@@SA?AVQString@@PBD0H@Z @ 1249 NONAME ; class QString QVideoEncoderControl::trUtf8(char const *, char const *, int)
	?hueChanged@QVideoWindowControl@@IAEXH@Z @ 1250 NONAME ; void QVideoWindowControl::hueChanged(int)
	?qt_metacast@QMediaService@@UAEPAXPBD@Z @ 1251 NONAME ; void * QMediaService::qt_metacast(char const *)
	?tr@QMediaRecorderControl@@SA?AVQString@@PBD0@Z @ 1252 NONAME ; class QString QMediaRecorderControl::tr(char const *, char const *)
	?previousIndex@QMediaPlaylist@@QBEHH@Z @ 1253 NONAME ; int QMediaPlaylist::previousIndex(int) const
	?tr@QMediaControl@@SA?AVQString@@PBD0H@Z @ 1254 NONAME ; class QString QMediaControl::tr(char const *, char const *, int)
	?tr@QImageEncoderControl@@SA?AVQString@@PBD0@Z @ 1255 NONAME ; class QString QImageEncoderControl::tr(char const *, char const *)
	?nativeSizeChanged@QGraphicsVideoItem@@IAEXABVQSizeF@@@Z @ 1256 NONAME ; void QGraphicsVideoItem::nativeSizeChanged(class QSizeF const &)
	??1QSoundEffect@@UAE@XZ @ 1257 NONAME ; QSoundEffect::~QSoundEffect(void)
	?media@QMediaPlayer@@QBE?AVQMediaContent@@XZ @ 1258 NONAME ; class QMediaContent QMediaPlayer::media(void) const
	?bind@QMediaImageViewer@@UAE_NPAVQObject@@@Z @ 1259 NONAME ; bool QMediaImageViewer::bind(class QObject *)
	?resolution@QMediaResource@@QBE?AVQSize@@XZ @ 1260 NONAME ; class QSize QMediaResource::resolution(void) const
	?frameChanged@QPainterVideoSurface@@IAEXXZ @ 1261 NONAME ; void QPainterVideoSurface::frameChanged(void)
	?setBitRate@QVideoEncoderSettings@@QAEXH@Z @ 1262 NONAME ; void QVideoEncoderSettings::setBitRate(int)
	?qt_metacast@QMediaControl@@UAEPAXPBD@Z @ 1263 NONAME ; void * QMediaControl::qt_metacast(char const *)
	?sizeHint@QVideoWidget@@UBE?AVQSize@@XZ @ 1264 NONAME ; class QSize QVideoWidget::sizeHint(void) const
	?bandChanged@QRadioTunerControl@@IAEXW4Band@QRadioTuner@@@Z @ 1265 NONAME ; void QRadioTunerControl::bandChanged(enum QRadioTuner::Band)
	?trUtf8@QMetaDataReaderControl@@SA?AVQString@@PBD0H@Z @ 1266 NONAME ; class QString QMetaDataReaderControl::trUtf8(char const *, char const *, int)
	?getStaticMetaObject@QVideoDeviceControl@@SAABUQMetaObject@@XZ @ 1267 NONAME ; struct QMetaObject const & QVideoDeviceControl::getStaticMetaObject(void)
	?stateChanged@QMediaPlayer@@IAEXW4State@1@@Z @ 1268 NONAME ; void QMediaPlayer::stateChanged(enum QMediaPlayer::State)
	??0QMediaPlayerControl@@IAE@PAVQObject@@@Z @ 1269 NONAME ; QMediaPlayerControl::QMediaPlayerControl(class QObject *)
	?tr@QRadioTunerControl@@SA?AVQString@@PBD0H@Z @ 1270 NONAME ; class QString QRadioTunerControl::tr(char const *, char const *, int)
	?getStaticMetaObject@QVideoWidgetControl@@SAABUQMetaObject@@XZ @ 1271 NONAME ; struct QMetaObject const & QVideoWidgetControl::getStaticMetaObject(void)
	??9QMediaServiceProviderHint@@QBE_NABV0@@Z @ 1272 NONAME ; bool QMediaServiceProviderHint::operator!=(class QMediaServiceProviderHint const &) const
	?tr@QRadioTuner@@SA?AVQString@@PBD0@Z @ 1273 NONAME ; class QString QRadioTuner::tr(char const *, char const *)
	?tr@QAudioSystemPlugin@@SA?AVQString@@PBD0H@Z @ 1274 NONAME ; class QString QAudioSystemPlugin::tr(char const *, char const *, int)
	?stateChanged@QMediaImageViewer@@IAEXW4State@1@@Z @ 1275 NONAME ; void QMediaImageViewer::stateChanged(enum QMediaImageViewer::State)
	?next@QMediaPlaylist@@QAEXXZ @ 1276 NONAME ; void QMediaPlaylist::next(void)
	?tr@QMediaPlayerControl@@SA?AVQString@@PBD0@Z @ 1277 NONAME ; class QString QMediaPlayerControl::tr(char const *, char const *)
	??1QMediaPlaylistControl@@UAE@XZ @ 1278 NONAME ; QMediaPlaylistControl::~QMediaPlaylistControl(void)
	?setupMetaData@QMediaObject@@AAEXXZ @ 1279 NONAME ; void QMediaObject::setupMetaData(void)
	??_EQImageEncoderControl@@UAE@I@Z @ 1280 NONAME ; QImageEncoderControl::~QImageEncoderControl(unsigned int)
	??_EQMediaRecorder@@UAE@I@Z @ 1281 NONAME ; QMediaRecorder::~QMediaRecorder(unsigned int)
	?tr@QMetaDataWriterControl@@SA?AVQString@@PBD0@Z @ 1282 NONAME ; class QString QMetaDataWriterControl::tr(char const *, char const *)
	?tr@QMediaRecorder@@SA?AVQString@@PBD0@Z @ 1283 NONAME ; class QString QMediaRecorder::tr(char const *, char const *)
	??1QVideoWidget@@UAE@XZ @ 1284 NONAME ; QVideoWidget::~QVideoWidget(void)
	?tr@QAudioSystemPlugin@@SA?AVQString@@PBD0@Z @ 1285 NONAME ; class QString QAudioSystemPlugin::tr(char const *, char const *)
	??1QVideoWindowControl@@UAE@XZ @ 1286 NONAME ; QVideoWindowControl::~QVideoWindowControl(void)
	?trUtf8@QMediaServiceProviderPlugin@@SA?AVQString@@PBD0H@Z @ 1287 NONAME ; class QString QMediaServiceProviderPlugin::trUtf8(char const *, char const *, int)
	?currentIndexChanged@QMediaPlaylistControl@@IAEXH@Z @ 1288 NONAME ; void QMediaPlaylistControl::currentIndexChanged(int)
	?mutedChanged@QMediaPlayer@@IAEX_N@Z @ 1289 NONAME ; void QMediaPlayer::mutedChanged(bool)
	?hasSupport@QMediaPlayer@@SA?AW4SupportEstimate@QtMultimedia@@ABVQString@@ABVQStringList@@V?$QFlags@W4Flag@QMediaPlayer@@@@@Z @ 1290 NONAME ; enum QtMultimedia::SupportEstimate QMediaPlayer::hasSupport(class QString const &, class QStringList const &, class QFlags<enum QMediaPlayer::Flag>)
	?mediaChanged@QMediaPlayer@@IAEXABVQMediaContent@@@Z @ 1291 NONAME ; void QMediaPlayer::mediaChanged(class QMediaContent const &)
	?mediaChanged@QMediaPlaylist@@IAEXHH@Z @ 1292 NONAME ; void QMediaPlaylist::mediaChanged(int, int)
	?tr@QMediaServiceProvider@@SA?AVQString@@PBD0H@Z @ 1293 NONAME ; class QString QMediaServiceProvider::tr(char const *, char const *, int)
	?mutedChanged@QSoundEffect@@IAEXXZ @ 1294 NONAME ; void QSoundEffect::mutedChanged(void)
	?trUtf8@QRadioTuner@@SA?AVQString@@PBD0@Z @ 1295 NONAME ; class QString QRadioTuner::trUtf8(char const *, char const *)
	?getStaticMetaObject@QRadioTuner@@SAABUQMetaObject@@XZ @ 1296 NONAME ; struct QMetaObject const & QRadioTuner::getStaticMetaObject(void)
	?offset@QGraphicsVideoItem@@QBE?AVQPointF@@XZ @ 1297 NONAME ; class QPointF QGraphicsVideoItem::offset(void) const
	?setQuality@QImageEncoderSettings@@QAEXW4EncodingQuality@QtMultimedia@@@Z @ 1298 NONAME ; void QImageEncoderSettings::setQuality(enum QtMultimedia::EncodingQuality)
	?trUtf8@QAudioCaptureSource@@SA?AVQString@@PBD0H@Z @ 1299 NONAME ; class QString QAudioCaptureSource::trUtf8(char const *, char const *, int)
	?present@QPainterVideoSurface@@UAE_NABVQVideoFrame@@@Z @ 1300 NONAME ; bool QPainterVideoSurface::present(class QVideoFrame const &)
	?removeMedia@QMediaPlaylistProvider@@UAE_NH@Z @ 1301 NONAME ; bool QMediaPlaylistProvider::removeMedia(int)
	??0QVideoEncoderControl@@IAE@PAVQObject@@@Z @ 1302 NONAME ; QVideoEncoderControl::QVideoEncoderControl(class QObject *)
	?contrastChanged@QVideoWidget@@IAEXH@Z @ 1303 NONAME ; void QVideoWidget::contrastChanged(int)
	?unbind@QMediaObject@@UAEXPAVQObject@@@Z @ 1304 NONAME ; void QMediaObject::unbind(class QObject *)
	?metaObject@QMediaImageViewer@@UBEPBUQMetaObject@@XZ @ 1305 NONAME ; struct QMetaObject const * QMediaImageViewer::metaObject(void) const
	?tr@QMediaStreamsControl@@SA?AVQString@@PBD0@Z @ 1306 NONAME ; class QString QMediaStreamsControl::tr(char const *, char const *)
	??0QGraphicsVideoItem@@QAE@PAVQGraphicsItem@@@Z @ 1307 NONAME ; QGraphicsVideoItem::QGraphicsVideoItem(class QGraphicsItem *)
	??1QVideoEncoderControl@@UAE@XZ @ 1308 NONAME ; QVideoEncoderControl::~QVideoEncoderControl(void)
	?removeInterval@QMediaTimeRange@@QAEXABVQMediaTimeInterval@@@Z @ 1309 NONAME ; void QMediaTimeRange::removeInterval(class QMediaTimeInterval const &)
	?tr@QPainterVideoSurface@@SA?AVQString@@PBD0@Z @ 1310 NONAME ; class QString QPainterVideoSurface::tr(char const *, char const *)
	?currentMedia@QMediaPlaylist@@QBE?AVQMediaContent@@XZ @ 1311 NONAME ; class QMediaContent QMediaPlaylist::currentMedia(void) const
	?insertMedia@QLocalMediaPlaylistProvider@@UAE_NHABVQMediaContent@@@Z @ 1312 NONAME ; bool QLocalMediaPlaylistProvider::insertMedia(int, class QMediaContent const &)
	?setAudioCodec@QMediaResource@@QAEXABVQString@@@Z @ 1313 NONAME ; void QMediaResource::setAudioCodec(class QString const &)
	?activated@QMediaPlaylistNavigator@@IAEXABVQMediaContent@@@Z @ 1314 NONAME ; void QMediaPlaylistNavigator::activated(class QMediaContent const &)
	?releaseControl@QMediaImageViewerService@@UAEXPAVQMediaControl@@@Z @ 1315 NONAME ; void QMediaImageViewerService::releaseControl(class QMediaControl *)
	?trUtf8@QMediaPlaylistNavigator@@SA?AVQString@@PBD0@Z @ 1316 NONAME ; class QString QMediaPlaylistNavigator::trUtf8(char const *, char const *)
	?tr@QMediaControl@@SA?AVQString@@PBD0@Z @ 1317 NONAME ; class QString QMediaControl::tr(char const *, char const *)
	?getStaticMetaObject@QMetaDataWriterControl@@SAABUQMetaObject@@XZ @ 1318 NONAME ; struct QMetaObject const & QMetaDataWriterControl::getStaticMetaObject(void)
	?removeInterval@QMediaTimeRange@@QAEX_J0@Z @ 1319 NONAME ; void QMediaTimeRange::removeInterval(long long, long long)
	?setQuality@QAudioEncoderSettings@@QAEXW4EncodingQuality@QtMultimedia@@@Z @ 1320 NONAME ; void QAudioEncoderSettings::setQuality(enum QtMultimedia::EncodingQuality)
	??0QMediaTimeInterval@@QAE@XZ @ 1321 NONAME ; QMediaTimeInterval::QMediaTimeInterval(void)
	?isEmpty@QMediaPlaylist@@QBE_NXZ @ 1322 NONAME ; bool QMediaPlaylist::isEmpty(void) const
	?insertMedia@QMediaPlaylist@@QAE_NHABV?$QList@VQMediaContent@@@@@Z @ 1323 NONAME ; bool QMediaPlaylist::insertMedia(int, class QList<class QMediaContent> const &)
	?tr@QMediaObject@@SA?AVQString@@PBD0@Z @ 1324 NONAME ; class QString QMediaObject::tr(char const *, char const *)
	?trUtf8@QMediaPlaylistControl@@SA?AVQString@@PBD0H@Z @ 1325 NONAME ; class QString QMediaPlaylistControl::trUtf8(char const *, char const *, int)
	?unbind@QMediaPlayer@@UAEXPAVQObject@@@Z @ 1326 NONAME ; void QMediaPlayer::unbind(class QObject *)
	?removeMedia@QLocalMediaPlaylistProvider@@UAE_NH@Z @ 1327 NONAME ; bool QLocalMediaPlaylistProvider::removeMedia(int)
	?mutedChanged@QMediaPlayerControl@@IAEX_N@Z @ 1328 NONAME ; void QMediaPlayerControl::mutedChanged(bool)
	?getStaticMetaObject@QMediaServiceProviderPlugin@@SAABUQMetaObject@@XZ @ 1329 NONAME ; struct QMetaObject const & QMediaServiceProviderPlugin::getStaticMetaObject(void)
	?qt_metacall@QMediaServiceProviderPlugin@@UAEHW4Call@QMetaObject@@HPAPAX@Z @ 1330 NONAME ; int QMediaServiceProviderPlugin::qt_metacall(enum QMetaObject::Call, int, void * *)
	?tr@QVideoRendererControl@@SA?AVQString@@PBD0H@Z @ 1331 NONAME ; class QString QVideoRendererControl::tr(char const *, char const *, int)

