EXPORTS
	?parentLocalId@QOrganizerTodoOccurrence@QtMobility@@QBE?AVQOrganizerItemLocalId@2@XZ @ 1 NONAME ; class QtMobility::QOrganizerItemLocalId QtMobility::QOrganizerTodoOccurrence::parentLocalId(void) const
	?trUtf8@QOrganizerItemLocalIdFetchRequest@QtMobility@@SA?AVQString@@PBD0H@Z @ 2 NONAME ; class QString QtMobility::QOrganizerItemLocalIdFetchRequest::trUtf8(char const *, char const *, int)
	?staticMetaObject@QOrganizerItemFetchRequest@QtMobility@@2UQMetaObject@@B @ 3 NONAME ; struct QMetaObject const QtMobility::QOrganizerItemFetchRequest::staticMetaObject
	?insertAddedItems@QOrganizerItemChangeSet@QtMobility@@QAEXABV?$QList@VQOrganizerItemLocalId@QtMobility@@@@@Z @ 4 NONAME ; void QtMobility::QOrganizerItemChangeSet::insertAddedItems(class QList<class QtMobility::QOrganizerItemLocalId> const &)
	?insertChangedCollections@QOrganizerCollectionChangeSet@QtMobility@@QAEXABV?$QList@VQOrganizerCollectionLocalId@QtMobility@@@@@Z @ 5 NONAME ; void QtMobility::QOrganizerCollectionChangeSet::insertChangedCollections(class QList<class QtMobility::QOrganizerCollectionLocalId> const &)
	?endDate@QOrganizerItemInstanceFetchRequest@QtMobility@@QBE?AVQDateTime@@XZ @ 6 NONAME ; class QDateTime QtMobility::QOrganizerItemInstanceFetchRequest::endDate(void) const
	?availableManagers@QOrganizerItemManager@QtMobility@@SA?AVQStringList@@XZ @ 7 NONAME ; class QStringList QtMobility::QOrganizerItemManager::availableManagers(void)
	?waitForRequestFinished@QOrganizerItemManagerEngine@QtMobility@@UAE_NPAVQOrganizerItemAbstractRequest@2@H@Z @ 8 NONAME ; bool QtMobility::QOrganizerItemManagerEngine::waitForRequestFinished(class QtMobility::QOrganizerItemAbstractRequest *, int)
	?daysOfMonth@QOrganizerItemRecurrenceRule@QtMobility@@QBE?AV?$QSet@H@@XZ @ 9 NONAME ; class QSet<int> QtMobility::QOrganizerItemRecurrenceRule::daysOfMonth(void) const
	?details@QOrganizerItem@QtMobility@@QBE?AV?$QList@VQOrganizerItemDetail@QtMobility@@@@ABVQString@@00@Z @ 10 NONAME ; class QList<class QtMobility::QOrganizerItemDetail> QtMobility::QOrganizerItem::details(class QString const &, class QString const &, class QString const &) const
	?clear@QOrganizerItemLocalIdFilter@QtMobility@@QAEXXZ @ 11 NONAME ; void QtMobility::QOrganizerItemLocalIdFilter::clear(void)
	??0QOrganizerItemDetail@QtMobility@@QAE@XZ @ 12 NONAME ; QtMobility::QOrganizerItemDetail::QOrganizerItemDetail(void)
	?setRecurrenceDate@QOrganizerEvent@QtMobility@@QAEXABVQDate@@@Z @ 13 NONAME ; void QtMobility::QOrganizerEvent::setRecurrenceDate(class QDate const &)
	?metaObject@QOrganizerCollectionRemoveRequest@QtMobility@@UBEPBUQMetaObject@@XZ @ 14 NONAME ; struct QMetaObject const * QtMobility::QOrganizerCollectionRemoveRequest::metaObject(void) const
	??0QOrganizerNote@QtMobility@@QAE@ABVQOrganizerItem@1@@Z @ 15 NONAME ; QtMobility::QOrganizerNote::QOrganizerNote(class QtMobility::QOrganizerItem const &)
	?items@QOrganizerItemManager@QtMobility@@QBE?AV?$QList@VQOrganizerItem@QtMobility@@@@ABVQOrganizerItemFilter@2@ABV?$QList@VQOrganizerItemSortOrder@QtMobility@@@@ABVQOrganizerItemFetchHint@2@@Z @ 16 NONAME ; class QList<class QtMobility::QOrganizerItem> QtMobility::QOrganizerItemManager::items(class QtMobility::QOrganizerItemFilter const &, class QList<class QtMobility::QOrganizerItemSortOrder> const &, class QtMobility::QOrganizerItemFetchHint const &) const
	??0QOrganizerItemReminder@QtMobility@@IAE@PBD@Z @ 17 NONAME ; QtMobility::QOrganizerItemReminder::QOrganizerItemReminder(char const *)
	?setFetchHint@QOrganizerItemFetchForExportRequest@QtMobility@@QAEXABVQOrganizerItemFetchHint@2@@Z @ 18 NONAME ; void QtMobility::QOrganizerItemFetchForExportRequest::setFetchHint(class QtMobility::QOrganizerItemFetchHint const &)
	?items@QOrganizerItemFetchRequest@QtMobility@@QBE?AV?$QList@VQOrganizerItem@QtMobility@@@@XZ @ 19 NONAME ; class QList<class QtMobility::QOrganizerItem> QtMobility::QOrganizerItemFetchRequest::items(void) const
	?tr@QOrganizerItemAbstractRequest@QtMobility@@SA?AVQString@@PBD0@Z @ 20 NONAME ; class QString QtMobility::QOrganizerItemAbstractRequest::tr(char const *, char const *)
	??0QOrganizerItemGuid@QtMobility@@QAE@ABVQOrganizerItemDetail@1@@Z @ 21 NONAME ; QtMobility::QOrganizerItemGuid::QOrganizerItemGuid(class QtMobility::QOrganizerItemDetail const &)
	?setPriority@QOrganizerEvent@QtMobility@@QAEXW4Priority@QOrganizerItemPriority@2@@Z @ 22 NONAME ; void QtMobility::QOrganizerEvent::setPriority(enum QtMobility::QOrganizerItemPriority::Priority)
	?matchFlags@QOrganizerItemDetailFilter@QtMobility@@QBE?AV?$QFlags@W4MatchFlag@QOrganizerItemFilter@QtMobility@@@@XZ @ 23 NONAME ; class QFlags<enum QtMobility::QOrganizerItemFilter::MatchFlag> QtMobility::QOrganizerItemDetailFilter::matchFlags(void) const
	?getStaticMetaObject@QOrganizerItemSaveRequest@QtMobility@@SAABUQMetaObject@@XZ @ 24 NONAME ; struct QMetaObject const & QtMobility::QOrganizerItemSaveRequest::getStaticMetaObject(void)
	?collectionsChanged@QOrganizerItemManagerEngine@QtMobility@@IAEXABV?$QList@VQOrganizerCollectionLocalId@QtMobility@@@@@Z @ 25 NONAME ; void QtMobility::QOrganizerItemManagerEngine::collectionsChanged(class QList<class QtMobility::QOrganizerCollectionLocalId> const &)
	??1QOrganizerCollectionLocalId@QtMobility@@QAE@XZ @ 26 NONAME ; QtMobility::QOrganizerCollectionLocalId::~QOrganizerCollectionLocalId(void)
	?sorting@QOrganizerItemLocalIdFetchRequest@QtMobility@@QBE?AV?$QList@VQOrganizerItemSortOrder@QtMobility@@@@XZ @ 27 NONAME ; class QList<class QtMobility::QOrganizerItemSortOrder> QtMobility::QOrganizerItemLocalIdFetchRequest::sorting(void) const
	??4QOrganizerItemVisualReminder@QtMobility@@QAEAAV01@ABVQOrganizerItemDetail@1@@Z @ 28 NONAME ; class QtMobility::QOrganizerItemVisualReminder & QtMobility::QOrganizerItemVisualReminder::operator=(class QtMobility::QOrganizerItemDetail const &)
	?setDetailDefinitionName@QOrganizerItemDetailRangeFilter@QtMobility@@QAEXABVQString@@0@Z @ 29 NONAME ; void QtMobility::QOrganizerItemDetailRangeFilter::setDetailDefinitionName(class QString const &, class QString const &)
	?setDefinitions@QOrganizerItemDetailDefinitionSaveRequest@QtMobility@@QAEXABV?$QList@VQOrganizerItemDetailDefinition@QtMobility@@@@@Z @ 30 NONAME ; void QtMobility::QOrganizerItemDetailDefinitionSaveRequest::setDefinitions(class QList<class QtMobility::QOrganizerItemDetailDefinition> const &)
	??UQtMobility@@YA?BVQOrganizerItemFilter@0@ABV10@0@Z @ 31 NONAME ; class QtMobility::QOrganizerItemFilter const QtMobility::operator|(class QtMobility::QOrganizerItemFilter const &, class QtMobility::QOrganizerItemFilter const &)
	??1QOrganizerItemId@QtMobility@@QAE@XZ @ 32 NONAME ; QtMobility::QOrganizerItemId::~QOrganizerItemId(void)
	??4QOrganizerTodoProgress@QtMobility@@QAEAAV01@ABVQOrganizerItemDetail@1@@Z @ 33 NONAME ; class QtMobility::QOrganizerTodoProgress & QtMobility::QOrganizerTodoProgress::operator=(class QtMobility::QOrganizerItemDetail const &)
	?clear@QOrganizerItemUnionFilter@QtMobility@@QAEXXZ @ 34 NONAME ; void QtMobility::QOrganizerItemUnionFilter::clear(void)
	??4QOrganizerItemAudibleReminder@QtMobility@@QAEAAV01@ABVQOrganizerItemDetail@1@@Z @ 35 NONAME ; class QtMobility::QOrganizerItemAudibleReminder & QtMobility::QOrganizerItemAudibleReminder::operator=(class QtMobility::QOrganizerItemDetail const &)
	?setParentLocalId@QOrganizerEventOccurrence@QtMobility@@QAEXABVQOrganizerItemLocalId@2@@Z @ 36 NONAME ; void QtMobility::QOrganizerEventOccurrence::setParentLocalId(class QtMobility::QOrganizerItemLocalId const &)
	?qt_metacast@QOrganizerCollectionSaveRequest@QtMobility@@UAEPAXPBD@Z @ 37 NONAME ; void * QtMobility::QOrganizerCollectionSaveRequest::qt_metacast(char const *)
	?setEventType@QOrganizerItemChangeLogFilter@QtMobility@@QAEXW4EventType@12@@Z @ 38 NONAME ; void QtMobility::QOrganizerItemChangeLogFilter::setEventType(enum QtMobility::QOrganizerItemChangeLogFilter::EventType)
	?hasFeature@QOrganizerItemManager@QtMobility@@QBE_NW4ManagerFeature@12@ABVQString@@@Z @ 39 NONAME ; bool QtMobility::QOrganizerItemManager::hasFeature(enum QtMobility::QOrganizerItemManager::ManagerFeature, class QString const &) const
	?getStaticMetaObject@QOrganizerItemInstanceFetchRequest@QtMobility@@SAABUQMetaObject@@XZ @ 40 NONAME ; struct QMetaObject const & QtMobility::QOrganizerItemInstanceFetchRequest::getStaticMetaObject(void)
	?removeItems@QOrganizerItemManager@QtMobility@@QAE_NABV?$QList@VQOrganizerItemLocalId@QtMobility@@@@@Z @ 41 NONAME ; bool QtMobility::QOrganizerItemManager::removeItems(class QList<class QtMobility::QOrganizerItemLocalId> const &)
	?qHash@QtMobility@@YAIABVQOrganizerItemId@1@@Z @ 42 NONAME ; unsigned int QtMobility::qHash(class QtMobility::QOrganizerItemId const &)
	?staticMetaObject@QOrganizerCollectionFetchRequest@QtMobility@@2UQMetaObject@@B @ 43 NONAME ; struct QMetaObject const QtMobility::QOrganizerCollectionFetchRequest::staticMetaObject
	?saveItems@QOrganizerItemManager@QtMobility@@QAE_NPAV?$QList@VQOrganizerItem@QtMobility@@@@@Z @ 44 NONAME ; bool QtMobility::QOrganizerItemManager::saveItems(class QList<class QtMobility::QOrganizerItem> *)
	??MQOrganizerCollectionLocalId@QtMobility@@QBE_NABV01@@Z @ 45 NONAME ; bool QtMobility::QOrganizerCollectionLocalId::operator<(class QtMobility::QOrganizerCollectionLocalId const &) const
	?getStaticMetaObject@QOrganizerItemFetchRequest@QtMobility@@SAABUQMetaObject@@XZ @ 46 NONAME ; struct QMetaObject const & QtMobility::QOrganizerItemFetchRequest::getStaticMetaObject(void)
	?collectionsRemoved@QOrganizerItemManagerEngine@QtMobility@@IAEXABV?$QList@VQOrganizerCollectionLocalId@QtMobility@@@@@Z @ 47 NONAME ; void QtMobility::QOrganizerItemManagerEngine::collectionsRemoved(class QList<class QtMobility::QOrganizerCollectionLocalId> const &)
	?localId@QOrganizerItem@QtMobility@@QBE?AVQOrganizerItemLocalId@2@XZ @ 48 NONAME ; class QtMobility::QOrganizerItemLocalId QtMobility::QOrganizerItem::localId(void) const
	??IQtMobility@@YA?BVQOrganizerItemFilter@0@ABV10@0@Z @ 49 NONAME ; class QtMobility::QOrganizerItemFilter const QtMobility::operator&(class QtMobility::QOrganizerItemFilter const &, class QtMobility::QOrganizerItemFilter const &)
	??_EQOrganizerItemDetailDefinitionFetchRequest@QtMobility@@UAE@I@Z @ 50 NONAME ; QtMobility::QOrganizerItemDetailDefinitionFetchRequest::~QOrganizerItemDetailDefinitionFetchRequest(unsigned int)
	??1QOrganizerCollectionRemoveRequest@QtMobility@@UAE@XZ @ 51 NONAME ; QtMobility::QOrganizerCollectionRemoveRequest::~QOrganizerCollectionRemoveRequest(void)
	?saveDetail@QOrganizerItem@QtMobility@@QAE_NPAVQOrganizerItemDetail@2@@Z @ 52 NONAME ; bool QtMobility::QOrganizerItem::saveDetail(class QtMobility::QOrganizerItemDetail *)
	?guid@QOrganizerItem@QtMobility@@QBE?AVQString@@XZ @ 53 NONAME ; class QString QtMobility::QOrganizerItem::guid(void) const
	?filters@QOrganizerItemUnionFilter@QtMobility@@QBE?AV?$QList@VQOrganizerItemFilter@QtMobility@@@@XZ @ 54 NONAME ; class QList<class QtMobility::QOrganizerItemFilter> QtMobility::QOrganizerItemUnionFilter::filters(void) const
	??0QOrganizerItemLocation@QtMobility@@QAE@XZ @ 55 NONAME ; QtMobility::QOrganizerItemLocation::QOrganizerItemLocation(void)
	??4QOrganizerItemLocalId@QtMobility@@QAEAAV01@ABV01@@Z @ 56 NONAME ; class QtMobility::QOrganizerItemLocalId & QtMobility::QOrganizerItemLocalId::operator=(class QtMobility::QOrganizerItemLocalId const &)
	?trUtf8@QOrganizerItemDetailDefinitionFetchRequest@QtMobility@@SA?AVQString@@PBD0H@Z @ 57 NONAME ; class QString QtMobility::QOrganizerItemDetailDefinitionFetchRequest::trUtf8(char const *, char const *, int)
	?FieldSecondsBeforeStart@QOrganizerItemReminder@QtMobility@@2U?$QLatin1Constant@$0BD@@2@B @ 58 NONAME ; struct QtMobility::QLatin1Constant<19> const QtMobility::QOrganizerItemReminder::FieldSecondsBeforeStart
	?setRecurrenceRules@QOrganizerTodo@QtMobility@@QAEXABV?$QSet@VQOrganizerItemRecurrenceRule@QtMobility@@@@@Z @ 59 NONAME ; void QtMobility::QOrganizerTodo::setRecurrenceRules(class QSet<class QtMobility::QOrganizerItemRecurrenceRule> const &)
	?supportedImplementationVersions@QOrganizerItemManagerEngineFactory@QtMobility@@UBE?AV?$QList@H@@XZ @ 60 NONAME ; class QList<int> QtMobility::QOrganizerItemManagerEngineFactory::supportedImplementationVersions(void) const
	?collectionsRemoved@QOrganizerItemManager@QtMobility@@IAEXABV?$QList@VQOrganizerCollectionLocalId@QtMobility@@@@@Z @ 61 NONAME ; void QtMobility::QOrganizerItemManager::collectionsRemoved(class QList<class QtMobility::QOrganizerCollectionLocalId> const &)
	?setStartDateTime@QOrganizerEventOccurrence@QtMobility@@QAEXABVQDateTime@@@Z @ 62 NONAME ; void QtMobility::QOrganizerEventOccurrence::setStartDateTime(class QDateTime const &)
	?isCanceled@QOrganizerItemAbstractRequest@QtMobility@@QBE_NXZ @ 63 NONAME ; bool QtMobility::QOrganizerItemAbstractRequest::isCanceled(void) const
	?errorMap@QOrganizerCollectionRemoveRequest@QtMobility@@QBE?AV?$QMap@HW4Error@QOrganizerItemManager@QtMobility@@@@XZ @ 64 NONAME ; class QMap<int, enum QtMobility::QOrganizerItemManager::Error> QtMobility::QOrganizerCollectionRemoveRequest::errorMap(void) const
	?trUtf8@QOrganizerItemLocalIdFetchRequest@QtMobility@@SA?AVQString@@PBD0@Z @ 65 NONAME ; class QString QtMobility::QOrganizerItemLocalIdFetchRequest::trUtf8(char const *, char const *)
	??1QOrganizerTodoTimeRange@QtMobility@@QAE@XZ @ 66 NONAME ; QtMobility::QOrganizerTodoTimeRange::~QOrganizerTodoTimeRange(void)
	?updateDefinitionRemoveRequest@QOrganizerItemManagerEngine@QtMobility@@SAXPAVQOrganizerItemDetailDefinitionRemoveRequest@2@W4Error@QOrganizerItemManager@2@ABV?$QMap@HW4Error@QOrganizerItemManager@QtMobility@@@@W4State@QOrganizerItemAbstractRequest@2@@Z @ 67 NONAME ; void QtMobility::QOrganizerItemManagerEngine::updateDefinitionRemoveRequest(class QtMobility::QOrganizerItemDetailDefinitionRemoveRequest *, enum QtMobility::QOrganizerItemManager::Error, class QMap<int, enum QtMobility::QOrganizerItemManager::Error> const &, enum QtMobility::QOrganizerItemAbstractRequest::State)
	??0QOrganizerItemTimestamp@QtMobility@@QAE@ABVQOrganizerItemDetail@1@@Z @ 68 NONAME ; QtMobility::QOrganizerItemTimestamp::QOrganizerItemTimestamp(class QtMobility::QOrganizerItemDetail const &)
	?recurrenceRules@QOrganizerItemRecurrence@QtMobility@@QBE?AV?$QSet@VQOrganizerItemRecurrenceRule@QtMobility@@@@XZ @ 69 NONAME ; class QSet<class QtMobility::QOrganizerItemRecurrenceRule> QtMobility::QOrganizerItemRecurrence::recurrenceRules(void) const
	?qHash@QtMobility@@YAIABVQOrganizerItemRecurrenceRule@1@@Z @ 70 NONAME ; unsigned int QtMobility::qHash(class QtMobility::QOrganizerItemRecurrenceRule const &)
	??_EQOrganizerItemInstanceFetchRequest@QtMobility@@UAE@I@Z @ 71 NONAME ; QtMobility::QOrganizerItemInstanceFetchRequest::~QOrganizerItemInstanceFetchRequest(unsigned int)
	?d_func@QOrganizerItemUnionFilter@QtMobility@@AAEPAVQOrganizerItemUnionFilterPrivate@2@XZ @ 72 NONAME ; class QtMobility::QOrganizerItemUnionFilterPrivate * QtMobility::QOrganizerItemUnionFilter::d_func(void)
	?staticMetaObject@QOrganizerItemFetchForExportRequest@QtMobility@@2UQMetaObject@@B @ 73 NONAME ; struct QMetaObject const QtMobility::QOrganizerItemFetchForExportRequest::staticMetaObject
	?setCollectionId@QOrganizerCollectionRemoveRequest@QtMobility@@QAEXABVQOrganizerCollectionLocalId@2@@Z @ 74 NONAME ; void QtMobility::QOrganizerCollectionRemoveRequest::setCollectionId(class QtMobility::QOrganizerCollectionLocalId const &)
	?exceptionRule@QOrganizerEvent@QtMobility@@QBE?AVQOrganizerItemRecurrenceRule@2@XZ @ 75 NONAME ; class QtMobility::QOrganizerItemRecurrenceRule QtMobility::QOrganizerEvent::exceptionRule(void) const
	??0QOrganizerItemVisualReminder@QtMobility@@QAE@ABVQOrganizerItemDetail@1@@Z @ 76 NONAME ; QtMobility::QOrganizerItemVisualReminder::QOrganizerItemVisualReminder(class QtMobility::QOrganizerItemDetail const &)
	?isEmpty@QOrganizerItemDetailDefinition@QtMobility@@QBE_NXZ @ 77 NONAME ; bool QtMobility::QOrganizerItemDetailDefinition::isEmpty(void) const
	?updateCollectionSaveRequest@QOrganizerItemManagerEngine@QtMobility@@SAXPAVQOrganizerCollectionSaveRequest@2@ABV?$QList@VQOrganizerCollection@QtMobility@@@@W4Error@QOrganizerItemManager@2@ABV?$QMap@HW4Error@QOrganizerItemManager@QtMobility@@@@W4State@QOrganizerItemAbstractRequest@2@@Z @ 78 NONAME ; void QtMobility::QOrganizerItemManagerEngine::updateCollectionSaveRequest(class QtMobility::QOrganizerCollectionSaveRequest *, class QList<class QtMobility::QOrganizerCollection> const &, enum QtMobility::QOrganizerItemManager::Error, class QMap<int, enum QtMobility::QOrganizerItemManager::Error> const &, enum QtMobility::QOrganizerItemAbstractRequest::State)
	??0QOrganizerItemCollectionFilter@QtMobility@@QAE@XZ @ 79 NONAME ; QtMobility::QOrganizerItemCollectionFilter::QOrganizerItemCollectionFilter(void)
	?setStatus@QOrganizerTodoOccurrence@QtMobility@@QAEXW4Status@QOrganizerTodoProgress@2@@Z @ 80 NONAME ; void QtMobility::QOrganizerTodoOccurrence::setStatus(enum QtMobility::QOrganizerTodoProgress::Status)
	?startDateTime@QOrganizerTodoOccurrence@QtMobility@@QBE?AVQDateTime@@XZ @ 81 NONAME ; class QDateTime QtMobility::QOrganizerTodoOccurrence::startDateTime(void) const
	??0QOrganizerItemEmailReminder@QtMobility@@QAE@ABVQOrganizerItemDetail@1@@Z @ 82 NONAME ; QtMobility::QOrganizerItemEmailReminder::QOrganizerItemEmailReminder(class QtMobility::QOrganizerItemDetail const &)
	?setEndDate@QOrganizerItemFetchForExportRequest@QtMobility@@QAEXABVQDateTime@@@Z @ 83 NONAME ; void QtMobility::QOrganizerItemFetchForExportRequest::setEndDate(class QDateTime const &)
	?itemInstances@QOrganizerItemManager@QtMobility@@QBE?AV?$QList@VQOrganizerItem@QtMobility@@@@ABVQOrganizerItem@2@ABVQDateTime@@1HABVQOrganizerItemFetchHint@2@@Z @ 84 NONAME ; class QList<class QtMobility::QOrganizerItem> QtMobility::QOrganizerItemManager::itemInstances(class QtMobility::QOrganizerItem const &, class QDateTime const &, class QDateTime const &, int, class QtMobility::QOrganizerItemFetchHint const &) const
	?dataType@QOrganizerItemDetailFieldDefinition@QtMobility@@QBEHXZ @ 85 NONAME ; int QtMobility::QOrganizerItemDetailFieldDefinition::dataType(void) const
	??_EQOrganizerItemRemoveRequest@QtMobility@@UAE@I@Z @ 86 NONAME ; QtMobility::QOrganizerItemRemoveRequest::~QOrganizerItemRemoveRequest(unsigned int)
	??0QOrganizerItemDetailDefinitionRemoveRequest@QtMobility@@QAE@PAVQObject@@@Z @ 87 NONAME ; QtMobility::QOrganizerItemDetailDefinitionRemoveRequest::QOrganizerItemDetailDefinitionRemoveRequest(class QObject *)
	?recipients@QOrganizerItemEmailReminder@QtMobility@@QBE?AVQStringList@@XZ @ 88 NONAME ; class QStringList QtMobility::QOrganizerItemEmailReminder::recipients(void) const
	?DefinitionName@QOrganizerItemTimestamp@QtMobility@@2U?$QLatin1Constant@$09@2@B @ 89 NONAME ; struct QtMobility::QLatin1Constant<10> const QtMobility::QOrganizerItemTimestamp::DefinitionName
	??0QOrganizerItemFilter@QtMobility@@IAE@PAVQOrganizerItemFilterPrivate@1@@Z @ 90 NONAME ; QtMobility::QOrganizerItemFilter::QOrganizerItemFilter(class QtMobility::QOrganizerItemFilterPrivate *)
	?updateCollectionFetchRequest@QOrganizerItemManagerEngine@QtMobility@@SAXPAVQOrganizerCollectionFetchRequest@2@ABV?$QList@VQOrganizerCollection@QtMobility@@@@W4Error@QOrganizerItemManager@2@W4State@QOrganizerItemAbstractRequest@2@@Z @ 91 NONAME ; void QtMobility::QOrganizerItemManagerEngine::updateCollectionFetchRequest(class QtMobility::QOrganizerCollectionFetchRequest *, class QList<class QtMobility::QOrganizerCollection> const &, enum QtMobility::QOrganizerItemManager::Error, enum QtMobility::QOrganizerItemAbstractRequest::State)
	?setEntryDateTime@QOrganizerJournalTimeRange@QtMobility@@QAEXABVQDateTime@@@Z @ 92 NONAME ; void QtMobility::QOrganizerJournalTimeRange::setEntryDateTime(class QDateTime const &)
	??_EQOrganizerItemManagerEngineFactory@QtMobility@@UAE@I@Z @ 93 NONAME ; QtMobility::QOrganizerItemManagerEngineFactory::~QOrganizerItemManagerEngineFactory(unsigned int)
	?d_func@QOrganizerItemFetchRequest@QtMobility@@ABEPBVQOrganizerItemFetchRequestPrivate@2@XZ @ 94 NONAME ; class QtMobility::QOrganizerItemFetchRequestPrivate const * QtMobility::QOrganizerItemFetchRequest::d_func(void) const
	?KeyColor@QOrganizerCollection@QtMobility@@2U?$QLatin1Constant@$05@2@B @ 95 NONAME ; struct QtMobility::QLatin1Constant<6> const QtMobility::QOrganizerCollection::KeyColor
	??0QOrganizerItemUnionFilter@QtMobility@@QAE@ABVQOrganizerItemFilter@1@@Z @ 96 NONAME ; QtMobility::QOrganizerItemUnionFilter::QOrganizerItemUnionFilter(class QtMobility::QOrganizerItemFilter const &)
	?setRecurrenceDates@QOrganizerItemRecurrence@QtMobility@@QAEXABV?$QSet@VQDate@@@@@Z @ 97 NONAME ; void QtMobility::QOrganizerItemRecurrence::setRecurrenceDates(class QSet<class QDate> const &)
	?setLocation@QOrganizerEventOccurrence@QtMobility@@QAEXABVQString@@@Z @ 98 NONAME ; void QtMobility::QOrganizerEventOccurrence::setLocation(class QString const &)
	?itemsRemoved@QOrganizerItemManager@QtMobility@@IAEXABV?$QList@VQOrganizerItemLocalId@QtMobility@@@@@Z @ 99 NONAME ; void QtMobility::QOrganizerItemManager::itemsRemoved(class QList<class QtMobility::QOrganizerItemLocalId> const &)
	??1QOrganizerItemDetailFilter@QtMobility@@QAE@XZ @ 100 NONAME ; QtMobility::QOrganizerItemDetailFilter::~QOrganizerItemDetailFilter(void)
	?setPriority@QOrganizerEventOccurrence@QtMobility@@QAEXW4Priority@QOrganizerItemPriority@2@@Z @ 101 NONAME ; void QtMobility::QOrganizerEventOccurrence::setPriority(enum QtMobility::QOrganizerItemPriority::Priority)
	?match@QOrganizerItemPriority@QtMobility@@SA?AVQOrganizerItemFilter@2@W4Priority@12@@Z @ 102 NONAME ; class QtMobility::QOrganizerItemFilter QtMobility::QOrganizerItemPriority::match(enum QtMobility::QOrganizerItemPriority::Priority)
	??0QOrganizerItemReminder@QtMobility@@QAE@ABVQOrganizerItemDetail@1@@Z @ 103 NONAME ; QtMobility::QOrganizerItemReminder::QOrganizerItemReminder(class QtMobility::QOrganizerItemDetail const &)
	?addedCollections@QOrganizerCollectionChangeSet@QtMobility@@QBE?AV?$QSet@VQOrganizerCollectionLocalId@QtMobility@@@@XZ @ 104 NONAME ; class QSet<class QtMobility::QOrganizerCollectionLocalId> QtMobility::QOrganizerCollectionChangeSet::addedCollections(void) const
	??0QOrganizerItemComment@QtMobility@@QAE@XZ @ 105 NONAME ; QtMobility::QOrganizerItemComment::QOrganizerItemComment(void)
	?collectionsAdded@QOrganizerItemManager@QtMobility@@IAEXABV?$QList@VQOrganizerCollectionLocalId@QtMobility@@@@@Z @ 106 NONAME ; void QtMobility::QOrganizerItemManager::collectionsAdded(class QList<class QtMobility::QOrganizerCollectionLocalId> const &)
	?metaObject@QOrganizerItemDetailDefinitionFetchRequest@QtMobility@@UBEPBUQMetaObject@@XZ @ 107 NONAME ; struct QMetaObject const * QtMobility::QOrganizerItemDetailDefinitionFetchRequest::metaObject(void) const
	?setCollectionId@QOrganizerItem@QtMobility@@QAEXABVQOrganizerCollectionId@2@@Z @ 108 NONAME ; void QtMobility::QOrganizerItem::setCollectionId(class QtMobility::QOrganizerCollectionId const &)
	?tr@QOrganizerItemFetchRequest@QtMobility@@SA?AVQString@@PBD0H@Z @ 109 NONAME ; class QString QtMobility::QOrganizerItemFetchRequest::tr(char const *, char const *, int)
	??_EQOrganizerItemLocalId@QtMobility@@QAE@I@Z @ 110 NONAME ; QtMobility::QOrganizerItemLocalId::~QOrganizerItemLocalId(unsigned int)
	?trUtf8@QOrganizerItemManagerEngine@QtMobility@@SA?AVQString@@PBD0H@Z @ 111 NONAME ; class QString QtMobility::QOrganizerItemManagerEngine::trUtf8(char const *, char const *, int)
	?setExceptionRule@QOrganizerEvent@QtMobility@@QAEXABVQOrganizerItemRecurrenceRule@2@@Z @ 112 NONAME ; void QtMobility::QOrganizerEvent::setExceptionRule(class QtMobility::QOrganizerItemRecurrenceRule const &)
	?tr@QOrganizerCollectionRemoveRequest@QtMobility@@SA?AVQString@@PBD0@Z @ 113 NONAME ; class QString QtMobility::QOrganizerCollectionRemoveRequest::tr(char const *, char const *)
	?type@QOrganizerItemType@QtMobility@@QBE?AVQString@@XZ @ 114 NONAME ; class QString QtMobility::QOrganizerItemType::type(void) const
	??0QOrganizerItemRecurrenceRule@QtMobility@@QAE@XZ @ 115 NONAME ; QtMobility::QOrganizerItemRecurrenceRule::QOrganizerItemRecurrenceRule(void)
	?itemsAdded@QOrganizerItemManager@QtMobility@@IAEXABV?$QList@VQOrganizerItemLocalId@QtMobility@@@@@Z @ 116 NONAME ; void QtMobility::QOrganizerItemManager::itemsAdded(class QList<class QtMobility::QOrganizerItemLocalId> const &)
	?qt_metacall@QOrganizerItemAbstractRequest@QtMobility@@UAEHW4Call@QMetaObject@@HPAPAX@Z @ 117 NONAME ; int QtMobility::QOrganizerItemAbstractRequest::qt_metacall(enum QMetaObject::Call, int, void * *)
	??1QOrganizerItemDetailDefinitionFetchRequest@QtMobility@@UAE@XZ @ 118 NONAME ; QtMobility::QOrganizerItemDetailDefinitionFetchRequest::~QOrganizerItemDetailDefinitionFetchRequest(void)
	?setLongitude@QOrganizerItemLocation@QtMobility@@QAEXN@Z @ 119 NONAME ; void QtMobility::QOrganizerItemLocation::setLongitude(double)
	??0QOrganizerItemDisplayLabel@QtMobility@@QAE@ABVQOrganizerItemDetail@1@@Z @ 120 NONAME ; QtMobility::QOrganizerItemDisplayLabel::QOrganizerItemDisplayLabel(class QtMobility::QOrganizerItemDetail const &)
	??0QOrganizerItemComment@QtMobility@@QAE@ABV01@@Z @ 121 NONAME ; QtMobility::QOrganizerItemComment::QOrganizerItemComment(class QtMobility::QOrganizerItemComment const &)
	?setExceptionRules@QOrganizerTodo@QtMobility@@QAEXABV?$QSet@VQOrganizerItemRecurrenceRule@QtMobility@@@@@Z @ 122 NONAME ; void QtMobility::QOrganizerTodo::setExceptionRules(class QSet<class QtMobility::QOrganizerItemRecurrenceRule> const &)
	?collections@QOrganizerCollectionFetchRequest@QtMobility@@QBE?AV?$QList@VQOrganizerCollection@QtMobility@@@@XZ @ 123 NONAME ; class QList<class QtMobility::QOrganizerCollection> QtMobility::QOrganizerCollectionFetchRequest::collections(void) const
	?staticMetaObject@QOrganizerCollectionRemoveRequest@QtMobility@@2UQMetaObject@@B @ 124 NONAME ; struct QMetaObject const QtMobility::QOrganizerCollectionRemoveRequest::staticMetaObject
	?positions@QOrganizerItemRecurrenceRule@QtMobility@@QBE?AV?$QSet@H@@XZ @ 125 NONAME ; class QSet<int> QtMobility::QOrganizerItemRecurrenceRule::positions(void) const
	?message@QOrganizerItemVisualReminder@QtMobility@@QBE?AVQString@@XZ @ 126 NONAME ; class QString QtMobility::QOrganizerItemVisualReminder::message(void) const
	?updateItemLocalIdFetchRequest@QOrganizerItemManagerEngine@QtMobility@@SAXPAVQOrganizerItemLocalIdFetchRequest@2@ABV?$QList@VQOrganizerItemLocalId@QtMobility@@@@W4Error@QOrganizerItemManager@2@W4State@QOrganizerItemAbstractRequest@2@@Z @ 127 NONAME ; void QtMobility::QOrganizerItemManagerEngine::updateItemLocalIdFetchRequest(class QtMobility::QOrganizerItemLocalIdFetchRequest *, class QList<class QtMobility::QOrganizerItemLocalId> const &, enum QtMobility::QOrganizerItemManager::Error, enum QtMobility::QOrganizerItemAbstractRequest::State)
	?qHash@QtMobility@@YAIABVQOrganizerItem@1@@Z @ 128 NONAME ; unsigned int QtMobility::qHash(class QtMobility::QOrganizerItem const &)
	?qHash@QtMobility@@YAIABVQOrganizerCollectionId@1@@Z @ 129 NONAME ; unsigned int QtMobility::qHash(class QtMobility::QOrganizerCollectionId const &)
	??5QtMobility@@YAAAVQDataStream@@AAV1@AAVQOrganizerItemFetchHint@0@@Z @ 130 NONAME ; class QDataStream & QtMobility::operator>>(class QDataStream &, class QtMobility::QOrganizerItemFetchHint &)
	??0QOrganizerItemDetail@QtMobility@@IAE@ABV01@ABVQString@@@Z @ 131 NONAME ; QtMobility::QOrganizerItemDetail::QOrganizerItemDetail(class QtMobility::QOrganizerItemDetail const &, class QString const &)
	?parentLocalId@QOrganizerEventOccurrence@QtMobility@@QBE?AVQOrganizerItemLocalId@2@XZ @ 132 NONAME ; class QtMobility::QOrganizerItemLocalId QtMobility::QOrganizerEventOccurrence::parentLocalId(void) const
	?d_func@QOrganizerItemDetailDefinitionRemoveRequest@QtMobility@@AAEPAVQOrganizerItemDetailDefinitionRemoveRequestPrivate@2@XZ @ 133 NONAME ; class QtMobility::QOrganizerItemDetailDefinitionRemoveRequestPrivate * QtMobility::QOrganizerItemDetailDefinitionRemoveRequest::d_func(void)
	?FieldMessage@QOrganizerItemVisualReminder@QtMobility@@2U?$QLatin1Constant@$07@2@B @ 134 NONAME ; struct QtMobility::QLatin1Constant<8> const QtMobility::QOrganizerItemVisualReminder::FieldMessage
	?addSorted@QOrganizerItemManagerEngine@QtMobility@@SAXPAV?$QList@VQOrganizerItem@QtMobility@@@@ABVQOrganizerItem@2@ABV?$QList@VQOrganizerItemSortOrder@QtMobility@@@@@Z @ 135 NONAME ; void QtMobility::QOrganizerItemManagerEngine::addSorted(class QList<class QtMobility::QOrganizerItem> *, class QtMobility::QOrganizerItem const &, class QList<class QtMobility::QOrganizerItemSortOrder> const &)
	?testFilter@QOrganizerItemManagerEngine@QtMobility@@SA_NABVQOrganizerItemFilter@2@ABVQOrganizerItem@2@@Z @ 136 NONAME ; bool QtMobility::QOrganizerItemManagerEngine::testFilter(class QtMobility::QOrganizerItemFilter const &, class QtMobility::QOrganizerItem const &)
	?eventType@QOrganizerItemChangeLogFilter@QtMobility@@QBE?AW4EventType@12@XZ @ 137 NONAME ; enum QtMobility::QOrganizerItemChangeLogFilter::EventType QtMobility::QOrganizerItemChangeLogFilter::eventType(void) const
	?qt_metacall@QOrganizerItemFetchForExportRequest@QtMobility@@UAEHW4Call@QMetaObject@@HPAPAX@Z @ 138 NONAME ; int QtMobility::QOrganizerItemFetchForExportRequest::qt_metacall(enum QMetaObject::Call, int, void * *)
	??8QOrganizerItemLocalId@QtMobility@@QBE_NABV01@@Z @ 139 NONAME ; bool QtMobility::QOrganizerItemLocalId::operator==(class QtMobility::QOrganizerItemLocalId const &) const
	?setPriority@QOrganizerTodo@QtMobility@@QAEXW4Priority@QOrganizerItemPriority@2@@Z @ 140 NONAME ; void QtMobility::QOrganizerTodo::setPriority(enum QtMobility::QOrganizerItemPriority::Priority)
	?setDetailAccessConstraints@QOrganizerItemManagerEngine@QtMobility@@SAXPAVQOrganizerItemDetail@2@V?$QFlags@W4AccessConstraint@QOrganizerItemDetail@QtMobility@@@@@Z @ 141 NONAME ; void QtMobility::QOrganizerItemManagerEngine::setDetailAccessConstraints(class QtMobility::QOrganizerItemDetail *, class QFlags<enum QtMobility::QOrganizerItemDetail::AccessConstraint>)
	?metaObject@QOrganizerItemAbstractRequest@QtMobility@@UBEPBUQMetaObject@@XZ @ 142 NONAME ; struct QMetaObject const * QtMobility::QOrganizerItemAbstractRequest::metaObject(void) const
	?setFinishedDateTime@QOrganizerTodoOccurrence@QtMobility@@QAEXABVQDateTime@@@Z @ 143 NONAME ; void QtMobility::QOrganizerTodoOccurrence::setFinishedDateTime(class QDateTime const &)
	?insert@QOrganizerItemLocalIdFilter@QtMobility@@QAEXABVQOrganizerItemLocalId@2@@Z @ 144 NONAME ; void QtMobility::QOrganizerItemLocalIdFilter::insert(class QtMobility::QOrganizerItemLocalId const &)
	?updateRequestState@QOrganizerItemManagerEngine@QtMobility@@SAXPAVQOrganizerItemAbstractRequest@2@W4State@32@@Z @ 145 NONAME ; void QtMobility::QOrganizerItemManagerEngine::updateRequestState(class QtMobility::QOrganizerItemAbstractRequest *, enum QtMobility::QOrganizerItemAbstractRequest::State)
	?tr@QOrganizerCollectionRemoveRequest@QtMobility@@SA?AVQString@@PBD0H@Z @ 146 NONAME ; class QString QtMobility::QOrganizerCollectionRemoveRequest::tr(char const *, char const *, int)
	?setSorting@QOrganizerItemFetchRequest@QtMobility@@QAEXABV?$QList@VQOrganizerItemSortOrder@QtMobility@@@@@Z @ 147 NONAME ; void QtMobility::QOrganizerItemFetchRequest::setSorting(class QList<class QtMobility::QOrganizerItemSortOrder> const &)
	?setDetailDefinitionName@QOrganizerItemSortOrder@QtMobility@@QAEXABVQString@@0@Z @ 148 NONAME ; void QtMobility::QOrganizerItemSortOrder::setDetailDefinitionName(class QString const &, class QString const &)
	??9QOrganizerItemId@QtMobility@@QBE_NABV01@@Z @ 149 NONAME ; bool QtMobility::QOrganizerItemId::operator!=(class QtMobility::QOrganizerItemId const &) const
	??_EQOrganizerItemSortOrder@QtMobility@@QAE@I@Z @ 150 NONAME ; QtMobility::QOrganizerItemSortOrder::~QOrganizerItemSortOrder(unsigned int)
	??0QOrganizerEventTimeRange@QtMobility@@QAE@ABVQOrganizerItemDetail@1@@Z @ 151 NONAME ; QtMobility::QOrganizerEventTimeRange::QOrganizerEventTimeRange(class QtMobility::QOrganizerItemDetail const &)
	?setLabel@QOrganizerItemLocation@QtMobility@@QAEXABVQString@@@Z @ 152 NONAME ; void QtMobility::QOrganizerItemLocation::setLabel(class QString const &)
	?validateDefinition@QOrganizerItemManagerEngine@QtMobility@@UBE_NABVQOrganizerItemDetailDefinition@2@PAW4Error@QOrganizerItemManager@2@@Z @ 153 NONAME ; bool QtMobility::QOrganizerItemManagerEngine::validateDefinition(class QtMobility::QOrganizerItemDetailDefinition const &, enum QtMobility::QOrganizerItemManager::Error *) const
	??8QOrganizerItemFilter@QtMobility@@QBE_NABV01@@Z @ 154 NONAME ; bool QtMobility::QOrganizerItemFilter::operator==(class QtMobility::QOrganizerItemFilter const &) const
	??4QOrganizerNote@QtMobility@@QAEAAV01@ABVQOrganizerItem@1@@Z @ 155 NONAME ; class QtMobility::QOrganizerNote & QtMobility::QOrganizerNote::operator=(class QtMobility::QOrganizerItem const &)
	?item@QOrganizerItemManager@QtMobility@@QBE?AVQOrganizerItem@2@ABVQOrganizerItemLocalId@2@ABVQOrganizerItemFetchHint@2@@Z @ 156 NONAME ; class QtMobility::QOrganizerItem QtMobility::QOrganizerItemManager::item(class QtMobility::QOrganizerItemLocalId const &, class QtMobility::QOrganizerItemFetchHint const &) const
	?DefinitionName@QOrganizerItemLocation@QtMobility@@2U?$QLatin1Constant@$08@2@B @ 157 NONAME ; struct QtMobility::QLatin1Constant<9> const QtMobility::QOrganizerItemLocation::DefinitionName
	??0QOrganizerItemDetailDefinitionFetchRequest@QtMobility@@QAE@PAVQObject@@@Z @ 158 NONAME ; QtMobility::QOrganizerItemDetailDefinitionFetchRequest::QOrganizerItemDetailDefinitionFetchRequest(class QObject *)
	?qt_metacall@QOrganizerItemDetailDefinitionSaveRequest@QtMobility@@UAEHW4Call@QMetaObject@@HPAPAX@Z @ 159 NONAME ; int QtMobility::QOrganizerItemDetailDefinitionSaveRequest::qt_metacall(enum QMetaObject::Call, int, void * *)
	?repetitionCount@QOrganizerItemReminder@QtMobility@@QBEHXZ @ 160 NONAME ; int QtMobility::QOrganizerItemReminder::repetitionCount(void) const
	?staticMetaObject@QOrganizerItemDetailDefinitionFetchRequest@QtMobility@@2UQMetaObject@@B @ 161 NONAME ; struct QMetaObject const QtMobility::QOrganizerItemDetailDefinitionFetchRequest::staticMetaObject
	?setItems@QOrganizerItemSaveRequest@QtMobility@@QAEXABV?$QList@VQOrganizerItem@QtMobility@@@@@Z @ 162 NONAME ; void QtMobility::QOrganizerItemSaveRequest::setItems(class QList<class QtMobility::QOrganizerItem> const &)
	?setDisplayLabel@QOrganizerItem@QtMobility@@QAEXABVQString@@@Z @ 163 NONAME ; void QtMobility::QOrganizerItem::setDisplayLabel(class QString const &)
	?setFilter@QOrganizerItemFetchForExportRequest@QtMobility@@QAEXABVQOrganizerItemFilter@2@@Z @ 164 NONAME ; void QtMobility::QOrganizerItemFetchForExportRequest::setFilter(class QtMobility::QOrganizerItemFilter const &)
	?setDetailDefinitionsHint@QOrganizerItemFetchHint@QtMobility@@QAEXABVQStringList@@@Z @ 165 NONAME ; void QtMobility::QOrganizerItemFetchHint::setDetailDefinitionsHint(class QStringList const &)
	?setMatchFlags@QOrganizerItemDetailFilter@QtMobility@@QAEXV?$QFlags@W4MatchFlag@QOrganizerItemFilter@QtMobility@@@@@Z @ 166 NONAME ; void QtMobility::QOrganizerItemDetailFilter::setMatchFlags(class QFlags<enum QtMobility::QOrganizerItemFilter::MatchFlag>)
	?clear@QOrganizerItemIntersectionFilter@QtMobility@@QAEXXZ @ 167 NONAME ; void QtMobility::QOrganizerItemIntersectionFilter::clear(void)
	??0QOrganizerItemDetail@QtMobility@@QAE@ABVQString@@@Z @ 168 NONAME ; QtMobility::QOrganizerItemDetail::QOrganizerItemDetail(class QString const &)
	?type@QOrganizerItemAbstractRequest@QtMobility@@QBE?AW4RequestType@12@XZ @ 169 NONAME ; enum QtMobility::QOrganizerItemAbstractRequest::RequestType QtMobility::QOrganizerItemAbstractRequest::type(void) const
	?recurrenceRule@QOrganizerEvent@QtMobility@@QBE?AVQOrganizerItemRecurrenceRule@2@XZ @ 170 NONAME ; class QtMobility::QOrganizerItemRecurrenceRule QtMobility::QOrganizerEvent::recurrenceRule(void) const
	?exceptionDates@QOrganizerItemRecurrence@QtMobility@@QBE?AV?$QSet@VQDate@@@@XZ @ 171 NONAME ; class QSet<class QDate> QtMobility::QOrganizerItemRecurrence::exceptionDates(void) const
	?setFirstDayOfWeek@QOrganizerItemRecurrenceRule@QtMobility@@QAEXW4DayOfWeek@Qt@@@Z @ 172 NONAME ; void QtMobility::QOrganizerItemRecurrenceRule::setFirstDayOfWeek(enum Qt::DayOfWeek)
	?setAllowableValues@QOrganizerItemDetailFieldDefinition@QtMobility@@QAEXV?$QList@VQVariant@@@@@Z @ 173 NONAME ; void QtMobility::QOrganizerItemDetailFieldDefinition::setAllowableValues(class QList<class QVariant>)
	?allowableValues@QOrganizerItemDetailFieldDefinition@QtMobility@@QBE?AV?$QList@VQVariant@@@@XZ @ 174 NONAME ; class QList<class QVariant> QtMobility::QOrganizerItemDetailFieldDefinition::allowableValues(void) const
	?metaObject@QOrganizerItemDetailDefinitionRemoveRequest@QtMobility@@UBEPBUQMetaObject@@XZ @ 175 NONAME ; struct QMetaObject const * QtMobility::QOrganizerItemDetailDefinitionRemoveRequest::metaObject(void) const
	??0QOrganizerCollectionId@QtMobility@@QAE@XZ @ 176 NONAME ; QtMobility::QOrganizerCollectionId::QOrganizerCollectionId(void)
	?d_func@QOrganizerItemDetailDefinitionFetchRequest@QtMobility@@ABEPBVQOrganizerItemDetailDefinitionFetchRequestPrivate@2@XZ @ 177 NONAME ; class QtMobility::QOrganizerItemDetailDefinitionFetchRequestPrivate const * QtMobility::QOrganizerItemDetailDefinitionFetchRequest::d_func(void) const
	??1QOrganizerItemFetchHint@QtMobility@@QAE@XZ @ 178 NONAME ; QtMobility::QOrganizerItemFetchHint::~QOrganizerItemFetchHint(void)
	?entryDateTime@QOrganizerJournalTimeRange@QtMobility@@QBE?AVQDateTime@@XZ @ 179 NONAME ; class QDateTime QtMobility::QOrganizerJournalTimeRange::entryDateTime(void) const
	?priority@QOrganizerTodo@QtMobility@@QBE?AW4Priority@QOrganizerItemPriority@2@XZ @ 180 NONAME ; enum QtMobility::QOrganizerItemPriority::Priority QtMobility::QOrganizerTodo::priority(void) const
	?schemaDefinitions@QOrganizerItemManagerEngine@QtMobility@@SA?AV?$QMap@VQString@@V?$QMap@VQString@@VQOrganizerItemDetailDefinition@QtMobility@@@@@@H@Z @ 181 NONAME ; class QMap<class QString, class QMap<class QString, class QtMobility::QOrganizerItemDetailDefinition> > QtMobility::QOrganizerItemManagerEngine::schemaDefinitions(int)
	?generator@QOrganizerItemInstanceFetchRequest@QtMobility@@QBE?AVQOrganizerItem@2@XZ @ 182 NONAME ; class QtMobility::QOrganizerItem QtMobility::QOrganizerItemInstanceFetchRequest::generator(void) const
	??0QOrganizerItemLocalId@QtMobility@@QAE@PAVQOrganizerItemEngineLocalId@1@@Z @ 183 NONAME ; QtMobility::QOrganizerItemLocalId::QOrganizerItemLocalId(class QtMobility::QOrganizerItemEngineLocalId *)
	??0QOrganizerItemDetailFieldDefinition@QtMobility@@QAE@ABV01@@Z @ 184 NONAME ; QtMobility::QOrganizerItemDetailFieldDefinition::QOrganizerItemDetailFieldDefinition(class QtMobility::QOrganizerItemDetailFieldDefinition const &)
	?collectionsChanged@QOrganizerItemManager@QtMobility@@IAEXABV?$QList@VQOrganizerCollectionLocalId@QtMobility@@@@@Z @ 185 NONAME ; void QtMobility::QOrganizerItemManager::collectionsChanged(class QList<class QtMobility::QOrganizerCollectionLocalId> const &)
	?setDataUrl@QOrganizerItemAudibleReminder@QtMobility@@QAEXABVQUrl@@@Z @ 186 NONAME ; void QtMobility::QOrganizerItemAudibleReminder::setDataUrl(class QUrl const &)
	??1QOrganizerJournalTimeRange@QtMobility@@QAE@XZ @ 187 NONAME ; QtMobility::QOrganizerJournalTimeRange::~QOrganizerJournalTimeRange(void)
	?setExceptionRules@QOrganizerEvent@QtMobility@@QAEXABV?$QSet@VQOrganizerItemRecurrenceRule@QtMobility@@@@@Z @ 188 NONAME ; void QtMobility::QOrganizerEvent::setExceptionRules(class QSet<class QtMobility::QOrganizerItemRecurrenceRule> const &)
	?d_func@QOrganizerItemLocalIdFetchRequest@QtMobility@@AAEPAVQOrganizerItemLocalIdFetchRequestPrivate@2@XZ @ 189 NONAME ; class QtMobility::QOrganizerItemLocalIdFetchRequestPrivate * QtMobility::QOrganizerItemLocalIdFetchRequest::d_func(void)
	?getStaticMetaObject@QOrganizerItemDetailDefinitionRemoveRequest@QtMobility@@SAABUQMetaObject@@XZ @ 190 NONAME ; struct QMetaObject const & QtMobility::QOrganizerItemDetailDefinitionRemoveRequest::getStaticMetaObject(void)
	?requestDestroyed@QOrganizerItemManagerEngine@QtMobility@@UAEXPAVQOrganizerItemAbstractRequest@2@@Z @ 191 NONAME ; void QtMobility::QOrganizerItemManagerEngine::requestDestroyed(class QtMobility::QOrganizerItemAbstractRequest *)
	?d_func@QOrganizerItemDetailFilter@QtMobility@@AAEPAVQOrganizerItemDetailFilterPrivate@2@XZ @ 192 NONAME ; class QtMobility::QOrganizerItemDetailFilterPrivate * QtMobility::QOrganizerItemDetailFilter::d_func(void)
	?DefinitionName@QOrganizerItemDisplayLabel@QtMobility@@2U?$QLatin1Constant@$0N@@2@B @ 193 NONAME ; struct QtMobility::QLatin1Constant<13> const QtMobility::QOrganizerItemDisplayLabel::DefinitionName
	??0QOrganizerItemId@QtMobility@@QAE@XZ @ 194 NONAME ; QtMobility::QOrganizerItemId::QOrganizerItemId(void)
	??0QOrganizerJournal@QtMobility@@QAE@XZ @ 195 NONAME ; QtMobility::QOrganizerJournal::QOrganizerJournal(void)
	?dueDateTime@QOrganizerTodoOccurrence@QtMobility@@QBE?AVQDateTime@@XZ @ 196 NONAME ; class QDateTime QtMobility::QOrganizerTodoOccurrence::dueDateTime(void) const
	??0QOrganizerItemInvalidFilter@QtMobility@@QAE@XZ @ 197 NONAME ; QtMobility::QOrganizerItemInvalidFilter::QOrganizerItemInvalidFilter(void)
	?setDataUrl@QOrganizerItemVisualReminder@QtMobility@@QAEXABVQUrl@@@Z @ 198 NONAME ; void QtMobility::QOrganizerItemVisualReminder::setDataUrl(class QUrl const &)
	?dataChanged@QOrganizerCollectionChangeSet@QtMobility@@QAE_NXZ @ 199 NONAME ; bool QtMobility::QOrganizerCollectionChangeSet::dataChanged(void)
	?tr@QOrganizerItemLocalIdFetchRequest@QtMobility@@SA?AVQString@@PBD0@Z @ 200 NONAME ; class QString QtMobility::QOrganizerItemLocalIdFetchRequest::tr(char const *, char const *)
	?metaData@QOrganizerCollection@QtMobility@@QBE?AV?$QMap@VQString@@VQVariant@@@@XZ @ 201 NONAME ; class QMap<class QString, class QVariant> QtMobility::QOrganizerCollection::metaData(void) const
	?setDefinitionNames@QOrganizerItemDetailDefinitionFetchRequest@QtMobility@@QAEXABVQStringList@@@Z @ 202 NONAME ; void QtMobility::QOrganizerItemDetailDefinitionFetchRequest::setDefinitionNames(class QStringList const &)
	?setOptimizationHints@QOrganizerItemFetchHint@QtMobility@@QAEXV?$QFlags@W4OptimizationHint@QOrganizerItemFetchHint@QtMobility@@@@@Z @ 203 NONAME ; void QtMobility::QOrganizerItemFetchHint::setOptimizationHints(class QFlags<enum QtMobility::QOrganizerItemFetchHint::OptimizationHint>)
	?defaultCollection@QOrganizerItemManager@QtMobility@@QBE?AVQOrganizerCollection@2@XZ @ 204 NONAME ; class QtMobility::QOrganizerCollection QtMobility::QOrganizerItemManager::defaultCollection(void) const
	?trUtf8@QOrganizerCollectionSaveRequest@QtMobility@@SA?AVQString@@PBD0@Z @ 205 NONAME ; class QString QtMobility::QOrganizerCollectionSaveRequest::trUtf8(char const *, char const *)
	?FieldAttachments@QOrganizerItemEmailReminder@QtMobility@@2U?$QLatin1Constant@$0M@@2@B @ 206 NONAME ; struct QtMobility::QLatin1Constant<12> const QtMobility::QOrganizerItemEmailReminder::FieldAttachments
	?d_func@QOrganizerItemChangeLogFilter@QtMobility@@ABEPBVQOrganizerItemChangeLogFilterPrivate@2@XZ @ 207 NONAME ; class QtMobility::QOrganizerItemChangeLogFilterPrivate const * QtMobility::QOrganizerItemChangeLogFilter::d_func(void) const
	?getStaticMetaObject@QOrganizerCollectionSaveRequest@QtMobility@@SAABUQMetaObject@@XZ @ 208 NONAME ; struct QMetaObject const & QtMobility::QOrganizerCollectionSaveRequest::getStaticMetaObject(void)
	?emitSignals@QOrganizerCollectionChangeSet@QtMobility@@QAEXPAVQOrganizerItemManagerEngine@2@@Z @ 209 NONAME ; void QtMobility::QOrganizerCollectionChangeSet::emitSignals(class QtMobility::QOrganizerItemManagerEngine *)
	??0QOrganizerItemSortOrder@QtMobility@@QAE@ABV01@@Z @ 210 NONAME ; QtMobility::QOrganizerItemSortOrder::QOrganizerItemSortOrder(class QtMobility::QOrganizerItemSortOrder const &)
	?validateCollection@QOrganizerItemManagerEngine@QtMobility@@UBE_NABVQOrganizerCollection@2@PAW4Error@QOrganizerItemManager@2@@Z @ 211 NONAME ; bool QtMobility::QOrganizerItemManagerEngine::validateCollection(class QtMobility::QOrganizerCollection const &, enum QtMobility::QOrganizerItemManager::Error *) const
	?ids@QOrganizerItemLocalIdFilter@QtMobility@@QBE?AV?$QList@VQOrganizerItemLocalId@QtMobility@@@@XZ @ 212 NONAME ; class QList<class QtMobility::QOrganizerItemLocalId> QtMobility::QOrganizerItemLocalIdFilter::ids(void) const
	?key@QOrganizerItemDetail@QtMobility@@QBEHXZ @ 213 NONAME ; int QtMobility::QOrganizerItemDetail::key(void) const
	??0QOrganizerCollectionFetchRequest@QtMobility@@QAE@PAVQObject@@@Z @ 214 NONAME ; QtMobility::QOrganizerCollectionFetchRequest::QOrganizerCollectionFetchRequest(class QObject *)
	?fetchHint@QOrganizerItemFetchForExportRequest@QtMobility@@QBE?AVQOrganizerItemFetchHint@2@XZ @ 215 NONAME ; class QtMobility::QOrganizerItemFetchHint QtMobility::QOrganizerItemFetchForExportRequest::fetchHint(void) const
	?d_func@QOrganizerItemCollectionFilter@QtMobility@@ABEPBVQOrganizerItemCollectionFilterPrivate@2@XZ @ 216 NONAME ; class QtMobility::QOrganizerItemCollectionFilterPrivate const * QtMobility::QOrganizerItemCollectionFilter::d_func(void) const
	?FieldGuid@QOrganizerItemGuid@QtMobility@@2U?$QLatin1Constant@$04@2@B @ 217 NONAME ; struct QtMobility::QLatin1Constant<5> const QtMobility::QOrganizerItemGuid::FieldGuid
	?recurrenceDates@QOrganizerItemRecurrence@QtMobility@@QBE?AV?$QSet@VQDate@@@@XZ @ 218 NONAME ; class QSet<class QDate> QtMobility::QOrganizerItemRecurrence::recurrenceDates(void) const
	?setFetchHint@QOrganizerItemFetchRequest@QtMobility@@QAEXABVQOrganizerItemFetchHint@2@@Z @ 219 NONAME ; void QtMobility::QOrganizerItemFetchRequest::setFetchHint(class QtMobility::QOrganizerItemFetchHint const &)
	?DefinitionName@QOrganizerItemGuid@QtMobility@@2U?$QLatin1Constant@$04@2@B @ 220 NONAME ; struct QtMobility::QLatin1Constant<5> const QtMobility::QOrganizerItemGuid::DefinitionName
	?setDaysOfYear@QOrganizerItemRecurrenceRule@QtMobility@@QAEXABV?$QSet@H@@@Z @ 221 NONAME ; void QtMobility::QOrganizerItemRecurrenceRule::setDaysOfYear(class QSet<int> const &)
	?qt_metacall@QOrganizerCollectionRemoveRequest@QtMobility@@UAEHW4Call@QMetaObject@@HPAPAX@Z @ 222 NONAME ; int QtMobility::QOrganizerCollectionRemoveRequest::qt_metacall(enum QMetaObject::Call, int, void * *)
	?trUtf8@QOrganizerItemRemoveRequest@QtMobility@@SA?AVQString@@PBD0@Z @ 223 NONAME ; class QString QtMobility::QOrganizerItemRemoveRequest::trUtf8(char const *, char const *)
	?details@QOrganizerItem@QtMobility@@QBE?AV?$QList@VQOrganizerItemDetail@QtMobility@@@@ABVQString@@@Z @ 224 NONAME ; class QList<class QtMobility::QOrganizerItemDetail> QtMobility::QOrganizerItem::details(class QString const &) const
	?qt_metacall@QOrganizerCollectionSaveRequest@QtMobility@@UAEHW4Call@QMetaObject@@HPAPAX@Z @ 225 NONAME ; int QtMobility::QOrganizerCollectionSaveRequest::qt_metacall(enum QMetaObject::Call, int, void * *)
	?FieldCreationTimestamp@QOrganizerItemTimestamp@QtMobility@@2U?$QLatin1Constant@$0BC@@2@B @ 226 NONAME ; struct QtMobility::QLatin1Constant<18> const QtMobility::QOrganizerItemTimestamp::FieldCreationTimestamp
	?qt_metacast@QOrganizerItemManager@QtMobility@@UAEPAXPBD@Z @ 227 NONAME ; void * QtMobility::QOrganizerItemManager::qt_metacast(char const *)
	?description@QOrganizerItemDescription@QtMobility@@QBE?AVQString@@XZ @ 228 NONAME ; class QString QtMobility::QOrganizerItemDescription::description(void) const
	?value@QOrganizerItemDetail@QtMobility@@QBE?AVQString@@ABV3@@Z @ 229 NONAME ; class QString QtMobility::QOrganizerItemDetail::value(class QString const &) const
	?append@QOrganizerItemUnionFilter@QtMobility@@QAEXABVQOrganizerItemFilter@2@@Z @ 230 NONAME ; void QtMobility::QOrganizerItemUnionFilter::append(class QtMobility::QOrganizerItemFilter const &)
	??1QOrganizerItemDetailFieldDefinition@QtMobility@@QAE@XZ @ 231 NONAME ; QtMobility::QOrganizerItemDetailFieldDefinition::~QOrganizerItemDetailFieldDefinition(void)
	?getStaticMetaObject@QOrganizerCollectionFetchRequest@QtMobility@@SAABUQMetaObject@@XZ @ 232 NONAME ; struct QMetaObject const & QtMobility::QOrganizerCollectionFetchRequest::getStaticMetaObject(void)
	?isActive@QOrganizerItemAbstractRequest@QtMobility@@QBE_NXZ @ 233 NONAME ; bool QtMobility::QOrganizerItemAbstractRequest::isActive(void) const
	??0QOrganizerItemDetailRangeFilter@QtMobility@@QAE@ABVQOrganizerItemFilter@1@@Z @ 234 NONAME ; QtMobility::QOrganizerItemDetailRangeFilter::QOrganizerItemDetailRangeFilter(class QtMobility::QOrganizerItemFilter const &)
	?dataChanged@QOrganizerItemManagerEngine@QtMobility@@IAEXXZ @ 235 NONAME ; void QtMobility::QOrganizerItemManagerEngine::dataChanged(void)
	?setManager@QOrganizerItemAbstractRequest@QtMobility@@QAEXPAVQOrganizerItemManager@2@@Z @ 236 NONAME ; void QtMobility::QOrganizerItemAbstractRequest::setManager(class QtMobility::QOrganizerItemManager *)
	?tr@QOrganizerItemManagerEngine@QtMobility@@SA?AVQString@@PBD0H@Z @ 237 NONAME ; class QString QtMobility::QOrganizerItemManagerEngine::tr(char const *, char const *, int)
	?qt_metacall@QOrganizerItemFetchRequest@QtMobility@@UAEHW4Call@QMetaObject@@HPAPAX@Z @ 238 NONAME ; int QtMobility::QOrganizerItemFetchRequest::qt_metacall(enum QMetaObject::Call, int, void * *)
	??0QOrganizerItemDescription@QtMobility@@QAE@XZ @ 239 NONAME ; QtMobility::QOrganizerItemDescription::QOrganizerItemDescription(void)
	?start@QOrganizerItemAbstractRequest@QtMobility@@QAE_NXZ @ 240 NONAME ; bool QtMobility::QOrganizerItemAbstractRequest::start(void)
	?FieldDueDateTime@QOrganizerTodoTimeRange@QtMobility@@2U?$QLatin1Constant@$0M@@2@B @ 241 NONAME ; struct QtMobility::QLatin1Constant<12> const QtMobility::QOrganizerTodoTimeRange::FieldDueDateTime
	?setMonthsOfYear@QOrganizerItemRecurrenceRule@QtMobility@@QAEXABV?$QSet@W4Month@QOrganizerItemRecurrenceRule@QtMobility@@@@@Z @ 242 NONAME ; void QtMobility::QOrganizerItemRecurrenceRule::setMonthsOfYear(class QSet<enum QtMobility::QOrganizerItemRecurrenceRule::Month> const &)
	??4QOrganizerCollection@QtMobility@@QAEAAV01@ABV01@@Z @ 243 NONAME ; class QtMobility::QOrganizerCollection & QtMobility::QOrganizerCollection::operator=(class QtMobility::QOrganizerCollection const &)
	?tr@QOrganizerCollectionSaveRequest@QtMobility@@SA?AVQString@@PBD0@Z @ 244 NONAME ; class QString QtMobility::QOrganizerCollectionSaveRequest::tr(char const *, char const *)
	?startDateTime@QOrganizerEventOccurrence@QtMobility@@QBE?AVQDateTime@@XZ @ 245 NONAME ; class QDateTime QtMobility::QOrganizerEventOccurrence::startDateTime(void) const
	?filter@QOrganizerItemLocalIdFetchRequest@QtMobility@@QBE?AVQOrganizerItemFilter@2@XZ @ 246 NONAME ; class QtMobility::QOrganizerItemFilter QtMobility::QOrganizerItemLocalIdFetchRequest::filter(void) const
	?clearChangedCollections@QOrganizerCollectionChangeSet@QtMobility@@QAEXXZ @ 247 NONAME ; void QtMobility::QOrganizerCollectionChangeSet::clearChangedCollections(void)
	?guid@QOrganizerItemGuid@QtMobility@@QBE?AVQString@@XZ @ 248 NONAME ; class QString QtMobility::QOrganizerItemGuid::guid(void) const
	?collections@QOrganizerCollectionSaveRequest@QtMobility@@QBE?AV?$QList@VQOrganizerCollection@QtMobility@@@@XZ @ 249 NONAME ; class QList<class QtMobility::QOrganizerCollection> QtMobility::QOrganizerCollectionSaveRequest::collections(void) const
	?dataChanged@QOrganizerItemChangeSet@QtMobility@@QAE_NXZ @ 250 NONAME ; bool QtMobility::QOrganizerItemChangeSet::dataChanged(void)
	??6QtMobility@@YA?AVQDebug@@V1@ABVQOrganizerCollectionLocalId@0@@Z @ 251 NONAME ; class QDebug QtMobility::operator<<(class QDebug, class QtMobility::QOrganizerCollectionLocalId const &)
	?itemsRemoved@QOrganizerItemManagerEngine@QtMobility@@IAEXABV?$QList@VQOrganizerItemLocalId@QtMobility@@@@@Z @ 252 NONAME ; void QtMobility::QOrganizerItemManagerEngine::itemsRemoved(class QList<class QtMobility::QOrganizerItemLocalId> const &)
	?FieldDataUrl@QOrganizerItemAudibleReminder@QtMobility@@2U?$QLatin1Constant@$07@2@B @ 253 NONAME ; struct QtMobility::QLatin1Constant<8> const QtMobility::QOrganizerItemAudibleReminder::FieldDataUrl
	??5QtMobility@@YAAAVQDataStream@@AAV1@AAVQOrganizerItemDetailFieldDefinition@0@@Z @ 254 NONAME ; class QDataStream & QtMobility::operator>>(class QDataStream &, class QtMobility::QOrganizerItemDetailFieldDefinition &)
	?setRecurrenceRule@QOrganizerEvent@QtMobility@@QAEXABVQOrganizerItemRecurrenceRule@2@@Z @ 255 NONAME ; void QtMobility::QOrganizerEvent::setRecurrenceRule(class QtMobility::QOrganizerItemRecurrenceRule const &)
	?setEndDateTime@QOrganizerEventOccurrence@QtMobility@@QAEXABVQDateTime@@@Z @ 256 NONAME ; void QtMobility::QOrganizerEventOccurrence::setEndDateTime(class QDateTime const &)
	??0QOrganizerItemId@QtMobility@@QAE@ABV01@@Z @ 257 NONAME ; QtMobility::QOrganizerItemId::QOrganizerItemId(class QtMobility::QOrganizerItemId const &)
	??1QOrganizerItemDetail@QtMobility@@QAE@XZ @ 258 NONAME ; QtMobility::QOrganizerItemDetail::~QOrganizerItemDetail(void)
	??4QOrganizerEventOccurrence@QtMobility@@QAEAAV01@ABVQOrganizerItem@1@@Z @ 259 NONAME ; class QtMobility::QOrganizerEventOccurrence & QtMobility::QOrganizerEventOccurrence::operator=(class QtMobility::QOrganizerItem const &)
	?engineLocalCollectionId@QOrganizerItemManagerEngine@QtMobility@@SAPAVQOrganizerCollectionEngineLocalId@2@ABVQOrganizerCollectionLocalId@2@@Z @ 260 NONAME ; class QtMobility::QOrganizerCollectionEngineLocalId * QtMobility::QOrganizerItemManagerEngine::engineLocalCollectionId(class QtMobility::QOrganizerCollectionLocalId const &)
	??0QOrganizerItemGuid@QtMobility@@QAE@XZ @ 261 NONAME ; QtMobility::QOrganizerItemGuid::QOrganizerItemGuid(void)
	??1QOrganizerTodo@QtMobility@@QAE@XZ @ 262 NONAME ; QtMobility::QOrganizerTodo::~QOrganizerTodo(void)
	?FieldRepetitionDelay@QOrganizerItemReminder@QtMobility@@2U?$QLatin1Constant@$0BA@@2@B @ 263 NONAME ; struct QtMobility::QLatin1Constant<16> const QtMobility::QOrganizerItemReminder::FieldRepetitionDelay
	?updateItemSaveRequest@QOrganizerItemManagerEngine@QtMobility@@SAXPAVQOrganizerItemSaveRequest@2@ABV?$QList@VQOrganizerItem@QtMobility@@@@W4Error@QOrganizerItemManager@2@ABV?$QMap@HW4Error@QOrganizerItemManager@QtMobility@@@@W4State@QOrganizerItemAbstractRequest@2@@Z @ 264 NONAME ; void QtMobility::QOrganizerItemManagerEngine::updateItemSaveRequest(class QtMobility::QOrganizerItemSaveRequest *, class QList<class QtMobility::QOrganizerItem> const &, enum QtMobility::QOrganizerItemManager::Error, class QMap<int, enum QtMobility::QOrganizerItemManager::Error> const &, enum QtMobility::QOrganizerItemAbstractRequest::State)
	?direction@QOrganizerItemSortOrder@QtMobility@@QBE?AW4SortOrder@Qt@@XZ @ 265 NONAME ; enum Qt::SortOrder QtMobility::QOrganizerItemSortOrder::direction(void) const
	??0QOrganizerTodoOccurrence@QtMobility@@QAE@ABVQOrganizerItem@1@@Z @ 266 NONAME ; QtMobility::QOrganizerTodoOccurrence::QOrganizerTodoOccurrence(class QtMobility::QOrganizerItem const &)
	?setDueDateTime@QOrganizerTodoTimeRange@QtMobility@@QAEXABVQDateTime@@@Z @ 267 NONAME ; void QtMobility::QOrganizerTodoTimeRange::setDueDateTime(class QDateTime const &)
	?getStaticMetaObject@QOrganizerItemDetailDefinitionSaveRequest@QtMobility@@SAABUQMetaObject@@XZ @ 268 NONAME ; struct QMetaObject const & QtMobility::QOrganizerItemDetailDefinitionSaveRequest::getStaticMetaObject(void)
	??1QOrganizerItemGuid@QtMobility@@QAE@XZ @ 269 NONAME ; QtMobility::QOrganizerItemGuid::~QOrganizerItemGuid(void)
	?setType@QOrganizerItem@QtMobility@@QAEXABVQOrganizerItemType@2@@Z @ 270 NONAME ; void QtMobility::QOrganizerItem::setType(class QtMobility::QOrganizerItemType const &)
	?details@QOrganizerItem@QtMobility@@QBE?AV?$QList@VQOrganizerItemDetail@QtMobility@@@@PBD0ABVQString@@@Z @ 271 NONAME ; class QList<class QtMobility::QOrganizerItemDetail> QtMobility::QOrganizerItem::details(char const *, char const *, class QString const &) const
	?setItemId@QOrganizerItemRemoveRequest@QtMobility@@QAEXABVQOrganizerItemLocalId@2@@Z @ 272 NONAME ; void QtMobility::QOrganizerItemRemoveRequest::setItemId(class QtMobility::QOrganizerItemLocalId const &)
	??_EQOrganizerItemLocalIdFetchRequest@QtMobility@@UAE@I@Z @ 273 NONAME ; QtMobility::QOrganizerItemLocalIdFetchRequest::~QOrganizerItemLocalIdFetchRequest(unsigned int)
	?staticMetaObject@QOrganizerItemDetailDefinitionRemoveRequest@QtMobility@@2UQMetaObject@@B @ 274 NONAME ; struct QMetaObject const QtMobility::QOrganizerItemDetailDefinitionRemoveRequest::staticMetaObject
	?label@QOrganizerItemLocation@QtMobility@@QBE?AVQString@@XZ @ 275 NONAME ; class QString QtMobility::QOrganizerItemLocation::label(void) const
	??1QOrganizerItemChangeSet@QtMobility@@QAE@XZ @ 276 NONAME ; QtMobility::QOrganizerItemChangeSet::~QOrganizerItemChangeSet(void)
	?setItemType@QOrganizerItemDetailDefinitionSaveRequest@QtMobility@@QAEXABVQString@@@Z @ 277 NONAME ; void QtMobility::QOrganizerItemDetailDefinitionSaveRequest::setItemType(class QString const &)
	?matchFlags@QOrganizerItemDetailRangeFilter@QtMobility@@QBE?AV?$QFlags@W4MatchFlag@QOrganizerItemFilter@QtMobility@@@@XZ @ 278 NONAME ; class QFlags<enum QtMobility::QOrganizerItemFilter::MatchFlag> QtMobility::QOrganizerItemDetailRangeFilter::matchFlags(void) const
	??0QOrganizerItem@QtMobility@@QAE@ABV01@@Z @ 279 NONAME ; QtMobility::QOrganizerItem::QOrganizerItem(class QtMobility::QOrganizerItem const &)
	??1QOrganizerItemFetchForExportRequest@QtMobility@@UAE@XZ @ 280 NONAME ; QtMobility::QOrganizerItemFetchForExportRequest::~QOrganizerItemFetchForExportRequest(void)
	?setValue@QOrganizerItemDetail@QtMobility@@QAE_NPBDABVQVariant@@@Z @ 281 NONAME ; bool QtMobility::QOrganizerItemDetail::setValue(char const *, class QVariant const &)
	?setStartDateTime@QOrganizerTodoTimeRange@QtMobility@@QAEXABVQDateTime@@@Z @ 282 NONAME ; void QtMobility::QOrganizerTodoTimeRange::setStartDateTime(class QDateTime const &)
	??1QOrganizerItemCollectionFilter@QtMobility@@QAE@XZ @ 283 NONAME ; QtMobility::QOrganizerItemCollectionFilter::~QOrganizerItemCollectionFilter(void)
	?removeCollection@QOrganizerItemManagerEngine@QtMobility@@UAE_NABVQOrganizerCollectionLocalId@2@PAW4Error@QOrganizerItemManager@2@@Z @ 284 NONAME ; bool QtMobility::QOrganizerItemManagerEngine::removeCollection(class QtMobility::QOrganizerCollectionLocalId const &, enum QtMobility::QOrganizerItemManager::Error *)
	?trUtf8@QOrganizerItemAbstractRequest@QtMobility@@SA?AVQString@@PBD0H@Z @ 285 NONAME ; class QString QtMobility::QOrganizerItemAbstractRequest::trUtf8(char const *, char const *, int)
	?d_func@QOrganizerItemFetchRequest@QtMobility@@AAEPAVQOrganizerItemFetchRequestPrivate@2@XZ @ 286 NONAME ; class QtMobility::QOrganizerItemFetchRequestPrivate * QtMobility::QOrganizerItemFetchRequest::d_func(void)
	?tr@QOrganizerItemDetailDefinitionFetchRequest@QtMobility@@SA?AVQString@@PBD0@Z @ 287 NONAME ; class QString QtMobility::QOrganizerItemDetailDefinitionFetchRequest::tr(char const *, char const *)
	??0QOrganizerItemAudibleReminder@QtMobility@@QAE@ABVQOrganizerItemDetail@1@@Z @ 288 NONAME ; QtMobility::QOrganizerItemAudibleReminder::QOrganizerItemAudibleReminder(class QtMobility::QOrganizerItemDetail const &)
	??0QOrganizerItemLocalIdFilter@QtMobility@@QAE@ABVQOrganizerItemFilter@1@@Z @ 289 NONAME ; QtMobility::QOrganizerItemLocalIdFilter::QOrganizerItemLocalIdFilter(class QtMobility::QOrganizerItemFilter const &)
	?exceptionRules@QOrganizerItemRecurrence@QtMobility@@QBE?AV?$QSet@VQOrganizerItemRecurrenceRule@QtMobility@@@@XZ @ 290 NONAME ; class QSet<class QtMobility::QOrganizerItemRecurrenceRule> QtMobility::QOrganizerItemRecurrence::exceptionRules(void) const
	??0QOrganizerItemInvalidFilter@QtMobility@@QAE@ABVQOrganizerItemFilter@1@@Z @ 291 NONAME ; QtMobility::QOrganizerItemInvalidFilter::QOrganizerItemInvalidFilter(class QtMobility::QOrganizerItemFilter const &)
	??5QtMobility@@YAAAVQDataStream@@AAV1@AAVQOrganizerItemDetailDefinition@0@@Z @ 292 NONAME ; class QDataStream & QtMobility::operator>>(class QDataStream &, class QtMobility::QOrganizerItemDetailDefinition &)
	?FieldType@QOrganizerItemType@QtMobility@@2U?$QLatin1Constant@$04@2@B @ 293 NONAME ; struct QtMobility::QLatin1Constant<5> const QtMobility::QOrganizerItemType::FieldType
	?setDisplayLabel@QOrganizerItem@QtMobility@@QAEXABVQOrganizerItemDisplayLabel@2@@Z @ 294 NONAME ; void QtMobility::QOrganizerItem::setDisplayLabel(class QtMobility::QOrganizerItemDisplayLabel const &)
	?d_func@QOrganizerItemSaveRequest@QtMobility@@ABEPBVQOrganizerItemSaveRequestPrivate@2@XZ @ 295 NONAME ; class QtMobility::QOrganizerItemSaveRequestPrivate const * QtMobility::QOrganizerItemSaveRequest::d_func(void) const
	?metaData@QOrganizerCollection@QtMobility@@QAE?AVQVariant@@ABVQString@@@Z @ 296 NONAME ; class QVariant QtMobility::QOrganizerCollection::metaData(class QString const &)
	?qHash@QtMobility@@YAIABVQOrganizerItemDetail@1@@Z @ 297 NONAME ; unsigned int QtMobility::qHash(class QtMobility::QOrganizerItemDetail const &)
	?setStartDateTime@QOrganizerEvent@QtMobility@@QAEXABVQDateTime@@@Z @ 298 NONAME ; void QtMobility::QOrganizerEvent::setStartDateTime(class QDateTime const &)
	?setDueDateTime@QOrganizerTodo@QtMobility@@QAEXABVQDateTime@@@Z @ 299 NONAME ; void QtMobility::QOrganizerTodo::setDueDateTime(class QDateTime const &)
	?errorMap@QOrganizerCollectionSaveRequest@QtMobility@@QBE?AV?$QMap@HW4Error@QOrganizerItemManager@QtMobility@@@@XZ @ 300 NONAME ; class QMap<int, enum QtMobility::QOrganizerItemManager::Error> QtMobility::QOrganizerCollectionSaveRequest::errorMap(void) const
	??0QOrganizerItemPriority@QtMobility@@QAE@ABVQOrganizerItemDetail@1@@Z @ 301 NONAME ; QtMobility::QOrganizerItemPriority::QOrganizerItemPriority(class QtMobility::QOrganizerItemDetail const &)
	?updateCollectionRemoveRequest@QOrganizerItemManagerEngine@QtMobility@@SAXPAVQOrganizerCollectionRemoveRequest@2@W4Error@QOrganizerItemManager@2@ABV?$QMap@HW4Error@QOrganizerItemManager@QtMobility@@@@W4State@QOrganizerItemAbstractRequest@2@@Z @ 302 NONAME ; void QtMobility::QOrganizerItemManagerEngine::updateCollectionRemoveRequest(class QtMobility::QOrganizerCollectionRemoveRequest *, enum QtMobility::QOrganizerItemManager::Error, class QMap<int, enum QtMobility::QOrganizerItemManager::Error> const &, enum QtMobility::QOrganizerItemAbstractRequest::State)
	??0QOrganizerCollectionChangeSet@QtMobility@@QAE@ABV01@@Z @ 303 NONAME ; QtMobility::QOrganizerCollectionChangeSet::QOrganizerCollectionChangeSet(class QtMobility::QOrganizerCollectionChangeSet const &)
	?supportedItemTypes@QOrganizerItemManagerEngine@QtMobility@@UBE?AVQStringList@@XZ @ 304 NONAME ; class QStringList QtMobility::QOrganizerItemManagerEngine::supportedItemTypes(void) const
	??4QOrganizerItemDetail@QtMobility@@QAEAAV01@ABV01@@Z @ 305 NONAME ; class QtMobility::QOrganizerItemDetail & QtMobility::QOrganizerItemDetail::operator=(class QtMobility::QOrganizerItemDetail const &)
	?metaObject@QOrganizerCollectionSaveRequest@QtMobility@@UBEPBUQMetaObject@@XZ @ 306 NONAME ; struct QMetaObject const * QtMobility::QOrganizerCollectionSaveRequest::metaObject(void) const
	?recurrenceRules@QOrganizerTodo@QtMobility@@QBE?AV?$QSet@VQOrganizerItemRecurrenceRule@QtMobility@@@@XZ @ 307 NONAME ; class QSet<class QtMobility::QOrganizerItemRecurrenceRule> QtMobility::QOrganizerTodo::recurrenceRules(void) const
	?details@QOrganizerItem@QtMobility@@QBE?AV?$QList@VQOrganizerItemDetail@QtMobility@@@@PBD@Z @ 308 NONAME ; class QList<class QtMobility::QOrganizerItemDetail> QtMobility::QOrganizerItem::details(char const *) const
	??5QtMobility@@YAAAVQDataStream@@AAV1@AAVQOrganizerItemDetail@0@@Z @ 309 NONAME ; class QDataStream & QtMobility::operator>>(class QDataStream &, class QtMobility::QOrganizerItemDetail &)
	?collectionsAdded@QOrganizerItemManagerEngine@QtMobility@@IAEXABV?$QList@VQOrganizerCollectionLocalId@QtMobility@@@@@Z @ 310 NONAME ; void QtMobility::QOrganizerItemManagerEngine::collectionsAdded(class QList<class QtMobility::QOrganizerCollectionLocalId> const &)
	?d_func@QOrganizerItemLocalIdFilter@QtMobility@@AAEPAVQOrganizerItemLocalIdFilterPrivate@2@XZ @ 311 NONAME ; class QtMobility::QOrganizerItemLocalIdFilterPrivate * QtMobility::QOrganizerItemLocalIdFilter::d_func(void)
	??1QOrganizerItemDetailRangeFilter@QtMobility@@QAE@XZ @ 312 NONAME ; QtMobility::QOrganizerItemDetailRangeFilter::~QOrganizerItemDetailRangeFilter(void)
	??0QOrganizerJournalTimeRange@QtMobility@@QAE@ABVQOrganizerItemDetail@1@@Z @ 313 NONAME ; QtMobility::QOrganizerJournalTimeRange::QOrganizerJournalTimeRange(class QtMobility::QOrganizerItemDetail const &)
	?remove@QOrganizerItemIntersectionFilter@QtMobility@@QAEXABVQOrganizerItemFilter@2@@Z @ 314 NONAME ; void QtMobility::QOrganizerItemIntersectionFilter::remove(class QtMobility::QOrganizerItemFilter const &)
	?remove@QOrganizerItemUnionFilter@QtMobility@@QAEXABVQOrganizerItemFilter@2@@Z @ 315 NONAME ; void QtMobility::QOrganizerItemUnionFilter::remove(class QtMobility::QOrganizerItemFilter const &)
	??0QOrganizerCollection@QtMobility@@QAE@XZ @ 316 NONAME ; QtMobility::QOrganizerCollection::QOrganizerCollection(void)
	?setRecurrenceRules@QOrganizerItemRecurrence@QtMobility@@QAEXABV?$QSet@VQOrganizerItemRecurrenceRule@QtMobility@@@@@Z @ 317 NONAME ; void QtMobility::QOrganizerItemRecurrence::setRecurrenceRules(class QSet<class QtMobility::QOrganizerItemRecurrenceRule> const &)
	?setExceptionDates@QOrganizerEvent@QtMobility@@QAEXABV?$QSet@VQDate@@@@@Z @ 318 NONAME ; void QtMobility::QOrganizerEvent::setExceptionDates(class QSet<class QDate> const &)
	?managerName@QOrganizerItemManager@QtMobility@@QBE?AVQString@@XZ @ 319 NONAME ; class QString QtMobility::QOrganizerItemManager::managerName(void) const
	?trUtf8@QOrganizerItemDetailDefinitionSaveRequest@QtMobility@@SA?AVQString@@PBD0@Z @ 320 NONAME ; class QString QtMobility::QOrganizerItemDetailDefinitionSaveRequest::trUtf8(char const *, char const *)
	?setPositions@QOrganizerItemRecurrenceRule@QtMobility@@QAEXABV?$QSet@H@@@Z @ 321 NONAME ; void QtMobility::QOrganizerItemRecurrenceRule::setPositions(class QSet<int> const &)
	?label@QOrganizerItemDisplayLabel@QtMobility@@QBE?AVQString@@XZ @ 322 NONAME ; class QString QtMobility::QOrganizerItemDisplayLabel::label(void) const
	??9QOrganizerItemDetail@QtMobility@@QBE_NABV01@@Z @ 323 NONAME ; bool QtMobility::QOrganizerItemDetail::operator!=(class QtMobility::QOrganizerItemDetail const &) const
	?prepend@QOrganizerItemIntersectionFilter@QtMobility@@QAEXABVQOrganizerItemFilter@2@@Z @ 324 NONAME ; void QtMobility::QOrganizerItemIntersectionFilter::prepend(class QtMobility::QOrganizerItemFilter const &)
	??_EQOrganizerItemEngineLocalId@QtMobility@@UAE@I@Z @ 325 NONAME ; QtMobility::QOrganizerItemEngineLocalId::~QOrganizerItemEngineLocalId(unsigned int)
	?qt_metacast@QOrganizerItemManagerEngine@QtMobility@@UAEPAXPBD@Z @ 326 NONAME ; void * QtMobility::QOrganizerItemManagerEngine::qt_metacast(char const *)
	??6QtMobility@@YA?AVQDebug@@V1@ABVQOrganizerItem@0@@Z @ 327 NONAME ; class QDebug QtMobility::operator<<(class QDebug, class QtMobility::QOrganizerItem const &)
	??0QOrganizerItemEngineLocalId@QtMobility@@QAE@XZ @ 328 NONAME ; QtMobility::QOrganizerItemEngineLocalId::QOrganizerItemEngineLocalId(void)
	??0QOrganizerItemFetchRequest@QtMobility@@QAE@PAVQObject@@@Z @ 329 NONAME ; QtMobility::QOrganizerItemFetchRequest::QOrganizerItemFetchRequest(class QObject *)
	??1QOrganizerItemFetchRequest@QtMobility@@UAE@XZ @ 330 NONAME ; QtMobility::QOrganizerItemFetchRequest::~QOrganizerItemFetchRequest(void)
	?FieldLongitude@QOrganizerItemLocation@QtMobility@@2U?$QLatin1Constant@$09@2@B @ 331 NONAME ; struct QtMobility::QLatin1Constant<10> const QtMobility::QOrganizerItemLocation::FieldLongitude
	?trUtf8@QOrganizerItemRemoveRequest@QtMobility@@SA?AVQString@@PBD0H@Z @ 332 NONAME ; class QString QtMobility::QOrganizerItemRemoveRequest::trUtf8(char const *, char const *, int)
	?insertChangedItem@QOrganizerItemChangeSet@QtMobility@@QAEXABVQOrganizerItemLocalId@2@@Z @ 333 NONAME ; void QtMobility::QOrganizerItemChangeSet::insertChangedItem(class QtMobility::QOrganizerItemLocalId const &)
	?setProgressPercentage@QOrganizerTodo@QtMobility@@QAEXH@Z @ 334 NONAME ; void QtMobility::QOrganizerTodo::setProgressPercentage(int)
	?FieldPercentageComplete@QOrganizerTodoProgress@QtMobility@@2U?$QLatin1Constant@$0BD@@2@B @ 335 NONAME ; struct QtMobility::QLatin1Constant<19> const QtMobility::QOrganizerTodoProgress::FieldPercentageComplete
	?setSorting@QOrganizerItemLocalIdFetchRequest@QtMobility@@QAEXABV?$QList@VQOrganizerItemSortOrder@QtMobility@@@@@Z @ 336 NONAME ; void QtMobility::QOrganizerItemLocalIdFetchRequest::setSorting(class QList<class QtMobility::QOrganizerItemSortOrder> const &)
	??0QOrganizerItemLocalIdFetchRequest@QtMobility@@QAE@PAVQObject@@@Z @ 337 NONAME ; QtMobility::QOrganizerItemLocalIdFetchRequest::QOrganizerItemLocalIdFetchRequest(class QObject *)
	?tr@QOrganizerItemDetailDefinitionSaveRequest@QtMobility@@SA?AVQString@@PBD0@Z @ 338 NONAME ; class QString QtMobility::QOrganizerItemDetailDefinitionSaveRequest::tr(char const *, char const *)
	?updateItemInstanceFetchRequest@QOrganizerItemManagerEngine@QtMobility@@SAXPAVQOrganizerItemInstanceFetchRequest@2@ABV?$QList@VQOrganizerItem@QtMobility@@@@W4Error@QOrganizerItemManager@2@W4State@QOrganizerItemAbstractRequest@2@@Z @ 339 NONAME ; void QtMobility::QOrganizerItemManagerEngine::updateItemInstanceFetchRequest(class QtMobility::QOrganizerItemInstanceFetchRequest *, class QList<class QtMobility::QOrganizerItem> const &, enum QtMobility::QOrganizerItemManager::Error, enum QtMobility::QOrganizerItemAbstractRequest::State)
	??1QOrganizerEventOccurrence@QtMobility@@QAE@XZ @ 340 NONAME ; QtMobility::QOrganizerEventOccurrence::~QOrganizerEventOccurrence(void)
	?engineLocalItemId@QOrganizerItemManagerEngine@QtMobility@@SAPAVQOrganizerItemEngineLocalId@2@ABVQOrganizerItemLocalId@2@@Z @ 341 NONAME ; class QtMobility::QOrganizerItemEngineLocalId * QtMobility::QOrganizerItemManagerEngine::engineLocalItemId(class QtMobility::QOrganizerItemLocalId const &)
	?setItemIds@QOrganizerItemRemoveRequest@QtMobility@@QAEXABV?$QList@VQOrganizerItemLocalId@QtMobility@@@@@Z @ 342 NONAME ; void QtMobility::QOrganizerItemRemoveRequest::setItemIds(class QList<class QtMobility::QOrganizerItemLocalId> const &)
	?DefinitionName@QOrganizerItemType@QtMobility@@2U?$QLatin1Constant@$04@2@B @ 343 NONAME ; struct QtMobility::QLatin1Constant<5> const QtMobility::QOrganizerItemType::DefinitionName
	?itemIds@QOrganizerItemManagerEngine@QtMobility@@UBE?AV?$QList@VQOrganizerItemLocalId@QtMobility@@@@ABVQDateTime@@0ABVQOrganizerItemFilter@2@ABV?$QList@VQOrganizerItemSortOrder@QtMobility@@@@PAW4Error@QOrganizerItemManager@2@@Z @ 344 NONAME ; class QList<class QtMobility::QOrganizerItemLocalId> QtMobility::QOrganizerItemManagerEngine::itemIds(class QDateTime const &, class QDateTime const &, class QtMobility::QOrganizerItemFilter const &, class QList<class QtMobility::QOrganizerItemSortOrder> const &, enum QtMobility::QOrganizerItemManager::Error *) const
	??_EQOrganizerItemSaveRequest@QtMobility@@UAE@I@Z @ 345 NONAME ; QtMobility::QOrganizerItemSaveRequest::~QOrganizerItemSaveRequest(unsigned int)
	?FieldRepetitionCount@QOrganizerItemReminder@QtMobility@@2U?$QLatin1Constant@$0BA@@2@B @ 346 NONAME ; struct QtMobility::QLatin1Constant<16> const QtMobility::QOrganizerItemReminder::FieldRepetitionCount
	?detailDefinitions@QOrganizerItemManagerEngine@QtMobility@@UBE?AV?$QMap@VQString@@VQOrganizerItemDetailDefinition@QtMobility@@@@ABVQString@@PAW4Error@QOrganizerItemManager@2@@Z @ 347 NONAME ; class QMap<class QString, class QtMobility::QOrganizerItemDetailDefinition> QtMobility::QOrganizerItemManagerEngine::detailDefinitions(class QString const &, enum QtMobility::QOrganizerItemManager::Error *) const
	??_EQOrganizerCollection@QtMobility@@QAE@I@Z @ 348 NONAME ; QtMobility::QOrganizerCollection::~QOrganizerCollection(unsigned int)
	?collection@QOrganizerItemManagerEngine@QtMobility@@UBE?AVQOrganizerCollection@2@ABVQOrganizerCollectionLocalId@2@PAW4Error@QOrganizerItemManager@2@@Z @ 349 NONAME ; class QtMobility::QOrganizerCollection QtMobility::QOrganizerItemManagerEngine::collection(class QtMobility::QOrganizerCollectionLocalId const &, enum QtMobility::QOrganizerItemManager::Error *) const
	?comment@QOrganizerItemComment@QtMobility@@QBE?AVQString@@XZ @ 350 NONAME ; class QString QtMobility::QOrganizerItemComment::comment(void) const
	?setLimit@QOrganizerItemRecurrenceRule@QtMobility@@QAEXABVQDate@@@Z @ 351 NONAME ; void QtMobility::QOrganizerItemRecurrenceRule::setLimit(class QDate const &)
	?setEndDate@QOrganizerItemInstanceFetchRequest@QtMobility@@QAEXABVQDateTime@@@Z @ 352 NONAME ; void QtMobility::QOrganizerItemInstanceFetchRequest::setEndDate(class QDateTime const &)
	?dataUrl@QOrganizerItemVisualReminder@QtMobility@@QBE?AVQUrl@@XZ @ 353 NONAME ; class QUrl QtMobility::QOrganizerItemVisualReminder::dataUrl(void) const
	?updateDefinitionSaveRequest@QOrganizerItemManagerEngine@QtMobility@@SAXPAVQOrganizerItemDetailDefinitionSaveRequest@2@ABV?$QList@VQOrganizerItemDetailDefinition@QtMobility@@@@W4Error@QOrganizerItemManager@2@ABV?$QMap@HW4Error@QOrganizerItemManager@QtMobility@@@@W4State@QOrganizerItemAbstractRequest@2@@Z @ 354 NONAME ; void QtMobility::QOrganizerItemManagerEngine::updateDefinitionSaveRequest(class QtMobility::QOrganizerItemDetailDefinitionSaveRequest *, class QList<class QtMobility::QOrganizerItemDetailDefinition> const &, enum QtMobility::QOrganizerItemManager::Error, class QMap<int, enum QtMobility::QOrganizerItemManager::Error> const &, enum QtMobility::QOrganizerItemAbstractRequest::State)
	?buildUri@QOrganizerItemManager@QtMobility@@SA?AVQString@@ABV3@ABV?$QMap@VQString@@V1@@@H@Z @ 355 NONAME ; class QString QtMobility::QOrganizerItemManager::buildUri(class QString const &, class QMap<class QString, class QString> const &, int)
	??1QOrganizerItemReminder@QtMobility@@QAE@XZ @ 356 NONAME ; QtMobility::QOrganizerItemReminder::~QOrganizerItemReminder(void)
	??6QtMobility@@YAAAVQDataStream@@AAV1@ABVQOrganizerItemFilter@0@@Z @ 357 NONAME ; class QDataStream & QtMobility::operator<<(class QDataStream &, class QtMobility::QOrganizerItemFilter const &)
	??0QOrganizerCollectionEngineLocalId@QtMobility@@QAE@XZ @ 358 NONAME ; QtMobility::QOrganizerCollectionEngineLocalId::QOrganizerCollectionEngineLocalId(void)
	??4QOrganizerItem@QtMobility@@QAEAAV01@ABV01@@Z @ 359 NONAME ; class QtMobility::QOrganizerItem & QtMobility::QOrganizerItem::operator=(class QtMobility::QOrganizerItem const &)
	?removeCollection@QOrganizerItemManager@QtMobility@@QAE_NABVQOrganizerCollection@2@@Z @ 360 NONAME ; bool QtMobility::QOrganizerItemManager::removeCollection(class QtMobility::QOrganizerCollection const &)
	?setCaseSensitivity@QOrganizerItemSortOrder@QtMobility@@QAEXW4CaseSensitivity@Qt@@@Z @ 361 NONAME ; void QtMobility::QOrganizerItemSortOrder::setCaseSensitivity(enum Qt::CaseSensitivity)
	?tr@QOrganizerItemFetchRequest@QtMobility@@SA?AVQString@@PBD0@Z @ 362 NONAME ; class QString QtMobility::QOrganizerItemFetchRequest::tr(char const *, char const *)
	??0QOrganizerItemChangeLogFilter@QtMobility@@QAE@W4EventType@01@@Z @ 363 NONAME ; QtMobility::QOrganizerItemChangeLogFilter::QOrganizerItemChangeLogFilter(enum QtMobility::QOrganizerItemChangeLogFilter::EventType)
	?itemsChanged@QOrganizerItemManagerEngine@QtMobility@@IAEXABV?$QList@VQOrganizerItemLocalId@QtMobility@@@@@Z @ 364 NONAME ; void QtMobility::QOrganizerItemManagerEngine::itemsChanged(class QList<class QtMobility::QOrganizerItemLocalId> const &)
	?metaObject@QOrganizerItemManagerEngine@QtMobility@@UBEPBUQMetaObject@@XZ @ 365 NONAME ; struct QMetaObject const * QtMobility::QOrganizerItemManagerEngine::metaObject(void) const
	??1QOrganizerItemManagerEngine@QtMobility@@UAE@XZ @ 366 NONAME ; QtMobility::QOrganizerItemManagerEngine::~QOrganizerItemManagerEngine(void)
	??5QtMobility@@YAAAVQDataStream@@AAV1@AAVQOrganizerItem@0@@Z @ 367 NONAME ; class QDataStream & QtMobility::operator>>(class QDataStream &, class QtMobility::QOrganizerItem &)
	?trUtf8@QOrganizerCollectionFetchRequest@QtMobility@@SA?AVQString@@PBD0H@Z @ 368 NONAME ; class QString QtMobility::QOrganizerCollectionFetchRequest::trUtf8(char const *, char const *, int)
	??0QOrganizerTodoProgress@QtMobility@@QAE@XZ @ 369 NONAME ; QtMobility::QOrganizerTodoProgress::QOrganizerTodoProgress(void)
	??1QOrganizerItemLocalIdFilter@QtMobility@@QAE@XZ @ 370 NONAME ; QtMobility::QOrganizerItemLocalIdFilter::~QOrganizerItemLocalIdFilter(void)
	?itemsForExport@QOrganizerItemManagerEngine@QtMobility@@UBE?AV?$QList@VQOrganizerItem@QtMobility@@@@ABVQDateTime@@0ABVQOrganizerItemFilter@2@ABV?$QList@VQOrganizerItemSortOrder@QtMobility@@@@ABVQOrganizerItemFetchHint@2@PAW4Error@QOrganizerItemManager@2@@Z @ 371 NONAME ; class QList<class QtMobility::QOrganizerItem> QtMobility::QOrganizerItemManagerEngine::itemsForExport(class QDateTime const &, class QDateTime const &, class QtMobility::QOrganizerItemFilter const &, class QList<class QtMobility::QOrganizerItemSortOrder> const &, class QtMobility::QOrganizerItemFetchHint const &, enum QtMobility::QOrganizerItemManager::Error *) const
	?since@QOrganizerItemChangeLogFilter@QtMobility@@QBE?AVQDateTime@@XZ @ 372 NONAME ; class QDateTime QtMobility::QOrganizerItemChangeLogFilter::since(void) const
	?endDateTime@QOrganizerEvent@QtMobility@@QBE?AVQDateTime@@XZ @ 373 NONAME ; class QDateTime QtMobility::QOrganizerEvent::endDateTime(void) const
	?recurrenceDates@QOrganizerTodo@QtMobility@@QBE?AV?$QSet@VQDate@@@@XZ @ 374 NONAME ; class QSet<class QDate> QtMobility::QOrganizerTodo::recurrenceDates(void) const
	?d_func@QOrganizerItemDetailDefinitionSaveRequest@QtMobility@@AAEPAVQOrganizerItemDetailDefinitionSaveRequestPrivate@2@XZ @ 375 NONAME ; class QtMobility::QOrganizerItemDetailDefinitionSaveRequestPrivate * QtMobility::QOrganizerItemDetailDefinitionSaveRequest::d_func(void)
	?priority@QOrganizerEvent@QtMobility@@QBE?AW4Priority@QOrganizerItemPriority@2@XZ @ 376 NONAME ; enum QtMobility::QOrganizerItemPriority::Priority QtMobility::QOrganizerEvent::priority(void) const
	??6QtMobility@@YA?AVQDebug@@V1@ABVQOrganizerItemLocalId@0@@Z @ 377 NONAME ; class QDebug QtMobility::operator<<(class QDebug, class QtMobility::QOrganizerItemLocalId const &)
	?subject@QOrganizerItemEmailReminder@QtMobility@@QBE?AVQString@@XZ @ 378 NONAME ; class QString QtMobility::QOrganizerItemEmailReminder::subject(void) const
	??1QOrganizerItemIntersectionFilter@QtMobility@@QAE@XZ @ 379 NONAME ; QtMobility::QOrganizerItemIntersectionFilter::~QOrganizerItemIntersectionFilter(void)
	??9QOrganizerCollection@QtMobility@@QBE_NABV01@@Z @ 380 NONAME ; bool QtMobility::QOrganizerCollection::operator!=(class QtMobility::QOrganizerCollection const &) const
	?compareVariant@QOrganizerItemManagerEngine@QtMobility@@SAHABVQVariant@@0W4CaseSensitivity@Qt@@@Z @ 381 NONAME ; int QtMobility::QOrganizerItemManagerEngine::compareVariant(class QVariant const &, class QVariant const &, enum Qt::CaseSensitivity)
	??9QOrganizerCollectionLocalId@QtMobility@@QBE_NABV01@@Z @ 382 NONAME ; bool QtMobility::QOrganizerCollectionLocalId::operator!=(class QtMobility::QOrganizerCollectionLocalId const &) const
	?tr@QOrganizerItemFetchForExportRequest@QtMobility@@SA?AVQString@@PBD0@Z @ 383 NONAME ; class QString QtMobility::QOrganizerItemFetchForExportRequest::tr(char const *, char const *)
	?setExceptionDates@QOrganizerTodo@QtMobility@@QAEXABV?$QSet@VQDate@@@@@Z @ 384 NONAME ; void QtMobility::QOrganizerTodo::setExceptionDates(class QSet<class QDate> const &)
	?startDateTime@QOrganizerEventTimeRange@QtMobility@@QBE?AVQDateTime@@XZ @ 385 NONAME ; class QDateTime QtMobility::QOrganizerEventTimeRange::startDateTime(void) const
	?trUtf8@QOrganizerItemManagerEngine@QtMobility@@SA?AVQString@@PBD0@Z @ 386 NONAME ; class QString QtMobility::QOrganizerItemManagerEngine::trUtf8(char const *, char const *)
	?detailDefinitionName@QOrganizerItemDetailFilter@QtMobility@@QBE?AVQString@@XZ @ 387 NONAME ; class QString QtMobility::QOrganizerItemDetailFilter::detailDefinitionName(void) const
	??0QOrganizerItemPriority@QtMobility@@QAE@XZ @ 388 NONAME ; QtMobility::QOrganizerItemPriority::QOrganizerItemPriority(void)
	??BQOrganizerItemSortOrder@QtMobility@@QBE?AV?$QList@VQOrganizerItemSortOrder@QtMobility@@@@XZ @ 389 NONAME ; QtMobility::QOrganizerItemSortOrder::operator class QList<class QtMobility::QOrganizerItemSortOrder>(void) const
	??_EQOrganizerItemFetchForExportRequest@QtMobility@@UAE@I@Z @ 390 NONAME ; QtMobility::QOrganizerItemFetchForExportRequest::~QOrganizerItemFetchForExportRequest(unsigned int)
	??0QOrganizerItem@QtMobility@@IAE@PBD@Z @ 391 NONAME ; QtMobility::QOrganizerItem::QOrganizerItem(char const *)
	?isFilterSupported@QOrganizerItemManager@QtMobility@@QBE_NABVQOrganizerItemFilter@2@@Z @ 392 NONAME ; bool QtMobility::QOrganizerItemManager::isFilterSupported(class QtMobility::QOrganizerItemFilter const &) const
	?changedItems@QOrganizerItemChangeSet@QtMobility@@QBE?AV?$QSet@VQOrganizerItemLocalId@QtMobility@@@@XZ @ 393 NONAME ; class QSet<class QtMobility::QOrganizerItemLocalId> QtMobility::QOrganizerItemChangeSet::changedItems(void) const
	?isNull@QOrganizerCollectionLocalId@QtMobility@@QBE_NXZ @ 394 NONAME ; bool QtMobility::QOrganizerCollectionLocalId::isNull(void) const
	?itemType@QOrganizerItemDetailDefinitionSaveRequest@QtMobility@@QBE?AVQString@@XZ @ 395 NONAME ; class QString QtMobility::QOrganizerItemDetailDefinitionSaveRequest::itemType(void) const
	?FieldRecurrenceRules@QOrganizerItemRecurrence@QtMobility@@2U?$QLatin1Constant@$0BA@@2@B @ 396 NONAME ; struct QtMobility::QLatin1Constant<16> const QtMobility::QOrganizerItemRecurrence::FieldRecurrenceRules
	?itemIds@QOrganizerItemManager@QtMobility@@QBE?AV?$QList@VQOrganizerItemLocalId@QtMobility@@@@ABVQOrganizerItemFilter@2@ABV?$QList@VQOrganizerItemSortOrder@QtMobility@@@@@Z @ 397 NONAME ; class QList<class QtMobility::QOrganizerItemLocalId> QtMobility::QOrganizerItemManager::itemIds(class QtMobility::QOrganizerItemFilter const &, class QList<class QtMobility::QOrganizerItemSortOrder> const &) const
	??6QtMobility@@YAAAVQDataStream@@AAV1@ABVQOrganizerItemLocalId@0@@Z @ 398 NONAME ; class QDataStream & QtMobility::operator<<(class QDataStream &, class QtMobility::QOrganizerItemLocalId const &)
	?setLocalId@QOrganizerCollectionId@QtMobility@@QAEXABVQOrganizerCollectionLocalId@2@@Z @ 399 NONAME ; void QtMobility::QOrganizerCollectionId::setLocalId(class QtMobility::QOrganizerCollectionLocalId const &)
	?definitions@QOrganizerItemDetailDefinitionFetchRequest@QtMobility@@QBE?AV?$QMap@VQString@@VQOrganizerItemDetailDefinition@QtMobility@@@@XZ @ 400 NONAME ; class QMap<class QString, class QtMobility::QOrganizerItemDetailDefinition> QtMobility::QOrganizerItemDetailDefinitionFetchRequest::definitions(void) const
	?d_func@QOrganizerItemInstanceFetchRequest@QtMobility@@AAEPAVQOrganizerItemInstanceFetchRequestPrivate@2@XZ @ 401 NONAME ; class QtMobility::QOrganizerItemInstanceFetchRequestPrivate * QtMobility::QOrganizerItemInstanceFetchRequest::d_func(void)
	?dataChanged@QOrganizerItemManager@QtMobility@@IAEXXZ @ 402 NONAME ; void QtMobility::QOrganizerItemManager::dataChanged(void)
	?setStartDateTime@QOrganizerTodoOccurrence@QtMobility@@QAEXABVQDateTime@@@Z @ 403 NONAME ; void QtMobility::QOrganizerTodoOccurrence::setStartDateTime(class QDateTime const &)
	?location@QOrganizerEvent@QtMobility@@QBE?AVQString@@XZ @ 404 NONAME ; class QString QtMobility::QOrganizerEvent::location(void) const
	?d_func@QOrganizerItemChangeLogFilter@QtMobility@@AAEPAVQOrganizerItemChangeLogFilterPrivate@2@XZ @ 405 NONAME ; class QtMobility::QOrganizerItemChangeLogFilterPrivate * QtMobility::QOrganizerItemChangeLogFilter::d_func(void)
	?tr@QOrganizerItemDetailDefinitionSaveRequest@QtMobility@@SA?AVQString@@PBD0H@Z @ 406 NONAME ; class QString QtMobility::QOrganizerItemDetailDefinitionSaveRequest::tr(char const *, char const *, int)
	?status@QOrganizerTodoOccurrence@QtMobility@@QBE?AW4Status@QOrganizerTodoProgress@2@XZ @ 407 NONAME ; enum QtMobility::QOrganizerTodoProgress::Status QtMobility::QOrganizerTodoOccurrence::status(void) const
	?status@QOrganizerTodo@QtMobility@@QBE?AW4Status@QOrganizerTodoProgress@2@XZ @ 408 NONAME ; enum QtMobility::QOrganizerTodoProgress::Status QtMobility::QOrganizerTodo::status(void) const
	?staticMetaObject@QOrganizerItemDetailDefinitionSaveRequest@QtMobility@@2UQMetaObject@@B @ 409 NONAME ; struct QMetaObject const QtMobility::QOrganizerItemDetailDefinitionSaveRequest::staticMetaObject
	?setFields@QOrganizerItemDetailDefinition@QtMobility@@QAEXABV?$QMap@VQString@@VQOrganizerItemDetailFieldDefinition@QtMobility@@@@@Z @ 410 NONAME ; void QtMobility::QOrganizerItemDetailDefinition::setFields(class QMap<class QString, class QtMobility::QOrganizerItemDetailFieldDefinition> const &)
	?exceptionRules@QOrganizerEvent@QtMobility@@QBE?AV?$QSet@VQOrganizerItemRecurrenceRule@QtMobility@@@@XZ @ 411 NONAME ; class QSet<class QtMobility::QOrganizerItemRecurrenceRule> QtMobility::QOrganizerEvent::exceptionRules(void) const
	?d_func@QOrganizerItemFetchForExportRequest@QtMobility@@AAEPAVQOrganizerItemFetchForExportRequestPrivate@2@XZ @ 412 NONAME ; class QtMobility::QOrganizerItemFetchForExportRequestPrivate * QtMobility::QOrganizerItemFetchForExportRequest::d_func(void)
	?insertRemovedCollection@QOrganizerCollectionChangeSet@QtMobility@@QAEXABVQOrganizerCollectionLocalId@2@@Z @ 413 NONAME ; void QtMobility::QOrganizerCollectionChangeSet::insertRemovedCollection(class QtMobility::QOrganizerCollectionLocalId const &)
	??1QOrganizerEventTimeRange@QtMobility@@QAE@XZ @ 414 NONAME ; QtMobility::QOrganizerEventTimeRange::~QOrganizerEventTimeRange(void)
	??_EQOrganizerItemComment@QtMobility@@QAE@I@Z @ 415 NONAME ; QtMobility::QOrganizerItemComment::~QOrganizerItemComment(unsigned int)
	?KeyDescription@QOrganizerCollection@QtMobility@@2U?$QLatin1Constant@$0M@@2@B @ 416 NONAME ; struct QtMobility::QLatin1Constant<12> const QtMobility::QOrganizerCollection::KeyDescription
	?TypeEvent@QOrganizerItemType@QtMobility@@2U?$QLatin1Constant@$05@2@B @ 417 NONAME ; struct QtMobility::QLatin1Constant<6> const QtMobility::QOrganizerItemType::TypeEvent
	?caseSensitivity@QOrganizerItemSortOrder@QtMobility@@QBE?AW4CaseSensitivity@Qt@@XZ @ 418 NONAME ; enum Qt::CaseSensitivity QtMobility::QOrganizerItemSortOrder::caseSensitivity(void) const
	?collectionIds@QOrganizerCollectionRemoveRequest@QtMobility@@QBE?AV?$QList@VQOrganizerCollectionLocalId@QtMobility@@@@XZ @ 419 NONAME ; class QList<class QtMobility::QOrganizerCollectionLocalId> QtMobility::QOrganizerCollectionRemoveRequest::collectionIds(void) const
	?setMessage@QOrganizerItemVisualReminder@QtMobility@@QAEXABVQString@@@Z @ 420 NONAME ; void QtMobility::QOrganizerItemVisualReminder::setMessage(class QString const &)
	?saveCollection@QOrganizerItemManager@QtMobility@@QAE_NPAVQOrganizerCollection@2@@Z @ 421 NONAME ; bool QtMobility::QOrganizerItemManager::saveCollection(class QtMobility::QOrganizerCollection *)
	?detailDefinitionsHint@QOrganizerItemFetchHint@QtMobility@@QBE?AVQStringList@@XZ @ 422 NONAME ; class QStringList QtMobility::QOrganizerItemFetchHint::detailDefinitionsHint(void) const
	??0QOrganizerItemDetail@QtMobility@@IAE@ABV01@PBD@Z @ 423 NONAME ; QtMobility::QOrganizerItemDetail::QOrganizerItemDetail(class QtMobility::QOrganizerItemDetail const &, char const *)
	?remove@QOrganizerItemLocalIdFilter@QtMobility@@QAEXABVQOrganizerItemLocalId@2@@Z @ 424 NONAME ; void QtMobility::QOrganizerItemLocalIdFilter::remove(class QtMobility::QOrganizerItemLocalId const &)
	?setParentLocalId@QOrganizerTodoOccurrence@QtMobility@@QAEXABVQOrganizerItemLocalId@2@@Z @ 425 NONAME ; void QtMobility::QOrganizerTodoOccurrence::setParentLocalId(class QtMobility::QOrganizerItemLocalId const &)
	?errorMap@QOrganizerItemSaveRequest@QtMobility@@QBE?AV?$QMap@HW4Error@QOrganizerItemManager@QtMobility@@@@XZ @ 426 NONAME ; class QMap<int, enum QtMobility::QOrganizerItemManager::Error> QtMobility::QOrganizerItemSaveRequest::errorMap(void) const
	?FieldSubject@QOrganizerItemEmailReminder@QtMobility@@2U?$QLatin1Constant@$07@2@B @ 427 NONAME ; struct QtMobility::QLatin1Constant<8> const QtMobility::QOrganizerItemEmailReminder::FieldSubject
	??5QtMobility@@YAAAVQDataStream@@AAV1@AAVQOrganizerItemId@0@@Z @ 428 NONAME ; class QDataStream & QtMobility::operator>>(class QDataStream &, class QtMobility::QOrganizerItemId &)
	?clearRemovedCollections@QOrganizerCollectionChangeSet@QtMobility@@QAEXXZ @ 429 NONAME ; void QtMobility::QOrganizerCollectionChangeSet::clearRemovedCollections(void)
	?setCollections@QOrganizerCollectionSaveRequest@QtMobility@@QAEXABV?$QList@VQOrganizerCollection@QtMobility@@@@@Z @ 430 NONAME ; void QtMobility::QOrganizerCollectionSaveRequest::setCollections(class QList<class QtMobility::QOrganizerCollection> const &)
	?setPriority@QOrganizerTodoOccurrence@QtMobility@@QAEXW4Priority@QOrganizerItemPriority@2@@Z @ 431 NONAME ; void QtMobility::QOrganizerTodoOccurrence::setPriority(enum QtMobility::QOrganizerItemPriority::Priority)
	?changedCollections@QOrganizerCollectionChangeSet@QtMobility@@QBE?AV?$QSet@VQOrganizerCollectionLocalId@QtMobility@@@@XZ @ 432 NONAME ; class QSet<class QtMobility::QOrganizerCollectionLocalId> QtMobility::QOrganizerCollectionChangeSet::changedCollections(void) const
	?endDate@QOrganizerItemFetchRequest@QtMobility@@QBE?AVQDateTime@@XZ @ 433 NONAME ; class QDateTime QtMobility::QOrganizerItemFetchRequest::endDate(void) const
	??6QtMobility@@YAAAVQDataStream@@AAV1@ABVQOrganizerItemDetailFieldDefinition@0@@Z @ 434 NONAME ; class QDataStream & QtMobility::operator<<(class QDataStream &, class QtMobility::QOrganizerItemDetailFieldDefinition const &)
	?cancelRequest@QOrganizerItemManagerEngine@QtMobility@@UAE_NPAVQOrganizerItemAbstractRequest@2@@Z @ 435 NONAME ; bool QtMobility::QOrganizerItemManagerEngine::cancelRequest(class QtMobility::QOrganizerItemAbstractRequest *)
	?qHash@QtMobility@@YAIABVQOrganizerCollection@1@@Z @ 436 NONAME ; unsigned int QtMobility::qHash(class QtMobility::QOrganizerCollection const &)
	?detail@QOrganizerItem@QtMobility@@QBE?AVQOrganizerItemDetail@2@ABVQString@@@Z @ 437 NONAME ; class QtMobility::QOrganizerItemDetail QtMobility::QOrganizerItem::detail(class QString const &) const
	?supportedItemTypes@QOrganizerItemManager@QtMobility@@QBE?AVQStringList@@XZ @ 438 NONAME ; class QStringList QtMobility::QOrganizerItemManager::supportedItemTypes(void) const
	??_EQOrganizerItemFilter@QtMobility@@QAE@I@Z @ 439 NONAME ; QtMobility::QOrganizerItemFilter::~QOrganizerItemFilter(unsigned int)
	?setTimeSpecified@QOrganizerEvent@QtMobility@@QAEX_N@Z @ 440 NONAME ; void QtMobility::QOrganizerEvent::setTimeSpecified(bool)
	??0QOrganizerEvent@QtMobility@@QAE@ABVQOrganizerItem@1@@Z @ 441 NONAME ; QtMobility::QOrganizerEvent::QOrganizerEvent(class QtMobility::QOrganizerItem const &)
	?FieldEntryDateTime@QOrganizerJournalTimeRange@QtMobility@@2U?$QLatin1Constant@$0O@@2@B @ 442 NONAME ; struct QtMobility::QLatin1Constant<14> const QtMobility::QOrganizerJournalTimeRange::FieldEntryDateTime
	?DefinitionName@QOrganizerItemReminder@QtMobility@@2U?$QLatin1Constant@$08@2@B @ 443 NONAME ; struct QtMobility::QLatin1Constant<9> const QtMobility::QOrganizerItemReminder::DefinitionName
	?metaObject@QOrganizerItemLocalIdFetchRequest@QtMobility@@UBEPBUQMetaObject@@XZ @ 444 NONAME ; struct QMetaObject const * QtMobility::QOrganizerItemLocalIdFetchRequest::metaObject(void) const
	?clearLimit@QOrganizerItemRecurrenceRule@QtMobility@@QAEXXZ @ 445 NONAME ; void QtMobility::QOrganizerItemRecurrenceRule::clearLimit(void)
	?definitionNames@QOrganizerItemDetailDefinitionFetchRequest@QtMobility@@QBE?AVQStringList@@XZ @ 446 NONAME ; class QStringList QtMobility::QOrganizerItemDetailDefinitionFetchRequest::definitionNames(void) const
	?DefinitionName@QOrganizerJournalTimeRange@QtMobility@@2U?$QLatin1Constant@$0BB@@2@B @ 447 NONAME ; struct QtMobility::QLatin1Constant<17> const QtMobility::QOrganizerJournalTimeRange::DefinitionName
	??0QOrganizerCollectionSaveRequest@QtMobility@@QAE@PAVQObject@@@Z @ 448 NONAME ; QtMobility::QOrganizerCollectionSaveRequest::QOrganizerCollectionSaveRequest(class QObject *)
	??4QOrganizerItemId@QtMobility@@QAEAAV01@ABV01@@Z @ 449 NONAME ; class QtMobility::QOrganizerItemId & QtMobility::QOrganizerItemId::operator=(class QtMobility::QOrganizerItemId const &)
	??_EQOrganizerItemDetailDefinitionSaveRequest@QtMobility@@UAE@I@Z @ 450 NONAME ; QtMobility::QOrganizerItemDetailDefinitionSaveRequest::~QOrganizerItemDetailDefinitionSaveRequest(unsigned int)
	??5QtMobility@@YAAAVQDataStream@@AAV1@AAVQOrganizerCollection@0@@Z @ 451 NONAME ; class QDataStream & QtMobility::operator>>(class QDataStream &, class QtMobility::QOrganizerCollection &)
	?tr@QOrganizerItemRemoveRequest@QtMobility@@SA?AVQString@@PBD0H@Z @ 452 NONAME ; class QString QtMobility::QOrganizerItemRemoveRequest::tr(char const *, char const *, int)
	?d_func@QOrganizerCollectionFetchRequest@QtMobility@@ABEPBVQOrganizerCollectionFetchRequestPrivate@2@XZ @ 453 NONAME ; class QtMobility::QOrganizerCollectionFetchRequestPrivate const * QtMobility::QOrganizerCollectionFetchRequest::d_func(void) const
	?d_func@QOrganizerCollectionSaveRequest@QtMobility@@AAEPAVQOrganizerCollectionSaveRequestPrivate@2@XZ @ 454 NONAME ; class QtMobility::QOrganizerCollectionSaveRequestPrivate * QtMobility::QOrganizerCollectionSaveRequest::d_func(void)
	?originalDate@QOrganizerEventOccurrence@QtMobility@@QBE?AVQDate@@XZ @ 455 NONAME ; class QDate QtMobility::QOrganizerEventOccurrence::originalDate(void) const
	?setPriority@QOrganizerItemPriority@QtMobility@@QAEXW4Priority@12@@Z @ 456 NONAME ; void QtMobility::QOrganizerItemPriority::setPriority(enum QtMobility::QOrganizerItemPriority::Priority)
	?stateChanged@QOrganizerItemAbstractRequest@QtMobility@@IAEXW4State@12@@Z @ 457 NONAME ; void QtMobility::QOrganizerItemAbstractRequest::stateChanged(enum QtMobility::QOrganizerItemAbstractRequest::State)
	?itemType@QOrganizerItemDetailDefinitionFetchRequest@QtMobility@@QBE?AVQString@@XZ @ 458 NONAME ; class QString QtMobility::QOrganizerItemDetailDefinitionFetchRequest::itemType(void) const
	?getStaticMetaObject@QOrganizerItemAbstractRequest@QtMobility@@SAABUQMetaObject@@XZ @ 459 NONAME ; struct QMetaObject const & QtMobility::QOrganizerItemAbstractRequest::getStaticMetaObject(void)
	??0QOrganizerItemLocation@QtMobility@@QAE@ABVQOrganizerItemDetail@1@@Z @ 460 NONAME ; QtMobility::QOrganizerItemLocation::QOrganizerItemLocation(class QtMobility::QOrganizerItemDetail const &)
	??4QOrganizerItemType@QtMobility@@QAEAAV01@ABVQOrganizerItemDetail@1@@Z @ 461 NONAME ; class QtMobility::QOrganizerItemType & QtMobility::QOrganizerItemType::operator=(class QtMobility::QOrganizerItemDetail const &)
	?setRecurrenceDates@QOrganizerEvent@QtMobility@@QAEXABV?$QSet@VQDate@@@@@Z @ 462 NONAME ; void QtMobility::QOrganizerEvent::setRecurrenceDates(class QSet<class QDate> const &)
	??1QOrganizerItemManager@QtMobility@@UAE@XZ @ 463 NONAME ; QtMobility::QOrganizerItemManager::~QOrganizerItemManager(void)
	?latitude@QOrganizerItemLocation@QtMobility@@QBENXZ @ 464 NONAME ; double QtMobility::QOrganizerItemLocation::latitude(void) const
	?attachments@QOrganizerItemEmailReminder@QtMobility@@QBE?AV?$QList@VQVariant@@@@XZ @ 465 NONAME ; class QList<class QVariant> QtMobility::QOrganizerItemEmailReminder::attachments(void) const
	?setFrequency@QOrganizerItemRecurrenceRule@QtMobility@@QAEXW4Frequency@12@@Z @ 466 NONAME ; void QtMobility::QOrganizerItemRecurrenceRule::setFrequency(enum QtMobility::QOrganizerItemRecurrenceRule::Frequency)
	?FieldExceptionRules@QOrganizerItemRecurrence@QtMobility@@2U?$QLatin1Constant@$0P@@2@B @ 467 NONAME ; struct QtMobility::QLatin1Constant<15> const QtMobility::QOrganizerItemRecurrence::FieldExceptionRules
	?d_func@QOrganizerItemRemoveRequest@QtMobility@@ABEPBVQOrganizerItemRemoveRequestPrivate@2@XZ @ 468 NONAME ; class QtMobility::QOrganizerItemRemoveRequestPrivate const * QtMobility::QOrganizerItemRemoveRequest::d_func(void) const
	?setOriginalDate@QOrganizerTodoOccurrence@QtMobility@@QAEXABVQDate@@@Z @ 469 NONAME ; void QtMobility::QOrganizerTodoOccurrence::setOriginalDate(class QDate const &)
	??4QOrganizerItemSortOrder@QtMobility@@QAEAAV01@ABV01@@Z @ 470 NONAME ; class QtMobility::QOrganizerItemSortOrder & QtMobility::QOrganizerItemSortOrder::operator=(class QtMobility::QOrganizerItemSortOrder const &)
	??1QOrganizerEvent@QtMobility@@QAE@XZ @ 471 NONAME ; QtMobility::QOrganizerEvent::~QOrganizerEvent(void)
	??1QOrganizerCollectionFetchRequest@QtMobility@@UAE@XZ @ 472 NONAME ; QtMobility::QOrganizerCollectionFetchRequest::~QOrganizerCollectionFetchRequest(void)
	?FieldStartDateTime@QOrganizerTodoTimeRange@QtMobility@@2U?$QLatin1Constant@$0O@@2@B @ 473 NONAME ; struct QtMobility::QLatin1Constant<14> const QtMobility::QOrganizerTodoTimeRange::FieldStartDateTime
	?staticMetaObject@QOrganizerItemManager@QtMobility@@2UQMetaObject@@B @ 474 NONAME ; struct QMetaObject const QtMobility::QOrganizerItemManager::staticMetaObject
	?dataUrl@QOrganizerItemAudibleReminder@QtMobility@@QBE?AVQUrl@@XZ @ 475 NONAME ; class QUrl QtMobility::QOrganizerItemAudibleReminder::dataUrl(void) const
	??4QOrganizerTodoTimeRange@QtMobility@@QAEAAV01@ABVQOrganizerItemDetail@1@@Z @ 476 NONAME ; class QtMobility::QOrganizerTodoTimeRange & QtMobility::QOrganizerTodoTimeRange::operator=(class QtMobility::QOrganizerItemDetail const &)
	?collectionId@QOrganizerItem@QtMobility@@QBE?AVQOrganizerCollectionId@2@XZ @ 477 NONAME ; class QtMobility::QOrganizerCollectionId QtMobility::QOrganizerItem::collectionId(void) const
	??_EQOrganizerItem@QtMobility@@QAE@I@Z @ 478 NONAME ; QtMobility::QOrganizerItem::~QOrganizerItem(unsigned int)
	?setDataChanged@QOrganizerCollectionChangeSet@QtMobility@@QAEX_N@Z @ 479 NONAME ; void QtMobility::QOrganizerCollectionChangeSet::setDataChanged(bool)
	??0QOrganizerItemDetailDefinitionSaveRequest@QtMobility@@QAE@PAVQObject@@@Z @ 480 NONAME ; QtMobility::QOrganizerItemDetailDefinitionSaveRequest::QOrganizerItemDetailDefinitionSaveRequest(class QObject *)
	?trUtf8@QOrganizerItemFetchForExportRequest@QtMobility@@SA?AVQString@@PBD0H@Z @ 481 NONAME ; class QString QtMobility::QOrganizerItemFetchForExportRequest::trUtf8(char const *, char const *, int)
	?error@QOrganizerItemManager@QtMobility@@QBE?AW4Error@12@XZ @ 482 NONAME ; enum QtMobility::QOrganizerItemManager::Error QtMobility::QOrganizerItemManager::error(void) const
	?FieldParentLocalId@QOrganizerItemInstanceOrigin@QtMobility@@2U?$QLatin1Constant@$0O@@2@B @ 483 NONAME ; struct QtMobility::QLatin1Constant<14> const QtMobility::QOrganizerItemInstanceOrigin::FieldParentLocalId
	?tr@QOrganizerItemSaveRequest@QtMobility@@SA?AVQString@@PBD0H@Z @ 484 NONAME ; class QString QtMobility::QOrganizerItemSaveRequest::tr(char const *, char const *, int)
	??0QOrganizerItemSaveRequest@QtMobility@@QAE@PAVQObject@@@Z @ 485 NONAME ; QtMobility::QOrganizerItemSaveRequest::QOrganizerItemSaveRequest(class QObject *)
	?FieldEndDateTime@QOrganizerEventTimeRange@QtMobility@@2U?$QLatin1Constant@$0M@@2@B @ 486 NONAME ; struct QtMobility::QLatin1Constant<12> const QtMobility::QOrganizerEventTimeRange::FieldEndDateTime
	?tr@QOrganizerCollectionFetchRequest@QtMobility@@SA?AVQString@@PBD0H@Z @ 487 NONAME ; class QString QtMobility::QOrganizerCollectionFetchRequest::tr(char const *, char const *, int)
	?updateDefinitionFetchRequest@QOrganizerItemManagerEngine@QtMobility@@SAXPAVQOrganizerItemDetailDefinitionFetchRequest@2@ABV?$QMap@VQString@@VQOrganizerItemDetailDefinition@QtMobility@@@@W4Error@QOrganizerItemManager@2@ABV?$QMap@HW4Error@QOrganizerItemManager@QtMobility@@@@W4State@QOrganizerItemAbstractRequest@2@@Z @ 488 NONAME ; void QtMobility::QOrganizerItemManagerEngine::updateDefinitionFetchRequest(class QtMobility::QOrganizerItemDetailDefinitionFetchRequest *, class QMap<class QString, class QtMobility::QOrganizerItemDetailDefinition> const &, enum QtMobility::QOrganizerItemManager::Error, class QMap<int, enum QtMobility::QOrganizerItemManager::Error> const &, enum QtMobility::QOrganizerItemAbstractRequest::State)
	??0QOrganizerItemCollectionFilter@QtMobility@@QAE@ABVQOrganizerItemFilter@1@@Z @ 489 NONAME ; QtMobility::QOrganizerItemCollectionFilter::QOrganizerItemCollectionFilter(class QtMobility::QOrganizerItemFilter const &)
	?setComment@QOrganizerItemComment@QtMobility@@QAEXABVQString@@@Z @ 490 NONAME ; void QtMobility::QOrganizerItemComment::setComment(class QString const &)
	?saveItems@QOrganizerItemManagerEngine@QtMobility@@UAE_NPAV?$QList@VQOrganizerItem@QtMobility@@@@PAV?$QMap@HW4Error@QOrganizerItemManager@QtMobility@@@@PAW4Error@QOrganizerItemManager@2@@Z @ 491 NONAME ; bool QtMobility::QOrganizerItemManagerEngine::saveItems(class QList<class QtMobility::QOrganizerItem> *, class QMap<int, enum QtMobility::QOrganizerItemManager::Error> *, enum QtMobility::QOrganizerItemManager::Error *)
	?d_func@QOrganizerItemIntersectionFilter@QtMobility@@ABEPBVQOrganizerItemIntersectionFilterPrivate@2@XZ @ 492 NONAME ; class QtMobility::QOrganizerItemIntersectionFilterPrivate const * QtMobility::QOrganizerItemIntersectionFilter::d_func(void) const
	?fetchHint@QOrganizerItemInstanceFetchRequest@QtMobility@@QBE?AVQOrganizerItemFetchHint@2@XZ @ 493 NONAME ; class QtMobility::QOrganizerItemFetchHint QtMobility::QOrganizerItemInstanceFetchRequest::fetchHint(void) const
	?fields@QOrganizerItemDetailDefinition@QtMobility@@QBE?AV?$QMap@VQString@@VQOrganizerItemDetailFieldDefinition@QtMobility@@@@XZ @ 494 NONAME ; class QMap<class QString, class QtMobility::QOrganizerItemDetailFieldDefinition> QtMobility::QOrganizerItemDetailDefinition::fields(void) const
	??0QOrganizerItemAbstractRequest@QtMobility@@AAE@PAVQObject@@@Z @ 495 NONAME ; QtMobility::QOrganizerItemAbstractRequest::QOrganizerItemAbstractRequest(class QObject *)
	?setDefinitionName@QOrganizerItemDetailDefinitionRemoveRequest@QtMobility@@QAEXABVQString@@@Z @ 496 NONAME ; void QtMobility::QOrganizerItemDetailDefinitionRemoveRequest::setDefinitionName(class QString const &)
	?managerParameters@QOrganizerItemManagerEngine@QtMobility@@UBE?AV?$QMap@VQString@@V1@@@XZ @ 497 NONAME ; class QMap<class QString, class QString> QtMobility::QOrganizerItemManagerEngine::managerParameters(void) const
	?DefinitionName@QOrganizerItemEmailReminder@QtMobility@@2U?$QLatin1Constant@$0O@@2@B @ 498 NONAME ; struct QtMobility::QLatin1Constant<14> const QtMobility::QOrganizerItemEmailReminder::DefinitionName
	??0QOrganizerTodoTimeRange@QtMobility@@QAE@XZ @ 499 NONAME ; QtMobility::QOrganizerTodoTimeRange::QOrganizerTodoTimeRange(void)
	??4QOrganizerItemReminder@QtMobility@@QAEAAV01@ABVQOrganizerItemDetail@1@@Z @ 500 NONAME ; class QtMobility::QOrganizerItemReminder & QtMobility::QOrganizerItemReminder::operator=(class QtMobility::QOrganizerItemDetail const &)
	?qHash@QtMobility@@YAIABVQOrganizerCollectionLocalId@1@@Z @ 501 NONAME ; unsigned int QtMobility::qHash(class QtMobility::QOrganizerCollectionLocalId const &)
	?setFetchHint@QOrganizerItemInstanceFetchRequest@QtMobility@@QAEXABVQOrganizerItemFetchHint@2@@Z @ 502 NONAME ; void QtMobility::QOrganizerItemInstanceFetchRequest::setFetchHint(class QtMobility::QOrganizerItemFetchHint const &)
	?items@QOrganizerItemSaveRequest@QtMobility@@QBE?AV?$QList@VQOrganizerItem@QtMobility@@@@XZ @ 503 NONAME ; class QList<class QtMobility::QOrganizerItem> QtMobility::QOrganizerItemSaveRequest::items(void) const
	??0QOrganizerTodo@QtMobility@@QAE@XZ @ 504 NONAME ; QtMobility::QOrganizerTodo::QOrganizerTodo(void)
	?setLastModified@QOrganizerItemTimestamp@QtMobility@@QAEXABVQDateTime@@@Z @ 505 NONAME ; void QtMobility::QOrganizerItemTimestamp::setLastModified(class QDateTime const &)
	?created@QOrganizerItemTimestamp@QtMobility@@QBE?AVQDateTime@@XZ @ 506 NONAME ; class QDateTime QtMobility::QOrganizerItemTimestamp::created(void) const
	?startRequest@QOrganizerItemManagerEngine@QtMobility@@UAE_NPAVQOrganizerItemAbstractRequest@2@@Z @ 507 NONAME ; bool QtMobility::QOrganizerItemManagerEngine::startRequest(class QtMobility::QOrganizerItemAbstractRequest *)
	?setRepetition@QOrganizerItemReminder@QtMobility@@QAEXHH@Z @ 508 NONAME ; void QtMobility::QOrganizerItemReminder::setRepetition(int, int)
	??0QOrganizerItemManager@QtMobility@@QAE@ABVQString@@ABV?$QMap@VQString@@V1@@@PAVQObject@@@Z @ 509 NONAME ; QtMobility::QOrganizerItemManager::QOrganizerItemManager(class QString const &, class QMap<class QString, class QString> const &, class QObject *)
	??8QOrganizerItemSortOrder@QtMobility@@QBE_NABV01@@Z @ 510 NONAME ; bool QtMobility::QOrganizerItemSortOrder::operator==(class QtMobility::QOrganizerItemSortOrder const &) const
	?insertAddedItem@QOrganizerItemChangeSet@QtMobility@@QAEXABVQOrganizerItemLocalId@2@@Z @ 511 NONAME ; void QtMobility::QOrganizerItemChangeSet::insertAddedItem(class QtMobility::QOrganizerItemLocalId const &)
	?qt_metacast@QOrganizerItemDetailDefinitionFetchRequest@QtMobility@@UAEPAXPBD@Z @ 512 NONAME ; void * QtMobility::QOrganizerItemDetailDefinitionFetchRequest::qt_metacast(char const *)
	?finishedDateTime@QOrganizerTodoProgress@QtMobility@@QBE?AVQDateTime@@XZ @ 513 NONAME ; class QDateTime QtMobility::QOrganizerTodoProgress::finishedDateTime(void) const
	??4QOrganizerItemComment@QtMobility@@QAEAAV01@ABVQOrganizerItemDetail@1@@Z @ 514 NONAME ; class QtMobility::QOrganizerItemComment & QtMobility::QOrganizerItemComment::operator=(class QtMobility::QOrganizerItemDetail const &)
	?d_func@QOrganizerItemInstanceFetchRequest@QtMobility@@ABEPBVQOrganizerItemInstanceFetchRequestPrivate@2@XZ @ 515 NONAME ; class QtMobility::QOrganizerItemInstanceFetchRequestPrivate const * QtMobility::QOrganizerItemInstanceFetchRequest::d_func(void) const
	?setStartDate@QOrganizerItemLocalIdFetchRequest@QtMobility@@QAEXABVQDateTime@@@Z @ 516 NONAME ; void QtMobility::QOrganizerItemLocalIdFetchRequest::setStartDate(class QDateTime const &)
	?canonicalizedFilter@QOrganizerItemManagerEngine@QtMobility@@SA?AVQOrganizerItemFilter@2@ABV32@@Z @ 517 NONAME ; class QtMobility::QOrganizerItemFilter QtMobility::QOrganizerItemManagerEngine::canonicalizedFilter(class QtMobility::QOrganizerItemFilter const &)
	?FieldLabel@QOrganizerItemLocation@QtMobility@@2U?$QLatin1Constant@$05@2@B @ 518 NONAME ; struct QtMobility::QLatin1Constant<6> const QtMobility::QOrganizerItemLocation::FieldLabel
	?trUtf8@QOrganizerItemInstanceFetchRequest@QtMobility@@SA?AVQString@@PBD0@Z @ 519 NONAME ; class QString QtMobility::QOrganizerItemInstanceFetchRequest::trUtf8(char const *, char const *)
	?setCollectionIds@QOrganizerItemCollectionFilter@QtMobility@@QAEXABV?$QSet@VQOrganizerCollectionLocalId@QtMobility@@@@@Z @ 520 NONAME ; void QtMobility::QOrganizerItemCollectionFilter::setCollectionIds(class QSet<class QtMobility::QOrganizerCollectionLocalId> const &)
	?endDateTime@QOrganizerEventOccurrence@QtMobility@@QBE?AVQDateTime@@XZ @ 521 NONAME ; class QDateTime QtMobility::QOrganizerEventOccurrence::endDateTime(void) const
	?trUtf8@QOrganizerItemManager@QtMobility@@SA?AVQString@@PBD0@Z @ 522 NONAME ; class QString QtMobility::QOrganizerItemManager::trUtf8(char const *, char const *)
	?endDate@QOrganizerItemFetchForExportRequest@QtMobility@@QBE?AVQDateTime@@XZ @ 523 NONAME ; class QDateTime QtMobility::QOrganizerItemFetchForExportRequest::endDate(void) const
	??9QOrganizerItemDetailDefinition@QtMobility@@QBE_NABV01@@Z @ 524 NONAME ; bool QtMobility::QOrganizerItemDetailDefinition::operator!=(class QtMobility::QOrganizerItemDetailDefinition const &) const
	?FieldBody@QOrganizerItemEmailReminder@QtMobility@@2U?$QLatin1Constant@$04@2@B @ 525 NONAME ; struct QtMobility::QLatin1Constant<5> const QtMobility::QOrganizerItemEmailReminder::FieldBody
	?originalDate@QOrganizerItemInstanceOrigin@QtMobility@@QBE?AVQDate@@XZ @ 526 NONAME ; class QDate QtMobility::QOrganizerItemInstanceOrigin::originalDate(void) const
	?qHash@QtMobility@@YAIABVQOrganizerItemLocalId@1@@Z @ 527 NONAME ; unsigned int QtMobility::qHash(class QtMobility::QOrganizerItemLocalId const &)
	??0QOrganizerItemChangeLogFilter@QtMobility@@QAE@ABVQOrganizerItemFilter@1@@Z @ 528 NONAME ; QtMobility::QOrganizerItemChangeLogFilter::QOrganizerItemChangeLogFilter(class QtMobility::QOrganizerItemFilter const &)
	??1QOrganizerItemRecurrence@QtMobility@@QAE@XZ @ 529 NONAME ; QtMobility::QOrganizerItemRecurrence::~QOrganizerItemRecurrence(void)
	?localId@QOrganizerCollectionId@QtMobility@@QBE?AVQOrganizerCollectionLocalId@2@XZ @ 530 NONAME ; class QtMobility::QOrganizerCollectionLocalId QtMobility::QOrganizerCollectionId::localId(void) const
	??6QtMobility@@YA?AVQDebug@@V1@ABVQOrganizerItemDetail@0@@Z @ 531 NONAME ; class QDebug QtMobility::operator<<(class QDebug, class QtMobility::QOrganizerItemDetail const &)
	??6QtMobility@@YAAAVQDataStream@@AAV1@ABVQOrganizerItem@0@@Z @ 532 NONAME ; class QDataStream & QtMobility::operator<<(class QDataStream &, class QtMobility::QOrganizerItem const &)
	?localId@QOrganizerItemId@QtMobility@@QBE?AVQOrganizerItemLocalId@2@XZ @ 533 NONAME ; class QtMobility::QOrganizerItemLocalId QtMobility::QOrganizerItemId::localId(void) const
	?staticMetaObject@QOrganizerItemManagerEngine@QtMobility@@2UQMetaObject@@B @ 534 NONAME ; struct QMetaObject const QtMobility::QOrganizerItemManagerEngine::staticMetaObject
	?insertRemovedItems@QOrganizerItemChangeSet@QtMobility@@QAEXABV?$QList@VQOrganizerItemLocalId@QtMobility@@@@@Z @ 535 NONAME ; void QtMobility::QOrganizerItemChangeSet::insertRemovedItems(class QList<class QtMobility::QOrganizerItemLocalId> const &)
	?insertRemovedItem@QOrganizerItemChangeSet@QtMobility@@QAEXABVQOrganizerItemLocalId@2@@Z @ 536 NONAME ; void QtMobility::QOrganizerItemChangeSet::insertRemovedItem(class QtMobility::QOrganizerItemLocalId const &)
	?items@QOrganizerItemManager@QtMobility@@QBE?AV?$QList@VQOrganizerItem@QtMobility@@@@ABVQDateTime@@0ABVQOrganizerItemFilter@2@ABV?$QList@VQOrganizerItemSortOrder@QtMobility@@@@ABVQOrganizerItemFetchHint@2@@Z @ 537 NONAME ; class QList<class QtMobility::QOrganizerItem> QtMobility::QOrganizerItemManager::items(class QDateTime const &, class QDateTime const &, class QtMobility::QOrganizerItemFilter const &, class QList<class QtMobility::QOrganizerItemSortOrder> const &, class QtMobility::QOrganizerItemFetchHint const &) const
	?addedItems@QOrganizerItemChangeSet@QtMobility@@QBE?AV?$QSet@VQOrganizerItemLocalId@QtMobility@@@@XZ @ 538 NONAME ; class QSet<class QtMobility::QOrganizerItemLocalId> QtMobility::QOrganizerItemChangeSet::addedItems(void) const
	?frequency@QOrganizerItemRecurrenceRule@QtMobility@@QBE?AW4Frequency@12@XZ @ 539 NONAME ; enum QtMobility::QOrganizerItemRecurrenceRule::Frequency QtMobility::QOrganizerItemRecurrenceRule::frequency(void) const
	??1QOrganizerItemInstanceFetchRequest@QtMobility@@UAE@XZ @ 540 NONAME ; QtMobility::QOrganizerItemInstanceFetchRequest::~QOrganizerItemInstanceFetchRequest(void)
	??1QOrganizerItemUnionFilter@QtMobility@@QAE@XZ @ 541 NONAME ; QtMobility::QOrganizerItemUnionFilter::~QOrganizerItemUnionFilter(void)
	??0QOrganizerItemChangeSet@QtMobility@@QAE@ABV01@@Z @ 542 NONAME ; QtMobility::QOrganizerItemChangeSet::QOrganizerItemChangeSet(class QtMobility::QOrganizerItemChangeSet const &)
	??1QOrganizerItemChangeLogFilter@QtMobility@@QAE@XZ @ 543 NONAME ; QtMobility::QOrganizerItemChangeLogFilter::~QOrganizerItemChangeLogFilter(void)
	??0QOrganizerItemDetailFieldDefinition@QtMobility@@QAE@XZ @ 544 NONAME ; QtMobility::QOrganizerItemDetailFieldDefinition::QOrganizerItemDetailFieldDefinition(void)
	?compatibleCollection@QOrganizerItemManager@QtMobility@@QAE?AVQOrganizerCollection@2@ABV32@@Z @ 545 NONAME ; class QtMobility::QOrganizerCollection QtMobility::QOrganizerItemManager::compatibleCollection(class QtMobility::QOrganizerCollection const &)
	?FieldExceptionDates@QOrganizerItemRecurrence@QtMobility@@2U?$QLatin1Constant@$0P@@2@B @ 546 NONAME ; struct QtMobility::QLatin1Constant<15> const QtMobility::QOrganizerItemRecurrence::FieldExceptionDates
	?clearAddedItems@QOrganizerItemChangeSet@QtMobility@@QAEXXZ @ 547 NONAME ; void QtMobility::QOrganizerItemChangeSet::clearAddedItems(void)
	?secondsBeforeStart@QOrganizerItemReminder@QtMobility@@QBEHXZ @ 548 NONAME ; int QtMobility::QOrganizerItemReminder::secondsBeforeStart(void) const
	?setContents@QOrganizerItemEmailReminder@QtMobility@@QAEXABVQString@@0ABV?$QList@VQVariant@@@@@Z @ 549 NONAME ; void QtMobility::QOrganizerItemEmailReminder::setContents(class QString const &, class QString const &, class QList<class QVariant> const &)
	??6QtMobility@@YA?AVQDebug@@V1@ABVQOrganizerItemId@0@@Z @ 550 NONAME ; class QDebug QtMobility::operator<<(class QDebug, class QtMobility::QOrganizerItemId const &)
	??1QOrganizerCollection@QtMobility@@QAE@XZ @ 551 NONAME ; QtMobility::QOrganizerCollection::~QOrganizerCollection(void)
	?d_func@QOrganizerItemDetailRangeFilter@QtMobility@@AAEPAVQOrganizerItemDetailRangeFilterPrivate@2@XZ @ 552 NONAME ; class QtMobility::QOrganizerItemDetailRangeFilterPrivate * QtMobility::QOrganizerItemDetailRangeFilter::d_func(void)
	?setValue@QOrganizerItemDetailFilter@QtMobility@@QAEXABVQVariant@@@Z @ 553 NONAME ; void QtMobility::QOrganizerItemDetailFilter::setValue(class QVariant const &)
	?monthsOfYear@QOrganizerItemRecurrenceRule@QtMobility@@QBE?AV?$QSet@W4Month@QOrganizerItemRecurrenceRule@QtMobility@@@@XZ @ 554 NONAME ; class QSet<enum QtMobility::QOrganizerItemRecurrenceRule::Month> QtMobility::QOrganizerItemRecurrenceRule::monthsOfYear(void) const
	?qt_metacall@QOrganizerItemInstanceFetchRequest@QtMobility@@UAEHW4Call@QMetaObject@@HPAPAX@Z @ 555 NONAME ; int QtMobility::QOrganizerItemInstanceFetchRequest::qt_metacall(enum QMetaObject::Call, int, void * *)
	??0QOrganizerItemFilter@QtMobility@@QAE@XZ @ 556 NONAME ; QtMobility::QOrganizerItemFilter::QOrganizerItemFilter(void)
	??9QOrganizerItem@QtMobility@@QBE_NABV01@@Z @ 557 NONAME ; bool QtMobility::QOrganizerItem::operator!=(class QtMobility::QOrganizerItem const &) const
	?tr@QOrganizerItemLocalIdFetchRequest@QtMobility@@SA?AVQString@@PBD0H@Z @ 558 NONAME ; class QString QtMobility::QOrganizerItemLocalIdFetchRequest::tr(char const *, char const *, int)
	??1QOrganizerTodoOccurrence@QtMobility@@QAE@XZ @ 559 NONAME ; QtMobility::QOrganizerTodoOccurrence::~QOrganizerTodoOccurrence(void)
	?getStaticMetaObject@QOrganizerItemFetchForExportRequest@QtMobility@@SAABUQMetaObject@@XZ @ 560 NONAME ; struct QMetaObject const & QtMobility::QOrganizerItemFetchForExportRequest::getStaticMetaObject(void)
	?assign@QOrganizerItemDetail@QtMobility@@IAEAAV12@ABV12@ABVQString@@@Z @ 561 NONAME ; class QtMobility::QOrganizerItemDetail & QtMobility::QOrganizerItemDetail::assign(class QtMobility::QOrganizerItemDetail const &, class QString const &)
	?qt_metacall@QOrganizerItemLocalIdFetchRequest@QtMobility@@UAEHW4Call@QMetaObject@@HPAPAX@Z @ 562 NONAME ; int QtMobility::QOrganizerItemLocalIdFetchRequest::qt_metacall(enum QMetaObject::Call, int, void * *)
	??8QOrganizerItemDetailDefinition@QtMobility@@QBE_NABV01@@Z @ 563 NONAME ; bool QtMobility::QOrganizerItemDetailDefinition::operator==(class QtMobility::QOrganizerItemDetailDefinition const &) const
	?qt_metacast@QOrganizerItemSaveRequest@QtMobility@@UAEPAXPBD@Z @ 564 NONAME ; void * QtMobility::QOrganizerItemSaveRequest::qt_metacast(char const *)
	??8QOrganizerItemId@QtMobility@@QBE_NABV01@@Z @ 565 NONAME ; bool QtMobility::QOrganizerItemId::operator==(class QtMobility::QOrganizerItemId const &) const
	?collection@QOrganizerItemManager@QtMobility@@QBE?AVQOrganizerCollection@2@ABVQOrganizerCollectionLocalId@2@@Z @ 566 NONAME ; class QtMobility::QOrganizerCollection QtMobility::QOrganizerItemManager::collection(class QtMobility::QOrganizerCollectionLocalId const &) const
	?trUtf8@QOrganizerItemAbstractRequest@QtMobility@@SA?AVQString@@PBD0@Z @ 567 NONAME ; class QString QtMobility::QOrganizerItemAbstractRequest::trUtf8(char const *, char const *)
	?accessConstraints@QOrganizerItemDetail@QtMobility@@QBE?AV?$QFlags@W4AccessConstraint@QOrganizerItemDetail@QtMobility@@@@XZ @ 568 NONAME ; class QFlags<enum QtMobility::QOrganizerItemDetail::AccessConstraint> QtMobility::QOrganizerItemDetail::accessConstraints(void) const
	??_EQOrganizerItemManagerEngine@QtMobility@@UAE@I@Z @ 569 NONAME ; QtMobility::QOrganizerItemManagerEngine::~QOrganizerItemManagerEngine(unsigned int)
	?body@QOrganizerItemEmailReminder@QtMobility@@QBE?AVQString@@XZ @ 570 NONAME ; class QString QtMobility::QOrganizerItemEmailReminder::body(void) const
	?metaObject@QOrganizerItemRemoveRequest@QtMobility@@UBEPBUQMetaObject@@XZ @ 571 NONAME ; struct QMetaObject const * QtMobility::QOrganizerItemRemoveRequest::metaObject(void) const
	??4QOrganizerItemGuid@QtMobility@@QAEAAV01@ABVQOrganizerItemDetail@1@@Z @ 572 NONAME ; class QtMobility::QOrganizerItemGuid & QtMobility::QOrganizerItemGuid::operator=(class QtMobility::QOrganizerItemDetail const &)
	??1QOrganizerItemInstanceOrigin@QtMobility@@QAE@XZ @ 573 NONAME ; QtMobility::QOrganizerItemInstanceOrigin::~QOrganizerItemInstanceOrigin(void)
	?TypeJournal@QOrganizerItemType@QtMobility@@2U?$QLatin1Constant@$07@2@B @ 574 NONAME ; struct QtMobility::QLatin1Constant<8> const QtMobility::QOrganizerItemType::TypeJournal
	?id@QOrganizerItem@QtMobility@@QBE?AVQOrganizerItemId@2@XZ @ 575 NONAME ; class QtMobility::QOrganizerItemId QtMobility::QOrganizerItem::id(void) const
	?d_func@QOrganizerItemFetchForExportRequest@QtMobility@@ABEPBVQOrganizerItemFetchForExportRequestPrivate@2@XZ @ 576 NONAME ; class QtMobility::QOrganizerItemFetchForExportRequestPrivate const * QtMobility::QOrganizerItemFetchForExportRequest::d_func(void) const
	?parseUri@QOrganizerItemManager@QtMobility@@SA_NABVQString@@PAV3@PAV?$QMap@VQString@@V1@@@@Z @ 577 NONAME ; bool QtMobility::QOrganizerItemManager::parseUri(class QString const &, class QString *, class QMap<class QString, class QString> *)
	?variantValue@QOrganizerItemDetail@QtMobility@@QBE?AVQVariant@@ABVQString@@@Z @ 578 NONAME ; class QVariant QtMobility::QOrganizerItemDetail::variantValue(class QString const &) const
	?saveDetailDefinition@QOrganizerItemManager@QtMobility@@QAE_NABVQOrganizerItemDetailDefinition@2@ABVQString@@@Z @ 579 NONAME ; bool QtMobility::QOrganizerItemManager::saveDetailDefinition(class QtMobility::QOrganizerItemDetailDefinition const &, class QString const &)
	?metaObject@QOrganizerItemManager@QtMobility@@UBEPBUQMetaObject@@XZ @ 580 NONAME ; struct QMetaObject const * QtMobility::QOrganizerItemManager::metaObject(void) const
	?startDate@QOrganizerItemInstanceFetchRequest@QtMobility@@QBE?AVQDateTime@@XZ @ 581 NONAME ; class QDateTime QtMobility::QOrganizerItemInstanceFetchRequest::startDate(void) const
	?clearRemovedItems@QOrganizerItemChangeSet@QtMobility@@QAEXXZ @ 582 NONAME ; void QtMobility::QOrganizerItemChangeSet::clearRemovedItems(void)
	?setStartDateTime@QOrganizerTodo@QtMobility@@QAEXABVQDateTime@@@Z @ 583 NONAME ; void QtMobility::QOrganizerTodo::setStartDateTime(class QDateTime const &)
	?isItemBetweenDates@QOrganizerItemManagerEngine@QtMobility@@SA_NABVQOrganizerItem@2@ABVQDateTime@@1@Z @ 584 NONAME ; bool QtMobility::QOrganizerItemManagerEngine::isItemBetweenDates(class QtMobility::QOrganizerItem const &, class QDateTime const &, class QDateTime const &)
	?collectionLocalId@QOrganizerItem@QtMobility@@QBE?AVQOrganizerCollectionLocalId@2@XZ @ 585 NONAME ; class QtMobility::QOrganizerCollectionLocalId QtMobility::QOrganizerItem::collectionLocalId(void) const
	?setMaxOccurrences@QOrganizerItemInstanceFetchRequest@QtMobility@@QAEXH@Z @ 586 NONAME ; void QtMobility::QOrganizerItemInstanceFetchRequest::setMaxOccurrences(int)
	?qt_metacall@QOrganizerItemDetailDefinitionRemoveRequest@QtMobility@@UAEHW4Call@QMetaObject@@HPAPAX@Z @ 587 NONAME ; int QtMobility::QOrganizerItemDetailDefinitionRemoveRequest::qt_metacall(enum QMetaObject::Call, int, void * *)
	?trUtf8@QOrganizerItemFetchRequest@QtMobility@@SA?AVQString@@PBD0H@Z @ 588 NONAME ; class QString QtMobility::QOrganizerItemFetchRequest::trUtf8(char const *, char const *, int)
	??1QOrganizerItemSortOrder@QtMobility@@QAE@XZ @ 589 NONAME ; QtMobility::QOrganizerItemSortOrder::~QOrganizerItemSortOrder(void)
	??0QOrganizerEventOccurrence@QtMobility@@QAE@ABVQOrganizerItem@1@@Z @ 590 NONAME ; QtMobility::QOrganizerEventOccurrence::QOrganizerEventOccurrence(class QtMobility::QOrganizerItem const &)
	?setParentLocalId@QOrganizerItemInstanceOrigin@QtMobility@@QAEXABVQOrganizerItemLocalId@2@@Z @ 591 NONAME ; void QtMobility::QOrganizerItemInstanceOrigin::setParentLocalId(class QtMobility::QOrganizerItemLocalId const &)
	??6QtMobility@@YAAAVQDataStream@@AAV1@ABVQOrganizerItemId@0@@Z @ 592 NONAME ; class QDataStream & QtMobility::operator<<(class QDataStream &, class QtMobility::QOrganizerItemId const &)
	?errorMap@QOrganizerItemDetailDefinitionRemoveRequest@QtMobility@@QBE?AV?$QMap@HW4Error@QOrganizerItemManager@QtMobility@@@@XZ @ 593 NONAME ; class QMap<int, enum QtMobility::QOrganizerItemManager::Error> QtMobility::QOrganizerItemDetailDefinitionRemoveRequest::errorMap(void) const
	??0QOrganizerCollectionId@QtMobility@@QAE@ABV01@@Z @ 594 NONAME ; QtMobility::QOrganizerCollectionId::QOrganizerCollectionId(class QtMobility::QOrganizerCollectionId const &)
	??0QOrganizerItemFetchHint@QtMobility@@QAE@XZ @ 595 NONAME ; QtMobility::QOrganizerItemFetchHint::QOrganizerItemFetchHint(void)
	?tr@QOrganizerItemInstanceFetchRequest@QtMobility@@SA?AVQString@@PBD0H@Z @ 596 NONAME ; class QString QtMobility::QOrganizerItemInstanceFetchRequest::tr(char const *, char const *, int)
	??0QOrganizerItemIntersectionFilter@QtMobility@@QAE@ABVQOrganizerItemFilter@1@@Z @ 597 NONAME ; QtMobility::QOrganizerItemIntersectionFilter::QOrganizerItemIntersectionFilter(class QtMobility::QOrganizerItemFilter const &)
	?setOriginalDate@QOrganizerItemInstanceOrigin@QtMobility@@QAEXABVQDate@@@Z @ 598 NONAME ; void QtMobility::QOrganizerItemInstanceOrigin::setOriginalDate(class QDate const &)
	?status@QOrganizerTodoProgress@QtMobility@@QBE?AW4Status@12@XZ @ 599 NONAME ; enum QtMobility::QOrganizerTodoProgress::Status QtMobility::QOrganizerTodoProgress::status(void) const
	??1QOrganizerItemLocation@QtMobility@@QAE@XZ @ 600 NONAME ; QtMobility::QOrganizerItemLocation::~QOrganizerItemLocation(void)
	??8QOrganizerItemRecurrenceRule@QtMobility@@QBE_NABV01@@Z @ 601 NONAME ; bool QtMobility::QOrganizerItemRecurrenceRule::operator==(class QtMobility::QOrganizerItemRecurrenceRule const &) const
	?startDate@QOrganizerItemLocalIdFetchRequest@QtMobility@@QBE?AVQDateTime@@XZ @ 602 NONAME ; class QDateTime QtMobility::QOrganizerItemLocalIdFetchRequest::startDate(void) const
	?validateItem@QOrganizerItemManagerEngine@QtMobility@@UBE_NABVQOrganizerItem@2@PAW4Error@QOrganizerItemManager@2@@Z @ 603 NONAME ; bool QtMobility::QOrganizerItemManagerEngine::validateItem(class QtMobility::QOrganizerItem const &, enum QtMobility::QOrganizerItemManager::Error *) const
	?insertAddedCollection@QOrganizerCollectionChangeSet@QtMobility@@QAEXABVQOrganizerCollectionLocalId@2@@Z @ 604 NONAME ; void QtMobility::QOrganizerCollectionChangeSet::insertAddedCollection(class QtMobility::QOrganizerCollectionLocalId const &)
	?setType@QOrganizerItem@QtMobility@@QAEXABVQString@@@Z @ 605 NONAME ; void QtMobility::QOrganizerItem::setType(class QString const &)
	?detailDefinitionName@QOrganizerItemDetailRangeFilter@QtMobility@@QBE?AVQString@@XZ @ 606 NONAME ; class QString QtMobility::QOrganizerItemDetailRangeFilter::detailDefinitionName(void) const
	?setValue@QOrganizerItemDetail@QtMobility@@QAE_NABVQString@@ABVQVariant@@@Z @ 607 NONAME ; bool QtMobility::QOrganizerItemDetail::setValue(class QString const &, class QVariant const &)
	?d_func@QOrganizerCollectionSaveRequest@QtMobility@@ABEPBVQOrganizerCollectionSaveRequestPrivate@2@XZ @ 608 NONAME ; class QtMobility::QOrganizerCollectionSaveRequestPrivate const * QtMobility::QOrganizerCollectionSaveRequest::d_func(void) const
	??0QOrganizerNote@QtMobility@@QAE@XZ @ 609 NONAME ; QtMobility::QOrganizerNote::QOrganizerNote(void)
	?setSecondsBeforeStart@QOrganizerItemReminder@QtMobility@@QAEXH@Z @ 610 NONAME ; void QtMobility::QOrganizerItemReminder::setSecondsBeforeStart(int)
	?qt_metacast@QOrganizerItemInstanceFetchRequest@QtMobility@@UAEPAXPBD@Z @ 611 NONAME ; void * QtMobility::QOrganizerItemInstanceFetchRequest::qt_metacast(char const *)
	?daysOfYear@QOrganizerItemRecurrenceRule@QtMobility@@QBE?AV?$QSet@H@@XZ @ 612 NONAME ; class QSet<int> QtMobility::QOrganizerItemRecurrenceRule::daysOfYear(void) const
	??9QOrganizerItemFilter@QtMobility@@QBE_NABV01@@Z @ 613 NONAME ; bool QtMobility::QOrganizerItemFilter::operator!=(class QtMobility::QOrganizerItemFilter const &) const
	??0QOrganizerCollectionChangeSet@QtMobility@@QAE@XZ @ 614 NONAME ; QtMobility::QOrganizerCollectionChangeSet::QOrganizerCollectionChangeSet(void)
	?filter@QOrganizerItemFetchForExportRequest@QtMobility@@QBE?AVQOrganizerItemFilter@2@XZ @ 615 NONAME ; class QtMobility::QOrganizerItemFilter QtMobility::QOrganizerItemFetchForExportRequest::filter(void) const
	??0QOrganizerJournal@QtMobility@@QAE@ABVQOrganizerItem@1@@Z @ 616 NONAME ; QtMobility::QOrganizerJournal::QOrganizerJournal(class QtMobility::QOrganizerItem const &)
	?startDateTime@QOrganizerEvent@QtMobility@@QBE?AVQDateTime@@XZ @ 617 NONAME ; class QDateTime QtMobility::QOrganizerEvent::startDateTime(void) const
	?limitType@QOrganizerItemRecurrenceRule@QtMobility@@QBE?AW4LimitType@12@XZ @ 618 NONAME ; enum QtMobility::QOrganizerItemRecurrenceRule::LimitType QtMobility::QOrganizerItemRecurrenceRule::limitType(void) const
	?d_func@QOrganizerCollectionRemoveRequest@QtMobility@@ABEPBVQOrganizerCollectionRemoveRequestPrivate@2@XZ @ 619 NONAME ; class QtMobility::QOrganizerCollectionRemoveRequestPrivate const * QtMobility::QOrganizerCollectionRemoveRequest::d_func(void) const
	?removedCollections@QOrganizerCollectionChangeSet@QtMobility@@QBE?AV?$QSet@VQOrganizerCollectionLocalId@QtMobility@@@@XZ @ 620 NONAME ; class QSet<class QtMobility::QOrganizerCollectionLocalId> QtMobility::QOrganizerCollectionChangeSet::removedCollections(void) const
	??8QOrganizerItemRecurrence@QtMobility@@QBE_NABV01@@Z @ 621 NONAME ; bool QtMobility::QOrganizerItemRecurrence::operator==(class QtMobility::QOrganizerItemRecurrence const &) const
	??4QOrganizerEventTimeRange@QtMobility@@QAEAAV01@ABVQOrganizerItemDetail@1@@Z @ 622 NONAME ; class QtMobility::QOrganizerEventTimeRange & QtMobility::QOrganizerEventTimeRange::operator=(class QtMobility::QOrganizerItemDetail const &)
	?detailDefinitions@QOrganizerItemManager@QtMobility@@QBE?AV?$QMap@VQString@@VQOrganizerItemDetailDefinition@QtMobility@@@@ABVQString@@@Z @ 623 NONAME ; class QMap<class QString, class QtMobility::QOrganizerItemDetailDefinition> QtMobility::QOrganizerItemManager::detailDefinitions(class QString const &) const
	?FieldOriginalDate@QOrganizerItemInstanceOrigin@QtMobility@@2U?$QLatin1Constant@$0N@@2@B @ 624 NONAME ; struct QtMobility::QLatin1Constant<13> const QtMobility::QOrganizerItemInstanceOrigin::FieldOriginalDate
	??1QOrganizerItem@QtMobility@@QAE@XZ @ 625 NONAME ; QtMobility::QOrganizerItem::~QOrganizerItem(void)
	?exceptionDates@QOrganizerEvent@QtMobility@@QBE?AV?$QSet@VQDate@@@@XZ @ 626 NONAME ; class QSet<class QDate> QtMobility::QOrganizerEvent::exceptionDates(void) const
	??0QOrganizerTodo@QtMobility@@QAE@ABVQOrganizerItem@1@@Z @ 627 NONAME ; QtMobility::QOrganizerTodo::QOrganizerTodo(class QtMobility::QOrganizerItem const &)
	?filter@QOrganizerItemFetchRequest@QtMobility@@QBE?AVQOrganizerItemFilter@2@XZ @ 628 NONAME ; class QtMobility::QOrganizerItemFilter QtMobility::QOrganizerItemFetchRequest::filter(void) const
	?getStaticMetaObject@QOrganizerItemRemoveRequest@QtMobility@@SAABUQMetaObject@@XZ @ 629 NONAME ; struct QMetaObject const & QtMobility::QOrganizerItemRemoveRequest::getStaticMetaObject(void)
	??0QOrganizerItemManager@QtMobility@@QAE@PAVQObject@@@Z @ 630 NONAME ; QtMobility::QOrganizerItemManager::QOrganizerItemManager(class QObject *)
	?setItem@QOrganizerItemSaveRequest@QtMobility@@QAEXABVQOrganizerItem@2@@Z @ 631 NONAME ; void QtMobility::QOrganizerItemSaveRequest::setItem(class QtMobility::QOrganizerItem const &)
	??9QOrganizerItemDetailFieldDefinition@QtMobility@@QBE_NABV01@@Z @ 632 NONAME ; bool QtMobility::QOrganizerItemDetailFieldDefinition::operator!=(class QtMobility::QOrganizerItemDetailFieldDefinition const &) const
	?finishedDateTime@QOrganizerTodoOccurrence@QtMobility@@QBE?AVQDateTime@@XZ @ 633 NONAME ; class QDateTime QtMobility::QOrganizerTodoOccurrence::finishedDateTime(void) const
	?trUtf8@QOrganizerCollectionFetchRequest@QtMobility@@SA?AVQString@@PBD0@Z @ 634 NONAME ; class QString QtMobility::QOrganizerCollectionFetchRequest::trUtf8(char const *, char const *)
	??0QOrganizerEventTimeRange@QtMobility@@QAE@XZ @ 635 NONAME ; QtMobility::QOrganizerEventTimeRange::QOrganizerEventTimeRange(void)
	?DefinitionName@QOrganizerItemInstanceOrigin@QtMobility@@2U?$QLatin1Constant@$0P@@2@B @ 636 NONAME ; struct QtMobility::QLatin1Constant<15> const QtMobility::QOrganizerItemInstanceOrigin::DefinitionName
	?setStartDate@QOrganizerItemInstanceFetchRequest@QtMobility@@QAEXABVQDateTime@@@Z @ 637 NONAME ; void QtMobility::QOrganizerItemInstanceFetchRequest::setStartDate(class QDateTime const &)
	?setDefinition@QOrganizerItemDetailDefinitionSaveRequest@QtMobility@@QAEXABVQOrganizerItemDetailDefinition@2@@Z @ 638 NONAME ; void QtMobility::QOrganizerItemDetailDefinitionSaveRequest::setDefinition(class QtMobility::QOrganizerItemDetailDefinition const &)
	?state@QOrganizerItemAbstractRequest@QtMobility@@QBE?AW4State@12@XZ @ 639 NONAME ; enum QtMobility::QOrganizerItemAbstractRequest::State QtMobility::QOrganizerItemAbstractRequest::state(void) const
	??0QOrganizerItemAbstractRequest@QtMobility@@IAE@PAVQOrganizerItemAbstractRequestPrivate@1@PAVQObject@@@Z @ 640 NONAME ; QtMobility::QOrganizerItemAbstractRequest::QOrganizerItemAbstractRequest(class QtMobility::QOrganizerItemAbstractRequestPrivate *, class QObject *)
	?progressPercentage@QOrganizerTodo@QtMobility@@QBEHXZ @ 641 NONAME ; int QtMobility::QOrganizerTodo::progressPercentage(void) const
	?dateTime@QOrganizerJournal@QtMobility@@QBE?AVQDateTime@@XZ @ 642 NONAME ; class QDateTime QtMobility::QOrganizerJournal::dateTime(void) const
	?tr@QOrganizerItemManager@QtMobility@@SA?AVQString@@PBD0@Z @ 643 NONAME ; class QString QtMobility::QOrganizerItemManager::tr(char const *, char const *)
	?getStaticMetaObject@QOrganizerItemManager@QtMobility@@SAABUQMetaObject@@XZ @ 644 NONAME ; struct QMetaObject const & QtMobility::QOrganizerItemManager::getStaticMetaObject(void)
	?qt_metacast@QOrganizerItemDetailDefinitionRemoveRequest@QtMobility@@UAEPAXPBD@Z @ 645 NONAME ; void * QtMobility::QOrganizerItemDetailDefinitionRemoveRequest::qt_metacast(char const *)
	?definitionName@QOrganizerItemDetail@QtMobility@@QBE?AVQString@@XZ @ 646 NONAME ; class QString QtMobility::QOrganizerItemDetail::definitionName(void) const
	?insertChangedCollection@QOrganizerCollectionChangeSet@QtMobility@@QAEXABVQOrganizerCollectionLocalId@2@@Z @ 647 NONAME ; void QtMobility::QOrganizerCollectionChangeSet::insertChangedCollection(class QtMobility::QOrganizerCollectionLocalId const &)
	?tr@QOrganizerItemAbstractRequest@QtMobility@@SA?AVQString@@PBD0H@Z @ 648 NONAME ; class QString QtMobility::QOrganizerItemAbstractRequest::tr(char const *, char const *, int)
	??8QOrganizerCollectionId@QtMobility@@QBE_NABV01@@Z @ 649 NONAME ; bool QtMobility::QOrganizerCollectionId::operator==(class QtMobility::QOrganizerCollectionId const &) const
	?FieldDataUrl@QOrganizerItemVisualReminder@QtMobility@@2U?$QLatin1Constant@$07@2@B @ 650 NONAME ; struct QtMobility::QLatin1Constant<8> const QtMobility::QOrganizerItemVisualReminder::FieldDataUrl
	?location@QOrganizerEventOccurrence@QtMobility@@QBE?AVQString@@XZ @ 651 NONAME ; class QString QtMobility::QOrganizerEventOccurrence::location(void) const
	?items@QOrganizerItemManagerEngine@QtMobility@@UBE?AV?$QList@VQOrganizerItem@QtMobility@@@@ABVQDateTime@@0ABVQOrganizerItemFilter@2@ABV?$QList@VQOrganizerItemSortOrder@QtMobility@@@@ABVQOrganizerItemFetchHint@2@PAW4Error@QOrganizerItemManager@2@@Z @ 652 NONAME ; class QList<class QtMobility::QOrganizerItem> QtMobility::QOrganizerItemManagerEngine::items(class QDateTime const &, class QDateTime const &, class QtMobility::QOrganizerItemFilter const &, class QList<class QtMobility::QOrganizerItemSortOrder> const &, class QtMobility::QOrganizerItemFetchHint const &, enum QtMobility::QOrganizerItemManager::Error *) const
	??1QOrganizerItemInvalidFilter@QtMobility@@QAE@XZ @ 653 NONAME ; QtMobility::QOrganizerItemInvalidFilter::~QOrganizerItemInvalidFilter(void)
	??6QtMobility@@YAAAVQDataStream@@AAV1@ABVQOrganizerCollectionId@0@@Z @ 654 NONAME ; class QDataStream & QtMobility::operator<<(class QDataStream &, class QtMobility::QOrganizerCollectionId const &)
	??0QOrganizerItemIntersectionFilter@QtMobility@@QAE@XZ @ 655 NONAME ; QtMobility::QOrganizerItemIntersectionFilter::QOrganizerItemIntersectionFilter(void)
	?maxValue@QOrganizerItemDetailRangeFilter@QtMobility@@QBE?AVQVariant@@XZ @ 656 NONAME ; class QVariant QtMobility::QOrganizerItemDetailRangeFilter::maxValue(void) const
	??4QOrganizerCollectionLocalId@QtMobility@@QAEAAV01@ABV01@@Z @ 657 NONAME ; class QtMobility::QOrganizerCollectionLocalId & QtMobility::QOrganizerCollectionLocalId::operator=(class QtMobility::QOrganizerCollectionLocalId const &)
	??6QtMobility@@YA?AVQDebug@@V1@ABVQOrganizerCollection@0@@Z @ 658 NONAME ; class QDebug QtMobility::operator<<(class QDebug, class QtMobility::QOrganizerCollection const &)
	?saveDetailDefinition@QOrganizerItemManagerEngine@QtMobility@@UAE_NABVQOrganizerItemDetailDefinition@2@ABVQString@@PAW4Error@QOrganizerItemManager@2@@Z @ 659 NONAME ; bool QtMobility::QOrganizerItemManagerEngine::saveDetailDefinition(class QtMobility::QOrganizerItemDetailDefinition const &, class QString const &, enum QtMobility::QOrganizerItemManager::Error *)
	?setFilters@QOrganizerItemIntersectionFilter@QtMobility@@QAEXABV?$QList@VQOrganizerItemFilter@QtMobility@@@@@Z @ 660 NONAME ; void QtMobility::QOrganizerItemIntersectionFilter::setFilters(class QList<class QtMobility::QOrganizerItemFilter> const &)
	??0QOrganizerItemManager@QtMobility@@QAE@ABVQString@@HABV?$QMap@VQString@@V1@@@PAVQObject@@@Z @ 661 NONAME ; QtMobility::QOrganizerItemManager::QOrganizerItemManager(class QString const &, int, class QMap<class QString, class QString> const &, class QObject *)
	?priority@QOrganizerItemPriority@QtMobility@@QBE?AW4Priority@12@XZ @ 662 NONAME ; enum QtMobility::QOrganizerItemPriority::Priority QtMobility::QOrganizerItemPriority::priority(void) const
	?clearChangedItems@QOrganizerItemChangeSet@QtMobility@@QAEXXZ @ 663 NONAME ; void QtMobility::QOrganizerItemChangeSet::clearChangedItems(void)
	?FieldRecipients@QOrganizerItemEmailReminder@QtMobility@@2U?$QLatin1Constant@$0L@@2@B @ 664 NONAME ; struct QtMobility::QLatin1Constant<11> const QtMobility::QOrganizerItemEmailReminder::FieldRecipients
	?removeItems@QOrganizerItemManagerEngine@QtMobility@@UAE_NABV?$QList@VQOrganizerItemLocalId@QtMobility@@@@PAV?$QMap@HW4Error@QOrganizerItemManager@QtMobility@@@@PAW4Error@QOrganizerItemManager@2@@Z @ 665 NONAME ; bool QtMobility::QOrganizerItemManagerEngine::removeItems(class QList<class QtMobility::QOrganizerItemLocalId> const &, class QMap<int, enum QtMobility::QOrganizerItemManager::Error> *, enum QtMobility::QOrganizerItemManager::Error *)
	?KeyImage@QOrganizerCollection@QtMobility@@2U?$QLatin1Constant@$05@2@B @ 666 NONAME ; struct QtMobility::QLatin1Constant<6> const QtMobility::QOrganizerCollection::KeyImage
	?managerUri@QOrganizerItemManagerEngine@QtMobility@@QBE?AVQString@@XZ @ 667 NONAME ; class QString QtMobility::QOrganizerItemManagerEngine::managerUri(void) const
	??0QOrganizerItemEmailReminder@QtMobility@@QAE@XZ @ 668 NONAME ; QtMobility::QOrganizerItemEmailReminder::QOrganizerItemEmailReminder(void)
	?setCollectionId@QOrganizerItemCollectionFilter@QtMobility@@QAEXABVQOrganizerCollectionLocalId@2@@Z @ 669 NONAME ; void QtMobility::QOrganizerItemCollectionFilter::setCollectionId(class QtMobility::QOrganizerCollectionLocalId const &)
	?itemsForExport@QOrganizerItemManager@QtMobility@@QBE?AV?$QList@VQOrganizerItem@QtMobility@@@@ABVQDateTime@@0ABVQOrganizerItemFilter@2@ABV?$QList@VQOrganizerItemSortOrder@QtMobility@@@@ABVQOrganizerItemFetchHint@2@@Z @ 670 NONAME ; class QList<class QtMobility::QOrganizerItem> QtMobility::QOrganizerItemManager::itemsForExport(class QDateTime const &, class QDateTime const &, class QtMobility::QOrganizerItemFilter const &, class QList<class QtMobility::QOrganizerItemSortOrder> const &, class QtMobility::QOrganizerItemFetchHint const &) const
	??0QOrganizerEvent@QtMobility@@QAE@XZ @ 671 NONAME ; QtMobility::QOrganizerEvent::QOrganizerEvent(void)
	??1QOrganizerJournal@QtMobility@@QAE@XZ @ 672 NONAME ; QtMobility::QOrganizerJournal::~QOrganizerJournal(void)
	?append@QOrganizerItemIntersectionFilter@QtMobility@@QAEXABVQOrganizerItemFilter@2@@Z @ 673 NONAME ; void QtMobility::QOrganizerItemIntersectionFilter::append(class QtMobility::QOrganizerItemFilter const &)
	?trUtf8@QOrganizerItemFetchForExportRequest@QtMobility@@SA?AVQString@@PBD0@Z @ 674 NONAME ; class QString QtMobility::QOrganizerItemFetchForExportRequest::trUtf8(char const *, char const *)
	?setEndDate@QOrganizerItemLocalIdFetchRequest@QtMobility@@QAEXABVQDateTime@@@Z @ 675 NONAME ; void QtMobility::QOrganizerItemLocalIdFetchRequest::setEndDate(class QDateTime const &)
	??0QOrganizerItemDetailDefinition@QtMobility@@QAE@ABV01@@Z @ 676 NONAME ; QtMobility::QOrganizerItemDetailDefinition::QOrganizerItemDetailDefinition(class QtMobility::QOrganizerItemDetailDefinition const &)
	??4QOrganizerItemFetchHint@QtMobility@@QAEAAV01@ABV01@@Z @ 677 NONAME ; class QtMobility::QOrganizerItemFetchHint & QtMobility::QOrganizerItemFetchHint::operator=(class QtMobility::QOrganizerItemFetchHint const &)
	?value@QOrganizerItemDetail@QtMobility@@QBE?AVQString@@PBD@Z @ 678 NONAME ; class QString QtMobility::QOrganizerItemDetail::value(char const *) const
	??4QOrganizerItemTimestamp@QtMobility@@QAEAAV01@ABVQOrganizerItemDetail@1@@Z @ 679 NONAME ; class QtMobility::QOrganizerItemTimestamp & QtMobility::QOrganizerItemTimestamp::operator=(class QtMobility::QOrganizerItemDetail const &)
	?startDate@QOrganizerItemFetchRequest@QtMobility@@QBE?AVQDateTime@@XZ @ 680 NONAME ; class QDateTime QtMobility::QOrganizerItemFetchRequest::startDate(void) const
	?setTimeSpecified@QOrganizerTodo@QtMobility@@QAEX_N@Z @ 681 NONAME ; void QtMobility::QOrganizerTodo::setTimeSpecified(bool)
	?setStartDate@QOrganizerItemFetchForExportRequest@QtMobility@@QAEXABVQDateTime@@@Z @ 682 NONAME ; void QtMobility::QOrganizerItemFetchForExportRequest::setStartDate(class QDateTime const &)
	?DefinitionName@QOrganizerItemComment@QtMobility@@2U?$QLatin1Constant@$07@2@B @ 683 NONAME ; struct QtMobility::QLatin1Constant<8> const QtMobility::QOrganizerItemComment::DefinitionName
	?setManagerUri@QOrganizerCollectionId@QtMobility@@QAEXABVQString@@@Z @ 684 NONAME ; void QtMobility::QOrganizerCollectionId::setManagerUri(class QString const &)
	??4QOrganizerTodoOccurrence@QtMobility@@QAEAAV01@ABVQOrganizerItem@1@@Z @ 685 NONAME ; class QtMobility::QOrganizerTodoOccurrence & QtMobility::QOrganizerTodoOccurrence::operator=(class QtMobility::QOrganizerItem const &)
	?isTimeSpecified@QOrganizerTodo@QtMobility@@QBE_NXZ @ 686 NONAME ; bool QtMobility::QOrganizerTodo::isTimeSpecified(void) const
	?metaObject@QOrganizerItemSaveRequest@QtMobility@@UBEPBUQMetaObject@@XZ @ 687 NONAME ; struct QMetaObject const * QtMobility::QOrganizerItemSaveRequest::metaObject(void) const
	?qt_metacall@QOrganizerItemManagerEngine@QtMobility@@UAEHW4Call@QMetaObject@@HPAPAX@Z @ 688 NONAME ; int QtMobility::QOrganizerItemManagerEngine::qt_metacall(enum QMetaObject::Call, int, void * *)
	?staticMetaObject@QOrganizerItemLocalIdFetchRequest@QtMobility@@2UQMetaObject@@B @ 689 NONAME ; struct QMetaObject const QtMobility::QOrganizerItemLocalIdFetchRequest::staticMetaObject
	?tr@QOrganizerItemDetailDefinitionRemoveRequest@QtMobility@@SA?AVQString@@PBD0H@Z @ 690 NONAME ; class QString QtMobility::QOrganizerItemDetailDefinitionRemoveRequest::tr(char const *, char const *, int)
	??0QOrganizerItemChangeSet@QtMobility@@QAE@XZ @ 691 NONAME ; QtMobility::QOrganizerItemChangeSet::QOrganizerItemChangeSet(void)
	?detailFieldName@QOrganizerItemDetailFilter@QtMobility@@QBE?AVQString@@XZ @ 692 NONAME ; class QString QtMobility::QOrganizerItemDetailFilter::detailFieldName(void) const
	?insertChangedItems@QOrganizerItemChangeSet@QtMobility@@QAEXABV?$QList@VQOrganizerItemLocalId@QtMobility@@@@@Z @ 693 NONAME ; void QtMobility::QOrganizerItemChangeSet::insertChangedItems(class QList<class QtMobility::QOrganizerItemLocalId> const &)
	?setDescription@QOrganizerItem@QtMobility@@QAEXABVQOrganizerItemDescription@2@@Z @ 694 NONAME ; void QtMobility::QOrganizerItem::setDescription(class QtMobility::QOrganizerItemDescription const &)
	?errorMap@QOrganizerItemRemoveRequest@QtMobility@@QBE?AV?$QMap@HW4Error@QOrganizerItemManager@QtMobility@@@@XZ @ 695 NONAME ; class QMap<int, enum QtMobility::QOrganizerItemManager::Error> QtMobility::QOrganizerItemRemoveRequest::errorMap(void) const
	?definitionNames@QOrganizerItemDetailDefinitionRemoveRequest@QtMobility@@QBE?AVQStringList@@XZ @ 696 NONAME ; class QStringList QtMobility::QOrganizerItemDetailDefinitionRemoveRequest::definitionNames(void) const
	??9QOrganizerItemSortOrder@QtMobility@@QBE_NABV01@@Z @ 697 NONAME ; bool QtMobility::QOrganizerItemSortOrder::operator!=(class QtMobility::QOrganizerItemSortOrder const &) const
	??0QOrganizerCollectionLocalId@QtMobility@@QAE@XZ @ 698 NONAME ; QtMobility::QOrganizerCollectionLocalId::QOrganizerCollectionLocalId(void)
	?reminderType@QOrganizerItemReminder@QtMobility@@QBE?AW4ReminderType@12@XZ @ 699 NONAME ; enum QtMobility::QOrganizerItemReminder::ReminderType QtMobility::QOrganizerItemReminder::reminderType(void) const
	?setGenerator@QOrganizerItemInstanceFetchRequest@QtMobility@@QAEXABVQOrganizerItem@2@@Z @ 700 NONAME ; void QtMobility::QOrganizerItemInstanceFetchRequest::setGenerator(class QtMobility::QOrganizerItem const &)
	?qt_metacall@QOrganizerItemRemoveRequest@QtMobility@@UAEHW4Call@QMetaObject@@HPAPAX@Z @ 701 NONAME ; int QtMobility::QOrganizerItemRemoveRequest::qt_metacall(enum QMetaObject::Call, int, void * *)
	??_EQOrganizerItemAbstractRequest@QtMobility@@UAE@I@Z @ 702 NONAME ; QtMobility::QOrganizerItemAbstractRequest::~QOrganizerItemAbstractRequest(unsigned int)
	?d_func@QOrganizerItemDetailRangeFilter@QtMobility@@ABEPBVQOrganizerItemDetailRangeFilterPrivate@2@XZ @ 703 NONAME ; class QtMobility::QOrganizerItemDetailRangeFilterPrivate const * QtMobility::QOrganizerItemDetailRangeFilter::d_func(void) const
	?managerUri@QOrganizerItemManager@QtMobility@@QBE?AVQString@@XZ @ 704 NONAME ; class QString QtMobility::QOrganizerItemManager::managerUri(void) const
	??1QOrganizerItemTimestamp@QtMobility@@QAE@XZ @ 705 NONAME ; QtMobility::QOrganizerItemTimestamp::~QOrganizerItemTimestamp(void)
	??0QOrganizerItem@QtMobility@@IAE@ABV01@PBD@Z @ 706 NONAME ; QtMobility::QOrganizerItem::QOrganizerItem(class QtMobility::QOrganizerItem const &, char const *)
	??1QOrganizerItemManagerEngineFactory@QtMobility@@UAE@XZ @ 707 NONAME ; QtMobility::QOrganizerItemManagerEngineFactory::~QOrganizerItemManagerEngineFactory(void)
	??0QOrganizerCollection@QtMobility@@QAE@ABV01@@Z @ 708 NONAME ; QtMobility::QOrganizerCollection::QOrganizerCollection(class QtMobility::QOrganizerCollection const &)
	??4QOrganizerItemInstanceOrigin@QtMobility@@QAEAAV01@ABVQOrganizerItemDetail@1@@Z @ 709 NONAME ; class QtMobility::QOrganizerItemInstanceOrigin & QtMobility::QOrganizerItemInstanceOrigin::operator=(class QtMobility::QOrganizerItemDetail const &)
	??1QOrganizerCollectionId@QtMobility@@QAE@XZ @ 710 NONAME ; QtMobility::QOrganizerCollectionId::~QOrganizerCollectionId(void)
	??0QOrganizerItemDetail@QtMobility@@QAE@PBD@Z @ 711 NONAME ; QtMobility::QOrganizerItemDetail::QOrganizerItemDetail(char const *)
	??0QOrganizerItemFetchHint@QtMobility@@QAE@ABV01@@Z @ 712 NONAME ; QtMobility::QOrganizerItemFetchHint::QOrganizerItemFetchHint(class QtMobility::QOrganizerItemFetchHint const &)
	?managerName@QOrganizerItemManagerEngine@QtMobility@@UBE?AVQString@@XZ @ 713 NONAME ; class QString QtMobility::QOrganizerItemManagerEngine::managerName(void) const
	?FieldRecurrenceDates@QOrganizerItemRecurrence@QtMobility@@2U?$QLatin1Constant@$0BA@@2@B @ 714 NONAME ; struct QtMobility::QLatin1Constant<16> const QtMobility::QOrganizerItemRecurrence::FieldRecurrenceDates
	?startDateTime@QOrganizerTodo@QtMobility@@QBE?AVQDateTime@@XZ @ 715 NONAME ; class QDateTime QtMobility::QOrganizerTodo::startDateTime(void) const
	?finishedDateTime@QOrganizerTodo@QtMobility@@QBE?AVQDateTime@@XZ @ 716 NONAME ; class QDateTime QtMobility::QOrganizerTodo::finishedDateTime(void) const
	??0QOrganizerItemFilter@QtMobility@@QAE@ABV01@@Z @ 717 NONAME ; QtMobility::QOrganizerItemFilter::QOrganizerItemFilter(class QtMobility::QOrganizerItemFilter const &)
	?isNull@QOrganizerCollectionId@QtMobility@@QBE_NXZ @ 718 NONAME ; bool QtMobility::QOrganizerCollectionId::isNull(void) const
	?tr@QOrganizerItemDetailDefinitionRemoveRequest@QtMobility@@SA?AVQString@@PBD0@Z @ 719 NONAME ; class QString QtMobility::QOrganizerItemDetailDefinitionRemoveRequest::tr(char const *, char const *)
	?FieldFinishedDateTime@QOrganizerTodoProgress@QtMobility@@2U?$QLatin1Constant@$0BB@@2@B @ 720 NONAME ; struct QtMobility::QLatin1Constant<17> const QtMobility::QOrganizerTodoProgress::FieldFinishedDateTime
	?emitSignals@QOrganizerItemChangeSet@QtMobility@@QAEXPAVQOrganizerItemManagerEngine@2@@Z @ 721 NONAME ; void QtMobility::QOrganizerItemChangeSet::emitSignals(class QtMobility::QOrganizerItemManagerEngine *)
	?assign@QOrganizerItem@QtMobility@@IAEAAV12@ABV12@PBD@Z @ 722 NONAME ; class QtMobility::QOrganizerItem & QtMobility::QOrganizerItem::assign(class QtMobility::QOrganizerItem const &, char const *)
	?removeField@QOrganizerItemDetailDefinition@QtMobility@@QAEXABVQString@@@Z @ 723 NONAME ; void QtMobility::QOrganizerItemDetailDefinition::removeField(class QString const &)
	?qt_metacall@QOrganizerItemSaveRequest@QtMobility@@UAEHW4Call@QMetaObject@@HPAPAX@Z @ 724 NONAME ; int QtMobility::QOrganizerItemSaveRequest::qt_metacall(enum QMetaObject::Call, int, void * *)
	?qt_metacall@QOrganizerItemManager@QtMobility@@UAEHW4Call@QMetaObject@@HPAPAX@Z @ 725 NONAME ; int QtMobility::QOrganizerItemManager::qt_metacall(enum QMetaObject::Call, int, void * *)
	?prepend@QOrganizerItemUnionFilter@QtMobility@@QAEXABVQOrganizerItemFilter@2@@Z @ 726 NONAME ; void QtMobility::QOrganizerItemUnionFilter::prepend(class QtMobility::QOrganizerItemFilter const &)
	?detailFieldName@QOrganizerItemDetailRangeFilter@QtMobility@@QBE?AVQString@@XZ @ 727 NONAME ; class QString QtMobility::QOrganizerItemDetailRangeFilter::detailFieldName(void) const
	?metaObject@QOrganizerItemFetchForExportRequest@QtMobility@@UBEPBUQMetaObject@@XZ @ 728 NONAME ; struct QMetaObject const * QtMobility::QOrganizerItemFetchForExportRequest::metaObject(void) const
	?percentageComplete@QOrganizerTodoProgress@QtMobility@@QBEHXZ @ 729 NONAME ; int QtMobility::QOrganizerTodoProgress::percentageComplete(void) const
	??4QOrganizerItemEmailReminder@QtMobility@@QAEAAV01@ABVQOrganizerItemDetail@1@@Z @ 730 NONAME ; class QtMobility::QOrganizerItemEmailReminder & QtMobility::QOrganizerItemEmailReminder::operator=(class QtMobility::QOrganizerItemDetail const &)
	??4QOrganizerItemDescription@QtMobility@@QAEAAV01@ABVQOrganizerItemDetail@1@@Z @ 731 NONAME ; class QtMobility::QOrganizerItemDescription & QtMobility::QOrganizerItemDescription::operator=(class QtMobility::QOrganizerItemDetail const &)
	?longitude@QOrganizerItemLocation@QtMobility@@QBENXZ @ 732 NONAME ; double QtMobility::QOrganizerItemLocation::longitude(void) const
	?trUtf8@QOrganizerItemSaveRequest@QtMobility@@SA?AVQString@@PBD0@Z @ 733 NONAME ; class QString QtMobility::QOrganizerItemSaveRequest::trUtf8(char const *, char const *)
	??1QOrganizerItemEngineLocalId@QtMobility@@UAE@XZ @ 734 NONAME ; QtMobility::QOrganizerItemEngineLocalId::~QOrganizerItemEngineLocalId(void)
	?d_func@QOrganizerItemUnionFilter@QtMobility@@ABEPBVQOrganizerItemUnionFilterPrivate@2@XZ @ 735 NONAME ; class QtMobility::QOrganizerItemUnionFilterPrivate const * QtMobility::QOrganizerItemUnionFilter::d_func(void) const
	??4QOrganizerItemDisplayLabel@QtMobility@@QAEAAV01@ABVQOrganizerItemDetail@1@@Z @ 736 NONAME ; class QtMobility::QOrganizerItemDisplayLabel & QtMobility::QOrganizerItemDisplayLabel::operator=(class QtMobility::QOrganizerItemDetail const &)
	?trUtf8@QOrganizerCollectionRemoveRequest@QtMobility@@SA?AVQString@@PBD0H@Z @ 737 NONAME ; class QString QtMobility::QOrganizerCollectionRemoveRequest::trUtf8(char const *, char const *, int)
	??0QOrganizerItemComment@QtMobility@@QAE@ABVQOrganizerItemDetail@1@@Z @ 738 NONAME ; QtMobility::QOrganizerItemComment::QOrganizerItemComment(class QtMobility::QOrganizerItemDetail const &)
	?TypeTodoOccurrence@QOrganizerItemType@QtMobility@@2U?$QLatin1Constant@$0P@@2@B @ 739 NONAME ; struct QtMobility::QLatin1Constant<15> const QtMobility::QOrganizerItemType::TypeTodoOccurrence
	??0QOrganizerItemDetail@QtMobility@@QAE@ABV01@@Z @ 740 NONAME ; QtMobility::QOrganizerItemDetail::QOrganizerItemDetail(class QtMobility::QOrganizerItemDetail const &)
	?setStatus@QOrganizerTodo@QtMobility@@QAEXW4Status@QOrganizerTodoProgress@2@@Z @ 741 NONAME ; void QtMobility::QOrganizerTodo::setStatus(enum QtMobility::QOrganizerTodoProgress::Status)
	?setRecipients@QOrganizerItemEmailReminder@QtMobility@@QAEXABVQStringList@@@Z @ 742 NONAME ; void QtMobility::QOrganizerItemEmailReminder::setRecipients(class QStringList const &)
	?error@QOrganizerItemAbstractRequest@QtMobility@@QBE?AW4Error@QOrganizerItemManager@2@XZ @ 743 NONAME ; enum QtMobility::QOrganizerItemManager::Error QtMobility::QOrganizerItemAbstractRequest::error(void) const
	??8QOrganizerItem@QtMobility@@QBE_NABV01@@Z @ 744 NONAME ; bool QtMobility::QOrganizerItem::operator==(class QtMobility::QOrganizerItem const &) const
	?removeItem@QOrganizerItemManagerEngine@QtMobility@@UAE_NABVQOrganizerItemLocalId@2@PAW4Error@QOrganizerItemManager@2@@Z @ 745 NONAME ; bool QtMobility::QOrganizerItemManagerEngine::removeItem(class QtMobility::QOrganizerItemLocalId const &, enum QtMobility::QOrganizerItemManager::Error *)
	?FieldPriority@QOrganizerItemPriority@QtMobility@@2U?$QLatin1Constant@$08@2@B @ 746 NONAME ; struct QtMobility::QLatin1Constant<9> const QtMobility::QOrganizerItemPriority::FieldPriority
	??0QOrganizerTodoProgress@QtMobility@@QAE@ABVQOrganizerItemDetail@1@@Z @ 747 NONAME ; QtMobility::QOrganizerTodoProgress::QOrganizerTodoProgress(class QtMobility::QOrganizerItemDetail const &)
	??0QOrganizerItemRecurrence@QtMobility@@QAE@XZ @ 748 NONAME ; QtMobility::QOrganizerItemRecurrence::QOrganizerItemRecurrence(void)
	??1QOrganizerItemAbstractRequest@QtMobility@@UAE@XZ @ 749 NONAME ; QtMobility::QOrganizerItemAbstractRequest::~QOrganizerItemAbstractRequest(void)
	?setId@QOrganizerCollection@QtMobility@@QAEXABVQOrganizerCollectionId@2@@Z @ 750 NONAME ; void QtMobility::QOrganizerCollection::setId(class QtMobility::QOrganizerCollectionId const &)
	?definitions@QOrganizerItemDetailDefinitionSaveRequest@QtMobility@@QBE?AV?$QList@VQOrganizerItemDetailDefinition@QtMobility@@@@XZ @ 751 NONAME ; class QList<class QtMobility::QOrganizerItemDetailDefinition> QtMobility::QOrganizerItemDetailDefinitionSaveRequest::definitions(void) const
	??4QOrganizerItemFilter@QtMobility@@QAEAAV01@ABV01@@Z @ 752 NONAME ; class QtMobility::QOrganizerItemFilter & QtMobility::QOrganizerItemFilter::operator=(class QtMobility::QOrganizerItemFilter const &)
	??0QOrganizerItemLocalId@QtMobility@@QAE@ABV01@@Z @ 753 NONAME ; QtMobility::QOrganizerItemLocalId::QOrganizerItemLocalId(class QtMobility::QOrganizerItemLocalId const &)
	?setInterval@QOrganizerItemRecurrenceRule@QtMobility@@QAEXH@Z @ 754 NONAME ; void QtMobility::QOrganizerItemRecurrenceRule::setInterval(int)
	?setItemType@QOrganizerItemDetailDefinitionRemoveRequest@QtMobility@@QAEXABVQString@@@Z @ 755 NONAME ; void QtMobility::QOrganizerItemDetailDefinitionRemoveRequest::setItemType(class QString const &)
	?getStaticMetaObject@QOrganizerCollectionRemoveRequest@QtMobility@@SAABUQMetaObject@@XZ @ 756 NONAME ; struct QMetaObject const & QtMobility::QOrganizerCollectionRemoveRequest::getStaticMetaObject(void)
	?setMetaData@QOrganizerCollection@QtMobility@@QAEXABVQString@@ABVQVariant@@@Z @ 757 NONAME ; void QtMobility::QOrganizerCollection::setMetaData(class QString const &, class QVariant const &)
	?qt_metacast@QOrganizerItemDetailDefinitionSaveRequest@QtMobility@@UAEPAXPBD@Z @ 758 NONAME ; void * QtMobility::QOrganizerItemDetailDefinitionSaveRequest::qt_metacast(char const *)
	?setCollection@QOrganizerCollectionSaveRequest@QtMobility@@QAEXABVQOrganizerCollection@2@@Z @ 759 NONAME ; void QtMobility::QOrganizerCollectionSaveRequest::setCollection(class QtMobility::QOrganizerCollection const &)
	?metaObject@QOrganizerCollectionFetchRequest@QtMobility@@UBEPBUQMetaObject@@XZ @ 760 NONAME ; struct QMetaObject const * QtMobility::QOrganizerCollectionFetchRequest::metaObject(void) const
	?staticMetaObject@QOrganizerItemAbstractRequest@QtMobility@@2UQMetaObject@@B @ 761 NONAME ; struct QMetaObject const QtMobility::QOrganizerItemAbstractRequest::staticMetaObject
	?isValid@QOrganizerItemSortOrder@QtMobility@@QBE_NXZ @ 762 NONAME ; bool QtMobility::QOrganizerItemSortOrder::isValid(void) const
	?setUnique@QOrganizerItemDetailDefinition@QtMobility@@QAEX_N@Z @ 763 NONAME ; void QtMobility::QOrganizerItemDetailDefinition::setUnique(bool)
	?dueDateTime@QOrganizerTodo@QtMobility@@QBE?AVQDateTime@@XZ @ 764 NONAME ; class QDateTime QtMobility::QOrganizerTodo::dueDateTime(void) const
	?trUtf8@QOrganizerCollectionSaveRequest@QtMobility@@SA?AVQString@@PBD0H@Z @ 765 NONAME ; class QString QtMobility::QOrganizerCollectionSaveRequest::trUtf8(char const *, char const *, int)
	??4QOrganizerItemDetailDefinition@QtMobility@@QAEAAV01@ABV01@@Z @ 766 NONAME ; class QtMobility::QOrganizerItemDetailDefinition & QtMobility::QOrganizerItemDetailDefinition::operator=(class QtMobility::QOrganizerItemDetailDefinition const &)
	?FieldComment@QOrganizerItemComment@QtMobility@@2U?$QLatin1Constant@$07@2@B @ 767 NONAME ; struct QtMobility::QLatin1Constant<8> const QtMobility::QOrganizerItemComment::FieldComment
	?cancel@QOrganizerItemAbstractRequest@QtMobility@@QAE_NXZ @ 768 NONAME ; bool QtMobility::QOrganizerItemAbstractRequest::cancel(void)
	?type@QOrganizerItemFilter@QtMobility@@QBE?AW4FilterType@12@XZ @ 769 NONAME ; enum QtMobility::QOrganizerItemFilter::FilterType QtMobility::QOrganizerItemFilter::type(void) const
	?DefinitionName@QOrganizerTodoTimeRange@QtMobility@@2U?$QLatin1Constant@$0O@@2@B @ 770 NONAME ; struct QtMobility::QLatin1Constant<14> const QtMobility::QOrganizerTodoTimeRange::DefinitionName
	?FieldTimeSpecified@QOrganizerTodoTimeRange@QtMobility@@2U?$QLatin1Constant@$0O@@2@B @ 771 NONAME ; struct QtMobility::QLatin1Constant<14> const QtMobility::QOrganizerTodoTimeRange::FieldTimeSpecified
	?DefinitionName@QOrganizerItemAudibleReminder@QtMobility@@2U?$QLatin1Constant@$0BA@@2@B @ 772 NONAME ; struct QtMobility::QLatin1Constant<16> const QtMobility::QOrganizerItemAudibleReminder::DefinitionName
	?setDaysOfWeek@QOrganizerItemRecurrenceRule@QtMobility@@QAEXABV?$QSet@W4DayOfWeek@Qt@@@@@Z @ 773 NONAME ; void QtMobility::QOrganizerItemRecurrenceRule::setDaysOfWeek(class QSet<enum Qt::DayOfWeek> const &)
	??5QtMobility@@YAAAVQDataStream@@AAV1@AAVQOrganizerCollectionId@0@@Z @ 774 NONAME ; class QDataStream & QtMobility::operator>>(class QDataStream &, class QtMobility::QOrganizerCollectionId &)
	?detail@QOrganizerItem@QtMobility@@QBE?AVQOrganizerItemDetail@2@PBD@Z @ 775 NONAME ; class QtMobility::QOrganizerItemDetail QtMobility::QOrganizerItem::detail(char const *) const
	?setExceptionDates@QOrganizerItemRecurrence@QtMobility@@QAEXABV?$QSet@VQDate@@@@@Z @ 776 NONAME ; void QtMobility::QOrganizerItemRecurrence::setExceptionDates(class QSet<class QDate> const &)
	?d_func@QOrganizerItemSaveRequest@QtMobility@@AAEPAVQOrganizerItemSaveRequestPrivate@2@XZ @ 777 NONAME ; class QtMobility::QOrganizerItemSaveRequestPrivate * QtMobility::QOrganizerItemSaveRequest::d_func(void)
	??0QOrganizerTodoOccurrence@QtMobility@@QAE@XZ @ 778 NONAME ; QtMobility::QOrganizerTodoOccurrence::QOrganizerTodoOccurrence(void)
	?tr@QOrganizerCollectionFetchRequest@QtMobility@@SA?AVQString@@PBD0@Z @ 779 NONAME ; class QString QtMobility::QOrganizerCollectionFetchRequest::tr(char const *, char const *)
	?collections@QOrganizerItemManager@QtMobility@@QBE?AV?$QList@VQOrganizerCollection@QtMobility@@@@XZ @ 780 NONAME ; class QList<class QtMobility::QOrganizerCollection> QtMobility::QOrganizerItemManager::collections(void) const
	?qt_metacall@QOrganizerItemDetailDefinitionFetchRequest@QtMobility@@UAEHW4Call@QMetaObject@@HPAPAX@Z @ 781 NONAME ; int QtMobility::QOrganizerItemDetailDefinitionFetchRequest::qt_metacall(enum QMetaObject::Call, int, void * *)
	?clearDetails@QOrganizerItem@QtMobility@@QAEXXZ @ 782 NONAME ; void QtMobility::QOrganizerItem::clearDetails(void)
	??0QOrganizerCollectionLocalId@QtMobility@@QAE@ABV01@@Z @ 783 NONAME ; QtMobility::QOrganizerCollectionLocalId::QOrganizerCollectionLocalId(class QtMobility::QOrganizerCollectionLocalId const &)
	?tr@QOrganizerItemManager@QtMobility@@SA?AVQString@@PBD0H@Z @ 784 NONAME ; class QString QtMobility::QOrganizerItemManager::tr(char const *, char const *, int)
	??1QOrganizerItemFilter@QtMobility@@QAE@XZ @ 785 NONAME ; QtMobility::QOrganizerItemFilter::~QOrganizerItemFilter(void)
	?setRecurrenceRules@QOrganizerEvent@QtMobility@@QAEXABV?$QSet@VQOrganizerItemRecurrenceRule@QtMobility@@@@@Z @ 786 NONAME ; void QtMobility::QOrganizerEvent::setRecurrenceRules(class QSet<class QtMobility::QOrganizerItemRecurrenceRule> const &)
	?endDate@QOrganizerItemLocalIdFetchRequest@QtMobility@@QBE?AVQDateTime@@XZ @ 787 NONAME ; class QDateTime QtMobility::QOrganizerItemLocalIdFetchRequest::endDate(void) const
	?setLatitude@QOrganizerItemLocation@QtMobility@@QAEXN@Z @ 788 NONAME ; void QtMobility::QOrganizerItemLocation::setLatitude(double)
	?name@QOrganizerItemDetailDefinition@QtMobility@@QBE?AVQString@@XZ @ 789 NONAME ; class QString QtMobility::QOrganizerItemDetailDefinition::name(void) const
	?qt_metacast@QOrganizerCollectionFetchRequest@QtMobility@@UAEPAXPBD@Z @ 790 NONAME ; void * QtMobility::QOrganizerCollectionFetchRequest::qt_metacast(char const *)
	?isTimeSpecified@QOrganizerEvent@QtMobility@@QBE_NXZ @ 791 NONAME ; bool QtMobility::QOrganizerEvent::isTimeSpecified(void) const
	??1QOrganizerItemDescription@QtMobility@@QAE@XZ @ 792 NONAME ; QtMobility::QOrganizerItemDescription::~QOrganizerItemDescription(void)
	?setGuid@QOrganizerItemGuid@QtMobility@@QAEXABVQString@@@Z @ 793 NONAME ; void QtMobility::QOrganizerItemGuid::setGuid(class QString const &)
	?setSince@QOrganizerItemChangeLogFilter@QtMobility@@QAEXABVQDateTime@@@Z @ 794 NONAME ; void QtMobility::QOrganizerItemChangeLogFilter::setSince(class QDateTime const &)
	?insertAddedCollections@QOrganizerCollectionChangeSet@QtMobility@@QAEXABV?$QList@VQOrganizerCollectionLocalId@QtMobility@@@@@Z @ 795 NONAME ; void QtMobility::QOrganizerCollectionChangeSet::insertAddedCollections(class QList<class QtMobility::QOrganizerCollectionLocalId> const &)
	??_EQOrganizerItemDetailDefinitionRemoveRequest@QtMobility@@UAE@I@Z @ 796 NONAME ; QtMobility::QOrganizerItemDetailDefinitionRemoveRequest::~QOrganizerItemDetailDefinitionRemoveRequest(unsigned int)
	?getStaticMetaObject@QOrganizerItemManagerEngine@QtMobility@@SAABUQMetaObject@@XZ @ 797 NONAME ; struct QMetaObject const & QtMobility::QOrganizerItemManagerEngine::getStaticMetaObject(void)
	?setLabel@QOrganizerItemDisplayLabel@QtMobility@@QAEXABVQString@@@Z @ 798 NONAME ; void QtMobility::QOrganizerItemDisplayLabel::setLabel(class QString const &)
	?resultsAvailable@QOrganizerItemAbstractRequest@QtMobility@@IAEXXZ @ 799 NONAME ; void QtMobility::QOrganizerItemAbstractRequest::resultsAvailable(void)
	?updateItemFetchRequest@QOrganizerItemManagerEngine@QtMobility@@SAXPAVQOrganizerItemFetchRequest@2@ABV?$QList@VQOrganizerItem@QtMobility@@@@W4Error@QOrganizerItemManager@2@W4State@QOrganizerItemAbstractRequest@2@@Z @ 800 NONAME ; void QtMobility::QOrganizerItemManagerEngine::updateItemFetchRequest(class QtMobility::QOrganizerItemFetchRequest *, class QList<class QtMobility::QOrganizerItem> const &, enum QtMobility::QOrganizerItemManager::Error, enum QtMobility::QOrganizerItemAbstractRequest::State)
	?blankPolicy@QOrganizerItemSortOrder@QtMobility@@QBE?AW4BlankPolicy@12@XZ @ 801 NONAME ; enum QtMobility::QOrganizerItemSortOrder::BlankPolicy QtMobility::QOrganizerItemSortOrder::blankPolicy(void) const
	?clearAddedCollections@QOrganizerCollectionChangeSet@QtMobility@@QAEXXZ @ 802 NONAME ; void QtMobility::QOrganizerCollectionChangeSet::clearAddedCollections(void)
	?originalDate@QOrganizerTodoOccurrence@QtMobility@@QBE?AVQDate@@XZ @ 803 NONAME ; class QDate QtMobility::QOrganizerTodoOccurrence::originalDate(void) const
	?qt_metacast@QOrganizerCollectionRemoveRequest@QtMobility@@UAEPAXPBD@Z @ 804 NONAME ; void * QtMobility::QOrganizerCollectionRemoveRequest::qt_metacast(char const *)
	?managerVersion@QOrganizerItemManager@QtMobility@@QBEHXZ @ 805 NONAME ; int QtMobility::QOrganizerItemManager::managerVersion(void) const
	?setId@QOrganizerItem@QtMobility@@QAEXABVQOrganizerItemId@2@@Z @ 806 NONAME ; void QtMobility::QOrganizerItem::setId(class QtMobility::QOrganizerItemId const &)
	?setStatus@QOrganizerTodoProgress@QtMobility@@QAEXW4Status@12@@Z @ 807 NONAME ; void QtMobility::QOrganizerTodoProgress::setStatus(enum QtMobility::QOrganizerTodoProgress::Status)
	?interval@QOrganizerItemRecurrenceRule@QtMobility@@QBEHXZ @ 808 NONAME ; int QtMobility::QOrganizerItemRecurrenceRule::interval(void) const
	?compatibleCollection@QOrganizerItemManagerEngine@QtMobility@@UBE?AVQOrganizerCollection@2@ABV32@PAW4Error@QOrganizerItemManager@2@@Z @ 809 NONAME ; class QtMobility::QOrganizerCollection QtMobility::QOrganizerItemManagerEngine::compatibleCollection(class QtMobility::QOrganizerCollection const &, enum QtMobility::QOrganizerItemManager::Error *) const
	??0QOrganizerItemDisplayLabel@QtMobility@@QAE@XZ @ 810 NONAME ; QtMobility::QOrganizerItemDisplayLabel::QOrganizerItemDisplayLabel(void)
	?setEndDateTime@QOrganizerEventTimeRange@QtMobility@@QAEXABVQDateTime@@@Z @ 811 NONAME ; void QtMobility::QOrganizerEventTimeRange::setEndDateTime(class QDateTime const &)
	??4QOrganizerItemDetailFieldDefinition@QtMobility@@QAEAAV01@ABV01@@Z @ 812 NONAME ; class QtMobility::QOrganizerItemDetailFieldDefinition & QtMobility::QOrganizerItemDetailFieldDefinition::operator=(class QtMobility::QOrganizerItemDetailFieldDefinition const &)
	??0QOrganizerCollectionRemoveRequest@QtMobility@@QAE@PAVQObject@@@Z @ 813 NONAME ; QtMobility::QOrganizerCollectionRemoveRequest::QOrganizerCollectionRemoveRequest(class QObject *)
	?DefinitionName@QOrganizerItemDescription@QtMobility@@2U?$QLatin1Constant@$0M@@2@B @ 814 NONAME ; struct QtMobility::QLatin1Constant<12> const QtMobility::QOrganizerItemDescription::DefinitionName
	?itemIds@QOrganizerItemLocalIdFetchRequest@QtMobility@@QBE?AV?$QList@VQOrganizerItemLocalId@QtMobility@@@@XZ @ 815 NONAME ; class QList<class QtMobility::QOrganizerItemLocalId> QtMobility::QOrganizerItemLocalIdFetchRequest::itemIds(void) const
	?sortItems@QOrganizerItemManagerEngine@QtMobility@@SA?AV?$QList@VQOrganizerItemLocalId@QtMobility@@@@ABV?$QList@VQOrganizerItem@QtMobility@@@@ABV?$QList@VQOrganizerItemSortOrder@QtMobility@@@@@Z @ 816 NONAME ; class QList<class QtMobility::QOrganizerItemLocalId> QtMobility::QOrganizerItemManagerEngine::sortItems(class QList<class QtMobility::QOrganizerItem> const &, class QList<class QtMobility::QOrganizerItemSortOrder> const &)
	?trUtf8@QOrganizerItemDetailDefinitionRemoveRequest@QtMobility@@SA?AVQString@@PBD0@Z @ 817 NONAME ; class QString QtMobility::QOrganizerItemDetailDefinitionRemoveRequest::trUtf8(char const *, char const *)
	??MQOrganizerItemLocalId@QtMobility@@QBE_NABV01@@Z @ 818 NONAME ; bool QtMobility::QOrganizerItemLocalId::operator<(class QtMobility::QOrganizerItemLocalId const &) const
	?recurrenceRules@QOrganizerEvent@QtMobility@@QBE?AV?$QSet@VQOrganizerItemRecurrenceRule@QtMobility@@@@XZ @ 819 NONAME ; class QSet<class QtMobility::QOrganizerItemRecurrenceRule> QtMobility::QOrganizerEvent::recurrenceRules(void) const
	?qt_metacast@QOrganizerItemFetchRequest@QtMobility@@UAEPAXPBD@Z @ 820 NONAME ; void * QtMobility::QOrganizerItemFetchRequest::qt_metacast(char const *)
	??MQOrganizerItemId@QtMobility@@QBE_NABV01@@Z @ 821 NONAME ; bool QtMobility::QOrganizerItemId::operator<(class QtMobility::QOrganizerItemId const &) const
	?dueDateTime@QOrganizerTodoTimeRange@QtMobility@@QBE?AVQDateTime@@XZ @ 822 NONAME ; class QDateTime QtMobility::QOrganizerTodoTimeRange::dueDateTime(void) const
	?getStaticMetaObject@QOrganizerItemDetailDefinitionFetchRequest@QtMobility@@SAABUQMetaObject@@XZ @ 823 NONAME ; struct QMetaObject const & QtMobility::QOrganizerItemDetailDefinitionFetchRequest::getStaticMetaObject(void)
	?setDataType@QOrganizerItemDetailFieldDefinition@QtMobility@@QAEXH@Z @ 824 NONAME ; void QtMobility::QOrganizerItemDetailFieldDefinition::setDataType(int)
	?trUtf8@QOrganizerItemDetailDefinitionFetchRequest@QtMobility@@SA?AVQString@@PBD0@Z @ 825 NONAME ; class QString QtMobility::QOrganizerItemDetailDefinitionFetchRequest::trUtf8(char const *, char const *)
	?getStaticMetaObject@QOrganizerItemLocalIdFetchRequest@QtMobility@@SAABUQMetaObject@@XZ @ 826 NONAME ; struct QMetaObject const & QtMobility::QOrganizerItemLocalIdFetchRequest::getStaticMetaObject(void)
	?FieldStatus@QOrganizerTodoProgress@QtMobility@@2U?$QLatin1Constant@$06@2@B @ 827 NONAME ; struct QtMobility::QLatin1Constant<7> const QtMobility::QOrganizerTodoProgress::FieldStatus
	?collections@QOrganizerItemManagerEngine@QtMobility@@UBE?AV?$QList@VQOrganizerCollection@QtMobility@@@@PAW4Error@QOrganizerItemManager@2@@Z @ 828 NONAME ; class QList<class QtMobility::QOrganizerCollection> QtMobility::QOrganizerItemManagerEngine::collections(enum QtMobility::QOrganizerItemManager::Error *) const
	?setFilters@QOrganizerItemUnionFilter@QtMobility@@QAEXABV?$QList@VQOrganizerItemFilter@QtMobility@@@@@Z @ 829 NONAME ; void QtMobility::QOrganizerItemUnionFilter::setFilters(class QList<class QtMobility::QOrganizerItemFilter> const &)
	?d_func@QOrganizerItemLocalIdFetchRequest@QtMobility@@ABEPBVQOrganizerItemLocalIdFetchRequestPrivate@2@XZ @ 830 NONAME ; class QtMobility::QOrganizerItemLocalIdFetchRequestPrivate const * QtMobility::QOrganizerItemLocalIdFetchRequest::d_func(void) const
	?filters@QOrganizerItemIntersectionFilter@QtMobility@@QBE?AV?$QList@VQOrganizerItemFilter@QtMobility@@@@XZ @ 831 NONAME ; class QList<class QtMobility::QOrganizerItemFilter> QtMobility::QOrganizerItemIntersectionFilter::filters(void) const
	?saveCollection@QOrganizerItemManagerEngine@QtMobility@@UAE_NPAVQOrganizerCollection@2@PAW4Error@QOrganizerItemManager@2@@Z @ 832 NONAME ; bool QtMobility::QOrganizerItemManagerEngine::saveCollection(class QtMobility::QOrganizerCollection *, enum QtMobility::QOrganizerItemManager::Error *)
	?setExceptionRules@QOrganizerItemRecurrence@QtMobility@@QAEXABV?$QSet@VQOrganizerItemRecurrenceRule@QtMobility@@@@@Z @ 833 NONAME ; void QtMobility::QOrganizerItemRecurrence::setExceptionRules(class QSet<class QtMobility::QOrganizerItemRecurrenceRule> const &)
	?setFilter@QOrganizerItemLocalIdFetchRequest@QtMobility@@QAEXABVQOrganizerItemFilter@2@@Z @ 834 NONAME ; void QtMobility::QOrganizerItemLocalIdFetchRequest::setFilter(class QtMobility::QOrganizerItemFilter const &)
	??0QOrganizerItemRecurrenceRule@QtMobility@@QAE@ABV01@@Z @ 835 NONAME ; QtMobility::QOrganizerItemRecurrenceRule::QOrganizerItemRecurrenceRule(class QtMobility::QOrganizerItemRecurrenceRule const &)
	?DefinitionName@QOrganizerTodoProgress@QtMobility@@2U?$QLatin1Constant@$0N@@2@B @ 836 NONAME ; struct QtMobility::QLatin1Constant<13> const QtMobility::QOrganizerTodoProgress::DefinitionName
	?insertField@QOrganizerItemDetailDefinition@QtMobility@@QAEXABVQString@@ABVQOrganizerItemDetailFieldDefinition@2@@Z @ 837 NONAME ; void QtMobility::QOrganizerItemDetailDefinition::insertField(class QString const &, class QtMobility::QOrganizerItemDetailFieldDefinition const &)
	?removeItem@QOrganizerItemManager@QtMobility@@QAE_NABVQOrganizerItemLocalId@2@@Z @ 838 NONAME ; bool QtMobility::QOrganizerItemManager::removeItem(class QtMobility::QOrganizerItemLocalId const &)
	?setDescription@QOrganizerItem@QtMobility@@QAEXABVQString@@@Z @ 839 NONAME ; void QtMobility::QOrganizerItem::setDescription(class QString const &)
	??1QOrganizerItemDetailDefinitionSaveRequest@QtMobility@@UAE@XZ @ 840 NONAME ; QtMobility::QOrganizerItemDetailDefinitionSaveRequest::~QOrganizerItemDetailDefinitionSaveRequest(void)
	?updateItemRemoveRequest@QOrganizerItemManagerEngine@QtMobility@@SAXPAVQOrganizerItemRemoveRequest@2@W4Error@QOrganizerItemManager@2@ABV?$QMap@HW4Error@QOrganizerItemManager@QtMobility@@@@W4State@QOrganizerItemAbstractRequest@2@@Z @ 841 NONAME ; void QtMobility::QOrganizerItemManagerEngine::updateItemRemoveRequest(class QtMobility::QOrganizerItemRemoveRequest *, enum QtMobility::QOrganizerItemManager::Error, class QMap<int, enum QtMobility::QOrganizerItemManager::Error> const &, enum QtMobility::QOrganizerItemAbstractRequest::State)
	?FieldTimeSpecified@QOrganizerEventTimeRange@QtMobility@@2U?$QLatin1Constant@$0O@@2@B @ 842 NONAME ; struct QtMobility::QLatin1Constant<14> const QtMobility::QOrganizerEventTimeRange::FieldTimeSpecified
	??1QOrganizerItemRecurrenceRule@QtMobility@@QAE@XZ @ 843 NONAME ; QtMobility::QOrganizerItemRecurrenceRule::~QOrganizerItemRecurrenceRule(void)
	?isUnique@QOrganizerItemDetailDefinition@QtMobility@@QBE_NXZ @ 844 NONAME ; bool QtMobility::QOrganizerItemDetailDefinition::isUnique(void) const
	?items@QOrganizerItemInstanceFetchRequest@QtMobility@@QBE?AV?$QList@VQOrganizerItem@QtMobility@@@@XZ @ 845 NONAME ; class QList<class QtMobility::QOrganizerItem> QtMobility::QOrganizerItemInstanceFetchRequest::items(void) const
	?setBlankPolicy@QOrganizerItemSortOrder@QtMobility@@QAEXW4BlankPolicy@12@@Z @ 846 NONAME ; void QtMobility::QOrganizerItemSortOrder::setBlankPolicy(enum QtMobility::QOrganizerItemSortOrder::BlankPolicy)
	?setDirection@QOrganizerItemSortOrder@QtMobility@@QAEXW4SortOrder@Qt@@@Z @ 847 NONAME ; void QtMobility::QOrganizerItemSortOrder::setDirection(enum Qt::SortOrder)
	??0QOrganizerItemRecurrence@QtMobility@@QAE@ABVQOrganizerItemDetail@1@@Z @ 848 NONAME ; QtMobility::QOrganizerItemRecurrence::QOrganizerItemRecurrence(class QtMobility::QOrganizerItemDetail const &)
	?removeValue@QOrganizerItemDetail@QtMobility@@QAE_NABVQString@@@Z @ 849 NONAME ; bool QtMobility::QOrganizerItemDetail::removeValue(class QString const &)
	??0QOrganizerItemReminder@QtMobility@@IAE@ABVQOrganizerItemDetail@1@PBD@Z @ 850 NONAME ; QtMobility::QOrganizerItemReminder::QOrganizerItemReminder(class QtMobility::QOrganizerItemDetail const &, char const *)
	?removeDetailDefinition@QOrganizerItemManager@QtMobility@@QAE_NABVQString@@0@Z @ 851 NONAME ; bool QtMobility::QOrganizerItemManager::removeDetailDefinition(class QString const &, class QString const &)
	?setLocalId@QOrganizerItemId@QtMobility@@QAEXABVQOrganizerItemLocalId@2@@Z @ 852 NONAME ; void QtMobility::QOrganizerItemId::setLocalId(class QtMobility::QOrganizerItemLocalId const &)
	?setCreated@QOrganizerItemTimestamp@QtMobility@@QAEXABVQDateTime@@@Z @ 853 NONAME ; void QtMobility::QOrganizerItemTimestamp::setCreated(class QDateTime const &)
	??_EQOrganizerCollectionRemoveRequest@QtMobility@@UAE@I@Z @ 854 NONAME ; QtMobility::QOrganizerCollectionRemoveRequest::~QOrganizerCollectionRemoveRequest(unsigned int)
	?removeCollection@QOrganizerItemManager@QtMobility@@QAE_NABVQOrganizerCollectionLocalId@2@@Z @ 855 NONAME ; bool QtMobility::QOrganizerItemManager::removeCollection(class QtMobility::QOrganizerCollectionLocalId const &)
	??0QOrganizerItemType@QtMobility@@QAE@XZ @ 856 NONAME ; QtMobility::QOrganizerItemType::QOrganizerItemType(void)
	?limitCount@QOrganizerItemRecurrenceRule@QtMobility@@QBEHXZ @ 857 NONAME ; int QtMobility::QOrganizerItemRecurrenceRule::limitCount(void) const
	?d_func@QOrganizerItemDetailDefinitionRemoveRequest@QtMobility@@ABEPBVQOrganizerItemDetailDefinitionRemoveRequestPrivate@2@XZ @ 858 NONAME ; class QtMobility::QOrganizerItemDetailDefinitionRemoveRequestPrivate const * QtMobility::QOrganizerItemDetailDefinitionRemoveRequest::d_func(void) const
	??9QOrganizerItemLocalId@QtMobility@@QBE_NABV01@@Z @ 859 NONAME ; bool QtMobility::QOrganizerItemLocalId::operator!=(class QtMobility::QOrganizerItemLocalId const &) const
	??1QOrganizerItemLocalIdFetchRequest@QtMobility@@UAE@XZ @ 860 NONAME ; QtMobility::QOrganizerItemLocalIdFetchRequest::~QOrganizerItemLocalIdFetchRequest(void)
	?match@QOrganizerItemComment@QtMobility@@SA?AVQOrganizerItemFilter@2@ABVQString@@@Z @ 861 NONAME ; class QtMobility::QOrganizerItemFilter QtMobility::QOrganizerItemComment::match(class QString const &)
	??1QOrganizerItemType@QtMobility@@QAE@XZ @ 862 NONAME ; QtMobility::QOrganizerItemType::~QOrganizerItemType(void)
	?isNull@QOrganizerItemId@QtMobility@@QBE_NXZ @ 863 NONAME ; bool QtMobility::QOrganizerItemId::isNull(void) const
	?description@QOrganizerItem@QtMobility@@QBE?AVQString@@XZ @ 864 NONAME ; class QString QtMobility::QOrganizerItem::description(void) const
	?d_func@QOrganizerItemRemoveRequest@QtMobility@@AAEPAVQOrganizerItemRemoveRequestPrivate@2@XZ @ 865 NONAME ; class QtMobility::QOrganizerItemRemoveRequestPrivate * QtMobility::QOrganizerItemRemoveRequest::d_func(void)
	??0QOrganizerItem@QtMobility@@QAE@XZ @ 866 NONAME ; QtMobility::QOrganizerItem::QOrganizerItem(void)
	??4QOrganizerJournal@QtMobility@@QAEAAV01@ABVQOrganizerItem@1@@Z @ 867 NONAME ; class QtMobility::QOrganizerJournal & QtMobility::QOrganizerJournal::operator=(class QtMobility::QOrganizerItem const &)
	?rangeFlags@QOrganizerItemDetailRangeFilter@QtMobility@@QBE?AV?$QFlags@W4RangeFlag@QOrganizerItemDetailRangeFilter@QtMobility@@@@XZ @ 868 NONAME ; class QFlags<enum QtMobility::QOrganizerItemDetailRangeFilter::RangeFlag> QtMobility::QOrganizerItemDetailRangeFilter::rangeFlags(void) const
	?comments@QOrganizerItem@QtMobility@@QBE?AVQStringList@@XZ @ 869 NONAME ; class QStringList QtMobility::QOrganizerItem::comments(void) const
	?setTimeSpecified@QOrganizerTodoTimeRange@QtMobility@@QAEX_N@Z @ 870 NONAME ; void QtMobility::QOrganizerTodoTimeRange::setTimeSpecified(bool)
	?sorting@QOrganizerItemFetchForExportRequest@QtMobility@@QBE?AV?$QList@VQOrganizerItemSortOrder@QtMobility@@@@XZ @ 871 NONAME ; class QList<class QtMobility::QOrganizerItemSortOrder> QtMobility::QOrganizerItemFetchForExportRequest::sorting(void) const
	?tr@QOrganizerItemRemoveRequest@QtMobility@@SA?AVQString@@PBD0@Z @ 872 NONAME ; class QString QtMobility::QOrganizerItemRemoveRequest::tr(char const *, char const *)
	?FieldLatitude@QOrganizerItemLocation@QtMobility@@2U?$QLatin1Constant@$08@2@B @ 873 NONAME ; struct QtMobility::QLatin1Constant<9> const QtMobility::QOrganizerItemLocation::FieldLatitude
	?hasValue@QOrganizerItemDetail@QtMobility@@QBE_NPBD@Z @ 874 NONAME ; bool QtMobility::QOrganizerItemDetail::hasValue(char const *) const
	?setMetaData@QOrganizerCollection@QtMobility@@QAEXABV?$QMap@VQString@@VQVariant@@@@@Z @ 875 NONAME ; void QtMobility::QOrganizerCollection::setMetaData(class QMap<class QString, class QVariant> const &)
	?hasValue@QOrganizerItemDetail@QtMobility@@QBE_NABVQString@@@Z @ 876 NONAME ; bool QtMobility::QOrganizerItemDetail::hasValue(class QString const &) const
	??5QtMobility@@YAAAVQDataStream@@AAV1@AAVQOrganizerItemFilter@0@@Z @ 877 NONAME ; class QDataStream & QtMobility::operator>>(class QDataStream &, class QtMobility::QOrganizerItemFilter &)
	??_EQOrganizerItemId@QtMobility@@QAE@I@Z @ 878 NONAME ; QtMobility::QOrganizerItemId::~QOrganizerItemId(unsigned int)
	??0QOrganizerItemVisualReminder@QtMobility@@QAE@XZ @ 879 NONAME ; QtMobility::QOrganizerItemVisualReminder::QOrganizerItemVisualReminder(void)
	??0QOrganizerCollectionLocalId@QtMobility@@QAE@PAVQOrganizerCollectionEngineLocalId@1@@Z @ 880 NONAME ; QtMobility::QOrganizerCollectionLocalId::QOrganizerCollectionLocalId(class QtMobility::QOrganizerCollectionEngineLocalId *)
	?setCollectionIds@QOrganizerCollectionRemoveRequest@QtMobility@@QAEXABV?$QList@VQOrganizerCollectionLocalId@QtMobility@@@@@Z @ 881 NONAME ; void QtMobility::QOrganizerCollectionRemoveRequest::setCollectionIds(class QList<class QtMobility::QOrganizerCollectionLocalId> const &)
	?setTimeSpecified@QOrganizerEventTimeRange@QtMobility@@QAEX_N@Z @ 882 NONAME ; void QtMobility::QOrganizerEventTimeRange::setTimeSpecified(bool)
	??1QOrganizerItemSaveRequest@QtMobility@@UAE@XZ @ 883 NONAME ; QtMobility::QOrganizerItemSaveRequest::~QOrganizerItemSaveRequest(void)
	?trUtf8@QOrganizerItemInstanceFetchRequest@QtMobility@@SA?AVQString@@PBD0H@Z @ 884 NONAME ; class QString QtMobility::QOrganizerItemInstanceFetchRequest::trUtf8(char const *, char const *, int)
	?TypeNote@QOrganizerItemType@QtMobility@@2U?$QLatin1Constant@$04@2@B @ 885 NONAME ; struct QtMobility::QLatin1Constant<5> const QtMobility::QOrganizerItemType::TypeNote
	?clearComments@QOrganizerItem@QtMobility@@QAEXXZ @ 886 NONAME ; void QtMobility::QOrganizerItem::clearComments(void)
	?isEmpty@QOrganizerItem@QtMobility@@QBE_NXZ @ 887 NONAME ; bool QtMobility::QOrganizerItem::isEmpty(void) const
	?setEndDateTime@QOrganizerEvent@QtMobility@@QAEXABVQDateTime@@@Z @ 888 NONAME ; void QtMobility::QOrganizerEvent::setEndDateTime(class QDateTime const &)
	??1QOrganizerTodoProgress@QtMobility@@QAE@XZ @ 889 NONAME ; QtMobility::QOrganizerTodoProgress::~QOrganizerTodoProgress(void)
	??4QOrganizerItemRecurrenceRule@QtMobility@@QAEAAV01@ABV01@@Z @ 890 NONAME ; class QtMobility::QOrganizerItemRecurrenceRule & QtMobility::QOrganizerItemRecurrenceRule::operator=(class QtMobility::QOrganizerItemRecurrenceRule const &)
	??0QOrganizerItemDetailDefinition@QtMobility@@QAE@XZ @ 891 NONAME ; QtMobility::QOrganizerItemDetailDefinition::QOrganizerItemDetailDefinition(void)
	?errorMap@QOrganizerItemDetailDefinitionFetchRequest@QtMobility@@QBE?AV?$QMap@HW4Error@QOrganizerItemManager@QtMobility@@@@XZ @ 892 NONAME ; class QMap<int, enum QtMobility::QOrganizerItemManager::Error> QtMobility::QOrganizerItemDetailDefinitionFetchRequest::errorMap(void) const
	?setFinishedDateTime@QOrganizerTodo@QtMobility@@QAEXABVQDateTime@@@Z @ 893 NONAME ; void QtMobility::QOrganizerTodo::setFinishedDateTime(class QDateTime const &)
	?tr@QOrganizerCollectionSaveRequest@QtMobility@@SA?AVQString@@PBD0H@Z @ 894 NONAME ; class QString QtMobility::QOrganizerCollectionSaveRequest::tr(char const *, char const *, int)
	??6QtMobility@@YAAAVQDataStream@@AAV1@ABVQOrganizerItemDetail@0@@Z @ 895 NONAME ; class QDataStream & QtMobility::operator<<(class QDataStream &, class QtMobility::QOrganizerItemDetail const &)
	?qt_metacast@QOrganizerItemAbstractRequest@QtMobility@@UAEPAXPBD@Z @ 896 NONAME ; void * QtMobility::QOrganizerItemAbstractRequest::qt_metacast(char const *)
	?d_func@QOrganizerItemDetailDefinitionFetchRequest@QtMobility@@AAEPAVQOrganizerItemDetailDefinitionFetchRequestPrivate@2@XZ @ 897 NONAME ; class QtMobility::QOrganizerItemDetailDefinitionFetchRequestPrivate * QtMobility::QOrganizerItemDetailDefinitionFetchRequest::d_func(void)
	?isInactive@QOrganizerItemAbstractRequest@QtMobility@@QBE_NXZ @ 898 NONAME ; bool QtMobility::QOrganizerItemAbstractRequest::isInactive(void) const
	?d_func@QOrganizerCollectionFetchRequest@QtMobility@@AAEPAVQOrganizerCollectionFetchRequestPrivate@2@XZ @ 899 NONAME ; class QtMobility::QOrganizerCollectionFetchRequestPrivate * QtMobility::QOrganizerCollectionFetchRequest::d_func(void)
	?exceptionRules@QOrganizerTodo@QtMobility@@QBE?AV?$QSet@VQOrganizerItemRecurrenceRule@QtMobility@@@@XZ @ 900 NONAME ; class QSet<class QtMobility::QOrganizerItemRecurrenceRule> QtMobility::QOrganizerTodo::exceptionRules(void) const
	?qt_metacall@QOrganizerCollectionFetchRequest@QtMobility@@UAEHW4Call@QMetaObject@@HPAPAX@Z @ 901 NONAME ; int QtMobility::QOrganizerCollectionFetchRequest::qt_metacall(enum QMetaObject::Call, int, void * *)
	?setManagerUri@QOrganizerItemId@QtMobility@@QAEXABVQString@@@Z @ 902 NONAME ; void QtMobility::QOrganizerItemId::setManagerUri(class QString const &)
	??0QOrganizerEventOccurrence@QtMobility@@QAE@XZ @ 903 NONAME ; QtMobility::QOrganizerEventOccurrence::QOrganizerEventOccurrence(void)
	?detailFieldName@QOrganizerItemSortOrder@QtMobility@@QBE?AVQString@@XZ @ 904 NONAME ; class QString QtMobility::QOrganizerItemSortOrder::detailFieldName(void) const
	?itemsChanged@QOrganizerItemManager@QtMobility@@IAEXABV?$QList@VQOrganizerItemLocalId@QtMobility@@@@@Z @ 905 NONAME ; void QtMobility::QOrganizerItemManager::itemsChanged(class QList<class QtMobility::QOrganizerItemLocalId> const &)
	?compareItem@QOrganizerItemManagerEngine@QtMobility@@SAHABVQOrganizerItem@2@0ABV?$QList@VQOrganizerItemSortOrder@QtMobility@@@@@Z @ 906 NONAME ; int QtMobility::QOrganizerItemManagerEngine::compareItem(class QtMobility::QOrganizerItem const &, class QtMobility::QOrganizerItem const &, class QList<class QtMobility::QOrganizerItemSortOrder> const &)
	?variantValue@QOrganizerItemDetail@QtMobility@@QBE?AVQVariant@@PBD@Z @ 907 NONAME ; class QVariant QtMobility::QOrganizerItemDetail::variantValue(char const *) const
	??4QOrganizerItemRecurrence@QtMobility@@QAEAAV01@ABVQOrganizerItemDetail@1@@Z @ 908 NONAME ; class QtMobility::QOrganizerItemRecurrence & QtMobility::QOrganizerItemRecurrence::operator=(class QtMobility::QOrganizerItemDetail const &)
	?metaObject@QOrganizerItemFetchRequest@QtMobility@@UBEPBUQMetaObject@@XZ @ 909 NONAME ; struct QMetaObject const * QtMobility::QOrganizerItemFetchRequest::metaObject(void) const
	??_EQOrganizerCollectionFetchRequest@QtMobility@@UAE@I@Z @ 910 NONAME ; QtMobility::QOrganizerCollectionFetchRequest::~QOrganizerCollectionFetchRequest(unsigned int)
	?staticMetaObject@QOrganizerCollectionSaveRequest@QtMobility@@2UQMetaObject@@B @ 911 NONAME ; struct QMetaObject const QtMobility::QOrganizerCollectionSaveRequest::staticMetaObject
	?tr@QOrganizerItemFetchForExportRequest@QtMobility@@SA?AVQString@@PBD0H@Z @ 912 NONAME ; class QString QtMobility::QOrganizerItemFetchForExportRequest::tr(char const *, char const *, int)
	??1QOrganizerCollectionEngineLocalId@QtMobility@@UAE@XZ @ 913 NONAME ; QtMobility::QOrganizerCollectionEngineLocalId::~QOrganizerCollectionEngineLocalId(void)
	??0QOrganizerTodoTimeRange@QtMobility@@QAE@ABVQOrganizerItemDetail@1@@Z @ 914 NONAME ; QtMobility::QOrganizerTodoTimeRange::QOrganizerTodoTimeRange(class QtMobility::QOrganizerItemDetail const &)
	??1QOrganizerCollectionSaveRequest@QtMobility@@UAE@XZ @ 915 NONAME ; QtMobility::QOrganizerCollectionSaveRequest::~QOrganizerCollectionSaveRequest(void)
	??1QOrganizerItemPriority@QtMobility@@QAE@XZ @ 916 NONAME ; QtMobility::QOrganizerItemPriority::~QOrganizerItemPriority(void)
	?startDateTime@QOrganizerTodoTimeRange@QtMobility@@QBE?AVQDateTime@@XZ @ 917 NONAME ; class QDateTime QtMobility::QOrganizerTodoTimeRange::startDateTime(void) const
	??4QOrganizerTodo@QtMobility@@QAEAAV01@ABVQOrganizerItem@1@@Z @ 918 NONAME ; class QtMobility::QOrganizerTodo & QtMobility::QOrganizerTodo::operator=(class QtMobility::QOrganizerItem const &)
	??0QOrganizerItemDetailRangeFilter@QtMobility@@QAE@XZ @ 919 NONAME ; QtMobility::QOrganizerItemDetailRangeFilter::QOrganizerItemDetailRangeFilter(void)
	?qt_metacast@QOrganizerItemLocalIdFetchRequest@QtMobility@@UAEPAXPBD@Z @ 920 NONAME ; void * QtMobility::QOrganizerItemLocalIdFetchRequest::qt_metacast(char const *)
	?maxOccurrences@QOrganizerItemInstanceFetchRequest@QtMobility@@QBEHXZ @ 921 NONAME ; int QtMobility::QOrganizerItemInstanceFetchRequest::maxOccurrences(void) const
	??6QtMobility@@YA?AVQDebug@@V1@ABVQOrganizerCollectionId@0@@Z @ 922 NONAME ; class QDebug QtMobility::operator<<(class QDebug, class QtMobility::QOrganizerCollectionId const &)
	??1QOrganizerItemLocalId@QtMobility@@QAE@XZ @ 923 NONAME ; QtMobility::QOrganizerItemLocalId::~QOrganizerItemLocalId(void)
	?isEmpty@QOrganizerItemDetail@QtMobility@@QBE_NXZ @ 924 NONAME ; bool QtMobility::QOrganizerItemDetail::isEmpty(void) const
	?DefinitionName@QOrganizerItemVisualReminder@QtMobility@@2U?$QLatin1Constant@$0P@@2@B @ 925 NONAME ; struct QtMobility::QLatin1Constant<15> const QtMobility::QOrganizerItemVisualReminder::DefinitionName
	??0QOrganizerItemReminder@QtMobility@@QAE@XZ @ 926 NONAME ; QtMobility::QOrganizerItemReminder::QOrganizerItemReminder(void)
	??0QOrganizerItemDescription@QtMobility@@QAE@ABVQOrganizerItemDetail@1@@Z @ 927 NONAME ; QtMobility::QOrganizerItemDescription::QOrganizerItemDescription(class QtMobility::QOrganizerItemDetail const &)
	?minValue@QOrganizerItemDetailRangeFilter@QtMobility@@QBE?AVQVariant@@XZ @ 928 NONAME ; class QVariant QtMobility::QOrganizerItemDetailRangeFilter::minValue(void) const
	?setGuid@QOrganizerItem@QtMobility@@QAEXABVQString@@@Z @ 929 NONAME ; void QtMobility::QOrganizerItem::setGuid(class QString const &)
	?tr@QOrganizerItemSaveRequest@QtMobility@@SA?AVQString@@PBD0@Z @ 930 NONAME ; class QString QtMobility::QOrganizerItemSaveRequest::tr(char const *, char const *)
	?d_func@QOrganizerItemIntersectionFilter@QtMobility@@AAEPAVQOrganizerItemIntersectionFilterPrivate@2@XZ @ 931 NONAME ; class QtMobility::QOrganizerItemIntersectionFilterPrivate * QtMobility::QOrganizerItemIntersectionFilter::d_func(void)
	?isNull@QOrganizerItemLocalId@QtMobility@@QBE_NXZ @ 932 NONAME ; bool QtMobility::QOrganizerItemLocalId::isNull(void) const
	?setLimit@QOrganizerItemRecurrenceRule@QtMobility@@QAEXH@Z @ 933 NONAME ; void QtMobility::QOrganizerItemRecurrenceRule::setLimit(int)
	?assign@QOrganizerItemDetail@QtMobility@@IAEAAV12@ABV12@PBD@Z @ 934 NONAME ; class QtMobility::QOrganizerItemDetail & QtMobility::QOrganizerItemDetail::assign(class QtMobility::QOrganizerItemDetail const &, char const *)
	?trUtf8@QOrganizerItemDetailDefinitionSaveRequest@QtMobility@@SA?AVQString@@PBD0H@Z @ 935 NONAME ; class QString QtMobility::QOrganizerItemDetailDefinitionSaveRequest::trUtf8(char const *, char const *, int)
	?DefinitionName@QOrganizerItemRecurrence@QtMobility@@2U?$QLatin1Constant@$0L@@2@B @ 936 NONAME ; struct QtMobility::QLatin1Constant<11> const QtMobility::QOrganizerItemRecurrence::DefinitionName
	??0QOrganizerItemFetchForExportRequest@QtMobility@@QAE@PAVQObject@@@Z @ 937 NONAME ; QtMobility::QOrganizerItemFetchForExportRequest::QOrganizerItemFetchForExportRequest(class QObject *)
	?sorting@QOrganizerItemFetchRequest@QtMobility@@QBE?AV?$QList@VQOrganizerItemSortOrder@QtMobility@@@@XZ @ 938 NONAME ; class QList<class QtMobility::QOrganizerItemSortOrder> QtMobility::QOrganizerItemFetchRequest::sorting(void) const
	?errorMap@QOrganizerItemManager@QtMobility@@QBE?AV?$QMap@HW4Error@QOrganizerItemManager@QtMobility@@@@XZ @ 939 NONAME ; class QMap<int, enum QtMobility::QOrganizerItemManager::Error> QtMobility::QOrganizerItemManager::errorMap(void) const
	??4QOrganizerItemChangeSet@QtMobility@@QAEAAV01@ABV01@@Z @ 940 NONAME ; class QtMobility::QOrganizerItemChangeSet & QtMobility::QOrganizerItemChangeSet::operator=(class QtMobility::QOrganizerItemChangeSet const &)
	?setOriginalDate@QOrganizerEventOccurrence@QtMobility@@QAEXABVQDate@@@Z @ 941 NONAME ; void QtMobility::QOrganizerEventOccurrence::setOriginalDate(class QDate const &)
	??0QOrganizerItemInstanceOrigin@QtMobility@@QAE@XZ @ 942 NONAME ; QtMobility::QOrganizerItemInstanceOrigin::QOrganizerItemInstanceOrigin(void)
	?setRecurrenceDates@QOrganizerTodo@QtMobility@@QAEXABV?$QSet@VQDate@@@@@Z @ 943 NONAME ; void QtMobility::QOrganizerTodo::setRecurrenceDates(class QSet<class QDate> const &)
	?setSorting@QOrganizerItemFetchForExportRequest@QtMobility@@QAEXABV?$QList@VQOrganizerItemSortOrder@QtMobility@@@@@Z @ 944 NONAME ; void QtMobility::QOrganizerItemFetchForExportRequest::setSorting(class QList<class QtMobility::QOrganizerItemSortOrder> const &)
	?match@QOrganizerItemDisplayLabel@QtMobility@@SA?AVQOrganizerItemFilter@2@ABVQString@@@Z @ 945 NONAME ; class QtMobility::QOrganizerItemFilter QtMobility::QOrganizerItemDisplayLabel::match(class QString const &)
	?itemsAdded@QOrganizerItemManagerEngine@QtMobility@@IAEXABV?$QList@VQOrganizerItemLocalId@QtMobility@@@@@Z @ 946 NONAME ; void QtMobility::QOrganizerItemManagerEngine::itemsAdded(class QList<class QtMobility::QOrganizerItemLocalId> const &)
	??6QtMobility@@YAAAVQDataStream@@AAV1@ABVQOrganizerCollectionLocalId@0@@Z @ 947 NONAME ; class QDataStream & QtMobility::operator<<(class QDataStream &, class QtMobility::QOrganizerCollectionLocalId const &)
	?optimizationHints@QOrganizerItemFetchHint@QtMobility@@QBE?AV?$QFlags@W4OptimizationHint@QOrganizerItemFetchHint@QtMobility@@@@XZ @ 948 NONAME ; class QFlags<enum QtMobility::QOrganizerItemFetchHint::OptimizationHint> QtMobility::QOrganizerItemFetchHint::optimizationHints(void) const
	?removeDetail@QOrganizerItem@QtMobility@@QAE_NPAVQOrganizerItemDetail@2@@Z @ 949 NONAME ; bool QtMobility::QOrganizerItem::removeDetail(class QtMobility::QOrganizerItemDetail *)
	?value@QOrganizerItemDetailFilter@QtMobility@@QBE?AVQVariant@@XZ @ 950 NONAME ; class QVariant QtMobility::QOrganizerItemDetailFilter::value(void) const
	?recurrenceDates@QOrganizerEvent@QtMobility@@QBE?AV?$QSet@VQDate@@@@XZ @ 951 NONAME ; class QSet<class QDate> QtMobility::QOrganizerEvent::recurrenceDates(void) const
	??8QOrganizerItemDetail@QtMobility@@QBE_NABV01@@Z @ 952 NONAME ; bool QtMobility::QOrganizerItemDetail::operator==(class QtMobility::QOrganizerItemDetail const &) const
	?FieldDescription@QOrganizerItemDescription@QtMobility@@2U?$QLatin1Constant@$0M@@2@B @ 953 NONAME ; struct QtMobility::QLatin1Constant<12> const QtMobility::QOrganizerItemDescription::FieldDescription
	?progressPercentage@QOrganizerTodoOccurrence@QtMobility@@QBEHXZ @ 954 NONAME ; int QtMobility::QOrganizerTodoOccurrence::progressPercentage(void) const
	??_EQOrganizerCollectionSaveRequest@QtMobility@@UAE@I@Z @ 955 NONAME ; QtMobility::QOrganizerCollectionSaveRequest::~QOrganizerCollectionSaveRequest(unsigned int)
	?item@QOrganizerItemManagerEngine@QtMobility@@UBE?AVQOrganizerItem@2@ABVQOrganizerItemLocalId@2@ABVQOrganizerItemFetchHint@2@PAW4Error@QOrganizerItemManager@2@@Z @ 956 NONAME ; class QtMobility::QOrganizerItem QtMobility::QOrganizerItemManagerEngine::item(class QtMobility::QOrganizerItemLocalId const &, class QtMobility::QOrganizerItemFetchHint const &, enum QtMobility::QOrganizerItemManager::Error *) const
	?trUtf8@QOrganizerItemFetchRequest@QtMobility@@SA?AVQString@@PBD0@Z @ 957 NONAME ; class QString QtMobility::QOrganizerItemFetchRequest::trUtf8(char const *, char const *)
	?defaultCollection@QOrganizerItemManagerEngine@QtMobility@@UBE?AVQOrganizerCollection@2@PAW4Error@QOrganizerItemManager@2@@Z @ 958 NONAME ; class QtMobility::QOrganizerCollection QtMobility::QOrganizerItemManagerEngine::defaultCollection(enum QtMobility::QOrganizerItemManager::Error *) const
	?qt_metacast@QOrganizerItemRemoveRequest@QtMobility@@UAEPAXPBD@Z @ 959 NONAME ; void * QtMobility::QOrganizerItemRemoveRequest::qt_metacast(char const *)
	?fetchHint@QOrganizerItemFetchRequest@QtMobility@@QBE?AVQOrganizerItemFetchHint@2@XZ @ 960 NONAME ; class QtMobility::QOrganizerItemFetchHint QtMobility::QOrganizerItemFetchRequest::fetchHint(void) const
	?setFinishedDateTime@QOrganizerTodoProgress@QtMobility@@QAEXABVQDateTime@@@Z @ 961 NONAME ; void QtMobility::QOrganizerTodoProgress::setFinishedDateTime(class QDateTime const &)
	?updateItemFetchForExportRequest@QOrganizerItemManagerEngine@QtMobility@@SAXPAVQOrganizerItemFetchForExportRequest@2@ABV?$QList@VQOrganizerItem@QtMobility@@@@W4Error@QOrganizerItemManager@2@W4State@QOrganizerItemAbstractRequest@2@@Z @ 962 NONAME ; void QtMobility::QOrganizerItemManagerEngine::updateItemFetchForExportRequest(class QtMobility::QOrganizerItemFetchForExportRequest *, class QList<class QtMobility::QOrganizerItem> const &, enum QtMobility::QOrganizerItemManager::Error, enum QtMobility::QOrganizerItemAbstractRequest::State)
	?daysOfWeek@QOrganizerItemRecurrenceRule@QtMobility@@QBE?AV?$QSet@W4DayOfWeek@Qt@@@@XZ @ 963 NONAME ; class QSet<enum Qt::DayOfWeek> QtMobility::QOrganizerItemRecurrenceRule::daysOfWeek(void) const
	?qt_metacast@QOrganizerItemFetchForExportRequest@QtMobility@@UAEPAXPBD@Z @ 964 NONAME ; void * QtMobility::QOrganizerItemFetchForExportRequest::qt_metacast(char const *)
	?setMatchFlags@QOrganizerItemDetailRangeFilter@QtMobility@@QAEXV?$QFlags@W4MatchFlag@QOrganizerItemFilter@QtMobility@@@@@Z @ 965 NONAME ; void QtMobility::QOrganizerItemDetailRangeFilter::setMatchFlags(class QFlags<enum QtMobility::QOrganizerItemFilter::MatchFlag>)
	??1QOrganizerItemRemoveRequest@QtMobility@@UAE@XZ @ 966 NONAME ; QtMobility::QOrganizerItemRemoveRequest::~QOrganizerItemRemoveRequest(void)
	?displayLabel@QOrganizerItem@QtMobility@@QBE?AVQString@@XZ @ 967 NONAME ; class QString QtMobility::QOrganizerItem::displayLabel(void) const
	?setDataChanged@QOrganizerItemChangeSet@QtMobility@@QAEX_N@Z @ 968 NONAME ; void QtMobility::QOrganizerItemChangeSet::setDataChanged(bool)
	?clearAll@QOrganizerCollectionChangeSet@QtMobility@@QAEXXZ @ 969 NONAME ; void QtMobility::QOrganizerCollectionChangeSet::clearAll(void)
	?isTimeSpecified@QOrganizerEventTimeRange@QtMobility@@QAE_NXZ @ 970 NONAME ; bool QtMobility::QOrganizerEventTimeRange::isTimeSpecified(void)
	?errorMap@QOrganizerItemDetailDefinitionSaveRequest@QtMobility@@QBE?AV?$QMap@HW4Error@QOrganizerItemManager@QtMobility@@@@XZ @ 971 NONAME ; class QMap<int, enum QtMobility::QOrganizerItemManager::Error> QtMobility::QOrganizerItemDetailDefinitionSaveRequest::errorMap(void) const
	?weeksOfYear@QOrganizerItemRecurrenceRule@QtMobility@@QBE?AV?$QSet@H@@XZ @ 972 NONAME ; class QSet<int> QtMobility::QOrganizerItemRecurrenceRule::weeksOfYear(void) const
	??0QOrganizerItemSortOrder@QtMobility@@QAE@XZ @ 973 NONAME ; QtMobility::QOrganizerItemSortOrder::QOrganizerItemSortOrder(void)
	?waitForFinished@QOrganizerItemAbstractRequest@QtMobility@@QAE_NH@Z @ 974 NONAME ; bool QtMobility::QOrganizerItemAbstractRequest::waitForFinished(int)
	?parentLocalId@QOrganizerItemInstanceOrigin@QtMobility@@QBE?AVQOrganizerItemLocalId@2@XZ @ 975 NONAME ; class QtMobility::QOrganizerItemLocalId QtMobility::QOrganizerItemInstanceOrigin::parentLocalId(void) const
	?trUtf8@QOrganizerItemManager@QtMobility@@SA?AVQString@@PBD0H@Z @ 976 NONAME ; class QString QtMobility::QOrganizerItemManager::trUtf8(char const *, char const *, int)
	?detailDefinition@QOrganizerItemManagerEngine@QtMobility@@UBE?AVQOrganizerItemDetailDefinition@2@ABVQString@@0PAW4Error@QOrganizerItemManager@2@@Z @ 977 NONAME ; class QtMobility::QOrganizerItemDetailDefinition QtMobility::QOrganizerItemManagerEngine::detailDefinition(class QString const &, class QString const &, enum QtMobility::QOrganizerItemManager::Error *) const
	?setProgressPercentage@QOrganizerTodoOccurrence@QtMobility@@QAEXH@Z @ 978 NONAME ; void QtMobility::QOrganizerTodoOccurrence::setProgressPercentage(int)
	??_EQOrganizerItemDetailDefinition@QtMobility@@QAE@I@Z @ 979 NONAME ; QtMobility::QOrganizerItemDetailDefinition::~QOrganizerItemDetailDefinition(unsigned int)
	?setEndDate@QOrganizerItemFetchRequest@QtMobility@@QAEXABVQDateTime@@@Z @ 980 NONAME ; void QtMobility::QOrganizerItemFetchRequest::setEndDate(class QDateTime const &)
	?setWeeksOfYear@QOrganizerItemRecurrenceRule@QtMobility@@QAEXABV?$QSet@H@@@Z @ 981 NONAME ; void QtMobility::QOrganizerItemRecurrenceRule::setWeeksOfYear(class QSet<int> const &)
	??0QOrganizerItemType@QtMobility@@QAE@ABVQOrganizerItemDetail@1@@Z @ 982 NONAME ; QtMobility::QOrganizerItemType::QOrganizerItemType(class QtMobility::QOrganizerItemDetail const &)
	??0QOrganizerItemDetailFilter@QtMobility@@QAE@XZ @ 983 NONAME ; QtMobility::QOrganizerItemDetailFilter::QOrganizerItemDetailFilter(void)
	??6QtMobility@@YAAAVQDataStream@@AAV1@ABVQOrganizerItemSortOrder@0@@Z @ 984 NONAME ; class QDataStream & QtMobility::operator<<(class QDataStream &, class QtMobility::QOrganizerItemSortOrder const &)
	??_EQOrganizerCollectionLocalId@QtMobility@@QAE@I@Z @ 985 NONAME ; QtMobility::QOrganizerCollectionLocalId::~QOrganizerCollectionLocalId(unsigned int)
	?setDueDateTime@QOrganizerTodoOccurrence@QtMobility@@QAEXABVQDateTime@@@Z @ 986 NONAME ; void QtMobility::QOrganizerTodoOccurrence::setDueDateTime(class QDateTime const &)
	?manager@QOrganizerItemAbstractRequest@QtMobility@@QBEPAVQOrganizerItemManager@2@XZ @ 987 NONAME ; class QtMobility::QOrganizerItemManager * QtMobility::QOrganizerItemAbstractRequest::manager(void) const
	?limitDate@QOrganizerItemRecurrenceRule@QtMobility@@QBE?AVQDate@@XZ @ 988 NONAME ; class QDate QtMobility::QOrganizerItemRecurrenceRule::limitDate(void) const
	??_EQOrganizerItemDetail@QtMobility@@QAE@I@Z @ 989 NONAME ; QtMobility::QOrganizerItemDetail::~QOrganizerItemDetail(unsigned int)
	?d_func@QOrganizerItemLocalIdFilter@QtMobility@@ABEPBVQOrganizerItemLocalIdFilterPrivate@2@XZ @ 990 NONAME ; class QtMobility::QOrganizerItemLocalIdFilterPrivate const * QtMobility::QOrganizerItemLocalIdFilter::d_func(void) const
	?match@QOrganizerItemLocation@QtMobility@@SA?AVQOrganizerItemFilter@2@ABVQString@@@Z @ 991 NONAME ; class QtMobility::QOrganizerItemFilter QtMobility::QOrganizerItemLocation::match(class QString const &)
	?setRange@QOrganizerItemDetailRangeFilter@QtMobility@@QAEXABVQVariant@@0V?$QFlags@W4RangeFlag@QOrganizerItemDetailRangeFilter@QtMobility@@@@@Z @ 992 NONAME ; void QtMobility::QOrganizerItemDetailRangeFilter::setRange(class QVariant const &, class QVariant const &, class QFlags<enum QtMobility::QOrganizerItemDetailRangeFilter::RangeFlag>)
	?TypeEventOccurrence@QOrganizerItemType@QtMobility@@2U?$QLatin1Constant@$0BA@@2@B @ 993 NONAME ; struct QtMobility::QLatin1Constant<16> const QtMobility::QOrganizerItemType::TypeEventOccurrence
	?repetitionDelay@QOrganizerItemReminder@QtMobility@@QBEHXZ @ 994 NONAME ; int QtMobility::QOrganizerItemReminder::repetitionDelay(void) const
	?setFilter@QOrganizerItemFetchRequest@QtMobility@@QAEXABVQOrganizerItemFilter@2@@Z @ 995 NONAME ; void QtMobility::QOrganizerItemFetchRequest::setFilter(class QtMobility::QOrganizerItemFilter const &)
	??0QOrganizerItemLocalIdFilter@QtMobility@@QAE@XZ @ 996 NONAME ; QtMobility::QOrganizerItemLocalIdFilter::QOrganizerItemLocalIdFilter(void)
	?setDefinitionName@QOrganizerItemDetailDefinitionFetchRequest@QtMobility@@QAEXABVQString@@@Z @ 997 NONAME ; void QtMobility::QOrganizerItemDetailDefinitionFetchRequest::setDefinitionName(class QString const &)
	?itemInstances@QOrganizerItemManagerEngine@QtMobility@@UBE?AV?$QList@VQOrganizerItem@QtMobility@@@@ABVQOrganizerItem@2@ABVQDateTime@@1HABVQOrganizerItemFetchHint@2@PAW4Error@QOrganizerItemManager@2@@Z @ 998 NONAME ; class QList<class QtMobility::QOrganizerItem> QtMobility::QOrganizerItemManagerEngine::itemInstances(class QtMobility::QOrganizerItem const &, class QDateTime const &, class QDateTime const &, int, class QtMobility::QOrganizerItemFetchHint const &, enum QtMobility::QOrganizerItemManager::Error *) const
	??_EQOrganizerItemFetchRequest@QtMobility@@UAE@I@Z @ 999 NONAME ; QtMobility::QOrganizerItemFetchRequest::~QOrganizerItemFetchRequest(unsigned int)
	?isFinished@QOrganizerItemAbstractRequest@QtMobility@@QBE_NXZ @ 1000 NONAME ; bool QtMobility::QOrganizerItemAbstractRequest::isFinished(void) const
	?managerParameters@QOrganizerItemManager@QtMobility@@QBE?AV?$QMap@VQString@@V1@@@XZ @ 1001 NONAME ; class QMap<class QString, class QString> QtMobility::QOrganizerItemManager::managerParameters(void) const
	?FieldLabel@QOrganizerItemDisplayLabel@QtMobility@@2U?$QLatin1Constant@$05@2@B @ 1002 NONAME ; struct QtMobility::QLatin1Constant<6> const QtMobility::QOrganizerItemDisplayLabel::FieldLabel
	??1QOrganizerItemDisplayLabel@QtMobility@@QAE@XZ @ 1003 NONAME ; QtMobility::QOrganizerItemDisplayLabel::~QOrganizerItemDisplayLabel(void)
	?d_func@QOrganizerItemDetailDefinitionSaveRequest@QtMobility@@ABEPBVQOrganizerItemDetailDefinitionSaveRequestPrivate@2@XZ @ 1004 NONAME ; class QtMobility::QOrganizerItemDetailDefinitionSaveRequestPrivate const * QtMobility::QOrganizerItemDetailDefinitionSaveRequest::d_func(void) const
	?saveItem@QOrganizerItemManagerEngine@QtMobility@@UAE_NPAVQOrganizerItem@2@PAW4Error@QOrganizerItemManager@2@@Z @ 1005 NONAME ; bool QtMobility::QOrganizerItemManagerEngine::saveItem(class QtMobility::QOrganizerItem *, enum QtMobility::QOrganizerItemManager::Error *)
	??4QOrganizerItemPriority@QtMobility@@QAEAAV01@ABVQOrganizerItemDetail@1@@Z @ 1006 NONAME ; class QtMobility::QOrganizerItemPriority & QtMobility::QOrganizerItemPriority::operator=(class QtMobility::QOrganizerItemDetail const &)
	??6QtMobility@@YAAAVQDataStream@@AAV1@ABVQOrganizerItemDetailDefinition@0@@Z @ 1007 NONAME ; class QDataStream & QtMobility::operator<<(class QDataStream &, class QtMobility::QOrganizerItemDetailDefinition const &)
	??8QOrganizerCollection@QtMobility@@QBE_NABV01@@Z @ 1008 NONAME ; bool QtMobility::QOrganizerCollection::operator==(class QtMobility::QOrganizerCollection const &) const
	?localId@QOrganizerCollection@QtMobility@@QBE?AVQOrganizerCollectionLocalId@2@XZ @ 1009 NONAME ; class QtMobility::QOrganizerCollectionLocalId QtMobility::QOrganizerCollection::localId(void) const
	?resetKey@QOrganizerItemDetail@QtMobility@@QAEXXZ @ 1010 NONAME ; void QtMobility::QOrganizerItemDetail::resetKey(void)
	?setDescription@QOrganizerItemDescription@QtMobility@@QAEXABVQString@@@Z @ 1011 NONAME ; void QtMobility::QOrganizerItemDescription::setDescription(class QString const &)
	??6QtMobility@@YAAAVQDataStream@@AAV1@ABVQOrganizerCollection@0@@Z @ 1012 NONAME ; class QDataStream & QtMobility::operator<<(class QDataStream &, class QtMobility::QOrganizerCollection const &)
	?type@QOrganizerItem@QtMobility@@QBE?AVQString@@XZ @ 1013 NONAME ; class QString QtMobility::QOrganizerItem::type(void) const
	?removedItems@QOrganizerItemChangeSet@QtMobility@@QBE?AV?$QSet@VQOrganizerItemLocalId@QtMobility@@@@XZ @ 1014 NONAME ; class QSet<class QtMobility::QOrganizerItemLocalId> QtMobility::QOrganizerItemChangeSet::removedItems(void) const
	?tr@QOrganizerItemManagerEngine@QtMobility@@SA?AVQString@@PBD0@Z @ 1015 NONAME ; class QString QtMobility::QOrganizerItemManagerEngine::tr(char const *, char const *)
	?DefinitionName@QOrganizerItemPriority@QtMobility@@2U?$QLatin1Constant@$08@2@B @ 1016 NONAME ; struct QtMobility::QLatin1Constant<9> const QtMobility::QOrganizerItemPriority::DefinitionName
	?compatibleItem@QOrganizerItemManager@QtMobility@@QAE?AVQOrganizerItem@2@ABV32@@Z @ 1017 NONAME ; class QtMobility::QOrganizerItem QtMobility::QOrganizerItemManager::compatibleItem(class QtMobility::QOrganizerItem const &)
	?trUtf8@QOrganizerItemDetailDefinitionRemoveRequest@QtMobility@@SA?AVQString@@PBD0H@Z @ 1018 NONAME ; class QString QtMobility::QOrganizerItemDetailDefinitionRemoveRequest::trUtf8(char const *, char const *, int)
	?setPercentageComplete@QOrganizerTodoProgress@QtMobility@@QAEXH@Z @ 1019 NONAME ; void QtMobility::QOrganizerTodoProgress::setPercentageComplete(int)
	??4QOrganizerCollectionChangeSet@QtMobility@@QAEAAV01@ABV01@@Z @ 1020 NONAME ; class QtMobility::QOrganizerCollectionChangeSet & QtMobility::QOrganizerCollectionChangeSet::operator=(class QtMobility::QOrganizerCollectionChangeSet const &)
	??1QOrganizerItemComment@QtMobility@@QAE@XZ @ 1021 NONAME ; QtMobility::QOrganizerItemComment::~QOrganizerItemComment(void)
	?hasFeature@QOrganizerItemManagerEngine@QtMobility@@UBE_NW4ManagerFeature@QOrganizerItemManager@2@ABVQString@@@Z @ 1022 NONAME ; bool QtMobility::QOrganizerItemManagerEngine::hasFeature(enum QtMobility::QOrganizerItemManager::ManagerFeature, class QString const &) const
	?KeyName@QOrganizerCollection@QtMobility@@2U?$QLatin1Constant@$04@2@B @ 1023 NONAME ; struct QtMobility::QLatin1Constant<5> const QtMobility::QOrganizerCollection::KeyName
	?staticMetaObject@QOrganizerItemInstanceFetchRequest@QtMobility@@2UQMetaObject@@B @ 1024 NONAME ; struct QMetaObject const QtMobility::QOrganizerItemInstanceFetchRequest::staticMetaObject
	?tr@QOrganizerItemInstanceFetchRequest@QtMobility@@SA?AVQString@@PBD0@Z @ 1025 NONAME ; class QString QtMobility::QOrganizerItemInstanceFetchRequest::tr(char const *, char const *)
	?priority@QOrganizerEventOccurrence@QtMobility@@QBE?AW4Priority@QOrganizerItemPriority@2@XZ @ 1026 NONAME ; enum QtMobility::QOrganizerItemPriority::Priority QtMobility::QOrganizerEventOccurrence::priority(void) const
	??0QOrganizerItemRemoveRequest@QtMobility@@QAE@PAVQObject@@@Z @ 1027 NONAME ; QtMobility::QOrganizerItemRemoveRequest::QOrganizerItemRemoveRequest(class QObject *)
	?staticMetaObject@QOrganizerItemRemoveRequest@QtMobility@@2UQMetaObject@@B @ 1028 NONAME ; struct QMetaObject const QtMobility::QOrganizerItemRemoveRequest::staticMetaObject
	?FieldStartDateTime@QOrganizerEventTimeRange@QtMobility@@2U?$QLatin1Constant@$0O@@2@B @ 1029 NONAME ; struct QtMobility::QLatin1Constant<14> const QtMobility::QOrganizerEventTimeRange::FieldStartDateTime
	?itemIds@QOrganizerItemRemoveRequest@QtMobility@@QBE?AV?$QList@VQOrganizerItemLocalId@QtMobility@@@@XZ @ 1030 NONAME ; class QList<class QtMobility::QOrganizerItemLocalId> QtMobility::QOrganizerItemRemoveRequest::itemIds(void) const
	?setLocation@QOrganizerEvent@QtMobility@@QAEXABVQString@@@Z @ 1031 NONAME ; void QtMobility::QOrganizerEvent::setLocation(class QString const &)
	?setType@QOrganizerItemType@QtMobility@@QAEXABVQString@@@Z @ 1032 NONAME ; void QtMobility::QOrganizerItemType::setType(class QString const &)
	?items@QOrganizerItemFetchForExportRequest@QtMobility@@QBE?AV?$QList@VQOrganizerItem@QtMobility@@@@XZ @ 1033 NONAME ; class QList<class QtMobility::QOrganizerItem> QtMobility::QOrganizerItemFetchForExportRequest::items(void) const
	??0QOrganizerItemDetailFilter@QtMobility@@QAE@ABVQOrganizerItemFilter@1@@Z @ 1034 NONAME ; QtMobility::QOrganizerItemDetailFilter::QOrganizerItemDetailFilter(class QtMobility::QOrganizerItemFilter const &)
	?firstDayOfWeek@QOrganizerItemRecurrenceRule@QtMobility@@QBE?AW4DayOfWeek@Qt@@XZ @ 1035 NONAME ; enum Qt::DayOfWeek QtMobility::QOrganizerItemRecurrenceRule::firstDayOfWeek(void) const
	?TypeTodo@QOrganizerItemType@QtMobility@@2U?$QLatin1Constant@$04@2@B @ 1036 NONAME ; struct QtMobility::QLatin1Constant<5> const QtMobility::QOrganizerItemType::TypeTodo
	??1QOrganizerCollectionChangeSet@QtMobility@@QAE@XZ @ 1037 NONAME ; QtMobility::QOrganizerCollectionChangeSet::~QOrganizerCollectionChangeSet(void)
	?setName@QOrganizerItemDetailDefinition@QtMobility@@QAEXABVQString@@@Z @ 1038 NONAME ; void QtMobility::QOrganizerItemDetailDefinition::setName(class QString const &)
	?DefinitionName@QOrganizerEventTimeRange@QtMobility@@2U?$QLatin1Constant@$0P@@2@B @ 1039 NONAME ; struct QtMobility::QLatin1Constant<15> const QtMobility::QOrganizerEventTimeRange::DefinitionName
	?setExceptionDate@QOrganizerEvent@QtMobility@@QAEXABVQDate@@@Z @ 1040 NONAME ; void QtMobility::QOrganizerEvent::setExceptionDate(class QDate const &)
	??8QOrganizerCollectionLocalId@QtMobility@@QBE_NABV01@@Z @ 1041 NONAME ; bool QtMobility::QOrganizerCollectionLocalId::operator==(class QtMobility::QOrganizerCollectionLocalId const &) const
	?managerUri@QOrganizerCollectionId@QtMobility@@QBE?AVQString@@XZ @ 1042 NONAME ; class QString QtMobility::QOrganizerCollectionId::managerUri(void) const
	?compatibleItem@QOrganizerItemManagerEngine@QtMobility@@UBE?AVQOrganizerItem@2@ABV32@PAW4Error@QOrganizerItemManager@2@@Z @ 1043 NONAME ; class QtMobility::QOrganizerItem QtMobility::QOrganizerItemManagerEngine::compatibleItem(class QtMobility::QOrganizerItem const &, enum QtMobility::QOrganizerItemManager::Error *) const
	?metaObject@QOrganizerItemInstanceFetchRequest@QtMobility@@UBEPBUQMetaObject@@XZ @ 1044 NONAME ; struct QMetaObject const * QtMobility::QOrganizerItemInstanceFetchRequest::metaObject(void) const
	?priority@QOrganizerTodoOccurrence@QtMobility@@QBE?AW4Priority@QOrganizerItemPriority@2@XZ @ 1045 NONAME ; enum QtMobility::QOrganizerItemPriority::Priority QtMobility::QOrganizerTodoOccurrence::priority(void) const
	?FieldReminderType@QOrganizerItemReminder@QtMobility@@2U?$QLatin1Constant@$0N@@2@B @ 1046 NONAME ; struct QtMobility::QLatin1Constant<13> const QtMobility::QOrganizerItemReminder::FieldReminderType
	?tr@QOrganizerItemDetailDefinitionFetchRequest@QtMobility@@SA?AVQString@@PBD0H@Z @ 1047 NONAME ; class QString QtMobility::QOrganizerItemDetailDefinitionFetchRequest::tr(char const *, char const *, int)
	?endDateTime@QOrganizerEventTimeRange@QtMobility@@QBE?AVQDateTime@@XZ @ 1048 NONAME ; class QDateTime QtMobility::QOrganizerEventTimeRange::endDateTime(void) const
	??0QOrganizerItemManagerEngine@QtMobility@@QAE@XZ @ 1049 NONAME ; QtMobility::QOrganizerItemManagerEngine::QOrganizerItemManagerEngine(void)
	?exceptionDates@QOrganizerTodo@QtMobility@@QBE?AV?$QSet@VQDate@@@@XZ @ 1050 NONAME ; class QSet<class QDate> QtMobility::QOrganizerTodo::exceptionDates(void) const
	?itemIds@QOrganizerItemManager@QtMobility@@QBE?AV?$QList@VQOrganizerItemLocalId@QtMobility@@@@ABVQDateTime@@0ABVQOrganizerItemFilter@2@ABV?$QList@VQOrganizerItemSortOrder@QtMobility@@@@@Z @ 1051 NONAME ; class QList<class QtMobility::QOrganizerItemLocalId> QtMobility::QOrganizerItemManager::itemIds(class QDateTime const &, class QDateTime const &, class QtMobility::QOrganizerItemFilter const &, class QList<class QtMobility::QOrganizerItemSortOrder> const &) const
	?setDetailDefinitionName@QOrganizerItemDetailFilter@QtMobility@@QAEXABVQString@@0@Z @ 1052 NONAME ; void QtMobility::QOrganizerItemDetailFilter::setDetailDefinitionName(class QString const &, class QString const &)
	??_EQOrganizerCollectionEngineLocalId@QtMobility@@UAE@I@Z @ 1053 NONAME ; QtMobility::QOrganizerCollectionEngineLocalId::~QOrganizerCollectionEngineLocalId(unsigned int)
	??1QOrganizerItemDetailDefinition@QtMobility@@QAE@XZ @ 1054 NONAME ; QtMobility::QOrganizerItemDetailDefinition::~QOrganizerItemDetailDefinition(void)
	?setStartDateTime@QOrganizerEventTimeRange@QtMobility@@QAEXABVQDateTime@@@Z @ 1055 NONAME ; void QtMobility::QOrganizerEventTimeRange::setStartDateTime(class QDateTime const &)
	??MQOrganizerCollectionId@QtMobility@@QBE_NABV01@@Z @ 1056 NONAME ; bool QtMobility::QOrganizerCollectionId::operator<(class QtMobility::QOrganizerCollectionId const &) const
	?saveItem@QOrganizerItemManager@QtMobility@@QAE_NPAVQOrganizerItem@2@@Z @ 1057 NONAME ; bool QtMobility::QOrganizerItemManager::saveItem(class QtMobility::QOrganizerItem *)
	?staticMetaObject@QOrganizerItemSaveRequest@QtMobility@@2UQMetaObject@@B @ 1058 NONAME ; struct QMetaObject const QtMobility::QOrganizerItemSaveRequest::staticMetaObject
	?addComment@QOrganizerItem@QtMobility@@QAEXABVQString@@@Z @ 1059 NONAME ; void QtMobility::QOrganizerItem::addComment(class QString const &)
	?removeValue@QOrganizerItemDetail@QtMobility@@QAE_NPBD@Z @ 1060 NONAME ; bool QtMobility::QOrganizerItemDetail::removeValue(char const *)
	??0QOrganizerJournalTimeRange@QtMobility@@QAE@XZ @ 1061 NONAME ; QtMobility::QOrganizerJournalTimeRange::QOrganizerJournalTimeRange(void)
	?d_func@QOrganizerItemCollectionFilter@QtMobility@@AAEPAVQOrganizerItemCollectionFilterPrivate@2@XZ @ 1062 NONAME ; class QtMobility::QOrganizerItemCollectionFilterPrivate * QtMobility::QOrganizerItemCollectionFilter::d_func(void)
	?isFilterSupported@QOrganizerItemManagerEngine@QtMobility@@UBE_NABVQOrganizerItemFilter@2@@Z @ 1063 NONAME ; bool QtMobility::QOrganizerItemManagerEngine::isFilterSupported(class QtMobility::QOrganizerItemFilter const &) const
	?d_func@QOrganizerCollectionRemoveRequest@QtMobility@@AAEPAVQOrganizerCollectionRemoveRequestPrivate@2@XZ @ 1064 NONAME ; class QtMobility::QOrganizerCollectionRemoveRequestPrivate * QtMobility::QOrganizerCollectionRemoveRequest::d_func(void)
	??4QOrganizerItemLocation@QtMobility@@QAEAAV01@ABVQOrganizerItemDetail@1@@Z @ 1065 NONAME ; class QtMobility::QOrganizerItemLocation & QtMobility::QOrganizerItemLocation::operator=(class QtMobility::QOrganizerItemDetail const &)
	??_EQOrganizerItemManager@QtMobility@@UAE@I@Z @ 1066 NONAME ; QtMobility::QOrganizerItemManager::~QOrganizerItemManager(unsigned int)
	??6QOrganizerItemIntersectionFilter@QtMobility@@QAEAAV01@ABVQOrganizerItemFilter@1@@Z @ 1067 NONAME ; class QtMobility::QOrganizerItemIntersectionFilter & QtMobility::QOrganizerItemIntersectionFilter::operator<<(class QtMobility::QOrganizerItemFilter const &)
	?collectionIds@QOrganizerItemCollectionFilter@QtMobility@@QBE?AV?$QSet@VQOrganizerCollectionLocalId@QtMobility@@@@XZ @ 1068 NONAME ; class QSet<class QtMobility::QOrganizerCollectionLocalId> QtMobility::QOrganizerItemCollectionFilter::collectionIds(void) const
	?clearAll@QOrganizerItemChangeSet@QtMobility@@QAEXXZ @ 1069 NONAME ; void QtMobility::QOrganizerItemChangeSet::clearAll(void)
	?insertRemovedCollections@QOrganizerCollectionChangeSet@QtMobility@@QAEXABV?$QList@VQOrganizerCollectionLocalId@QtMobility@@@@@Z @ 1070 NONAME ; void QtMobility::QOrganizerCollectionChangeSet::insertRemovedCollections(class QList<class QtMobility::QOrganizerCollectionLocalId> const &)
	?metaObject@QOrganizerItemDetailDefinitionSaveRequest@QtMobility@@UBEPBUQMetaObject@@XZ @ 1071 NONAME ; struct QMetaObject const * QtMobility::QOrganizerItemDetailDefinitionSaveRequest::metaObject(void) const
	?lastModified@QOrganizerItemTimestamp@QtMobility@@QBE?AVQDateTime@@XZ @ 1072 NONAME ; class QDateTime QtMobility::QOrganizerItemTimestamp::lastModified(void) const
	?setItemType@QOrganizerItemDetailDefinitionFetchRequest@QtMobility@@QAEXABVQString@@@Z @ 1073 NONAME ; void QtMobility::QOrganizerItemDetailDefinitionFetchRequest::setItemType(class QString const &)
	??6QOrganizerItemUnionFilter@QtMobility@@QAEAAV01@ABVQOrganizerItemFilter@1@@Z @ 1074 NONAME ; class QtMobility::QOrganizerItemUnionFilter & QtMobility::QOrganizerItemUnionFilter::operator<<(class QtMobility::QOrganizerItemFilter const &)
	??0QOrganizerItemUnionFilter@QtMobility@@QAE@XZ @ 1075 NONAME ; QtMobility::QOrganizerItemUnionFilter::QOrganizerItemUnionFilter(void)
	??4QOrganizerEvent@QtMobility@@QAEAAV01@ABVQOrganizerItem@1@@Z @ 1076 NONAME ; class QtMobility::QOrganizerEvent & QtMobility::QOrganizerEvent::operator=(class QtMobility::QOrganizerItem const &)
	?trUtf8@QOrganizerItemSaveRequest@QtMobility@@SA?AVQString@@PBD0H@Z @ 1077 NONAME ; class QString QtMobility::QOrganizerItemSaveRequest::trUtf8(char const *, char const *, int)
	?createEngine@QOrganizerItemManager@QtMobility@@AAEXABVQString@@ABV?$QMap@VQString@@V1@@@@Z @ 1078 NONAME ; void QtMobility::QOrganizerItemManager::createEngine(class QString const &, class QMap<class QString, class QString> const &)
	?fromUri@QOrganizerItemManager@QtMobility@@SAPAV12@ABVQString@@PAVQObject@@@Z @ 1079 NONAME ; class QtMobility::QOrganizerItemManager * QtMobility::QOrganizerItemManager::fromUri(class QString const &, class QObject *)
	??9QOrganizerCollectionId@QtMobility@@QBE_NABV01@@Z @ 1080 NONAME ; bool QtMobility::QOrganizerCollectionId::operator!=(class QtMobility::QOrganizerCollectionId const &) const
	?setIds@QOrganizerItemLocalIdFilter@QtMobility@@QAEXABV?$QList@VQOrganizerItemLocalId@QtMobility@@@@@Z @ 1081 NONAME ; void QtMobility::QOrganizerItemLocalIdFilter::setIds(class QList<class QtMobility::QOrganizerItemLocalId> const &)
	??8QOrganizerItemDetailFieldDefinition@QtMobility@@QBE_NABV01@@Z @ 1082 NONAME ; bool QtMobility::QOrganizerItemDetailFieldDefinition::operator==(class QtMobility::QOrganizerItemDetailFieldDefinition const &) const
	?startDate@QOrganizerItemFetchForExportRequest@QtMobility@@QBE?AVQDateTime@@XZ @ 1083 NONAME ; class QDateTime QtMobility::QOrganizerItemFetchForExportRequest::startDate(void) const
	?detailDefinitionName@QOrganizerItemSortOrder@QtMobility@@QBE?AVQString@@XZ @ 1084 NONAME ; class QString QtMobility::QOrganizerItemSortOrder::detailDefinitionName(void) const
	?setDefinitionNames@QOrganizerItemDetailDefinitionRemoveRequest@QtMobility@@QAEXABVQStringList@@@Z @ 1085 NONAME ; void QtMobility::QOrganizerItemDetailDefinitionRemoveRequest::setDefinitionNames(class QStringList const &)
	?removeDetailDefinition@QOrganizerItemManagerEngine@QtMobility@@UAE_NABVQString@@0PAW4Error@QOrganizerItemManager@2@@Z @ 1086 NONAME ; bool QtMobility::QOrganizerItemManagerEngine::removeDetailDefinition(class QString const &, class QString const &, enum QtMobility::QOrganizerItemManager::Error *)
	??0QOrganizerItemTimestamp@QtMobility@@QAE@XZ @ 1087 NONAME ; QtMobility::QOrganizerItemTimestamp::QOrganizerItemTimestamp(void)
	??0QOrganizerItemAudibleReminder@QtMobility@@QAE@XZ @ 1088 NONAME ; QtMobility::QOrganizerItemAudibleReminder::QOrganizerItemAudibleReminder(void)
	?id@QOrganizerCollection@QtMobility@@QBE?AVQOrganizerCollectionId@2@XZ @ 1089 NONAME ; class QtMobility::QOrganizerCollectionId QtMobility::QOrganizerCollection::id(void) const
	?managerUri@QOrganizerItemId@QtMobility@@QBE?AVQString@@XZ @ 1090 NONAME ; class QString QtMobility::QOrganizerItemId::managerUri(void) const
	??4QOrganizerCollectionId@QtMobility@@QAEAAV01@ABV01@@Z @ 1091 NONAME ; class QtMobility::QOrganizerCollectionId & QtMobility::QOrganizerCollectionId::operator=(class QtMobility::QOrganizerCollectionId const &)
	??0QOrganizerItemInstanceFetchRequest@QtMobility@@QAE@PAVQObject@@@Z @ 1092 NONAME ; QtMobility::QOrganizerItemInstanceFetchRequest::QOrganizerItemInstanceFetchRequest(class QObject *)
	??4QOrganizerJournalTimeRange@QtMobility@@QAEAAV01@ABVQOrganizerItemDetail@1@@Z @ 1093 NONAME ; class QtMobility::QOrganizerJournalTimeRange & QtMobility::QOrganizerJournalTimeRange::operator=(class QtMobility::QOrganizerItemDetail const &)
	?detailDefinition@QOrganizerItemManager@QtMobility@@QBE?AVQOrganizerItemDetailDefinition@2@ABVQString@@0@Z @ 1094 NONAME ; class QtMobility::QOrganizerItemDetailDefinition QtMobility::QOrganizerItemManager::detailDefinition(class QString const &, class QString const &) const
	?trUtf8@QOrganizerCollectionRemoveRequest@QtMobility@@SA?AVQString@@PBD0@Z @ 1095 NONAME ; class QString QtMobility::QOrganizerCollectionRemoveRequest::trUtf8(char const *, char const *)
	??1QOrganizerItemDetailDefinitionRemoveRequest@QtMobility@@UAE@XZ @ 1096 NONAME ; QtMobility::QOrganizerItemDetailDefinitionRemoveRequest::~QOrganizerItemDetailDefinitionRemoveRequest(void)
	??9QOrganizerItemRecurrence@QtMobility@@QBE_NABV01@@Z @ 1097 NONAME ; bool QtMobility::QOrganizerItemRecurrence::operator!=(class QtMobility::QOrganizerItemRecurrence const &) const
	??0QOrganizerItemLocalId@QtMobility@@QAE@XZ @ 1098 NONAME ; QtMobility::QOrganizerItemLocalId::QOrganizerItemLocalId(void)
	?FieldModificationTimestamp@QOrganizerItemTimestamp@QtMobility@@2U?$QLatin1Constant@$0BG@@2@B @ 1099 NONAME ; struct QtMobility::QLatin1Constant<22> const QtMobility::QOrganizerItemTimestamp::FieldModificationTimestamp
	?setStartDate@QOrganizerItemFetchRequest@QtMobility@@QAEXABVQDateTime@@@Z @ 1100 NONAME ; void QtMobility::QOrganizerItemFetchRequest::setStartDate(class QDateTime const &)
	??0QOrganizerItemInstanceOrigin@QtMobility@@QAE@ABVQOrganizerItemDetail@1@@Z @ 1101 NONAME ; QtMobility::QOrganizerItemInstanceOrigin::QOrganizerItemInstanceOrigin(class QtMobility::QOrganizerItemDetail const &)
	??6QtMobility@@YAAAVQDataStream@@AAV1@ABVQOrganizerItemFetchHint@0@@Z @ 1102 NONAME ; class QDataStream & QtMobility::operator<<(class QDataStream &, class QtMobility::QOrganizerItemFetchHint const &)
	?itemType@QOrganizerItemDetailDefinitionRemoveRequest@QtMobility@@QBE?AVQString@@XZ @ 1103 NONAME ; class QString QtMobility::QOrganizerItemDetailDefinitionRemoveRequest::itemType(void) const
	?isTimeSpecified@QOrganizerTodoTimeRange@QtMobility@@QAE_NXZ @ 1104 NONAME ; bool QtMobility::QOrganizerTodoTimeRange::isTimeSpecified(void)
	?d_func@QOrganizerItemDetailFilter@QtMobility@@ABEPBVQOrganizerItemDetailFilterPrivate@2@XZ @ 1105 NONAME ; class QtMobility::QOrganizerItemDetailFilterPrivate const * QtMobility::QOrganizerItemDetailFilter::d_func(void) const
	??5QtMobility@@YAAAVQDataStream@@AAV1@AAVQOrganizerItemSortOrder@0@@Z @ 1106 NONAME ; class QDataStream & QtMobility::operator>>(class QDataStream &, class QtMobility::QOrganizerItemSortOrder &)
	?variantValues@QOrganizerItemDetail@QtMobility@@QBE?AV?$QMap@VQString@@VQVariant@@@@XZ @ 1107 NONAME ; class QMap<class QString, class QVariant> QtMobility::QOrganizerItemDetail::variantValues(void) const
	?setDateTime@QOrganizerJournal@QtMobility@@QAEXABVQDateTime@@@Z @ 1108 NONAME ; void QtMobility::QOrganizerJournal::setDateTime(class QDateTime const &)
	?setDaysOfMonth@QOrganizerItemRecurrenceRule@QtMobility@@QAEXABV?$QSet@H@@@Z @ 1109 NONAME ; void QtMobility::QOrganizerItemRecurrenceRule::setDaysOfMonth(class QSet<int> const &)

