EXPORTS
	??0QSystemBatteryInfo@QtMobility@@QAE@PAVQObject@@@Z @ 1 NONAME ; QtMobility::QSystemBatteryInfo::QSystemBatteryInfo(class QObject *)
	??0QSystemDeviceInfo@QtMobility@@QAE@PAVQObject@@@Z @ 2 NONAME ; QtMobility::QSystemDeviceInfo::QSystemDeviceInfo(class QObject *)
	??0QSystemDisplayInfo@QtMobility@@QAE@PAVQObject@@@Z @ 3 NONAME ; QtMobility::QSystemDisplayInfo::QSystemDisplayInfo(class QObject *)
	??0QSystemInfo@QtMobility@@QAE@PAVQObject@@@Z @ 4 NONAME ; QtMobility::QSystemInfo::QSystemInfo(class QObject *)
	??0QSystemNetworkInfo@QtMobility@@QAE@PAVQObject@@@Z @ 5 NONAME ; QtMobility::QSystemNetworkInfo::QSystemNetworkInfo(class QObject *)
	??0QSystemScreenSaver@QtMobility@@QAE@PAVQObject@@@Z @ 6 NONAME ; QtMobility::QSystemScreenSaver::QSystemScreenSaver(class QObject *)
	??0QSystemStorageInfo@QtMobility@@QAE@PAVQObject@@@Z @ 7 NONAME ; QtMobility::QSystemStorageInfo::QSystemStorageInfo(class QObject *)
	??1QSystemBatteryInfo@QtMobility@@UAE@XZ @ 8 NONAME ; QtMobility::QSystemBatteryInfo::~QSystemBatteryInfo(void)
	??1QSystemDeviceInfo@QtMobility@@UAE@XZ @ 9 NONAME ; QtMobility::QSystemDeviceInfo::~QSystemDeviceInfo(void)
	??1QSystemDisplayInfo@QtMobility@@UAE@XZ @ 10 NONAME ; QtMobility::QSystemDisplayInfo::~QSystemDisplayInfo(void)
	??1QSystemInfo@QtMobility@@UAE@XZ @ 11 NONAME ; QtMobility::QSystemInfo::~QSystemInfo(void)
	??1QSystemNetworkInfo@QtMobility@@UAE@XZ @ 12 NONAME ; QtMobility::QSystemNetworkInfo::~QSystemNetworkInfo(void)
	??1QSystemScreenSaver@QtMobility@@UAE@XZ @ 13 NONAME ; QtMobility::QSystemScreenSaver::~QSystemScreenSaver(void)
	??1QSystemStorageInfo@QtMobility@@UAE@XZ @ 14 NONAME ; QtMobility::QSystemStorageInfo::~QSystemStorageInfo(void)
	??_EQSystemBatteryInfo@QtMobility@@UAE@I@Z @ 15 NONAME ; QtMobility::QSystemBatteryInfo::~QSystemBatteryInfo(unsigned int)
	??_EQSystemDeviceInfo@QtMobility@@UAE@I@Z @ 16 NONAME ; QtMobility::QSystemDeviceInfo::~QSystemDeviceInfo(unsigned int)
	??_EQSystemDisplayInfo@QtMobility@@UAE@I@Z @ 17 NONAME ; QtMobility::QSystemDisplayInfo::~QSystemDisplayInfo(unsigned int)
	??_EQSystemInfo@QtMobility@@UAE@I@Z @ 18 NONAME ; QtMobility::QSystemInfo::~QSystemInfo(unsigned int)
	??_EQSystemNetworkInfo@QtMobility@@UAE@I@Z @ 19 NONAME ; QtMobility::QSystemNetworkInfo::~QSystemNetworkInfo(unsigned int)
	??_EQSystemScreenSaver@QtMobility@@UAE@I@Z @ 20 NONAME ; QtMobility::QSystemScreenSaver::~QSystemScreenSaver(unsigned int)
	??_EQSystemStorageInfo@QtMobility@@UAE@I@Z @ 21 NONAME ; QtMobility::QSystemStorageInfo::~QSystemStorageInfo(unsigned int)
	?availableDiskSpace@QSystemStorageInfo@QtMobility@@QAE_JABVQString@@@Z @ 22 NONAME ; long long QtMobility::QSystemStorageInfo::availableDiskSpace(class QString const &)
	?availableLanguages@QSystemInfo@QtMobility@@QAE?AVQStringList@@XZ @ 23 NONAME ; class QStringList QtMobility::QSystemInfo::availableLanguages(void)
	?backlightStatus@QSystemDisplayInfo@QtMobility@@QAE?AW4BacklightState@12@H@Z @ 24 NONAME ; enum QtMobility::QSystemDisplayInfo::BacklightState QtMobility::QSystemDisplayInfo::backlightStatus(int)
	?batteryLevel@QSystemDeviceInfo@QtMobility@@QBEHXZ @ 25 NONAME ; int QtMobility::QSystemDeviceInfo::batteryLevel(void) const
	?batteryLevelChanged@QSystemDeviceInfo@QtMobility@@IAEXH@Z @ 26 NONAME ; void QtMobility::QSystemDeviceInfo::batteryLevelChanged(int)
	?batteryStatus@QSystemBatteryInfo@QtMobility@@QBE?AW4BatteryStatus@12@XZ @ 27 NONAME ; enum QtMobility::QSystemBatteryInfo::BatteryStatus QtMobility::QSystemBatteryInfo::batteryStatus(void) const
	?batteryStatus@QSystemDeviceInfo@QtMobility@@QAE?AW4BatteryStatus@12@XZ @ 28 NONAME ; enum QtMobility::QSystemDeviceInfo::BatteryStatus QtMobility::QSystemDeviceInfo::batteryStatus(void)
	?batteryStatusChanged@QSystemBatteryInfo@QtMobility@@IAEXW4BatteryStatus@12@@Z @ 29 NONAME ; void QtMobility::QSystemBatteryInfo::batteryStatusChanged(enum QtMobility::QSystemBatteryInfo::BatteryStatus)
	?batteryStatusChanged@QSystemDeviceInfo@QtMobility@@IAEXW4BatteryStatus@12@@Z @ 30 NONAME ; void QtMobility::QSystemDeviceInfo::batteryStatusChanged(enum QtMobility::QSystemDeviceInfo::BatteryStatus)
	?bluetoothStateChanged@QSystemDeviceInfo@QtMobility@@IAEX_N@Z @ 31 NONAME ; void QtMobility::QSystemDeviceInfo::bluetoothStateChanged(bool)
	?cellId@QSystemNetworkInfo@QtMobility@@QAEHXZ @ 32 NONAME ; int QtMobility::QSystemNetworkInfo::cellId(void)
	?cellIdChanged@QSystemNetworkInfo@QtMobility@@IAEXH@Z @ 33 NONAME ; void QtMobility::QSystemNetworkInfo::cellIdChanged(int)
	?chargerType@QSystemBatteryInfo@QtMobility@@QBE?AW4ChargerType@12@XZ @ 34 NONAME ; enum QtMobility::QSystemBatteryInfo::ChargerType QtMobility::QSystemBatteryInfo::chargerType(void) const
	?chargerTypeChanged@QSystemBatteryInfo@QtMobility@@IAEXW4ChargerType@12@@Z @ 35 NONAME ; void QtMobility::QSystemBatteryInfo::chargerTypeChanged(enum QtMobility::QSystemBatteryInfo::ChargerType)
	?chargingState@QSystemBatteryInfo@QtMobility@@QBE?AW4ChargingState@12@XZ @ 36 NONAME ; enum QtMobility::QSystemBatteryInfo::ChargingState QtMobility::QSystemBatteryInfo::chargingState(void) const
	?chargingStateChanged@QSystemBatteryInfo@QtMobility@@IAEXW4ChargingState@12@@Z @ 37 NONAME ; void QtMobility::QSystemBatteryInfo::chargingStateChanged(enum QtMobility::QSystemBatteryInfo::ChargingState)
	?colorDepth@QSystemDisplayInfo@QtMobility@@SAHH@Z @ 38 NONAME ; int QtMobility::QSystemDisplayInfo::colorDepth(int)
	?connectNotify@QSystemBatteryInfo@QtMobility@@MAEXPBD@Z @ 39 NONAME ; void QtMobility::QSystemBatteryInfo::connectNotify(char const *)
	?connectNotify@QSystemDeviceInfo@QtMobility@@MAEXPBD@Z @ 40 NONAME ; void QtMobility::QSystemDeviceInfo::connectNotify(char const *)
	?connectNotify@QSystemInfo@QtMobility@@MAEXPBD@Z @ 41 NONAME ; void QtMobility::QSystemInfo::connectNotify(char const *)
	?connectNotify@QSystemNetworkInfo@QtMobility@@MAEXPBD@Z @ 42 NONAME ; void QtMobility::QSystemNetworkInfo::connectNotify(char const *)
	?contrast@QSystemDisplayInfo@QtMobility@@QAEMH@Z @ 43 NONAME ; float QtMobility::QSystemDisplayInfo::contrast(int)
	?currentBluetoothPowerState@QSystemDeviceInfo@QtMobility@@QAE_NXZ @ 44 NONAME ; bool QtMobility::QSystemDeviceInfo::currentBluetoothPowerState(void)
	?currentCountryCode@QSystemInfo@QtMobility@@QAE?AVQString@@XZ @ 45 NONAME ; class QString QtMobility::QSystemInfo::currentCountryCode(void)
	?currentFlow@QSystemBatteryInfo@QtMobility@@QBEHXZ @ 46 NONAME ; int QtMobility::QSystemBatteryInfo::currentFlow(void) const
	?currentFlowChanged@QSystemBatteryInfo@QtMobility@@IAEXH@Z @ 47 NONAME ; void QtMobility::QSystemBatteryInfo::currentFlowChanged(int)
	?currentLanguage@QSystemInfo@QtMobility@@QAE?AVQString@@XZ @ 48 NONAME ; class QString QtMobility::QSystemInfo::currentLanguage(void)
	?currentLanguageChanged@QSystemInfo@QtMobility@@IAEXABVQString@@@Z @ 49 NONAME ; void QtMobility::QSystemInfo::currentLanguageChanged(class QString const &)
	?currentMobileCountryCode@QSystemNetworkInfo@QtMobility@@QAE?AVQString@@XZ @ 50 NONAME ; class QString QtMobility::QSystemNetworkInfo::currentMobileCountryCode(void)
	?currentMobileCountryCodeChanged@QSystemNetworkInfo@QtMobility@@IAEXABVQString@@@Z @ 51 NONAME ; void QtMobility::QSystemNetworkInfo::currentMobileCountryCodeChanged(class QString const &)
	?currentMobileNetworkCode@QSystemNetworkInfo@QtMobility@@QAE?AVQString@@XZ @ 52 NONAME ; class QString QtMobility::QSystemNetworkInfo::currentMobileNetworkCode(void)
	?currentMobileNetworkCodeChanged@QSystemNetworkInfo@QtMobility@@IAEXABVQString@@@Z @ 53 NONAME ; void QtMobility::QSystemNetworkInfo::currentMobileNetworkCodeChanged(class QString const &)
	?currentMode@QSystemNetworkInfo@QtMobility@@QAE?AW4NetworkMode@12@XZ @ 54 NONAME ; enum QtMobility::QSystemNetworkInfo::NetworkMode QtMobility::QSystemNetworkInfo::currentMode(void)
	?currentPowerState@QSystemDeviceInfo@QtMobility@@QAE?AW4PowerState@12@XZ @ 55 NONAME ; enum QtMobility::QSystemDeviceInfo::PowerState QtMobility::QSystemDeviceInfo::currentPowerState(void)
	?currentProfile@QSystemDeviceInfo@QtMobility@@QAE?AW4Profile@12@XZ @ 56 NONAME ; enum QtMobility::QSystemDeviceInfo::Profile QtMobility::QSystemDeviceInfo::currentProfile(void)
	?currentProfileChanged@QSystemDeviceInfo@QtMobility@@IAEXW4Profile@12@@Z @ 57 NONAME ; void QtMobility::QSystemDeviceInfo::currentProfileChanged(enum QtMobility::QSystemDeviceInfo::Profile)
	?deviceLocked@QSystemDeviceInfo@QtMobility@@IAEX_N@Z @ 58 NONAME ; void QtMobility::QSystemDeviceInfo::deviceLocked(bool)
	?disconnectNotify@QSystemBatteryInfo@QtMobility@@MAEXPBD@Z @ 59 NONAME ; void QtMobility::QSystemBatteryInfo::disconnectNotify(char const *)
	?disconnectNotify@QSystemDeviceInfo@QtMobility@@MAEXPBD@Z @ 60 NONAME ; void QtMobility::QSystemDeviceInfo::disconnectNotify(char const *)
	?disconnectNotify@QSystemInfo@QtMobility@@MAEXPBD@Z @ 61 NONAME ; void QtMobility::QSystemInfo::disconnectNotify(char const *)
	?disconnectNotify@QSystemNetworkInfo@QtMobility@@MAEXPBD@Z @ 62 NONAME ; void QtMobility::QSystemNetworkInfo::disconnectNotify(char const *)
	?displayBrightness@QSystemDisplayInfo@QtMobility@@SAHH@Z @ 63 NONAME ; int QtMobility::QSystemDisplayInfo::displayBrightness(int)
	?energyMeasurementUnit@QSystemBatteryInfo@QtMobility@@QBE?AW4EnergyUnit@12@XZ @ 64 NONAME ; enum QtMobility::QSystemBatteryInfo::EnergyUnit QtMobility::QSystemBatteryInfo::energyMeasurementUnit(void) const
	?getDPIHeight@QSystemDisplayInfo@QtMobility@@QAEHH@Z @ 65 NONAME ; int QtMobility::QSystemDisplayInfo::getDPIHeight(int)
	?getDPIWidth@QSystemDisplayInfo@QtMobility@@QAEHH@Z @ 66 NONAME ; int QtMobility::QSystemDisplayInfo::getDPIWidth(int)
	?getOrientation@QSystemDisplayInfo@QtMobility@@QAE?AW4DisplayOrientation@12@H@Z @ 67 NONAME ; enum QtMobility::QSystemDisplayInfo::DisplayOrientation QtMobility::QSystemDisplayInfo::getOrientation(int)
	?getStaticMetaObject@QSystemBatteryInfo@QtMobility@@SAABUQMetaObject@@XZ @ 68 NONAME ; struct QMetaObject const & QtMobility::QSystemBatteryInfo::getStaticMetaObject(void)
	?getStaticMetaObject@QSystemDeviceInfo@QtMobility@@SAABUQMetaObject@@XZ @ 69 NONAME ; struct QMetaObject const & QtMobility::QSystemDeviceInfo::getStaticMetaObject(void)
	?getStaticMetaObject@QSystemDisplayInfo@QtMobility@@SAABUQMetaObject@@XZ @ 70 NONAME ; struct QMetaObject const & QtMobility::QSystemDisplayInfo::getStaticMetaObject(void)
	?getStaticMetaObject@QSystemInfo@QtMobility@@SAABUQMetaObject@@XZ @ 71 NONAME ; struct QMetaObject const & QtMobility::QSystemInfo::getStaticMetaObject(void)
	?getStaticMetaObject@QSystemNetworkInfo@QtMobility@@SAABUQMetaObject@@XZ @ 72 NONAME ; struct QMetaObject const & QtMobility::QSystemNetworkInfo::getStaticMetaObject(void)
	?getStaticMetaObject@QSystemScreenSaver@QtMobility@@SAABUQMetaObject@@XZ @ 73 NONAME ; struct QMetaObject const & QtMobility::QSystemScreenSaver::getStaticMetaObject(void)
	?getStaticMetaObject@QSystemStorageInfo@QtMobility@@SAABUQMetaObject@@XZ @ 74 NONAME ; struct QMetaObject const & QtMobility::QSystemStorageInfo::getStaticMetaObject(void)
	?getStorageState@QSystemStorageInfo@QtMobility@@QAE?AW4StorageState@12@ABVQString@@@Z @ 75 NONAME ; enum QtMobility::QSystemStorageInfo::StorageState QtMobility::QSystemStorageInfo::getStorageState(class QString const &)
	?hasFeatureSupported@QSystemInfo@QtMobility@@QAE_NW4Feature@12@@Z @ 76 NONAME ; bool QtMobility::QSystemInfo::hasFeatureSupported(enum QtMobility::QSystemInfo::Feature)
	?homeMobileCountryCode@QSystemNetworkInfo@QtMobility@@QAE?AVQString@@XZ @ 77 NONAME ; class QString QtMobility::QSystemNetworkInfo::homeMobileCountryCode(void)
	?homeMobileNetworkCode@QSystemNetworkInfo@QtMobility@@QAE?AVQString@@XZ @ 78 NONAME ; class QString QtMobility::QSystemNetworkInfo::homeMobileNetworkCode(void)
	?imei@QSystemDeviceInfo@QtMobility@@QAE?AVQString@@XZ @ 79 NONAME ; class QString QtMobility::QSystemDeviceInfo::imei(void)
	?imsi@QSystemDeviceInfo@QtMobility@@QAE?AVQString@@XZ @ 80 NONAME ; class QString QtMobility::QSystemDeviceInfo::imsi(void)
	?inputMethodType@QSystemDeviceInfo@QtMobility@@QAE?AV?$QFlags@W4InputMethod@QSystemDeviceInfo@QtMobility@@@@XZ @ 81 NONAME ; class QFlags<enum QtMobility::QSystemDeviceInfo::InputMethod> QtMobility::QSystemDeviceInfo::inputMethodType(void)
	?interfaceForMode@QSystemNetworkInfo@QtMobility@@QAE?AVQNetworkInterface@@W4NetworkMode@12@@Z @ 82 NONAME ; class QNetworkInterface QtMobility::QSystemNetworkInfo::interfaceForMode(enum QtMobility::QSystemNetworkInfo::NetworkMode)
	?isDeviceLocked@QSystemDeviceInfo@QtMobility@@QAE_NXZ @ 83 NONAME ; bool QtMobility::QSystemDeviceInfo::isDeviceLocked(void)
	?isKeyboardFlipOpen@QSystemDeviceInfo@QtMobility@@QAE_NXZ @ 84 NONAME ; bool QtMobility::QSystemDeviceInfo::isKeyboardFlipOpen(void)
	?isWirelessKeyboardConnected@QSystemDeviceInfo@QtMobility@@QAE_NXZ @ 85 NONAME ; bool QtMobility::QSystemDeviceInfo::isWirelessKeyboardConnected(void)
	?keyboardFlip@QSystemDeviceInfo@QtMobility@@IAEX_N@Z @ 86 NONAME ; void QtMobility::QSystemDeviceInfo::keyboardFlip(bool)
	?keyboardType@QSystemDeviceInfo@QtMobility@@QAE?AV?$QFlags@W4KeyboardType@QSystemDeviceInfo@QtMobility@@@@XZ @ 87 NONAME ; class QFlags<enum QtMobility::QSystemDeviceInfo::KeyboardType> QtMobility::QSystemDeviceInfo::keyboardType(void)
	?keypadLightOn@QSystemDeviceInfo@QtMobility@@QAE_NW4keypadType@12@@Z @ 88 NONAME ; bool QtMobility::QSystemDeviceInfo::keypadLightOn(enum QtMobility::QSystemDeviceInfo::keypadType)
	?locationAreaCode@QSystemNetworkInfo@QtMobility@@QAEHXZ @ 89 NONAME ; int QtMobility::QSystemNetworkInfo::locationAreaCode(void)
	?lockStatus@QSystemDeviceInfo@QtMobility@@QAE?AW4LockType@12@XZ @ 90 NONAME ; enum QtMobility::QSystemDeviceInfo::LockType QtMobility::QSystemDeviceInfo::lockStatus(void)
	?lockStatusChanged@QSystemDeviceInfo@QtMobility@@IAEXW4LockType@12@@Z @ 91 NONAME ; void QtMobility::QSystemDeviceInfo::lockStatusChanged(enum QtMobility::QSystemDeviceInfo::LockType)
	?logicalDriveChanged@QSystemStorageInfo@QtMobility@@IAEX_NABVQString@@@Z @ 92 NONAME ; void QtMobility::QSystemStorageInfo::logicalDriveChanged(bool, class QString const &)
	?logicalDrives@QSystemStorageInfo@QtMobility@@SA?AVQStringList@@XZ @ 93 NONAME ; class QStringList QtMobility::QSystemStorageInfo::logicalDrives(void)
	?macAddress@QSystemNetworkInfo@QtMobility@@QAE?AVQString@@W4NetworkMode@12@@Z @ 94 NONAME ; class QString QtMobility::QSystemNetworkInfo::macAddress(enum QtMobility::QSystemNetworkInfo::NetworkMode)
	?manufacturer@QSystemDeviceInfo@QtMobility@@QAE?AVQString@@XZ @ 95 NONAME ; class QString QtMobility::QSystemDeviceInfo::manufacturer(void)
	?maxBars@QSystemBatteryInfo@QtMobility@@QBEHXZ @ 96 NONAME ; int QtMobility::QSystemBatteryInfo::maxBars(void) const
	?metaObject@QSystemBatteryInfo@QtMobility@@UBEPBUQMetaObject@@XZ @ 97 NONAME ; struct QMetaObject const * QtMobility::QSystemBatteryInfo::metaObject(void) const
	?metaObject@QSystemDeviceInfo@QtMobility@@UBEPBUQMetaObject@@XZ @ 98 NONAME ; struct QMetaObject const * QtMobility::QSystemDeviceInfo::metaObject(void) const
	?metaObject@QSystemDisplayInfo@QtMobility@@UBEPBUQMetaObject@@XZ @ 99 NONAME ; struct QMetaObject const * QtMobility::QSystemDisplayInfo::metaObject(void) const
	?metaObject@QSystemInfo@QtMobility@@UBEPBUQMetaObject@@XZ @ 100 NONAME ; struct QMetaObject const * QtMobility::QSystemInfo::metaObject(void) const
	?metaObject@QSystemNetworkInfo@QtMobility@@UBEPBUQMetaObject@@XZ @ 101 NONAME ; struct QMetaObject const * QtMobility::QSystemNetworkInfo::metaObject(void) const
	?metaObject@QSystemScreenSaver@QtMobility@@UBEPBUQMetaObject@@XZ @ 102 NONAME ; struct QMetaObject const * QtMobility::QSystemScreenSaver::metaObject(void) const
	?metaObject@QSystemStorageInfo@QtMobility@@UBEPBUQMetaObject@@XZ @ 103 NONAME ; struct QMetaObject const * QtMobility::QSystemStorageInfo::metaObject(void) const
	?model@QSystemDeviceInfo@QtMobility@@QAE?AVQString@@XZ @ 104 NONAME ; class QString QtMobility::QSystemDeviceInfo::model(void)
	?networkModeChanged@QSystemNetworkInfo@QtMobility@@IAEXW4NetworkMode@12@@Z @ 105 NONAME ; void QtMobility::QSystemNetworkInfo::networkModeChanged(enum QtMobility::QSystemNetworkInfo::NetworkMode)
	?networkName@QSystemNetworkInfo@QtMobility@@SA?AVQString@@W4NetworkMode@12@@Z @ 106 NONAME ; class QString QtMobility::QSystemNetworkInfo::networkName(enum QtMobility::QSystemNetworkInfo::NetworkMode)
	?networkNameChanged@QSystemNetworkInfo@QtMobility@@IAEXW4NetworkMode@12@ABVQString@@@Z @ 107 NONAME ; void QtMobility::QSystemNetworkInfo::networkNameChanged(enum QtMobility::QSystemNetworkInfo::NetworkMode, class QString const &)
	?networkSignalStrength@QSystemNetworkInfo@QtMobility@@SAHW4NetworkMode@12@@Z @ 108 NONAME ; int QtMobility::QSystemNetworkInfo::networkSignalStrength(enum QtMobility::QSystemNetworkInfo::NetworkMode)
	?networkSignalStrengthChanged@QSystemNetworkInfo@QtMobility@@IAEXW4NetworkMode@12@H@Z @ 109 NONAME ; void QtMobility::QSystemNetworkInfo::networkSignalStrengthChanged(enum QtMobility::QSystemNetworkInfo::NetworkMode, int)
	?networkStatus@QSystemNetworkInfo@QtMobility@@QAE?AW4NetworkStatus@12@W4NetworkMode@12@@Z @ 110 NONAME ; enum QtMobility::QSystemNetworkInfo::NetworkStatus QtMobility::QSystemNetworkInfo::networkStatus(enum QtMobility::QSystemNetworkInfo::NetworkMode)
	?networkStatusChanged@QSystemNetworkInfo@QtMobility@@IAEXW4NetworkMode@12@W4NetworkStatus@12@@Z @ 111 NONAME ; void QtMobility::QSystemNetworkInfo::networkStatusChanged(enum QtMobility::QSystemNetworkInfo::NetworkMode, enum QtMobility::QSystemNetworkInfo::NetworkStatus)
	?nominalCapacity@QSystemBatteryInfo@QtMobility@@QBEHXZ @ 112 NONAME ; int QtMobility::QSystemBatteryInfo::nominalCapacity(void) const
	?nominalCapacityChanged@QSystemBatteryInfo@QtMobility@@IAEXH@Z @ 113 NONAME ; void QtMobility::QSystemBatteryInfo::nominalCapacityChanged(int)
	?physicalHeight@QSystemDisplayInfo@QtMobility@@QAEHH@Z @ 114 NONAME ; int QtMobility::QSystemDisplayInfo::physicalHeight(int)
	?physicalWidth@QSystemDisplayInfo@QtMobility@@QAEHH@Z @ 115 NONAME ; int QtMobility::QSystemDisplayInfo::physicalWidth(int)
	?powerStateChanged@QSystemDeviceInfo@QtMobility@@IAEXW4PowerState@12@@Z @ 116 NONAME ; void QtMobility::QSystemDeviceInfo::powerStateChanged(enum QtMobility::QSystemDeviceInfo::PowerState)
	?productName@QSystemDeviceInfo@QtMobility@@QAE?AVQString@@XZ @ 117 NONAME ; class QString QtMobility::QSystemDeviceInfo::productName(void)
	?qt_metacall@QSystemBatteryInfo@QtMobility@@UAEHW4Call@QMetaObject@@HPAPAX@Z @ 118 NONAME ; int QtMobility::QSystemBatteryInfo::qt_metacall(enum QMetaObject::Call, int, void * *)
	?qt_metacall@QSystemDeviceInfo@QtMobility@@UAEHW4Call@QMetaObject@@HPAPAX@Z @ 119 NONAME ; int QtMobility::QSystemDeviceInfo::qt_metacall(enum QMetaObject::Call, int, void * *)
	?qt_metacall@QSystemDisplayInfo@QtMobility@@UAEHW4Call@QMetaObject@@HPAPAX@Z @ 120 NONAME ; int QtMobility::QSystemDisplayInfo::qt_metacall(enum QMetaObject::Call, int, void * *)
	?qt_metacall@QSystemInfo@QtMobility@@UAEHW4Call@QMetaObject@@HPAPAX@Z @ 121 NONAME ; int QtMobility::QSystemInfo::qt_metacall(enum QMetaObject::Call, int, void * *)
	?qt_metacall@QSystemNetworkInfo@QtMobility@@UAEHW4Call@QMetaObject@@HPAPAX@Z @ 122 NONAME ; int QtMobility::QSystemNetworkInfo::qt_metacall(enum QMetaObject::Call, int, void * *)
	?qt_metacall@QSystemScreenSaver@QtMobility@@UAEHW4Call@QMetaObject@@HPAPAX@Z @ 123 NONAME ; int QtMobility::QSystemScreenSaver::qt_metacall(enum QMetaObject::Call, int, void * *)
	?qt_metacall@QSystemStorageInfo@QtMobility@@UAEHW4Call@QMetaObject@@HPAPAX@Z @ 124 NONAME ; int QtMobility::QSystemStorageInfo::qt_metacall(enum QMetaObject::Call, int, void * *)
	?qt_metacast@QSystemBatteryInfo@QtMobility@@UAEPAXPBD@Z @ 125 NONAME ; void * QtMobility::QSystemBatteryInfo::qt_metacast(char const *)
	?qt_metacast@QSystemDeviceInfo@QtMobility@@UAEPAXPBD@Z @ 126 NONAME ; void * QtMobility::QSystemDeviceInfo::qt_metacast(char const *)
	?qt_metacast@QSystemDisplayInfo@QtMobility@@UAEPAXPBD@Z @ 127 NONAME ; void * QtMobility::QSystemDisplayInfo::qt_metacast(char const *)
	?qt_metacast@QSystemInfo@QtMobility@@UAEPAXPBD@Z @ 128 NONAME ; void * QtMobility::QSystemInfo::qt_metacast(char const *)
	?qt_metacast@QSystemNetworkInfo@QtMobility@@UAEPAXPBD@Z @ 129 NONAME ; void * QtMobility::QSystemNetworkInfo::qt_metacast(char const *)
	?qt_metacast@QSystemScreenSaver@QtMobility@@UAEPAXPBD@Z @ 130 NONAME ; void * QtMobility::QSystemScreenSaver::qt_metacast(char const *)
	?qt_metacast@QSystemStorageInfo@QtMobility@@UAEPAXPBD@Z @ 131 NONAME ; void * QtMobility::QSystemStorageInfo::qt_metacast(char const *)
	?remainingCapacity@QSystemBatteryInfo@QtMobility@@QBEHXZ @ 132 NONAME ; int QtMobility::QSystemBatteryInfo::remainingCapacity(void) const
	?remainingCapacityBars@QSystemBatteryInfo@QtMobility@@QBEHXZ @ 133 NONAME ; int QtMobility::QSystemBatteryInfo::remainingCapacityBars(void) const
	?remainingCapacityBarsChanged@QSystemBatteryInfo@QtMobility@@IAEXH@Z @ 134 NONAME ; void QtMobility::QSystemBatteryInfo::remainingCapacityBarsChanged(int)
	?remainingCapacityChanged@QSystemBatteryInfo@QtMobility@@IAEXH@Z @ 135 NONAME ; void QtMobility::QSystemBatteryInfo::remainingCapacityChanged(int)
	?remainingCapacityPercent@QSystemBatteryInfo@QtMobility@@QBEHXZ @ 136 NONAME ; int QtMobility::QSystemBatteryInfo::remainingCapacityPercent(void) const
	?remainingCapacityPercentChanged@QSystemBatteryInfo@QtMobility@@IAEXH@Z @ 137 NONAME ; void QtMobility::QSystemBatteryInfo::remainingCapacityPercentChanged(int)
	?remainingChargingTime@QSystemBatteryInfo@QtMobility@@QBEHXZ @ 138 NONAME ; int QtMobility::QSystemBatteryInfo::remainingChargingTime(void) const
	?remainingChargingTimeChanged@QSystemBatteryInfo@QtMobility@@IAEXH@Z @ 139 NONAME ; void QtMobility::QSystemBatteryInfo::remainingChargingTimeChanged(int)
	?screenSaverInhibited@QSystemScreenSaver@QtMobility@@QAE_NXZ @ 140 NONAME ; bool QtMobility::QSystemScreenSaver::screenSaverInhibited(void)
	?setScreenSaverInhibit@QSystemScreenSaver@QtMobility@@QAE_NXZ @ 141 NONAME ; bool QtMobility::QSystemScreenSaver::setScreenSaverInhibit(void)
	?simStatus@QSystemDeviceInfo@QtMobility@@QAE?AW4SimStatus@12@XZ @ 142 NONAME ; enum QtMobility::QSystemDeviceInfo::SimStatus QtMobility::QSystemDeviceInfo::simStatus(void)
	?startCurrentMeasurement@QSystemBatteryInfo@QtMobility@@QAEHH@Z @ 143 NONAME ; int QtMobility::QSystemBatteryInfo::startCurrentMeasurement(int)
	?storageStateChanged@QSystemStorageInfo@QtMobility@@IAEXABVQString@@W4StorageState@12@@Z @ 144 NONAME ; void QtMobility::QSystemStorageInfo::storageStateChanged(class QString const &, enum QtMobility::QSystemStorageInfo::StorageState)
	?totalDiskSpace@QSystemStorageInfo@QtMobility@@QAE_JABVQString@@@Z @ 145 NONAME ; long long QtMobility::QSystemStorageInfo::totalDiskSpace(class QString const &)
	?tr@QSystemBatteryInfo@QtMobility@@SA?AVQString@@PBD0@Z @ 146 NONAME ; class QString QtMobility::QSystemBatteryInfo::tr(char const *, char const *)
	?tr@QSystemBatteryInfo@QtMobility@@SA?AVQString@@PBD0H@Z @ 147 NONAME ; class QString QtMobility::QSystemBatteryInfo::tr(char const *, char const *, int)
	?tr@QSystemDeviceInfo@QtMobility@@SA?AVQString@@PBD0@Z @ 148 NONAME ; class QString QtMobility::QSystemDeviceInfo::tr(char const *, char const *)
	?tr@QSystemDeviceInfo@QtMobility@@SA?AVQString@@PBD0H@Z @ 149 NONAME ; class QString QtMobility::QSystemDeviceInfo::tr(char const *, char const *, int)
	?tr@QSystemDisplayInfo@QtMobility@@SA?AVQString@@PBD0@Z @ 150 NONAME ; class QString QtMobility::QSystemDisplayInfo::tr(char const *, char const *)
	?tr@QSystemDisplayInfo@QtMobility@@SA?AVQString@@PBD0H@Z @ 151 NONAME ; class QString QtMobility::QSystemDisplayInfo::tr(char const *, char const *, int)
	?tr@QSystemInfo@QtMobility@@SA?AVQString@@PBD0@Z @ 152 NONAME ; class QString QtMobility::QSystemInfo::tr(char const *, char const *)
	?tr@QSystemInfo@QtMobility@@SA?AVQString@@PBD0H@Z @ 153 NONAME ; class QString QtMobility::QSystemInfo::tr(char const *, char const *, int)
	?tr@QSystemNetworkInfo@QtMobility@@SA?AVQString@@PBD0@Z @ 154 NONAME ; class QString QtMobility::QSystemNetworkInfo::tr(char const *, char const *)
	?tr@QSystemNetworkInfo@QtMobility@@SA?AVQString@@PBD0H@Z @ 155 NONAME ; class QString QtMobility::QSystemNetworkInfo::tr(char const *, char const *, int)
	?tr@QSystemScreenSaver@QtMobility@@SA?AVQString@@PBD0@Z @ 156 NONAME ; class QString QtMobility::QSystemScreenSaver::tr(char const *, char const *)
	?tr@QSystemScreenSaver@QtMobility@@SA?AVQString@@PBD0H@Z @ 157 NONAME ; class QString QtMobility::QSystemScreenSaver::tr(char const *, char const *, int)
	?tr@QSystemStorageInfo@QtMobility@@SA?AVQString@@PBD0@Z @ 158 NONAME ; class QString QtMobility::QSystemStorageInfo::tr(char const *, char const *)
	?tr@QSystemStorageInfo@QtMobility@@SA?AVQString@@PBD0H@Z @ 159 NONAME ; class QString QtMobility::QSystemStorageInfo::tr(char const *, char const *, int)
	?trUtf8@QSystemBatteryInfo@QtMobility@@SA?AVQString@@PBD0@Z @ 160 NONAME ; class QString QtMobility::QSystemBatteryInfo::trUtf8(char const *, char const *)
	?trUtf8@QSystemBatteryInfo@QtMobility@@SA?AVQString@@PBD0H@Z @ 161 NONAME ; class QString QtMobility::QSystemBatteryInfo::trUtf8(char const *, char const *, int)
	?trUtf8@QSystemDeviceInfo@QtMobility@@SA?AVQString@@PBD0@Z @ 162 NONAME ; class QString QtMobility::QSystemDeviceInfo::trUtf8(char const *, char const *)
	?trUtf8@QSystemDeviceInfo@QtMobility@@SA?AVQString@@PBD0H@Z @ 163 NONAME ; class QString QtMobility::QSystemDeviceInfo::trUtf8(char const *, char const *, int)
	?trUtf8@QSystemDisplayInfo@QtMobility@@SA?AVQString@@PBD0@Z @ 164 NONAME ; class QString QtMobility::QSystemDisplayInfo::trUtf8(char const *, char const *)
	?trUtf8@QSystemDisplayInfo@QtMobility@@SA?AVQString@@PBD0H@Z @ 165 NONAME ; class QString QtMobility::QSystemDisplayInfo::trUtf8(char const *, char const *, int)
	?trUtf8@QSystemInfo@QtMobility@@SA?AVQString@@PBD0@Z @ 166 NONAME ; class QString QtMobility::QSystemInfo::trUtf8(char const *, char const *)
	?trUtf8@QSystemInfo@QtMobility@@SA?AVQString@@PBD0H@Z @ 167 NONAME ; class QString QtMobility::QSystemInfo::trUtf8(char const *, char const *, int)
	?trUtf8@QSystemNetworkInfo@QtMobility@@SA?AVQString@@PBD0@Z @ 168 NONAME ; class QString QtMobility::QSystemNetworkInfo::trUtf8(char const *, char const *)
	?trUtf8@QSystemNetworkInfo@QtMobility@@SA?AVQString@@PBD0H@Z @ 169 NONAME ; class QString QtMobility::QSystemNetworkInfo::trUtf8(char const *, char const *, int)
	?trUtf8@QSystemScreenSaver@QtMobility@@SA?AVQString@@PBD0@Z @ 170 NONAME ; class QString QtMobility::QSystemScreenSaver::trUtf8(char const *, char const *)
	?trUtf8@QSystemScreenSaver@QtMobility@@SA?AVQString@@PBD0H@Z @ 171 NONAME ; class QString QtMobility::QSystemScreenSaver::trUtf8(char const *, char const *, int)
	?trUtf8@QSystemStorageInfo@QtMobility@@SA?AVQString@@PBD0@Z @ 172 NONAME ; class QString QtMobility::QSystemStorageInfo::trUtf8(char const *, char const *)
	?trUtf8@QSystemStorageInfo@QtMobility@@SA?AVQString@@PBD0H@Z @ 173 NONAME ; class QString QtMobility::QSystemStorageInfo::trUtf8(char const *, char const *, int)
	?typeForDrive@QSystemStorageInfo@QtMobility@@QAE?AW4DriveType@12@ABVQString@@@Z @ 174 NONAME ; enum QtMobility::QSystemStorageInfo::DriveType QtMobility::QSystemStorageInfo::typeForDrive(class QString const &)
	?uniqueID@QSystemDeviceInfo@QtMobility@@QAE?AUQUuid@@XZ @ 175 NONAME ; struct QUuid QtMobility::QSystemDeviceInfo::uniqueID(void)
	?uriForDrive@QSystemStorageInfo@QtMobility@@QAE?AVQString@@ABV3@@Z @ 176 NONAME ; class QString QtMobility::QSystemStorageInfo::uriForDrive(class QString const &)
	?version@QSystemInfo@QtMobility@@QAE?AVQString@@W4Version@12@ABV3@@Z @ 177 NONAME ; class QString QtMobility::QSystemInfo::version(enum QtMobility::QSystemInfo::Version, class QString const &)
	?voltage@QSystemBatteryInfo@QtMobility@@QBEHXZ @ 178 NONAME ; int QtMobility::QSystemBatteryInfo::voltage(void) const
	?voltageChanged@QSystemBatteryInfo@QtMobility@@IAEXH@Z @ 179 NONAME ; void QtMobility::QSystemBatteryInfo::voltageChanged(int)
	?wirelessKeyboardConnected@QSystemDeviceInfo@QtMobility@@IAEX_N@Z @ 180 NONAME ; void QtMobility::QSystemDeviceInfo::wirelessKeyboardConnected(bool)
	?staticMetaObject@QSystemDisplayInfo@QtMobility@@2UQMetaObject@@B @ 181 NONAME ; struct QMetaObject const QtMobility::QSystemDisplayInfo::staticMetaObject
	?staticMetaObject@QSystemScreenSaver@QtMobility@@2UQMetaObject@@B @ 182 NONAME ; struct QMetaObject const QtMobility::QSystemScreenSaver::staticMetaObject
	?staticMetaObject@QSystemNetworkInfo@QtMobility@@2UQMetaObject@@B @ 183 NONAME ; struct QMetaObject const QtMobility::QSystemNetworkInfo::staticMetaObject
	?staticMetaObject@QSystemDeviceInfo@QtMobility@@2UQMetaObject@@B @ 184 NONAME ; struct QMetaObject const QtMobility::QSystemDeviceInfo::staticMetaObject
	?staticMetaObject@QSystemInfo@QtMobility@@2UQMetaObject@@B @ 185 NONAME ; struct QMetaObject const QtMobility::QSystemInfo::staticMetaObject
	?staticMetaObject@QSystemStorageInfo@QtMobility@@2UQMetaObject@@B @ 186 NONAME ; struct QMetaObject const QtMobility::QSystemStorageInfo::staticMetaObject
	?staticMetaObject@QSystemBatteryInfo@QtMobility@@2UQMetaObject@@B @ 187 NONAME ; struct QMetaObject const QtMobility::QSystemBatteryInfo::staticMetaObject
	??0ActiveProfileDetails@QSystemDeviceInfo@QtMobility@@QAE@XZ @ 188 NONAME ; QtMobility::QSystemDeviceInfo::ActiveProfileDetails::ActiveProfileDetails(void)
	??1ActiveProfileDetails@QSystemDeviceInfo@QtMobility@@QAE@XZ @ 189 NONAME ; QtMobility::QSystemDeviceInfo::ActiveProfileDetails::~ActiveProfileDetails(void)
	??_EActiveProfileDetails@QSystemDeviceInfo@QtMobility@@QAE@I@Z @ 190 NONAME ; QtMobility::QSystemDeviceInfo::ActiveProfileDetails::~ActiveProfileDetails(unsigned int)
	?getActiveProfileDetails@QSystemDeviceInfo@QtMobility@@QAEPAVActiveProfileDetails@12@XZ @ 191 NONAME ; class QtMobility::QSystemDeviceInfo::ActiveProfileDetails * QtMobility::QSystemDeviceInfo::getActiveProfileDetails(void)
	?messageRingtoneVolume@ActiveProfileDetails@QSystemDeviceInfo@QtMobility@@QBEHXZ @ 192 NONAME ; int QtMobility::QSystemDeviceInfo::ActiveProfileDetails::messageRingtoneVolume(void) const
	?vibrationActive@ActiveProfileDetails@QSystemDeviceInfo@QtMobility@@QBE_NXZ @ 193 NONAME ; bool QtMobility::QSystemDeviceInfo::ActiveProfileDetails::vibrationActive(void) const
	?voiceRingtoneVolume@ActiveProfileDetails@QSystemDeviceInfo@QtMobility@@QBEHXZ @ 194 NONAME ; int QtMobility::QSystemDeviceInfo::ActiveProfileDetails::voiceRingtoneVolume(void) const

