EXPORTS
	??0QTelephonyCallInfo@QtMobility@@QAE@ABV01@@Z @ 1 NONAME ; QtMobility::QTelephonyCallInfo::QTelephonyCallInfo(class QtMobility::QTelephonyCallInfo const &)
	??0QTelephonyCallInfo@QtMobility@@QAE@XZ @ 2 NONAME ; QtMobility::QTelephonyCallInfo::QTelephonyCallInfo(void)
	??0QTelephonyCallList@QtMobility@@QAE@PAVQObject@@@Z @ 3 NONAME ; QtMobility::QTelephonyCallList::QTelephonyCallList(class QObject *)
	??1QTelephonyCallInfo@QtMobility@@QAE@XZ @ 4 NONAME ; QtMobility::QTelephonyCallInfo::~QTelephonyCallInfo(void)
	??1QTelephonyCallList@QtMobility@@UAE@XZ @ 5 NONAME ; QtMobility::QTelephonyCallList::~QTelephonyCallList(void)
	??_EQTelephonyCallInfo@QtMobility@@QAE@I@Z @ 6 NONAME ; QtMobility::QTelephonyCallInfo::~QTelephonyCallInfo(unsigned int)
	??_EQTelephonyCallList@QtMobility@@UAE@I@Z @ 7 NONAME ; QtMobility::QTelephonyCallList::~QTelephonyCallList(unsigned int)
	?activeCallAdded@QTelephonyCallList@QtMobility@@IAEXABVQTelephonyCallInfo@2@@Z @ 8 NONAME ; void QtMobility::QTelephonyCallList::activeCallAdded(class QtMobility::QTelephonyCallInfo const &)
	?activeCallRemoved@QTelephonyCallList@QtMobility@@IAEXABVQTelephonyCallInfo@2@@Z @ 9 NONAME ; void QtMobility::QTelephonyCallList::activeCallRemoved(class QtMobility::QTelephonyCallInfo const &)
	?activeCallStatusChanged@QTelephonyCallList@QtMobility@@IAEXABVQTelephonyCallInfo@2@@Z @ 10 NONAME ; void QtMobility::QTelephonyCallList::activeCallStatusChanged(class QtMobility::QTelephonyCallInfo const &)
	?activeCalls@QTelephonyCallList@QtMobility@@QBE?AV?$QList@VQTelephonyCallInfo@QtMobility@@@@ABW4CallType@QTelephonyEvents@2@@Z @ 11 NONAME ; class QList<class QtMobility::QTelephonyCallInfo> QtMobility::QTelephonyCallList::activeCalls(enum QtMobility::QTelephonyEvents::CallType const &) const
	?getStaticMetaObject@QTelephonyCallList@QtMobility@@SAABUQMetaObject@@XZ @ 12 NONAME ; struct QMetaObject const & QtMobility::QTelephonyCallList::getStaticMetaObject(void)
	?metaObject@QTelephonyCallList@QtMobility@@UBEPBUQMetaObject@@XZ @ 13 NONAME ; struct QMetaObject const * QtMobility::QTelephonyCallList::metaObject(void) const
	?qt_metacall@QTelephonyCallList@QtMobility@@UAEHW4Call@QMetaObject@@HPAPAX@Z @ 14 NONAME ; int QtMobility::QTelephonyCallList::qt_metacall(enum QMetaObject::Call, int, void * *)
	?qt_metacast@QTelephonyCallList@QtMobility@@UAEPAXPBD@Z @ 15 NONAME ; void * QtMobility::QTelephonyCallList::qt_metacast(char const *)
	?remotePartyIdentifier@QTelephonyCallInfo@QtMobility@@QBE?AVQString@@XZ @ 16 NONAME ; class QString QtMobility::QTelephonyCallInfo::remotePartyIdentifier(void) const
	?status@QTelephonyCallInfo@QtMobility@@QBE?AW4CallStatus@QTelephonyEvents@2@XZ @ 17 NONAME ; enum QtMobility::QTelephonyEvents::CallStatus QtMobility::QTelephonyCallInfo::status(void) const
	?subType@QTelephonyCallInfo@QtMobility@@QBE?AVQString@@XZ @ 18 NONAME ; class QString QtMobility::QTelephonyCallInfo::subType(void) const
	?tr@QTelephonyCallList@QtMobility@@SA?AVQString@@PBD0@Z @ 19 NONAME ; class QString QtMobility::QTelephonyCallList::tr(char const *, char const *)
	?tr@QTelephonyCallList@QtMobility@@SA?AVQString@@PBD0H@Z @ 20 NONAME ; class QString QtMobility::QTelephonyCallList::tr(char const *, char const *, int)
	?trUtf8@QTelephonyCallList@QtMobility@@SA?AVQString@@PBD0@Z @ 21 NONAME ; class QString QtMobility::QTelephonyCallList::trUtf8(char const *, char const *)
	?trUtf8@QTelephonyCallList@QtMobility@@SA?AVQString@@PBD0H@Z @ 22 NONAME ; class QString QtMobility::QTelephonyCallList::trUtf8(char const *, char const *, int)
	?type@QTelephonyCallInfo@QtMobility@@QBE?AW4CallType@QTelephonyEvents@2@XZ @ 23 NONAME ; enum QtMobility::QTelephonyEvents::CallType QtMobility::QTelephonyCallInfo::type(void) const
	?value@QTelephonyCallInfo@QtMobility@@QBE?AVQVariant@@ABVQString@@@Z @ 24 NONAME ; class QVariant QtMobility::QTelephonyCallInfo::value(class QString const &) const
	?staticMetaObject@QTelephonyCallList@QtMobility@@2UQMetaObject@@B @ 25 NONAME ; struct QMetaObject const QtMobility::QTelephonyCallList::staticMetaObject

