EXPORTS
	_ZN10QtMobility14QServiceFilter12setInterfaceERK7QStringS3_NS0_16VersionMatchRuleE @ 1 NONAME
	_ZN10QtMobility14QServiceFilter14setServiceNameERK7QString @ 2 NONAME
	_ZN10QtMobility14QServiceFilter15setCapabilitiesENS0_19CapabilityMatchRuleERK11QStringList @ 3 NONAME
	_ZN10QtMobility14QServiceFilter17setCustomPropertyERK7QStringS3_ @ 4 NONAME
	_ZN10QtMobility14QServiceFilter20removeCustomPropertyERK7QString @ 5 NONAME
	_ZN10QtMobility14QServiceFilter21clearCustomPropertiesEv @ 6 NONAME
	_ZN10QtMobility14QServiceFilterC1ERK7QStringS3_NS0_16VersionMatchRuleE @ 7 NONAME
	_ZN10QtMobility14QServiceFilterC1ERKS0_ @ 8 NONAME
	_ZN10QtMobility14QServiceFilterC1Ev @ 9 NONAME
	_ZN10QtMobility14QServiceFilterC2ERK7QStringS3_NS0_16VersionMatchRuleE @ 10 NONAME
	_ZN10QtMobility14QServiceFilterC2ERKS0_ @ 11 NONAME
	_ZN10QtMobility14QServiceFilterC2Ev @ 12 NONAME
	_ZN10QtMobility14QServiceFilterD1Ev @ 13 NONAME
	_ZN10QtMobility14QServiceFilterD2Ev @ 14 NONAME
	_ZN10QtMobility14QServiceFilteraSERKS0_ @ 15 NONAME
	_ZN10QtMobility22CDatabaseManagerServer11PanicServerE30TDatabaseManagerSerververPanic @ 16 NONAME
	_ZN10QtMobility22CDatabaseManagerServerC1Ev @ 17 NONAME
	_ZN10QtMobility22CDatabaseManagerServerC2Ev @ 18 NONAME
	_ZN10QtMobility23QServicePluginInterface14installServiceEv @ 19 NONAME
	_ZN10QtMobility23QServicePluginInterface16uninstallServiceEv @ 20 NONAME
	_ZN10QtMobility23QServicePluginInterfaceC2Ev @ 21 NONAME
	_ZN10QtMobility23QServicePluginInterfaceD0Ev @ 22 NONAME
	_ZN10QtMobility23QServicePluginInterfaceD1Ev @ 23 NONAME
	_ZN10QtMobility23QServicePluginInterfaceD2Ev @ 24 NONAME
	_ZN10QtMobility24QAbstractSecuritySession11qt_metacallEN11QMetaObject4CallEiPPv @ 25 NONAME
	_ZN10QtMobility24QAbstractSecuritySession11qt_metacastEPKc @ 26 NONAME
	_ZN10QtMobility24QAbstractSecuritySession16staticMetaObjectE @ 27 NONAME DATA 16
	_ZN10QtMobility24QAbstractSecuritySession19getStaticMetaObjectEv @ 28 NONAME
	_ZN10QtMobility24QAbstractSecuritySessionC2EP7QObject @ 29 NONAME
	_ZN10QtMobility24QAbstractSecuritySessionD0Ev @ 30 NONAME
	_ZN10QtMobility24QAbstractSecuritySessionD1Ev @ 31 NONAME
	_ZN10QtMobility24QAbstractSecuritySessionD2Ev @ 32 NONAME
	_ZN10QtMobility27QServiceInterfaceDescriptorC1ERKS0_ @ 33 NONAME
	_ZN10QtMobility27QServiceInterfaceDescriptorC1Ev @ 34 NONAME
	_ZN10QtMobility27QServiceInterfaceDescriptorC2ERKS0_ @ 35 NONAME
	_ZN10QtMobility27QServiceInterfaceDescriptorC2Ev @ 36 NONAME
	_ZN10QtMobility27QServiceInterfaceDescriptorD1Ev @ 37 NONAME
	_ZN10QtMobility27QServiceInterfaceDescriptorD2Ev @ 38 NONAME
	_ZN10QtMobility27QServiceInterfaceDescriptoraSERKS0_ @ 39 NONAME
	_ZN10QtMobilitylsE6QDebugRKNS_27QServiceInterfaceDescriptorE @ 40 NONAME
	_ZN10QtMobilitylsER11QDataStreamRKNS_14QServiceFilterE @ 41 NONAME
	_ZN10QtMobilitylsER11QDataStreamRKNS_27QServiceInterfaceDescriptorE @ 42 NONAME
	_ZN10QtMobilityrsER11QDataStreamRNS_14QServiceFilterE @ 43 NONAME
	_ZN10QtMobilityrsER11QDataStreamRNS_27QServiceInterfaceDescriptorE @ 44 NONAME
	_ZNK10QtMobility14QServiceFilter11serviceNameEv @ 45 NONAME
	_ZNK10QtMobility14QServiceFilter12capabilitiesEv @ 46 NONAME
	_ZNK10QtMobility14QServiceFilter13interfaceNameEv @ 47 NONAME
	_ZNK10QtMobility14QServiceFilter14customPropertyERK7QString @ 48 NONAME
	_ZNK10QtMobility14QServiceFilter16versionMatchRuleEv @ 49 NONAME
	_ZNK10QtMobility14QServiceFilter18customPropertyKeysEv @ 50 NONAME
	_ZNK10QtMobility14QServiceFilter19capabilityMatchRuleEv @ 51 NONAME
	_ZNK10QtMobility14QServiceFilter21interfaceMajorVersionEv @ 52 NONAME
	_ZNK10QtMobility14QServiceFilter21interfaceMinorVersionEv @ 53 NONAME
	_ZNK10QtMobility22CDatabaseManagerServer11NewSessionLERK8TVersionRK9RMessage2 @ 54 NONAME
	_ZNK10QtMobility24QAbstractSecuritySession10metaObjectEv @ 55 NONAME
	_ZNK10QtMobility27QServiceInterfaceDescriptor11serviceNameEv @ 56 NONAME
	_ZNK10QtMobility27QServiceInterfaceDescriptor12majorVersionEv @ 57 NONAME
	_ZNK10QtMobility27QServiceInterfaceDescriptor12minorVersionEv @ 58 NONAME
	_ZNK10QtMobility27QServiceInterfaceDescriptor13inSystemScopeEv @ 59 NONAME
	_ZNK10QtMobility27QServiceInterfaceDescriptor13interfaceNameEv @ 60 NONAME
	_ZNK10QtMobility27QServiceInterfaceDescriptor14customPropertyERK7QString @ 61 NONAME
	_ZNK10QtMobility27QServiceInterfaceDescriptor18customPropertyKeysEv @ 62 NONAME
	_ZNK10QtMobility27QServiceInterfaceDescriptor7isValidEv @ 63 NONAME
	_ZNK10QtMobility27QServiceInterfaceDescriptor8propertyENS0_11PropertyKeyE @ 64 NONAME
	_ZNK10QtMobility27QServiceInterfaceDescriptoreqERKS0_ @ 65 NONAME
	_ZTIN10QtMobility22CDatabaseManagerServerE @ 66 NONAME ; #<TI>#
	_ZTIN10QtMobility23QServicePluginInterfaceE @ 67 NONAME ; #<TI>#
	_ZTIN10QtMobility24QAbstractSecuritySessionE @ 68 NONAME ; #<TI>#
	_ZTVN10QtMobility22CDatabaseManagerServerE @ 69 NONAME ; #<VT>#
	_ZTVN10QtMobility23QServicePluginInterfaceE @ 70 NONAME ; #<VT>#
	_ZTVN10QtMobility24QAbstractSecuritySessionE @ 71 NONAME ; #<VT>#

