EXPORTS
	_ZN10QContactId10setLocalIdERKj @ 1 NONAME
	_ZN10QContactId13setManagerUriERK7QString @ 2 NONAME
	_ZN10QContactIdC1ERKS_ @ 3 NONAME
	_ZN10QContactIdC1Ev @ 4 NONAME
	_ZN10QContactIdC2ERKS_ @ 5 NONAME
	_ZN10QContactIdC2Ev @ 6 NONAME
	_ZN10QContactIdD1Ev @ 7 NONAME
	_ZN10QContactIdD2Ev @ 8 NONAME
	_ZN10QContactIdaSERKS_ @ 9 NONAME
	_ZN11QContactUrl12FieldSubTypeE @ 10 NONAME DATA 8
	_ZN11QContactUrl14DefinitionNameE @ 11 NONAME DATA 4
	_ZN11QContactUrl15SubTypeHomePageE @ 12 NONAME DATA 9
	_ZN11QContactUrl16SubTypeFavouriteE @ 13 NONAME DATA 10
	_ZN11QContactUrl8FieldUrlE @ 14 NONAME DATA 4
	_ZN12QContactGuid14DefinitionNameE @ 15 NONAME DATA 5
	_ZN12QContactGuid9FieldGuidE @ 16 NONAME DATA 5
	_ZN12QContactName10FieldFirstE @ 17 NONAME DATA 6
	_ZN12QContactName11FieldMiddleE @ 18 NONAME DATA 7
	_ZN12QContactName11FieldPrefixE @ 19 NONAME DATA 7
	_ZN12QContactName11FieldSuffixE @ 20 NONAME DATA 7
	_ZN12QContactName14DefinitionNameE @ 21 NONAME DATA 5
	_ZN12QContactName16FieldCustomLabelE @ 22 NONAME DATA 12
	_ZN12QContactName9FieldLastE @ 23 NONAME DATA 5
	_ZN12QContactNote14DefinitionNameE @ 24 NONAME DATA 5
	_ZN12QContactNote9FieldNoteE @ 25 NONAME DATA 5
	_ZN12QContactType11TypeContactE @ 26 NONAME DATA 8
	_ZN12QContactType14DefinitionNameE @ 27 NONAME DATA 5
	_ZN12QContactType9FieldTypeE @ 28 NONAME DATA 5
	_ZN12QContactType9TypeGroupE @ 29 NONAME DATA 6
	_ZN14QContactAction11qt_metacallEN11QMetaObject4CallEiPPv @ 30 NONAME
	_ZN14QContactAction11qt_metacastEPKc @ 31 NONAME
	_ZN14QContactAction16availableActionsERK7QStringi @ 32 NONAME
	_ZN14QContactAction16staticMetaObjectE @ 33 NONAME DATA 16
	_ZN14QContactAction17actionDescriptorsERK7QStringS2_i @ 34 NONAME
	_ZN14QContactAction19getStaticMetaObjectEv @ 35 NONAME
	_ZN14QContactAction6actionERK24QContactActionDescriptor @ 36 NONAME
	_ZN14QContactAction8progressENS_6StatusERK4QMapI7QString8QVariantE @ 37 NONAME
	_ZN14QContactActionD0Ev @ 38 NONAME
	_ZN14QContactActionD1Ev @ 39 NONAME
	_ZN14QContactActionD2Ev @ 40 NONAME
	_ZN14QContactAvatar11FieldAvatarE @ 41 NONAME DATA 7
	_ZN14QContactAvatar12FieldSubTypeE @ 42 NONAME DATA 8
	_ZN14QContactAvatar12SubTypeImageE @ 43 NONAME DATA 6
	_ZN14QContactAvatar12SubTypeVideoE @ 44 NONAME DATA 6
	_ZN14QContactAvatar14DefinitionNameE @ 45 NONAME DATA 7
	_ZN14QContactAvatar19SubTypeTexturedMeshE @ 46 NONAME DATA 13
	_ZN14QContactAvatar20SubTypeAudioRingtoneE @ 47 NONAME DATA 14
	_ZN14QContactAvatar20SubTypeVideoRingtoneE @ 48 NONAME DATA 14
	_ZN14QContactDetail11ContextHomeE @ 49 NONAME DATA 5
	_ZN14QContactDetail11ContextWorkE @ 50 NONAME DATA 5
	_ZN14QContactDetail11removeValueERK7QString @ 51 NONAME
	_ZN14QContactDetail12ContextOtherE @ 52 NONAME DATA 6
	_ZN14QContactDetail12FieldContextE @ 53 NONAME DATA 8
	_ZN14QContactDetail19setPreferredActionsERK5QListI24QContactActionDescriptorE @ 54 NONAME
	_ZN14QContactDetail6assignERKS_RK7QString @ 55 NONAME
	_ZN14QContactDetail8setValueERK7QStringRK8QVariant @ 56 NONAME
	_ZN14QContactDetailC1ERK7QString @ 57 NONAME
	_ZN14QContactDetailC1ERKS_ @ 58 NONAME
	_ZN14QContactDetailC1ERKS_RK7QString @ 59 NONAME
	_ZN14QContactDetailC1Ev @ 60 NONAME
	_ZN14QContactDetailC2ERK7QString @ 61 NONAME
	_ZN14QContactDetailC2ERKS_ @ 62 NONAME
	_ZN14QContactDetailC2ERKS_RK7QString @ 63 NONAME
	_ZN14QContactDetailC2Ev @ 64 NONAME
	_ZN14QContactDetailD0Ev @ 65 NONAME
	_ZN14QContactDetailD1Ev @ 66 NONAME
	_ZN14QContactDetailD2Ev @ 67 NONAME
	_ZN14QContactDetailaSERKS_ @ 68 NONAME
	_ZN14QContactFamily11FieldSpouseE @ 69 NONAME DATA 7
	_ZN14QContactFamily13FieldChildrenE @ 70 NONAME DATA 9
	_ZN14QContactFamily14DefinitionNameE @ 71 NONAME DATA 7
	_ZN14QContactFilterC1EP21QContactFilterPrivate @ 72 NONAME
	_ZN14QContactFilterC1ERKS_ @ 73 NONAME
	_ZN14QContactFilterC1Ev @ 74 NONAME
	_ZN14QContactFilterC2EP21QContactFilterPrivate @ 75 NONAME
	_ZN14QContactFilterC2ERKS_ @ 76 NONAME
	_ZN14QContactFilterC2Ev @ 77 NONAME
	_ZN14QContactFilterD0Ev @ 78 NONAME
	_ZN14QContactFilterD1Ev @ 79 NONAME
	_ZN14QContactFilterD2Ev @ 80 NONAME
	_ZN14QContactFilteraSERKS_ @ 81 NONAME
	_ZN14QContactGender10GenderMaleE @ 82 NONAME DATA 5
	_ZN14QContactGender11FieldGenderE @ 83 NONAME DATA 7
	_ZN14QContactGender12GenderFemaleE @ 84 NONAME DATA 7
	_ZN14QContactGender14DefinitionNameE @ 85 NONAME DATA 7
	_ZN14QContactGender17GenderUnspecifiedE @ 86 NONAME DATA 12
	_ZN15QContactAddress11FieldRegionE @ 87 NONAME DATA 7
	_ZN15QContactAddress11FieldStreetE @ 88 NONAME DATA 7
	_ZN15QContactAddress12FieldCountryE @ 89 NONAME DATA 8
	_ZN15QContactAddress13FieldLocalityE @ 90 NONAME DATA 9
	_ZN15QContactAddress13FieldPostcodeE @ 91 NONAME DATA 9
	_ZN15QContactAddress13FieldSubTypesE @ 92 NONAME DATA 9
	_ZN15QContactAddress13SubTypeParcelE @ 93 NONAME DATA 7
	_ZN15QContactAddress13SubTypePostalE @ 94 NONAME DATA 7
	_ZN15QContactAddress14DefinitionNameE @ 95 NONAME DATA 14
	_ZN15QContactAddress15SubTypeDomesticE @ 96 NONAME DATA 9
	_ZN15QContactAddress18FieldPostOfficeBoxE @ 97 NONAME DATA 14
	_ZN15QContactAddress20SubTypeInternationalE @ 98 NONAME DATA 14
	_ZN15QContactManager11dataChangedEv @ 99 NONAME
	_ZN15QContactManager11qt_metacallEN11QMetaObject4CallEiPPv @ 100 NONAME
	_ZN15QContactManager11qt_metacastEPKc @ 101 NONAME
	_ZN15QContactManager11saveContactEP8QContact @ 102 NONAME
	_ZN15QContactManager12createEngineERK7QStringRK4QMapIS0_S0_E @ 103 NONAME
	_ZN15QContactManager12saveContactsEP5QListI8QContactE @ 104 NONAME
	_ZN15QContactManager13contactsAddedERK5QListIjE @ 105 NONAME
	_ZN15QContactManager13removeContactERKj @ 106 NONAME
	_ZN15QContactManager14removeContactsEP5QListIjE @ 107 NONAME
	_ZN15QContactManager15contactsChangedERK5QListIjE @ 108 NONAME
	_ZN15QContactManager15contactsRemovedERK5QListIjE @ 109 NONAME
	_ZN15QContactManager16saveRelationshipEP20QContactRelationship @ 110 NONAME
	_ZN15QContactManager16setSelfContactIdERKj @ 111 NONAME
	_ZN15QContactManager16staticMetaObjectE @ 112 NONAME DATA 16
	_ZN15QContactManager17availableManagersEv @ 113 NONAME
	_ZN15QContactManager17saveRelationshipsEP5QListI20QContactRelationshipE @ 114 NONAME
	_ZN15QContactManager18relationshipsAddedERK5QListIjE @ 115 NONAME
	_ZN15QContactManager18removeRelationshipERK20QContactRelationship @ 116 NONAME
	_ZN15QContactManager19getStaticMetaObjectEv @ 117 NONAME
	_ZN15QContactManager19removeRelationshipsERK5QListI20QContactRelationshipE @ 118 NONAME
	_ZN15QContactManager20relationshipsRemovedERK5QListIjE @ 119 NONAME
	_ZN15QContactManager20saveDetailDefinitionERK24QContactDetailDefinitionRK7QString @ 120 NONAME
	_ZN15QContactManager20selfContactIdChangedERKjS1_ @ 121 NONAME
	_ZN15QContactManager22removeDetailDefinitionERK7QStringS2_ @ 122 NONAME
	_ZN15QContactManager7fromUriERK7QStringP7QObject @ 123 NONAME
	_ZN15QContactManager7versionEv @ 124 NONAME
	_ZN15QContactManager8buildUriERK7QStringRK4QMapIS0_S0_Ei @ 125 NONAME
	_ZN15QContactManager8splitUriERK7QStringPS0_P4QMapIS0_S0_E @ 126 NONAME
	_ZN15QContactManagerC1ERK7QStringRK4QMapIS0_S0_EP7QObject @ 127 NONAME
	_ZN15QContactManagerC1ERK7QStringiRK4QMapIS0_S0_EP7QObject @ 128 NONAME
	_ZN15QContactManagerC2ERK7QStringRK4QMapIS0_S0_EP7QObject @ 129 NONAME
	_ZN15QContactManagerC2ERK7QStringiRK4QMapIS0_S0_EP7QObject @ 130 NONAME
	_ZN15QContactManagerD0Ev @ 131 NONAME
	_ZN15QContactManagerD1Ev @ 132 NONAME
	_ZN15QContactManagerD2Ev @ 133 NONAME
	_ZN16QContactBirthday13FieldBirthdayE @ 134 NONAME DATA 9
	_ZN16QContactBirthday14DefinitionNameE @ 135 NONAME DATA 9
	_ZN16QContactNickname13FieldNicknameE @ 136 NONAME DATA 9
	_ZN16QContactNickname14DefinitionNameE @ 137 NONAME DATA 9
	_ZN17QContactChangeSet11dataChangedEv @ 138 NONAME
	_ZN17QContactChangeSet11emitSignalsEP21QContactManagerEngine @ 139 NONAME
	_ZN17QContactChangeSet13addedContactsEv @ 140 NONAME
	_ZN17QContactChangeSet14setDataChangedEb @ 141 NONAME
	_ZN17QContactChangeSet15changedContactsEv @ 142 NONAME
	_ZN17QContactChangeSet15removedContactsEv @ 143 NONAME
	_ZN17QContactChangeSet22oldAndNewSelfContactIdEv @ 144 NONAME
	_ZN17QContactChangeSet26addedRelationshipsContactsEv @ 145 NONAME
	_ZN17QContactChangeSet28removedRelationshipsContactsEv @ 146 NONAME
	_ZN17QContactChangeSet5clearEv @ 147 NONAME
	_ZN17QContactChangeSetC1ERKS_ @ 148 NONAME
	_ZN17QContactChangeSetC1Ev @ 149 NONAME
	_ZN17QContactChangeSetC2ERKS_ @ 150 NONAME
	_ZN17QContactChangeSetC2Ev @ 151 NONAME
	_ZN17QContactChangeSetD1Ev @ 152 NONAME
	_ZN17QContactChangeSetD2Ev @ 153 NONAME
	_ZN17QContactChangeSetaSERKS_ @ 154 NONAME
	_ZN17QContactSortOrder12setDirectionEN2Qt9SortOrderE @ 155 NONAME
	_ZN17QContactSortOrder14setBlankPolicyENS_11BlankPolicyE @ 156 NONAME
	_ZN17QContactSortOrder18setCaseSensitivityEN2Qt15CaseSensitivityE @ 157 NONAME
	_ZN17QContactSortOrder23setDetailDefinitionNameERK7QStringS2_ @ 158 NONAME
	_ZN17QContactSortOrderC1ERKS_ @ 159 NONAME
	_ZN17QContactSortOrderC1Ev @ 160 NONAME
	_ZN17QContactSortOrderC2ERKS_ @ 161 NONAME
	_ZN17QContactSortOrderC2Ev @ 162 NONAME
	_ZN17QContactSortOrderD1Ev @ 163 NONAME
	_ZN17QContactSortOrderD2Ev @ 164 NONAME
	_ZN17QContactSortOrderaSERKS_ @ 165 NONAME
	_ZN17QContactTimestamp14DefinitionNameE @ 166 NONAME DATA 10
	_ZN17QContactTimestamp22FieldCreationTimestampE @ 167 NONAME DATA 18
	_ZN17QContactTimestamp26FieldModificationTimestampE @ 168 NONAME DATA 22
	_ZN18QContactSyncTarget14DefinitionNameE @ 169 NONAME DATA 11
	_ZN18QContactSyncTarget15FieldSyncTargetE @ 170 NONAME DATA 11
	_ZN19QContactAnniversary10FieldEventE @ 171 NONAME DATA 6
	_ZN19QContactAnniversary12FieldSubTypeE @ 172 NONAME DATA 8
	_ZN19QContactAnniversary12SubTypeHouseE @ 173 NONAME DATA 6
	_ZN19QContactAnniversary14DefinitionNameE @ 174 NONAME DATA 12
	_ZN19QContactAnniversary14SubTypeWeddingE @ 175 NONAME DATA 8
	_ZN19QContactAnniversary15FieldCalendarIdE @ 176 NONAME DATA 11
	_ZN19QContactAnniversary15SubTypeMemorialE @ 177 NONAME DATA 9
	_ZN19QContactAnniversary17FieldOriginalDateE @ 178 NONAME DATA 13
	_ZN19QContactAnniversary17SubTypeEmploymentE @ 179 NONAME DATA 11
	_ZN19QContactAnniversary17SubTypeEngagementE @ 180 NONAME DATA 11
	_ZN19QContactGeolocation10FieldLabelE @ 181 NONAME DATA 6
	_ZN19QContactGeolocation10FieldSpeedE @ 182 NONAME DATA 6
	_ZN19QContactGeolocation12FieldHeadingE @ 183 NONAME DATA 8
	_ZN19QContactGeolocation13FieldAccuracyE @ 184 NONAME DATA 9
	_ZN19QContactGeolocation13FieldAltitudeE @ 185 NONAME DATA 9
	_ZN19QContactGeolocation13FieldLatitudeE @ 186 NONAME DATA 9
	_ZN19QContactGeolocation14DefinitionNameE @ 187 NONAME DATA 12
	_ZN19QContactGeolocation14FieldLongitudeE @ 188 NONAME DATA 10
	_ZN19QContactGeolocation14FieldTimestampE @ 189 NONAME DATA 10
	_ZN19QContactGeolocation21FieldAltitudeAccuracyE @ 190 NONAME DATA 17
	_ZN19QContactPhoneNumber10SubTypeCarE @ 191 NONAME DATA 4
	_ZN19QContactPhoneNumber11FieldNumberE @ 192 NONAME DATA 12
	_ZN19QContactPhoneNumber12SubTypeModemE @ 193 NONAME DATA 6
	_ZN19QContactPhoneNumber12SubTypePagerE @ 194 NONAME DATA 6
	_ZN19QContactPhoneNumber12SubTypeVideoE @ 195 NONAME DATA 6
	_ZN19QContactPhoneNumber12SubTypeVoiceE @ 196 NONAME DATA 6
	_ZN19QContactPhoneNumber13FieldSubTypesE @ 197 NONAME DATA 9
	_ZN19QContactPhoneNumber13SubTypeMobileE @ 198 NONAME DATA 7
	_ZN19QContactPhoneNumber14DefinitionNameE @ 199 NONAME DATA 12
	_ZN19QContactPhoneNumber15SubTypeDtmfMenuE @ 200 NONAME DATA 9
	_ZN19QContactPhoneNumber15SubTypeLandlineE @ 201 NONAME DATA 9
	_ZN19QContactPhoneNumber16SubTypeAssistantE @ 202 NONAME DATA 10
	_ZN19QContactPhoneNumber16SubTypeFacsimileE @ 203 NONAME DATA 10
	_ZN19QContactPhoneNumber23SubTypeMessagingCapableE @ 204 NONAME DATA 17
	_ZN19QContactPhoneNumber26SubTypeBulletinBoardSystemE @ 205 NONAME DATA 20
	_ZN19QContactSaveRequest11qt_metacallEN11QMetaObject4CallEiPPv @ 206 NONAME
	_ZN19QContactSaveRequest11qt_metacastEPKc @ 207 NONAME
	_ZN19QContactSaveRequest11setContactsERK5QListI8QContactE @ 208 NONAME
	_ZN19QContactSaveRequest16staticMetaObjectE @ 209 NONAME DATA 16
	_ZN19QContactSaveRequest19getStaticMetaObjectEv @ 210 NONAME
	_ZN19QContactSaveRequest8progressEPS_ @ 211 NONAME
	_ZN19QContactSaveRequestC1Ev @ 212 NONAME
	_ZN19QContactSaveRequestC2Ev @ 213 NONAME
	_ZN19QContactSaveRequestD0Ev @ 214 NONAME
	_ZN19QContactSaveRequestD1Ev @ 215 NONAME
	_ZN19QContactSaveRequestD2Ev @ 216 NONAME
	_ZN19QContactUnionFilter10setFiltersERK5QListI14QContactFilterE @ 217 NONAME
	_ZN19QContactUnionFilter6appendERK14QContactFilter @ 218 NONAME
	_ZN19QContactUnionFilter6removeERK14QContactFilter @ 219 NONAME
	_ZN19QContactUnionFilter7prependERK14QContactFilter @ 220 NONAME
	_ZN19QContactUnionFilterC1ERK14QContactFilter @ 221 NONAME
	_ZN19QContactUnionFilterC1Ev @ 222 NONAME
	_ZN19QContactUnionFilterC2ERK14QContactFilter @ 223 NONAME
	_ZN19QContactUnionFilterC2Ev @ 224 NONAME
	_ZN19QContactUnionFilterlsERK14QContactFilter @ 225 NONAME
	_ZN20QContactActionFilter13setActionNameERK7QString @ 226 NONAME
	_ZN20QContactActionFilter8setValueERK8QVariant @ 227 NONAME
	_ZN20QContactActionFilter9setVendorERK7QStringi @ 228 NONAME
	_ZN20QContactActionFilterC1ERK14QContactFilter @ 229 NONAME
	_ZN20QContactActionFilterC1Ev @ 230 NONAME
	_ZN20QContactActionFilterC2ERK14QContactFilter @ 231 NONAME
	_ZN20QContactActionFilterC2Ev @ 232 NONAME
	_ZN20QContactDetailFilter13setMatchFlagsE6QFlagsIN14QContactFilter9MatchFlagEE @ 233 NONAME
	_ZN20QContactDetailFilter23setDetailDefinitionNameERK7QStringS2_ @ 234 NONAME
	_ZN20QContactDetailFilter8setValueERK8QVariant @ 235 NONAME
	_ZN20QContactDetailFilterC1ERK14QContactFilter @ 236 NONAME
	_ZN20QContactDetailFilterC1Ev @ 237 NONAME
	_ZN20QContactDetailFilterC2ERK14QContactFilter @ 238 NONAME
	_ZN20QContactDetailFilterC2Ev @ 239 NONAME
	_ZN20QContactDisplayLabel10FieldLabelE @ 240 NONAME DATA 6
	_ZN20QContactDisplayLabel14DefinitionNameE @ 241 NONAME DATA 13
	_ZN20QContactEmailAddress14DefinitionNameE @ 242 NONAME DATA 13
	_ZN20QContactEmailAddress17FieldEmailAddressE @ 243 NONAME DATA 13
	_ZN20QContactFetchRequest10setSortingERK5QListI17QContactSortOrderE @ 244 NONAME
	_ZN20QContactFetchRequest11qt_metacallEN11QMetaObject4CallEiPPv @ 245 NONAME
	_ZN20QContactFetchRequest11qt_metacastEPKc @ 246 NONAME
	_ZN20QContactFetchRequest16staticMetaObjectE @ 247 NONAME DATA 16
	_ZN20QContactFetchRequest19getStaticMetaObjectEv @ 248 NONAME
	_ZN20QContactFetchRequest25setDefinitionRestrictionsERK11QStringList @ 249 NONAME
	_ZN20QContactFetchRequest8progressEPS_b @ 250 NONAME
	_ZN20QContactFetchRequest9setFilterERK14QContactFilter @ 251 NONAME
	_ZN20QContactFetchRequestC1Ev @ 252 NONAME
	_ZN20QContactFetchRequestC2Ev @ 253 NONAME
	_ZN20QContactFetchRequestD0Ev @ 254 NONAME
	_ZN20QContactFetchRequestD1Ev @ 255 NONAME
	_ZN20QContactFetchRequestD2Ev @ 256 NONAME
	_ZN20QContactMemoryEngine11qt_metacallEN11QMetaObject4CallEiPPv @ 257 NONAME
	_ZN20QContactMemoryEngine11qt_metacastEPKc @ 258 NONAME
	_ZN20QContactMemoryEngine11saveContactEP8QContactR17QContactChangeSetRN15QContactManager5ErrorE @ 259 NONAME
	_ZN20QContactMemoryEngine11saveContactEP8QContactRN15QContactManager5ErrorE @ 260 NONAME
	_ZN20QContactMemoryEngine12saveContactsEP5QListI8QContactERN15QContactManager5ErrorE @ 261 NONAME
	_ZN20QContactMemoryEngine12startRequestEP23QContactAbstractRequest @ 262 NONAME
	_ZN20QContactMemoryEngine13cancelRequestEP23QContactAbstractRequest @ 263 NONAME
	_ZN20QContactMemoryEngine13removeContactERKjR17QContactChangeSetRN15QContactManager5ErrorE @ 264 NONAME
	_ZN20QContactMemoryEngine13removeContactERKjRN15QContactManager5ErrorE @ 265 NONAME
	_ZN20QContactMemoryEngine14removeContactsEP5QListIjERN15QContactManager5ErrorE @ 266 NONAME
	_ZN20QContactMemoryEngine16requestDestroyedEP23QContactAbstractRequest @ 267 NONAME
	_ZN20QContactMemoryEngine16saveRelationshipEP20QContactRelationshipR17QContactChangeSetRN15QContactManager5ErrorE @ 268 NONAME
	_ZN20QContactMemoryEngine16saveRelationshipEP20QContactRelationshipRN15QContactManager5ErrorE @ 269 NONAME
	_ZN20QContactMemoryEngine16setSelfContactIdERKjRN15QContactManager5ErrorE @ 270 NONAME
	_ZN20QContactMemoryEngine16staticMetaObjectE @ 271 NONAME DATA 16
	_ZN20QContactMemoryEngine17saveRelationshipsEP5QListI20QContactRelationshipERN15QContactManager5ErrorE @ 272 NONAME
	_ZN20QContactMemoryEngine18createMemoryEngineERK4QMapI7QStringS1_E @ 273 NONAME
	_ZN20QContactMemoryEngine18removeRelationshipERK20QContactRelationshipR17QContactChangeSetRN15QContactManager5ErrorE @ 274 NONAME
	_ZN20QContactMemoryEngine18removeRelationshipERK20QContactRelationshipRN15QContactManager5ErrorE @ 275 NONAME
	_ZN20QContactMemoryEngine19getStaticMetaObjectEv @ 276 NONAME
	_ZN20QContactMemoryEngine19removeRelationshipsERK5QListI20QContactRelationshipERN15QContactManager5ErrorE @ 277 NONAME
	_ZN20QContactMemoryEngine20saveDetailDefinitionERK24QContactDetailDefinitionRK7QStringR17QContactChangeSetRN15QContactManager5ErrorE @ 278 NONAME
	_ZN20QContactMemoryEngine20saveDetailDefinitionERK24QContactDetailDefinitionRK7QStringRN15QContactManager5ErrorE @ 279 NONAME
	_ZN20QContactMemoryEngine22removeDetailDefinitionERK7QStringS2_R17QContactChangeSetRN15QContactManager5ErrorE @ 280 NONAME
	_ZN20QContactMemoryEngine22removeDetailDefinitionERK7QStringS2_RN15QContactManager5ErrorE @ 281 NONAME
	_ZN20QContactMemoryEngine22waitForRequestFinishedEP23QContactAbstractRequesti @ 282 NONAME
	_ZN20QContactMemoryEngine22waitForRequestProgressEP23QContactAbstractRequesti @ 283 NONAME
	_ZN20QContactMemoryEngine28performAsynchronousOperationEv @ 284 NONAME
	_ZN20QContactMemoryEngine5derefEv @ 285 NONAME
	_ZN20QContactMemoryEngine7enginesE @ 286 NONAME DATA 4
	_ZN20QContactMemoryEngineC1ERK4QMapI7QStringS1_E @ 287 NONAME
	_ZN20QContactMemoryEngineC2ERK4QMapI7QStringS1_E @ 288 NONAME
	_ZN20QContactOrganization10FieldTitleE @ 289 NONAME DATA 6
	_ZN20QContactOrganization13FieldLocationE @ 290 NONAME DATA 9
	_ZN20QContactOrganization14DefinitionNameE @ 291 NONAME DATA 13
	_ZN20QContactOrganization15FieldDepartmentE @ 292 NONAME DATA 11
	_ZN20QContactOrganization18FieldAssistantNameE @ 293 NONAME DATA 14
	_ZN20QContactOrganization9FieldLogoE @ 294 NONAME DATA 5
	_ZN20QContactOrganization9FieldNameE @ 295 NONAME DATA 5
	_ZN20QContactOrganization9FieldRoleE @ 296 NONAME DATA 5
	_ZN20QContactRelationship10AggregatesE @ 297 NONAME DATA 11
	_ZN20QContactRelationship10HasManagerE @ 298 NONAME DATA 11
	_ZN20QContactRelationship12HasAssistantE @ 299 NONAME DATA 13
	_ZN20QContactRelationship19setRelationshipTypeERK7QString @ 300 NONAME
	_ZN20QContactRelationship2IsE @ 301 NONAME DATA 3
	_ZN20QContactRelationship8setFirstERK10QContactId @ 302 NONAME
	_ZN20QContactRelationship9HasMemberE @ 303 NONAME DATA 10
	_ZN20QContactRelationship9HasSpouseE @ 304 NONAME DATA 10
	_ZN20QContactRelationship9setSecondERK10QContactId @ 305 NONAME
	_ZN20QContactRelationshipC1ERKS_ @ 306 NONAME
	_ZN20QContactRelationshipC1Ev @ 307 NONAME
	_ZN20QContactRelationshipC2ERKS_ @ 308 NONAME
	_ZN20QContactRelationshipC2Ev @ 309 NONAME
	_ZN20QContactRelationshipD1Ev @ 310 NONAME
	_ZN20QContactRelationshipD2Ev @ 311 NONAME
	_ZN20QContactRelationshipaSERKS_ @ 312 NONAME
	_ZN21QContactActionFactory11qt_metacallEN11QMetaObject4CallEiPPv @ 313 NONAME
	_ZN21QContactActionFactory11qt_metacastEPKc @ 314 NONAME
	_ZN21QContactActionFactory16staticMetaObjectE @ 315 NONAME DATA 16
	_ZN21QContactActionFactory19getStaticMetaObjectEv @ 316 NONAME
	_ZN21QContactActionFactoryD0Ev @ 317 NONAME
	_ZN21QContactActionFactoryD1Ev @ 318 NONAME
	_ZN21QContactActionFactoryD2Ev @ 319 NONAME
	_ZN21QContactInvalidFilterC1ERK14QContactFilter @ 320 NONAME
	_ZN21QContactInvalidFilterC1Ev @ 321 NONAME
	_ZN21QContactInvalidFilterC2ERK14QContactFilter @ 322 NONAME
	_ZN21QContactInvalidFilterC2Ev @ 323 NONAME
	_ZN21QContactLocalIdFilter6setIdsERK5QListIjE @ 324 NONAME
	_ZN21QContactLocalIdFilterC1ERK14QContactFilter @ 325 NONAME
	_ZN21QContactLocalIdFilterC1Ev @ 326 NONAME
	_ZN21QContactLocalIdFilterC2ERK14QContactFilter @ 327 NONAME
	_ZN21QContactLocalIdFilterC2Ev @ 328 NONAME
	_ZN21QContactManagerEngine10testFilterERK14QContactFilterRK8QContact @ 329 NONAME
	_ZN21QContactManagerEngine11dataChangedEv @ 330 NONAME
	_ZN21QContactManagerEngine11qt_metacallEN11QMetaObject4CallEiPPv @ 331 NONAME
	_ZN21QContactManagerEngine11qt_metacastEPKc @ 332 NONAME
	_ZN21QContactManagerEngine11saveContactEP8QContactRN15QContactManager5ErrorE @ 333 NONAME
	_ZN21QContactManagerEngine12saveContactsEP5QListI8QContactERN15QContactManager5ErrorE @ 334 NONAME
	_ZN21QContactManagerEngine12sortContactsERK5QListI8QContactERKS0_I17QContactSortOrderE @ 335 NONAME
	_ZN21QContactManagerEngine12startRequestEP23QContactAbstractRequest @ 336 NONAME
	_ZN21QContactManagerEngine13cancelRequestEP23QContactAbstractRequest @ 337 NONAME
	_ZN21QContactManagerEngine13contactsAddedERK5QListIjE @ 338 NONAME
	_ZN21QContactManagerEngine13removeContactERKjRN15QContactManager5ErrorE @ 339 NONAME
	_ZN21QContactManagerEngine13updateRequestEP23QContactAbstractRequestRK4QMapI7QString24QContactDetailDefinitionEN15QContactManager5ErrorERK5QListIS9_ENS0_6StatusEb @ 340 NONAME
	_ZN21QContactManagerEngine13updateRequestEP23QContactAbstractRequestRK5QListI20QContactRelationshipEN15QContactManager5ErrorERKS2_IS8_ENS0_6StatusEb @ 341 NONAME
	_ZN21QContactManagerEngine13updateRequestEP23QContactAbstractRequestRK5QListI24QContactDetailDefinitionEN15QContactManager5ErrorERKS2_IS8_ENS0_6StatusE @ 342 NONAME
	_ZN21QContactManagerEngine13updateRequestEP23QContactAbstractRequestRK5QListI8QContactEN15QContactManager5ErrorERKS2_IS8_ENS0_6StatusEb @ 343 NONAME
	_ZN21QContactManagerEngine13updateRequestEP23QContactAbstractRequestRK5QListIjEN15QContactManager5ErrorERKS2_IS7_ENS0_6StatusEb @ 344 NONAME
	_ZN21QContactManagerEngine14compareContactERK8QContactS2_RK5QListI17QContactSortOrderE @ 345 NONAME
	_ZN21QContactManagerEngine14compareVariantERK8QVariantS2_N2Qt15CaseSensitivityE @ 346 NONAME
	_ZN21QContactManagerEngine14removeContactsEP5QListIjERN15QContactManager5ErrorE @ 347 NONAME
	_ZN21QContactManagerEngine15contactsChangedERK5QListIjE @ 348 NONAME
	_ZN21QContactManagerEngine15contactsRemovedERK5QListIjE @ 349 NONAME
	_ZN21QContactManagerEngine16requestDestroyedEP23QContactAbstractRequest @ 350 NONAME
	_ZN21QContactManagerEngine16saveRelationshipEP20QContactRelationshipRN15QContactManager5ErrorE @ 351 NONAME
	_ZN21QContactManagerEngine16setSelfContactIdERKjRN15QContactManager5ErrorE @ 352 NONAME
	_ZN21QContactManagerEngine16staticMetaObjectE @ 353 NONAME DATA 16
	_ZN21QContactManagerEngine17saveRelationshipsEP5QListI20QContactRelationshipERN15QContactManager5ErrorE @ 354 NONAME
	_ZN21QContactManagerEngine17schemaDefinitionsEv @ 355 NONAME
	_ZN21QContactManagerEngine18relationshipsAddedERK5QListIjE @ 356 NONAME
	_ZN21QContactManagerEngine18removeRelationshipERK20QContactRelationshipRN15QContactManager5ErrorE @ 357 NONAME
	_ZN21QContactManagerEngine19getStaticMetaObjectEv @ 358 NONAME
	_ZN21QContactManagerEngine19removeRelationshipsERK5QListI20QContactRelationshipERN15QContactManager5ErrorE @ 359 NONAME
	_ZN21QContactManagerEngine19updateRequestStatusEP23QContactAbstractRequestN15QContactManager5ErrorER5QListIS3_ENS0_6StatusEb @ 360 NONAME
	_ZN21QContactManagerEngine20relationshipsRemovedERK5QListIjE @ 361 NONAME
	_ZN21QContactManagerEngine20saveDetailDefinitionERK24QContactDetailDefinitionRK7QStringRN15QContactManager5ErrorE @ 362 NONAME
	_ZN21QContactManagerEngine20selfContactIdChangedERKjS1_ @ 363 NONAME
	_ZN21QContactManagerEngine20validateActionFilterERK14QContactFilter @ 364 NONAME
	_ZN21QContactManagerEngine22removeDetailDefinitionERK7QStringS2_RN15QContactManager5ErrorE @ 365 NONAME
	_ZN21QContactManagerEngine22waitForRequestFinishedEP23QContactAbstractRequesti @ 366 NONAME
	_ZN21QContactManagerEngine22waitForRequestProgressEP23QContactAbstractRequesti @ 367 NONAME
	_ZN21QContactManagerEngine23setContactRelationshipsEP8QContactRK5QListI20QContactRelationshipE @ 368 NONAME
	_ZN21QContactManagerEngine7versionEv @ 369 NONAME
	_ZN21QContactManagerEngine9addSortedEP5QListI8QContactERKS1_RKS0_I17QContactSortOrderE @ 370 NONAME
	_ZN21QContactOnlineAccount10SubTypeSipE @ 371 NONAME DATA 4
	_ZN21QContactOnlineAccount11SubTypeImppE @ 372 NONAME DATA 5
	_ZN21QContactOnlineAccount12PresenceAwayE @ 373 NONAME DATA 5
	_ZN21QContactOnlineAccount12PresenceBusyE @ 374 NONAME DATA 5
	_ZN21QContactOnlineAccount13FieldNicknameE @ 375 NONAME DATA 9
	_ZN21QContactOnlineAccount13FieldPresenceE @ 376 NONAME DATA 9
	_ZN21QContactOnlineAccount13FieldSubTypesE @ 377 NONAME DATA 9
	_ZN21QContactOnlineAccount14DefinitionNameE @ 378 NONAME DATA 14
	_ZN21QContactOnlineAccount14PresenceHiddenE @ 379 NONAME DATA 7
	_ZN21QContactOnlineAccount14SubTypeSipVoipE @ 380 NONAME DATA 8
	_ZN21QContactOnlineAccount15FieldAccountUriE @ 381 NONAME DATA 11
	_ZN21QContactOnlineAccount15PresenceOfflineE @ 382 NONAME DATA 8
	_ZN21QContactOnlineAccount15PresenceUnknownE @ 383 NONAME DATA 8
	_ZN21QContactOnlineAccount17PresenceAvailableE @ 384 NONAME DATA 10
	_ZN21QContactOnlineAccount17SubTypeVideoShareE @ 385 NONAME DATA 11
	_ZN21QContactOnlineAccount18FieldStatusMessageE @ 386 NONAME DATA 14
	_ZN21QContactOnlineAccount20FieldServiceProviderE @ 387 NONAME DATA 16
	_ZN21QContactOnlineAccount20PresenceExtendedAwayE @ 388 NONAME DATA 13
	_ZN21QContactRemoveRequest11qt_metacallEN11QMetaObject4CallEiPPv @ 389 NONAME
	_ZN21QContactRemoveRequest11qt_metacastEPKc @ 390 NONAME
	_ZN21QContactRemoveRequest16staticMetaObjectE @ 391 NONAME DATA 16
	_ZN21QContactRemoveRequest19getStaticMetaObjectEv @ 392 NONAME
	_ZN21QContactRemoveRequest8progressEPS_ @ 393 NONAME
	_ZN21QContactRemoveRequest9setFilterERK14QContactFilter @ 394 NONAME
	_ZN21QContactRemoveRequestC1Ev @ 395 NONAME
	_ZN21QContactRemoveRequestC2Ev @ 396 NONAME
	_ZN21QContactRemoveRequestD0Ev @ 397 NONAME
	_ZN21QContactRemoveRequestD1Ev @ 398 NONAME
	_ZN21QContactRemoveRequestD2Ev @ 399 NONAME
	_ZN23QContactAbstractRequest10setManagerEP15QContactManager @ 400 NONAME
	_ZN23QContactAbstractRequest11qt_metacallEN11QMetaObject4CallEiPPv @ 401 NONAME
	_ZN23QContactAbstractRequest11qt_metacastEPKc @ 402 NONAME
	_ZN23QContactAbstractRequest15waitForFinishedEi @ 403 NONAME
	_ZN23QContactAbstractRequest15waitForProgressEi @ 404 NONAME
	_ZN23QContactAbstractRequest16staticMetaObjectE @ 405 NONAME DATA 16
	_ZN23QContactAbstractRequest19getStaticMetaObjectEv @ 406 NONAME
	_ZN23QContactAbstractRequest5startEv @ 407 NONAME
	_ZN23QContactAbstractRequest6cancelEv @ 408 NONAME
	_ZN23QContactAbstractRequestC1EP30QContactAbstractRequestPrivate @ 409 NONAME
	_ZN23QContactAbstractRequestC2EP30QContactAbstractRequestPrivate @ 410 NONAME
	_ZN23QContactAbstractRequestD0Ev @ 411 NONAME
	_ZN23QContactAbstractRequestD1Ev @ 412 NONAME
	_ZN23QContactAbstractRequestD2Ev @ 413 NONAME
	_ZN23QContactChangeLogFilter12setEventTypeENS_9EventTypeE @ 414 NONAME
	_ZN23QContactChangeLogFilter8setSinceERK9QDateTime @ 415 NONAME
	_ZN23QContactChangeLogFilterC1ENS_9EventTypeE @ 416 NONAME
	_ZN23QContactChangeLogFilterC1ERK14QContactFilter @ 417 NONAME
	_ZN23QContactChangeLogFilterC2ENS_9EventTypeE @ 418 NONAME
	_ZN23QContactChangeLogFilterC2ERK14QContactFilter @ 419 NONAME
	_ZN24QContactActionDescriptor13setActionNameERK7QString @ 420 NONAME
	_ZN24QContactActionDescriptor13setVendorNameERK7QString @ 421 NONAME
	_ZN24QContactActionDescriptor24setImplementationVersionEi @ 422 NONAME
	_ZN24QContactActionDescriptorC1ERK7QStringS2_i @ 423 NONAME
	_ZN24QContactActionDescriptorC1ERKS_ @ 424 NONAME
	_ZN24QContactActionDescriptorC2ERK7QStringS2_i @ 425 NONAME
	_ZN24QContactActionDescriptorC2ERKS_ @ 426 NONAME
	_ZN24QContactActionDescriptorD1Ev @ 427 NONAME
	_ZN24QContactActionDescriptorD2Ev @ 428 NONAME
	_ZN24QContactActionDescriptoraSERKS_ @ 429 NONAME
	_ZN24QContactDetailDefinition19setAccessConstraintERKNS_16AccessConstraintE @ 430 NONAME
	_ZN24QContactDetailDefinition6fieldsEv @ 431 NONAME
	_ZN24QContactDetailDefinition7setNameERK7QString @ 432 NONAME
	_ZN24QContactDetailDefinition9setFieldsERK4QMapI7QString29QContactDetailDefinitionFieldE @ 433 NONAME
	_ZN24QContactDetailDefinition9setUniqueEb @ 434 NONAME
	_ZN24QContactDetailDefinitionC1ERKS_ @ 435 NONAME
	_ZN24QContactDetailDefinitionC1Ev @ 436 NONAME
	_ZN24QContactDetailDefinitionC2ERKS_ @ 437 NONAME
	_ZN24QContactDetailDefinitionC2Ev @ 438 NONAME
	_ZN24QContactDetailDefinitionD1Ev @ 439 NONAME
	_ZN24QContactDetailDefinitionD2Ev @ 440 NONAME
	_ZN24QContactDetailDefinitionaSERKS_ @ 441 NONAME
	_ZN25QContactDetailRangeFilter13setMatchFlagsE6QFlagsIN14QContactFilter9MatchFlagEE @ 442 NONAME
	_ZN25QContactDetailRangeFilter23setDetailDefinitionNameERK7QStringS2_ @ 443 NONAME
	_ZN25QContactDetailRangeFilter8setRangeERK8QVariantS2_6QFlagsINS_9RangeFlagEE @ 444 NONAME
	_ZN25QContactDetailRangeFilterC1ERK14QContactFilter @ 445 NONAME
	_ZN25QContactDetailRangeFilterC1Ev @ 446 NONAME
	_ZN25QContactDetailRangeFilterC2ERK14QContactFilter @ 447 NONAME
	_ZN25QContactDetailRangeFilterC2Ev @ 448 NONAME
	_ZN26QContactIntersectionFilter10setFiltersERK5QListI14QContactFilterE @ 449 NONAME
	_ZN26QContactIntersectionFilter6appendERK14QContactFilter @ 450 NONAME
	_ZN26QContactIntersectionFilter6removeERK14QContactFilter @ 451 NONAME
	_ZN26QContactIntersectionFilter7prependERK14QContactFilter @ 452 NONAME
	_ZN26QContactIntersectionFilterC1ERK14QContactFilter @ 453 NONAME
	_ZN26QContactIntersectionFilterC1Ev @ 454 NONAME
	_ZN26QContactIntersectionFilterC2ERK14QContactFilter @ 455 NONAME
	_ZN26QContactIntersectionFilterC2Ev @ 456 NONAME
	_ZN26QContactIntersectionFilterlsERK14QContactFilter @ 457 NONAME
	_ZN26QContactRelationshipFilter19setRelationshipTypeERK7QString @ 458 NONAME
	_ZN26QContactRelationshipFilter21setOtherParticipantIdERK10QContactId @ 459 NONAME
	_ZN26QContactRelationshipFilter7setRoleENS_4RoleE @ 460 NONAME
	_ZN26QContactRelationshipFilterC1ERK14QContactFilter @ 461 NONAME
	_ZN26QContactRelationshipFilterC1Ev @ 462 NONAME
	_ZN26QContactRelationshipFilterC2ERK14QContactFilter @ 463 NONAME
	_ZN26QContactRelationshipFilterC2Ev @ 464 NONAME
	_ZN27QContactLocalIdFetchRequest10setSortingERK5QListI17QContactSortOrderE @ 465 NONAME
	_ZN27QContactLocalIdFetchRequest11qt_metacallEN11QMetaObject4CallEiPPv @ 466 NONAME
	_ZN27QContactLocalIdFetchRequest11qt_metacastEPKc @ 467 NONAME
	_ZN27QContactLocalIdFetchRequest16staticMetaObjectE @ 468 NONAME DATA 16
	_ZN27QContactLocalIdFetchRequest19getStaticMetaObjectEv @ 469 NONAME
	_ZN27QContactLocalIdFetchRequest8progressEPS_b @ 470 NONAME
	_ZN27QContactLocalIdFetchRequest9setFilterERK14QContactFilter @ 471 NONAME
	_ZN27QContactLocalIdFetchRequestC1Ev @ 472 NONAME
	_ZN27QContactLocalIdFetchRequestC2Ev @ 473 NONAME
	_ZN27QContactLocalIdFetchRequestD0Ev @ 474 NONAME
	_ZN27QContactLocalIdFetchRequestD1Ev @ 475 NONAME
	_ZN27QContactLocalIdFetchRequestD2Ev @ 476 NONAME
	_ZN29QContactDetailDefinitionField11setDataTypeEN8QVariant4TypeE @ 477 NONAME
	_ZN29QContactDetailDefinitionField18setAllowableValuesE5QListI8QVariantE @ 478 NONAME
	_ZN29QContactDetailDefinitionField19setAccessConstraintENS_16AccessConstraintE @ 479 NONAME
	_ZN29QContactDetailDefinitionFieldC1ERKS_ @ 480 NONAME
	_ZN29QContactDetailDefinitionFieldC1Ev @ 481 NONAME
	_ZN29QContactDetailDefinitionFieldC2ERKS_ @ 482 NONAME
	_ZN29QContactDetailDefinitionFieldC2Ev @ 483 NONAME
	_ZN29QContactDetailDefinitionFieldD1Ev @ 484 NONAME
	_ZN29QContactDetailDefinitionFieldD2Ev @ 485 NONAME
	_ZN29QContactDetailDefinitionFieldaSERKS_ @ 486 NONAME
	_ZN31QContactRelationshipSaveRequest11qt_metacallEN11QMetaObject4CallEiPPv @ 487 NONAME
	_ZN31QContactRelationshipSaveRequest11qt_metacastEPKc @ 488 NONAME
	_ZN31QContactRelationshipSaveRequest16setRelationshipsERK5QListI20QContactRelationshipE @ 489 NONAME
	_ZN31QContactRelationshipSaveRequest16staticMetaObjectE @ 490 NONAME DATA 16
	_ZN31QContactRelationshipSaveRequest19getStaticMetaObjectEv @ 491 NONAME
	_ZN31QContactRelationshipSaveRequest8progressEPS_ @ 492 NONAME
	_ZN31QContactRelationshipSaveRequestC1Ev @ 493 NONAME
	_ZN31QContactRelationshipSaveRequestC2Ev @ 494 NONAME
	_ZN31QContactRelationshipSaveRequestD0Ev @ 495 NONAME
	_ZN31QContactRelationshipSaveRequestD1Ev @ 496 NONAME
	_ZN31QContactRelationshipSaveRequestD2Ev @ 497 NONAME
	_ZN32QContactRelationshipFetchRequest11qt_metacallEN11QMetaObject4CallEiPPv @ 498 NONAME
	_ZN32QContactRelationshipFetchRequest11qt_metacastEPKc @ 499 NONAME
	_ZN32QContactRelationshipFetchRequest14setParticipantERK10QContactIdN26QContactRelationshipFilter4RoleE @ 500 NONAME
	_ZN32QContactRelationshipFetchRequest16staticMetaObjectE @ 501 NONAME DATA 16
	_ZN32QContactRelationshipFetchRequest19getStaticMetaObjectEv @ 502 NONAME
	_ZN32QContactRelationshipFetchRequest19setRelationshipTypeERK7QString @ 503 NONAME
	_ZN32QContactRelationshipFetchRequest8progressEPS_b @ 504 NONAME
	_ZN32QContactRelationshipFetchRequest8setFirstERK10QContactId @ 505 NONAME
	_ZN32QContactRelationshipFetchRequestC1Ev @ 506 NONAME
	_ZN32QContactRelationshipFetchRequestC2Ev @ 507 NONAME
	_ZN32QContactRelationshipFetchRequestD0Ev @ 508 NONAME
	_ZN32QContactRelationshipFetchRequestD1Ev @ 509 NONAME
	_ZN32QContactRelationshipFetchRequestD2Ev @ 510 NONAME
	_ZN33QContactRelationshipRemoveRequest11qt_metacallEN11QMetaObject4CallEiPPv @ 511 NONAME
	_ZN33QContactRelationshipRemoveRequest11qt_metacastEPKc @ 512 NONAME
	_ZN33QContactRelationshipRemoveRequest16staticMetaObjectE @ 513 NONAME DATA 16
	_ZN33QContactRelationshipRemoveRequest19getStaticMetaObjectEv @ 514 NONAME
	_ZN33QContactRelationshipRemoveRequest19setRelationshipTypeERK7QString @ 515 NONAME
	_ZN33QContactRelationshipRemoveRequest8progressEPS_ @ 516 NONAME
	_ZN33QContactRelationshipRemoveRequest8setFirstERK10QContactId @ 517 NONAME
	_ZN33QContactRelationshipRemoveRequest9setSecondERK10QContactId @ 518 NONAME
	_ZN33QContactRelationshipRemoveRequestC1Ev @ 519 NONAME
	_ZN33QContactRelationshipRemoveRequestC2Ev @ 520 NONAME
	_ZN33QContactRelationshipRemoveRequestD0Ev @ 521 NONAME
	_ZN33QContactRelationshipRemoveRequestD1Ev @ 522 NONAME
	_ZN33QContactRelationshipRemoveRequestD2Ev @ 523 NONAME
	_ZN35QContactDetailDefinitionSaveRequest11qt_metacallEN11QMetaObject4CallEiPPv @ 524 NONAME
	_ZN35QContactDetailDefinitionSaveRequest11qt_metacastEPKc @ 525 NONAME
	_ZN35QContactDetailDefinitionSaveRequest14setContactTypeERK7QString @ 526 NONAME
	_ZN35QContactDetailDefinitionSaveRequest14setDefinitionsERK5QListI24QContactDetailDefinitionE @ 527 NONAME
	_ZN35QContactDetailDefinitionSaveRequest16staticMetaObjectE @ 528 NONAME DATA 16
	_ZN35QContactDetailDefinitionSaveRequest19getStaticMetaObjectEv @ 529 NONAME
	_ZN35QContactDetailDefinitionSaveRequest8progressEPS_ @ 530 NONAME
	_ZN35QContactDetailDefinitionSaveRequestC1Ev @ 531 NONAME
	_ZN35QContactDetailDefinitionSaveRequestC2Ev @ 532 NONAME
	_ZN35QContactDetailDefinitionSaveRequestD0Ev @ 533 NONAME
	_ZN35QContactDetailDefinitionSaveRequestD1Ev @ 534 NONAME
	_ZN35QContactDetailDefinitionSaveRequestD2Ev @ 535 NONAME
	_ZN36QContactDetailDefinitionFetchRequest11qt_metacallEN11QMetaObject4CallEiPPv @ 536 NONAME
	_ZN36QContactDetailDefinitionFetchRequest11qt_metacastEPKc @ 537 NONAME
	_ZN36QContactDetailDefinitionFetchRequest14setContactTypeERK7QString @ 538 NONAME
	_ZN36QContactDetailDefinitionFetchRequest16staticMetaObjectE @ 539 NONAME DATA 16
	_ZN36QContactDetailDefinitionFetchRequest19getStaticMetaObjectEv @ 540 NONAME
	_ZN36QContactDetailDefinitionFetchRequest8progressEPS_b @ 541 NONAME
	_ZN36QContactDetailDefinitionFetchRequest8setNamesERK11QStringList @ 542 NONAME
	_ZN36QContactDetailDefinitionFetchRequestC1Ev @ 543 NONAME
	_ZN36QContactDetailDefinitionFetchRequestC2Ev @ 544 NONAME
	_ZN36QContactDetailDefinitionFetchRequestD0Ev @ 545 NONAME
	_ZN36QContactDetailDefinitionFetchRequestD1Ev @ 546 NONAME
	_ZN36QContactDetailDefinitionFetchRequestD2Ev @ 547 NONAME
	_ZN37QContactDetailDefinitionRemoveRequest11qt_metacallEN11QMetaObject4CallEiPPv @ 548 NONAME
	_ZN37QContactDetailDefinitionRemoveRequest11qt_metacastEPKc @ 549 NONAME
	_ZN37QContactDetailDefinitionRemoveRequest14setContactTypeERK7QString @ 550 NONAME
	_ZN37QContactDetailDefinitionRemoveRequest16staticMetaObjectE @ 551 NONAME DATA 16
	_ZN37QContactDetailDefinitionRemoveRequest19getStaticMetaObjectEv @ 552 NONAME
	_ZN37QContactDetailDefinitionRemoveRequest8progressEPS_ @ 553 NONAME
	_ZN37QContactDetailDefinitionRemoveRequest8setNamesERK11QStringList @ 554 NONAME
	_ZN37QContactDetailDefinitionRemoveRequestC1Ev @ 555 NONAME
	_ZN37QContactDetailDefinitionRemoveRequestC2Ev @ 556 NONAME
	_ZN37QContactDetailDefinitionRemoveRequestD0Ev @ 557 NONAME
	_ZN37QContactDetailDefinitionRemoveRequestD1Ev @ 558 NONAME
	_ZN37QContactDetailDefinitionRemoveRequestD2Ev @ 559 NONAME
	_ZN8QContact10saveDetailEP14QContactDetail @ 560 NONAME
	_ZN8QContact12clearDetailsEv @ 561 NONAME
	_ZN8QContact12removeDetailEP14QContactDetail @ 562 NONAME
	_ZN8QContact18setPreferredDetailERK7QStringRK14QContactDetail @ 563 NONAME
	_ZN8QContact20setRelationshipOrderERK5QListI20QContactRelationshipE @ 564 NONAME
	_ZN8QContact5setIdERK10QContactId @ 565 NONAME
	_ZN8QContact7setTypeERK12QContactType @ 566 NONAME
	_ZN8QContact7setTypeERK7QString @ 567 NONAME
	_ZN8QContactC1ERKS_ @ 568 NONAME
	_ZN8QContactC1Ev @ 569 NONAME
	_ZN8QContactC2ERKS_ @ 570 NONAME
	_ZN8QContactC2Ev @ 571 NONAME
	_ZN8QContactD1Ev @ 572 NONAME
	_ZN8QContactD2Ev @ 573 NONAME
	_ZN8QContactaSERKS_ @ 574 NONAME
	_ZNK10QContactId10managerUriEv @ 575 NONAME
	_ZNK10QContactId7localIdEv @ 576 NONAME
	_ZNK10QContactIdeqERKS_ @ 577 NONAME
	_ZNK10QContactIdneERKS_ @ 578 NONAME
	_ZNK14QContactAction10metaObjectEv @ 579 NONAME
	_ZNK14QContactAction16supportedDetailsERK8QContact @ 580 NONAME
	_ZNK14QContactDetail12variantValueERK7QString @ 581 NONAME
	_ZNK14QContactDetail14definitionNameEv @ 582 NONAME
	_ZNK14QContactDetail16preferredActionsEv @ 583 NONAME
	_ZNK14QContactDetail5valueERK7QString @ 584 NONAME
	_ZNK14QContactDetail6valuesEv @ 585 NONAME
	_ZNK14QContactDetail7isEmptyEv @ 586 NONAME
	_ZNK14QContactDetail8hasValueERK7QString @ 587 NONAME
	_ZNK14QContactDetaileqERKS_ @ 588 NONAME
	_ZNK14QContactFilter4typeEv @ 589 NONAME
	_ZNK14QContactFiltereqERKS_ @ 590 NONAME
	_ZNK15QContactManager10hasFeatureENS_14ManagerFeatureERK7QString @ 591 NONAME
	_ZNK15QContactManager10managerUriEv @ 592 NONAME
	_ZNK15QContactManager10metaObjectEv @ 593 NONAME
	_ZNK15QContactManager11managerNameEv @ 594 NONAME
	_ZNK15QContactManager13relationshipsERK10QContactIdN26QContactRelationshipFilter4RoleE @ 595 NONAME
	_ZNK15QContactManager13relationshipsERK7QStringRK10QContactIdN26QContactRelationshipFilter4RoleE @ 596 NONAME
	_ZNK15QContactManager13selfContactIdEv @ 597 NONAME
	_ZNK15QContactManager15filterSupportedERK14QContactFilter @ 598 NONAME
	_ZNK15QContactManager16detailDefinitionERK7QStringS2_ @ 599 NONAME
	_ZNK15QContactManager17detailDefinitionsERK7QString @ 600 NONAME
	_ZNK15QContactManager17managerParametersEv @ 601 NONAME
	_ZNK15QContactManager18supportedDataTypesEv @ 602 NONAME
	_ZNK15QContactManager21implementationVersionEv @ 603 NONAME
	_ZNK15QContactManager21supportedContactTypesEv @ 604 NONAME
	_ZNK15QContactManager22synthesizeDisplayLabelERK8QContact @ 605 NONAME
	_ZNK15QContactManager26supportedRelationshipTypesERK7QString @ 606 NONAME
	_ZNK15QContactManager5errorEv @ 607 NONAME
	_ZNK15QContactManager7contactERKj @ 608 NONAME
	_ZNK15QContactManager8contactsERK14QContactFilterRK5QListI17QContactSortOrderE @ 609 NONAME
	_ZNK15QContactManager8contactsERK5QListI17QContactSortOrderE @ 610 NONAME
	_ZNK17QContactSortOrder11blankPolicyEv @ 611 NONAME
	_ZNK17QContactSortOrder15caseSensitivityEv @ 612 NONAME
	_ZNK17QContactSortOrder15detailFieldNameEv @ 613 NONAME
	_ZNK17QContactSortOrder20detailDefinitionNameEv @ 614 NONAME
	_ZNK17QContactSortOrder7isValidEv @ 615 NONAME
	_ZNK17QContactSortOrder9directionEv @ 616 NONAME
	_ZNK17QContactSortOrdereqERKS_ @ 617 NONAME
	_ZNK19QContactSaveRequest10metaObjectEv @ 618 NONAME
	_ZNK19QContactSaveRequest8contactsEv @ 619 NONAME
	_ZNK19QContactUnionFilter7filtersEv @ 620 NONAME
	_ZNK20QContactActionFilter10actionNameEv @ 621 NONAME
	_ZNK20QContactActionFilter10vendorNameEv @ 622 NONAME
	_ZNK20QContactActionFilter21implementationVersionEv @ 623 NONAME
	_ZNK20QContactActionFilter5valueEv @ 624 NONAME
	_ZNK20QContactDetailFilter10matchFlagsEv @ 625 NONAME
	_ZNK20QContactDetailFilter15detailFieldNameEv @ 626 NONAME
	_ZNK20QContactDetailFilter20detailDefinitionNameEv @ 627 NONAME
	_ZNK20QContactDetailFilter5valueEv @ 628 NONAME
	_ZNK20QContactFetchRequest10metaObjectEv @ 629 NONAME
	_ZNK20QContactFetchRequest22definitionRestrictionsEv @ 630 NONAME
	_ZNK20QContactFetchRequest6filterEv @ 631 NONAME
	_ZNK20QContactFetchRequest7sortingEv @ 632 NONAME
	_ZNK20QContactFetchRequest8contactsEv @ 633 NONAME
	_ZNK20QContactMemoryEngine10hasFeatureEN15QContactManager14ManagerFeatureERK7QString @ 634 NONAME
	_ZNK20QContactMemoryEngine10metaObjectEv @ 635 NONAME
	_ZNK20QContactMemoryEngine11managerNameEv @ 636 NONAME
	_ZNK20QContactMemoryEngine13relationshipsERK7QStringRK10QContactIdN26QContactRelationshipFilter4RoleERN15QContactManager5ErrorE @ 637 NONAME
	_ZNK20QContactMemoryEngine13selfContactIdERN15QContactManager5ErrorE @ 638 NONAME
	_ZNK20QContactMemoryEngine15filterSupportedERK14QContactFilter @ 639 NONAME
	_ZNK20QContactMemoryEngine17detailDefinitionsERK7QStringRN15QContactManager5ErrorE @ 640 NONAME
	_ZNK20QContactMemoryEngine17managerParametersEv @ 641 NONAME
	_ZNK20QContactMemoryEngine18supportedDataTypesEv @ 642 NONAME
	_ZNK20QContactMemoryEngine21implementationVersionEv @ 643 NONAME
	_ZNK20QContactMemoryEngine7contactERKjRN15QContactManager5ErrorE @ 644 NONAME
	_ZNK20QContactMemoryEngine8contactsERK5QListI17QContactSortOrderERN15QContactManager5ErrorE @ 645 NONAME
	_ZNK20QContactRelationship16relationshipTypeEv @ 646 NONAME
	_ZNK20QContactRelationship5firstEv @ 647 NONAME
	_ZNK20QContactRelationship6secondEv @ 648 NONAME
	_ZNK20QContactRelationshipeqERKS_ @ 649 NONAME
	_ZNK21QContactActionFactory10metaObjectEv @ 650 NONAME
	_ZNK21QContactLocalIdFilter3idsEv @ 651 NONAME
	_ZNK21QContactManagerEngine10hasFeatureEN15QContactManager14ManagerFeatureERK7QString @ 652 NONAME
	_ZNK21QContactManagerEngine10managerUriEv @ 653 NONAME
	_ZNK21QContactManagerEngine10metaObjectEv @ 654 NONAME
	_ZNK21QContactManagerEngine11managerNameEv @ 655 NONAME
	_ZNK21QContactManagerEngine13relationshipsERK7QStringRK10QContactIdN26QContactRelationshipFilter4RoleERN15QContactManager5ErrorE @ 656 NONAME
	_ZNK21QContactManagerEngine13selfContactIdERN15QContactManager5ErrorE @ 657 NONAME
	_ZNK21QContactManagerEngine15filterSupportedERK14QContactFilter @ 658 NONAME
	_ZNK21QContactManagerEngine15validateContactERK8QContactRN15QContactManager5ErrorE @ 659 NONAME
	_ZNK21QContactManagerEngine16detailDefinitionERK7QStringS2_RN15QContactManager5ErrorE @ 660 NONAME
	_ZNK21QContactManagerEngine17detailDefinitionsERK7QStringRN15QContactManager5ErrorE @ 661 NONAME
	_ZNK21QContactManagerEngine17managerParametersEv @ 662 NONAME
	_ZNK21QContactManagerEngine18supportedDataTypesEv @ 663 NONAME
	_ZNK21QContactManagerEngine18validateDefinitionERK24QContactDetailDefinitionRN15QContactManager5ErrorE @ 664 NONAME
	_ZNK21QContactManagerEngine21implementationVersionEv @ 665 NONAME
	_ZNK21QContactManagerEngine21supportedContactTypesEv @ 666 NONAME
	_ZNK21QContactManagerEngine22setContactDisplayLabelERK7QStringRK8QContact @ 667 NONAME
	_ZNK21QContactManagerEngine22synthesizeDisplayLabelERK8QContactRN15QContactManager5ErrorE @ 668 NONAME
	_ZNK21QContactManagerEngine26supportedRelationshipTypesERK7QString @ 669 NONAME
	_ZNK21QContactManagerEngine7contactERKjRN15QContactManager5ErrorE @ 670 NONAME
	_ZNK21QContactManagerEngine8contactsERK14QContactFilterRK5QListI17QContactSortOrderERN15QContactManager5ErrorE @ 671 NONAME
	_ZNK21QContactManagerEngine8contactsERK5QListI17QContactSortOrderERN15QContactManager5ErrorE @ 672 NONAME
	_ZNK21QContactRemoveRequest10metaObjectEv @ 673 NONAME
	_ZNK21QContactRemoveRequest6filterEv @ 674 NONAME
	_ZNK23QContactAbstractRequest10isFinishedEv @ 675 NONAME
	_ZNK23QContactAbstractRequest10metaObjectEv @ 676 NONAME
	_ZNK23QContactAbstractRequest4typeEv @ 677 NONAME
	_ZNK23QContactAbstractRequest5errorEv @ 678 NONAME
	_ZNK23QContactAbstractRequest6errorsEv @ 679 NONAME
	_ZNK23QContactAbstractRequest6statusEv @ 680 NONAME
	_ZNK23QContactAbstractRequest7managerEv @ 681 NONAME
	_ZNK23QContactAbstractRequest8isActiveEv @ 682 NONAME
	_ZNK23QContactChangeLogFilter5sinceEv @ 683 NONAME
	_ZNK23QContactChangeLogFilter9eventTypeEv @ 684 NONAME
	_ZNK24QContactActionDescriptor10actionNameEv @ 685 NONAME
	_ZNK24QContactActionDescriptor10vendorNameEv @ 686 NONAME
	_ZNK24QContactActionDescriptor21implementationVersionEv @ 687 NONAME
	_ZNK24QContactActionDescriptor7isEmptyEv @ 688 NONAME
	_ZNK24QContactActionDescriptoreqERKS_ @ 689 NONAME
	_ZNK24QContactActionDescriptorneERKS_ @ 690 NONAME
	_ZNK24QContactDetailDefinition16accessConstraintEv @ 691 NONAME
	_ZNK24QContactDetailDefinition4nameEv @ 692 NONAME
	_ZNK24QContactDetailDefinition6fieldsEv @ 693 NONAME
	_ZNK24QContactDetailDefinition7isEmptyEv @ 694 NONAME
	_ZNK24QContactDetailDefinition8isUniqueEv @ 695 NONAME
	_ZNK24QContactDetailDefinitioneqERKS_ @ 696 NONAME
	_ZNK25QContactDetailRangeFilter10matchFlagsEv @ 697 NONAME
	_ZNK25QContactDetailRangeFilter10rangeFlagsEv @ 698 NONAME
	_ZNK25QContactDetailRangeFilter15detailFieldNameEv @ 699 NONAME
	_ZNK25QContactDetailRangeFilter20detailDefinitionNameEv @ 700 NONAME
	_ZNK25QContactDetailRangeFilter8maxValueEv @ 701 NONAME
	_ZNK25QContactDetailRangeFilter8minValueEv @ 702 NONAME
	_ZNK26QContactIntersectionFilter7filtersEv @ 703 NONAME
	_ZNK26QContactRelationshipFilter16relationshipTypeEv @ 704 NONAME
	_ZNK26QContactRelationshipFilter18otherParticipantIdEv @ 705 NONAME
	_ZNK26QContactRelationshipFilter4roleEv @ 706 NONAME
	_ZNK27QContactLocalIdFetchRequest10metaObjectEv @ 707 NONAME
	_ZNK27QContactLocalIdFetchRequest3idsEv @ 708 NONAME
	_ZNK27QContactLocalIdFetchRequest6filterEv @ 709 NONAME
	_ZNK27QContactLocalIdFetchRequest7sortingEv @ 710 NONAME
	_ZNK29QContactDetailDefinitionField15allowableValuesEv @ 711 NONAME
	_ZNK29QContactDetailDefinitionField16accessConstraintEv @ 712 NONAME
	_ZNK29QContactDetailDefinitionField8dataTypeEv @ 713 NONAME
	_ZNK29QContactDetailDefinitionFieldeqERKS_ @ 714 NONAME
	_ZNK29QContactDetailDefinitionFieldneERKS_ @ 715 NONAME
	_ZNK31QContactRelationshipSaveRequest10metaObjectEv @ 716 NONAME
	_ZNK31QContactRelationshipSaveRequest13relationshipsEv @ 717 NONAME
	_ZNK32QContactRelationshipFetchRequest10metaObjectEv @ 718 NONAME
	_ZNK32QContactRelationshipFetchRequest11participantEv @ 719 NONAME
	_ZNK32QContactRelationshipFetchRequest13relationshipsEv @ 720 NONAME
	_ZNK32QContactRelationshipFetchRequest15participantRoleEv @ 721 NONAME
	_ZNK32QContactRelationshipFetchRequest16relationshipTypeEv @ 722 NONAME
	_ZNK32QContactRelationshipFetchRequest5firstEv @ 723 NONAME
	_ZNK33QContactRelationshipRemoveRequest10metaObjectEv @ 724 NONAME
	_ZNK33QContactRelationshipRemoveRequest16relationshipTypeEv @ 725 NONAME
	_ZNK33QContactRelationshipRemoveRequest5firstEv @ 726 NONAME
	_ZNK33QContactRelationshipRemoveRequest6secondEv @ 727 NONAME
	_ZNK35QContactDetailDefinitionSaveRequest10metaObjectEv @ 728 NONAME
	_ZNK35QContactDetailDefinitionSaveRequest11contactTypeEv @ 729 NONAME
	_ZNK35QContactDetailDefinitionSaveRequest11definitionsEv @ 730 NONAME
	_ZNK36QContactDetailDefinitionFetchRequest10metaObjectEv @ 731 NONAME
	_ZNK36QContactDetailDefinitionFetchRequest11contactTypeEv @ 732 NONAME
	_ZNK36QContactDetailDefinitionFetchRequest11definitionsEv @ 733 NONAME
	_ZNK36QContactDetailDefinitionFetchRequest5namesEv @ 734 NONAME
	_ZNK37QContactDetailDefinitionRemoveRequest10metaObjectEv @ 735 NONAME
	_ZNK37QContactDetailDefinitionRemoveRequest11contactTypeEv @ 736 NONAME
	_ZNK37QContactDetailDefinitionRemoveRequest5namesEv @ 737 NONAME
	_ZNK8QContact12displayLabelEv @ 738 NONAME
	_ZNK8QContact13relationshipsERK7QString @ 739 NONAME
	_ZNK8QContact15preferredDetailERK7QString @ 740 NONAME
	_ZNK8QContact15relatedContactsERK7QStringN26QContactRelationshipFilter4RoleE @ 741 NONAME
	_ZNK8QContact16availableActionsERK7QStringi @ 742 NONAME
	_ZNK8QContact16detailWithActionERK7QString @ 743 NONAME
	_ZNK8QContact17detailsWithActionERK7QString @ 744 NONAME
	_ZNK8QContact17isPreferredDetailERK7QStringRK14QContactDetail @ 745 NONAME
	_ZNK8QContact17relationshipOrderEv @ 746 NONAME
	_ZNK8QContact2idEv @ 747 NONAME
	_ZNK8QContact4typeEv @ 748 NONAME
	_ZNK8QContact6detailERK7QString @ 749 NONAME
	_ZNK8QContact7detailsERK7QString @ 750 NONAME
	_ZNK8QContact7detailsERK7QStringS2_S2_ @ 751 NONAME
	_ZNK8QContact7isEmptyEv @ 752 NONAME
	_ZNK8QContact7localIdEv @ 753 NONAME
	_ZNK8QContacteqERKS_ @ 754 NONAME
	_ZTI12QContactName @ 755 NONAME
	_ZTI12QContactType @ 756 NONAME
	_ZTI14QContactAction @ 757 NONAME
	_ZTI14QContactDetail @ 758 NONAME
	_ZTI14QContactFilter @ 759 NONAME
	_ZTI15QContactManager @ 760 NONAME
	_ZTI17QContactTimestamp @ 761 NONAME
	_ZTI19QContactSaveRequest @ 762 NONAME
	_ZTI19QContactUnionFilter @ 763 NONAME
	_ZTI20QContactActionFilter @ 764 NONAME
	_ZTI20QContactDetailFilter @ 765 NONAME
	_ZTI20QContactDisplayLabel @ 766 NONAME
	_ZTI20QContactFetchRequest @ 767 NONAME
	_ZTI20QContactMemoryEngine @ 768 NONAME
	_ZTI20QContactOrganization @ 769 NONAME
	_ZTI21QContactActionFactory @ 770 NONAME
	_ZTI21QContactInvalidFilter @ 771 NONAME
	_ZTI21QContactLocalIdFilter @ 772 NONAME
	_ZTI21QContactManagerEngine @ 773 NONAME
	_ZTI21QContactRemoveRequest @ 774 NONAME
	_ZTI23QContactAbstractRequest @ 775 NONAME
	_ZTI23QContactChangeLogFilter @ 776 NONAME
	_ZTI25QContactDetailRangeFilter @ 777 NONAME
	_ZTI26QContactIntersectionFilter @ 778 NONAME
	_ZTI26QContactRelationshipFilter @ 779 NONAME
	_ZTI27QContactLocalIdFetchRequest @ 780 NONAME
	_ZTI31QContactRelationshipSaveRequest @ 781 NONAME
	_ZTI32QContactRelationshipFetchRequest @ 782 NONAME
	_ZTI33QContactRelationshipRemoveRequest @ 783 NONAME
	_ZTI35QContactDetailDefinitionSaveRequest @ 784 NONAME
	_ZTI36QContactDetailDefinitionFetchRequest @ 785 NONAME
	_ZTI37QContactDetailDefinitionRemoveRequest @ 786 NONAME
	_ZTV12QContactName @ 787 NONAME
	_ZTV12QContactType @ 788 NONAME
	_ZTV14QContactAction @ 789 NONAME
	_ZTV14QContactDetail @ 790 NONAME
	_ZTV14QContactFilter @ 791 NONAME
	_ZTV15QContactManager @ 792 NONAME
	_ZTV17QContactTimestamp @ 793 NONAME
	_ZTV19QContactSaveRequest @ 794 NONAME
	_ZTV19QContactUnionFilter @ 795 NONAME
	_ZTV20QContactActionFilter @ 796 NONAME
	_ZTV20QContactDetailFilter @ 797 NONAME
	_ZTV20QContactDisplayLabel @ 798 NONAME
	_ZTV20QContactFetchRequest @ 799 NONAME
	_ZTV20QContactMemoryEngine @ 800 NONAME
	_ZTV20QContactOrganization @ 801 NONAME
	_ZTV21QContactActionFactory @ 802 NONAME
	_ZTV21QContactInvalidFilter @ 803 NONAME
	_ZTV21QContactLocalIdFilter @ 804 NONAME
	_ZTV21QContactManagerEngine @ 805 NONAME
	_ZTV21QContactRemoveRequest @ 806 NONAME
	_ZTV23QContactAbstractRequest @ 807 NONAME
	_ZTV23QContactChangeLogFilter @ 808 NONAME
	_ZTV25QContactDetailRangeFilter @ 809 NONAME
	_ZTV26QContactIntersectionFilter @ 810 NONAME
	_ZTV26QContactRelationshipFilter @ 811 NONAME
	_ZTV27QContactLocalIdFetchRequest @ 812 NONAME
	_ZTV31QContactRelationshipSaveRequest @ 813 NONAME
	_ZTV32QContactRelationshipFetchRequest @ 814 NONAME
	_ZTV33QContactRelationshipRemoveRequest @ 815 NONAME
	_ZTV35QContactDetailDefinitionSaveRequest @ 816 NONAME
	_ZTV36QContactDetailDefinitionFetchRequest @ 817 NONAME
	_ZTV37QContactDetailDefinitionRemoveRequest @ 818 NONAME
	_ZanRK14QContactFilterS1_ @ 819 NONAME
	_ZorRK14QContactFilterS1_ @ 820 NONAME

