EXPORTS
	_ZN10QtMobility10QMessageIdC1ERK7QString @ 1 NONAME
	_ZN10QtMobility10QMessageIdC1ERKS0_ @ 2 NONAME
	_ZN10QtMobility10QMessageIdC1Ev @ 3 NONAME
	_ZN10QtMobility10QMessageIdC2ERK7QString @ 4 NONAME
	_ZN10QtMobility10QMessageIdC2ERKS0_ @ 5 NONAME
	_ZN10QtMobility10QMessageIdC2Ev @ 6 NONAME
	_ZN10QtMobility10QMessageIdD1Ev @ 7 NONAME
	_ZN10QtMobility10QMessageIdD2Ev @ 8 NONAME
	_ZN10QtMobility10QMessageIdaSERKS0_ @ 9 NONAME
	_ZN10QtMobility13QMessageStore10addMessageEPNS_8QMessageE @ 10 NONAME
	_ZN10QtMobility13QMessageStore11qt_metacallEN11QMetaObject4CallEiPPv @ 11 NONAME
	_ZN10QtMobility13QMessageStore11qt_metacastEPKc @ 12 NONAME
	_ZN10QtMobility13QMessageStore12messageAddedERKNS_10QMessageIdERK4QSetIiE @ 13 NONAME
	_ZN10QtMobility13QMessageStore13removeMessageERKNS_10QMessageIdENS0_13RemovalOptionE @ 14 NONAME
	_ZN10QtMobility13QMessageStore13updateMessageEPNS_8QMessageE @ 15 NONAME
	_ZN10QtMobility13QMessageStore14messageRemovedERKNS_10QMessageIdERK4QSetIiE @ 16 NONAME
	_ZN10QtMobility13QMessageStore14messageUpdatedERKNS_10QMessageIdERK4QSetIiE @ 17 NONAME
	_ZN10QtMobility13QMessageStore14removeMessagesERKNS_14QMessageFilterENS0_13RemovalOptionE @ 18 NONAME
	_ZN10QtMobility13QMessageStore16staticMetaObjectE @ 19 NONAME DATA 16
	_ZN10QtMobility13QMessageStore19getStaticMetaObjectEv @ 20 NONAME
	_ZN10QtMobility13QMessageStore26registerNotificationFilterERKNS_14QMessageFilterE @ 21 NONAME
	_ZN10QtMobility13QMessageStore28unregisterNotificationFilterEi @ 22 NONAME
	_ZN10QtMobility13QMessageStore8instanceEv @ 23 NONAME
	_ZN10QtMobility13QMessageStoreC1EP7QObject @ 24 NONAME
	_ZN10QtMobility13QMessageStoreC2EP7QObject @ 25 NONAME
	_ZN10QtMobility13QMessageStoreD0Ev @ 26 NONAME
	_ZN10QtMobility13QMessageStoreD1Ev @ 27 NONAME
	_ZN10QtMobility13QMessageStoreD2Ev @ 28 NONAME
	_ZN10QtMobility14QMessageFilter10byPriorityENS_8QMessage8PriorityENS_22QMessageDataComparator18EqualityComparatorE @ 29 NONAME
	_ZN10QtMobility14QMessageFilter10setOptionsE6QFlagsINS_22QMessageDataComparator6OptionEE @ 30 NONAME
	_ZN10QtMobility14QMessageFilter11byTimeStampERK9QDateTimeNS_22QMessageDataComparator18EqualityComparatorE @ 31 NONAME
	_ZN10QtMobility14QMessageFilter11byTimeStampERK9QDateTimeNS_22QMessageDataComparator18RelationComparatorE @ 32 NONAME
	_ZN10QtMobility14QMessageFilter12byRecipientsERK7QStringNS_22QMessageDataComparator19InclusionComparatorE @ 33 NONAME
	_ZN10QtMobility14QMessageFilter16byParentFolderIdERKNS_16QMessageFolderIdENS_22QMessageDataComparator18EqualityComparatorE @ 34 NONAME
	_ZN10QtMobility14QMessageFilter16byParentFolderIdERKNS_20QMessageFolderFilterENS_22QMessageDataComparator19InclusionComparatorE @ 35 NONAME
	_ZN10QtMobility14QMessageFilter16byStandardFolderENS_8QMessage14StandardFolderENS_22QMessageDataComparator18EqualityComparatorE @ 36 NONAME
	_ZN10QtMobility14QMessageFilter17byParentAccountIdERKNS_17QMessageAccountIdENS_22QMessageDataComparator18EqualityComparatorE @ 37 NONAME
	_ZN10QtMobility14QMessageFilter17byParentAccountIdERKNS_21QMessageAccountFilterENS_22QMessageDataComparator19InclusionComparatorE @ 38 NONAME
	_ZN10QtMobility14QMessageFilter19byAncestorFolderIdsERKNS_16QMessageFolderIdENS_22QMessageDataComparator19InclusionComparatorE @ 39 NONAME
	_ZN10QtMobility14QMessageFilter19byAncestorFolderIdsERKNS_20QMessageFolderFilterENS_22QMessageDataComparator19InclusionComparatorE @ 40 NONAME
	_ZN10QtMobility14QMessageFilter20byReceptionTimeStampERK9QDateTimeNS_22QMessageDataComparator18EqualityComparatorE @ 41 NONAME
	_ZN10QtMobility14QMessageFilter20byReceptionTimeStampERK9QDateTimeNS_22QMessageDataComparator18RelationComparatorE @ 42 NONAME
	_ZN10QtMobility14QMessageFilter4byIdERK5QListINS_10QMessageIdEENS_22QMessageDataComparator19InclusionComparatorE @ 43 NONAME
	_ZN10QtMobility14QMessageFilter4byIdERKNS_10QMessageIdENS_22QMessageDataComparator18EqualityComparatorE @ 44 NONAME
	_ZN10QtMobility14QMessageFilter4byIdERKS0_NS_22QMessageDataComparator19InclusionComparatorE @ 45 NONAME
	_ZN10QtMobility14QMessageFilter6bySizeEiNS_22QMessageDataComparator18EqualityComparatorE @ 46 NONAME
	_ZN10QtMobility14QMessageFilter6bySizeEiNS_22QMessageDataComparator18RelationComparatorE @ 47 NONAME
	_ZN10QtMobility14QMessageFilter6byTypeE6QFlagsINS_8QMessage4TypeEENS_22QMessageDataComparator19InclusionComparatorE @ 48 NONAME
	_ZN10QtMobility14QMessageFilter6byTypeENS_8QMessage4TypeENS_22QMessageDataComparator18EqualityComparatorE @ 49 NONAME
	_ZN10QtMobility14QMessageFilter8bySenderERK7QStringNS_22QMessageDataComparator18EqualityComparatorE @ 50 NONAME
	_ZN10QtMobility14QMessageFilter8bySenderERK7QStringNS_22QMessageDataComparator19InclusionComparatorE @ 51 NONAME
	_ZN10QtMobility14QMessageFilter8byStatusE6QFlagsINS_8QMessage6StatusEENS_22QMessageDataComparator19InclusionComparatorE @ 52 NONAME
	_ZN10QtMobility14QMessageFilter8byStatusENS_8QMessage6StatusENS_22QMessageDataComparator18EqualityComparatorE @ 53 NONAME
	_ZN10QtMobility14QMessageFilter9bySubjectERK7QStringNS_22QMessageDataComparator18EqualityComparatorE @ 54 NONAME
	_ZN10QtMobility14QMessageFilter9bySubjectERK7QStringNS_22QMessageDataComparator19InclusionComparatorE @ 55 NONAME
	_ZN10QtMobility14QMessageFilterC1ERKS0_ @ 56 NONAME
	_ZN10QtMobility14QMessageFilterC1Ev @ 57 NONAME
	_ZN10QtMobility14QMessageFilterC2ERKS0_ @ 58 NONAME
	_ZN10QtMobility14QMessageFilterC2Ev @ 59 NONAME
	_ZN10QtMobility14QMessageFilterD0Ev @ 60 NONAME
	_ZN10QtMobility14QMessageFilterD1Ev @ 61 NONAME
	_ZN10QtMobility14QMessageFilterD2Ev @ 62 NONAME
	_ZN10QtMobility14QMessageFilteraNERKS0_ @ 63 NONAME
	_ZN10QtMobility14QMessageFilteraSERKS0_ @ 64 NONAME
	_ZN10QtMobility14QMessageFilteroRERKS0_ @ 65 NONAME
	_ZN10QtMobility14QMessageFolderC1ERKNS_16QMessageFolderIdE @ 66 NONAME
	_ZN10QtMobility14QMessageFolderC1ERKS0_ @ 67 NONAME
	_ZN10QtMobility14QMessageFolderC1Ev @ 68 NONAME
	_ZN10QtMobility14QMessageFolderC2ERKNS_16QMessageFolderIdE @ 69 NONAME
	_ZN10QtMobility14QMessageFolderC2ERKS0_ @ 70 NONAME
	_ZN10QtMobility14QMessageFolderC2Ev @ 71 NONAME
	_ZN10QtMobility14QMessageFolderD0Ev @ 72 NONAME
	_ZN10QtMobility14QMessageFolderD1Ev @ 73 NONAME
	_ZN10QtMobility14QMessageFolderD2Ev @ 74 NONAME
	_ZN10QtMobility14QMessageFolderaSERKS0_ @ 75 NONAME
	_ZN10QtMobility15QMessageAccount14defaultAccountENS_8QMessage4TypeE @ 76 NONAME
	_ZN10QtMobility15QMessageAccountC1ERKNS_17QMessageAccountIdE @ 77 NONAME
	_ZN10QtMobility15QMessageAccountC1ERKS0_ @ 78 NONAME
	_ZN10QtMobility15QMessageAccountC1Ev @ 79 NONAME
	_ZN10QtMobility15QMessageAccountC2ERKNS_17QMessageAccountIdE @ 80 NONAME
	_ZN10QtMobility15QMessageAccountC2ERKS0_ @ 81 NONAME
	_ZN10QtMobility15QMessageAccountC2Ev @ 82 NONAME
	_ZN10QtMobility15QMessageAccountD0Ev @ 83 NONAME
	_ZN10QtMobility15QMessageAccountD1Ev @ 84 NONAME
	_ZN10QtMobility15QMessageAccountD2Ev @ 85 NONAME
	_ZN10QtMobility15QMessageAccountaSERKS0_ @ 86 NONAME
	_ZN10QtMobility15QMessageAddress12setRecipientERK7QString @ 87 NONAME
	_ZN10QtMobility15QMessageAddress17parseEmailAddressERK7QStringPS1_S4_S4_PbS5_ @ 88 NONAME
	_ZN10QtMobility15QMessageAddress7setTypeENS0_4TypeE @ 89 NONAME
	_ZN10QtMobility15QMessageAddressC1ERK7QStringNS0_4TypeE @ 90 NONAME
	_ZN10QtMobility15QMessageAddressC1ERKS0_ @ 91 NONAME
	_ZN10QtMobility15QMessageAddressC1Ev @ 92 NONAME
	_ZN10QtMobility15QMessageAddressC2ERK7QStringNS0_4TypeE @ 93 NONAME
	_ZN10QtMobility15QMessageAddressC2ERKS0_ @ 94 NONAME
	_ZN10QtMobility15QMessageAddressC2Ev @ 95 NONAME
	_ZN10QtMobility15QMessageAddressD0Ev @ 96 NONAME
	_ZN10QtMobility15QMessageAddressD1Ev @ 97 NONAME
	_ZN10QtMobility15QMessageAddressD2Ev @ 98 NONAME
	_ZN10QtMobility15QMessageAddressaSERKS0_ @ 99 NONAME
	_ZN10QtMobility16QMessageFolderIdC1ERK7QString @ 100 NONAME
	_ZN10QtMobility16QMessageFolderIdC1ERKS0_ @ 101 NONAME
	_ZN10QtMobility16QMessageFolderIdC1Ev @ 102 NONAME
	_ZN10QtMobility16QMessageFolderIdC2ERK7QString @ 103 NONAME
	_ZN10QtMobility16QMessageFolderIdC2ERKS0_ @ 104 NONAME
	_ZN10QtMobility16QMessageFolderIdC2Ev @ 105 NONAME
	_ZN10QtMobility16QMessageFolderIdD1Ev @ 106 NONAME
	_ZN10QtMobility16QMessageFolderIdD2Ev @ 107 NONAME
	_ZN10QtMobility16QMessageFolderIdaSERKS0_ @ 108 NONAME
	_ZN10QtMobility16QMessageOrdering10byPriorityEN2Qt9SortOrderE @ 109 NONAME
	_ZN10QtMobility16QMessageOrdering11byTimeStampEN2Qt9SortOrderE @ 110 NONAME
	_ZN10QtMobility16QMessageOrdering12byRecipientsEN2Qt9SortOrderE @ 111 NONAME
	_ZN10QtMobility16QMessageOrdering20byReceptionTimeStampEN2Qt9SortOrderE @ 112 NONAME
	_ZN10QtMobility16QMessageOrdering6bySizeEN2Qt9SortOrderE @ 113 NONAME
	_ZN10QtMobility16QMessageOrdering6byTypeEN2Qt9SortOrderE @ 114 NONAME
	_ZN10QtMobility16QMessageOrdering8bySenderEN2Qt9SortOrderE @ 115 NONAME
	_ZN10QtMobility16QMessageOrdering8byStatusENS_8QMessage6StatusEN2Qt9SortOrderE @ 116 NONAME
	_ZN10QtMobility16QMessageOrdering9bySubjectEN2Qt9SortOrderE @ 117 NONAME
	_ZN10QtMobility16QMessageOrderingC1ERKS0_ @ 118 NONAME
	_ZN10QtMobility16QMessageOrderingC1Ev @ 119 NONAME
	_ZN10QtMobility16QMessageOrderingC2ERKS0_ @ 120 NONAME
	_ZN10QtMobility16QMessageOrderingC2Ev @ 121 NONAME
	_ZN10QtMobility16QMessageOrderingD0Ev @ 122 NONAME
	_ZN10QtMobility16QMessageOrderingD1Ev @ 123 NONAME
	_ZN10QtMobility16QMessageOrderingD2Ev @ 124 NONAME
	_ZN10QtMobility16QMessageOrderingaSERKS0_ @ 125 NONAME
	_ZN10QtMobility16QMessageOrderingpLERKS0_ @ 126 NONAME
	_ZN10QtMobility17QMessageAccountIdC1ERK7QString @ 127 NONAME
	_ZN10QtMobility17QMessageAccountIdC1ERKS0_ @ 128 NONAME
	_ZN10QtMobility17QMessageAccountIdC1Ev @ 129 NONAME
	_ZN10QtMobility17QMessageAccountIdC2ERK7QString @ 130 NONAME
	_ZN10QtMobility17QMessageAccountIdC2ERKS0_ @ 131 NONAME
	_ZN10QtMobility17QMessageAccountIdC2Ev @ 132 NONAME
	_ZN10QtMobility17QMessageAccountIdD1Ev @ 133 NONAME
	_ZN10QtMobility17QMessageAccountIdD2Ev @ 134 NONAME
	_ZN10QtMobility17QMessageAccountIdaSERKS0_ @ 135 NONAME
	_ZN10QtMobility20QMessageFolderFilter10setOptionsE6QFlagsINS_22QMessageDataComparator6OptionEE @ 136 NONAME
	_ZN10QtMobility20QMessageFolderFilter13byDisplayNameERK7QStringNS_22QMessageDataComparator18EqualityComparatorE @ 137 NONAME
	_ZN10QtMobility20QMessageFolderFilter13byDisplayNameERK7QStringNS_22QMessageDataComparator19InclusionComparatorE @ 138 NONAME
	_ZN10QtMobility20QMessageFolderFilter16byParentFolderIdERKNS_16QMessageFolderIdENS_22QMessageDataComparator18EqualityComparatorE @ 139 NONAME
	_ZN10QtMobility20QMessageFolderFilter16byParentFolderIdERKS0_NS_22QMessageDataComparator19InclusionComparatorE @ 140 NONAME
	_ZN10QtMobility20QMessageFolderFilter17byParentAccountIdERKNS_17QMessageAccountIdENS_22QMessageDataComparator18EqualityComparatorE @ 141 NONAME
	_ZN10QtMobility20QMessageFolderFilter17byParentAccountIdERKNS_21QMessageAccountFilterENS_22QMessageDataComparator19InclusionComparatorE @ 142 NONAME
	_ZN10QtMobility20QMessageFolderFilter19byAncestorFolderIdsERKNS_16QMessageFolderIdENS_22QMessageDataComparator19InclusionComparatorE @ 143 NONAME
	_ZN10QtMobility20QMessageFolderFilter19byAncestorFolderIdsERKS0_NS_22QMessageDataComparator19InclusionComparatorE @ 144 NONAME
	_ZN10QtMobility20QMessageFolderFilter4byIdERK5QListINS_16QMessageFolderIdEENS_22QMessageDataComparator19InclusionComparatorE @ 145 NONAME
	_ZN10QtMobility20QMessageFolderFilter4byIdERKNS_16QMessageFolderIdENS_22QMessageDataComparator18EqualityComparatorE @ 146 NONAME
	_ZN10QtMobility20QMessageFolderFilter4byIdERKS0_NS_22QMessageDataComparator19InclusionComparatorE @ 147 NONAME
	_ZN10QtMobility20QMessageFolderFilter6byPathERK7QStringNS_22QMessageDataComparator18EqualityComparatorE @ 148 NONAME
	_ZN10QtMobility20QMessageFolderFilter6byPathERK7QStringNS_22QMessageDataComparator19InclusionComparatorE @ 149 NONAME
	_ZN10QtMobility20QMessageFolderFilterC1ERKS0_ @ 150 NONAME
	_ZN10QtMobility20QMessageFolderFilterC1Ev @ 151 NONAME
	_ZN10QtMobility20QMessageFolderFilterC2ERKS0_ @ 152 NONAME
	_ZN10QtMobility20QMessageFolderFilterC2Ev @ 153 NONAME
	_ZN10QtMobility20QMessageFolderFilterD0Ev @ 154 NONAME
	_ZN10QtMobility20QMessageFolderFilterD1Ev @ 155 NONAME
	_ZN10QtMobility20QMessageFolderFilterD2Ev @ 156 NONAME
	_ZN10QtMobility20QMessageFolderFilteraNERKS0_ @ 157 NONAME
	_ZN10QtMobility20QMessageFolderFilteraSERKS0_ @ 158 NONAME
	_ZN10QtMobility20QMessageFolderFilteroRERKS0_ @ 159 NONAME
	_ZN10QtMobility21QMessageAccountFilter10setOptionsE6QFlagsINS_22QMessageDataComparator6OptionEE @ 160 NONAME
	_ZN10QtMobility21QMessageAccountFilter4byIdERK5QListINS_17QMessageAccountIdEENS_22QMessageDataComparator19InclusionComparatorE @ 161 NONAME
	_ZN10QtMobility21QMessageAccountFilter4byIdERKNS_17QMessageAccountIdENS_22QMessageDataComparator18EqualityComparatorE @ 162 NONAME
	_ZN10QtMobility21QMessageAccountFilter4byIdERKS0_NS_22QMessageDataComparator19InclusionComparatorE @ 163 NONAME
	_ZN10QtMobility21QMessageAccountFilter6byNameERK7QStringNS_22QMessageDataComparator18EqualityComparatorE @ 164 NONAME
	_ZN10QtMobility21QMessageAccountFilter6byNameERK7QStringNS_22QMessageDataComparator19InclusionComparatorE @ 165 NONAME
	_ZN10QtMobility21QMessageAccountFilterC1ERKS0_ @ 166 NONAME
	_ZN10QtMobility21QMessageAccountFilterC1Ev @ 167 NONAME
	_ZN10QtMobility21QMessageAccountFilterC2ERKS0_ @ 168 NONAME
	_ZN10QtMobility21QMessageAccountFilterC2Ev @ 169 NONAME
	_ZN10QtMobility21QMessageAccountFilterD0Ev @ 170 NONAME
	_ZN10QtMobility21QMessageAccountFilterD1Ev @ 171 NONAME
	_ZN10QtMobility21QMessageAccountFilterD2Ev @ 172 NONAME
	_ZN10QtMobility21QMessageAccountFilteraNERKS0_ @ 173 NONAME
	_ZN10QtMobility21QMessageAccountFilteraSERKS0_ @ 174 NONAME
	_ZN10QtMobility21QMessageAccountFilteroRERKS0_ @ 175 NONAME
	_ZN10QtMobility21QMessageServiceAction11qt_metacallEN11QMetaObject4CallEiPPv @ 176 NONAME
	_ZN10QtMobility21QMessageServiceAction11qt_metacastEPKc @ 177 NONAME
	_ZN10QtMobility21QMessageServiceAction12retrieveBodyERKNS_10QMessageIdE @ 178 NONAME
	_ZN10QtMobility21QMessageServiceAction12stateChangedENS0_5StateE @ 179 NONAME
	_ZN10QtMobility21QMessageServiceAction13countMessagesERKNS_14QMessageFilterE @ 180 NONAME
	_ZN10QtMobility21QMessageServiceAction13exportUpdatesERKNS_17QMessageAccountIdE @ 181 NONAME
	_ZN10QtMobility21QMessageServiceAction13messagesFoundERK5QListINS_10QMessageIdEE @ 182 NONAME
	_ZN10QtMobility21QMessageServiceAction13queryMessagesERKNS_14QMessageFilterERK7QString6QFlagsINS_22QMessageDataComparator6OptionEERKNS_16QMessageOrderingEjj @ 183 NONAME
	_ZN10QtMobility21QMessageServiceAction13queryMessagesERKNS_14QMessageFilterERKNS_16QMessageOrderingEjj @ 184 NONAME
	_ZN10QtMobility21QMessageServiceAction14retrieveHeaderERKNS_10QMessageIdE @ 185 NONAME
	_ZN10QtMobility21QMessageServiceAction15cancelOperationEv @ 186 NONAME
	_ZN10QtMobility21QMessageServiceAction15messagesCountedEi @ 187 NONAME
	_ZN10QtMobility21QMessageServiceAction15progressChangedEjj @ 188 NONAME
	_ZN10QtMobility21QMessageServiceAction16staticMetaObjectE @ 189 NONAME DATA 16
	_ZN10QtMobility21QMessageServiceAction19getStaticMetaObjectEv @ 190 NONAME
	_ZN10QtMobility21QMessageServiceAction4sendERNS_8QMessageE @ 191 NONAME
	_ZN10QtMobility21QMessageServiceAction4showERKNS_10QMessageIdE @ 192 NONAME
	_ZN10QtMobility21QMessageServiceAction7composeERKNS_8QMessageE @ 193 NONAME
	_ZN10QtMobility21QMessageServiceAction8retrieveERKNS_10QMessageIdERKNS_26QMessageContentContainerIdE @ 194 NONAME
	_ZN10QtMobility21QMessageServiceActionC1EP7QObject @ 195 NONAME
	_ZN10QtMobility21QMessageServiceActionC2EP7QObject @ 196 NONAME
	_ZN10QtMobility21QMessageServiceActionD0Ev @ 197 NONAME
	_ZN10QtMobility21QMessageServiceActionD1Ev @ 198 NONAME
	_ZN10QtMobility21QMessageServiceActionD2Ev @ 199 NONAME
	_ZN10QtMobility22QMessageFolderOrdering13byDisplayNameEN2Qt9SortOrderE @ 200 NONAME
	_ZN10QtMobility22QMessageFolderOrdering6byPathEN2Qt9SortOrderE @ 201 NONAME
	_ZN10QtMobility22QMessageFolderOrderingC1ERKS0_ @ 202 NONAME
	_ZN10QtMobility22QMessageFolderOrderingC1Ev @ 203 NONAME
	_ZN10QtMobility22QMessageFolderOrderingC2ERKS0_ @ 204 NONAME
	_ZN10QtMobility22QMessageFolderOrderingC2Ev @ 205 NONAME
	_ZN10QtMobility22QMessageFolderOrderingD0Ev @ 206 NONAME
	_ZN10QtMobility22QMessageFolderOrderingD1Ev @ 207 NONAME
	_ZN10QtMobility22QMessageFolderOrderingD2Ev @ 208 NONAME
	_ZN10QtMobility22QMessageFolderOrderingaSERKS0_ @ 209 NONAME
	_ZN10QtMobility22QMessageFolderOrderingpLERKS0_ @ 210 NONAME
	_ZN10QtMobility23QMessageAccountOrdering6byNameEN2Qt9SortOrderE @ 211 NONAME
	_ZN10QtMobility23QMessageAccountOrderingC1ERKS0_ @ 212 NONAME
	_ZN10QtMobility23QMessageAccountOrderingC1Ev @ 213 NONAME
	_ZN10QtMobility23QMessageAccountOrderingC2ERKS0_ @ 214 NONAME
	_ZN10QtMobility23QMessageAccountOrderingC2Ev @ 215 NONAME
	_ZN10QtMobility23QMessageAccountOrderingD0Ev @ 216 NONAME
	_ZN10QtMobility23QMessageAccountOrderingD1Ev @ 217 NONAME
	_ZN10QtMobility23QMessageAccountOrderingD2Ev @ 218 NONAME
	_ZN10QtMobility23QMessageAccountOrderingaSERKS0_ @ 219 NONAME
	_ZN10QtMobility24QMessageContentContainer17setDerivedMessageEPNS_8QMessageE @ 220 NONAME
	_ZN10QtMobility24QMessageContentContainerC1ERKS0_ @ 221 NONAME
	_ZN10QtMobility24QMessageContentContainerC1Ev @ 222 NONAME
	_ZN10QtMobility24QMessageContentContainerC2ERKS0_ @ 223 NONAME
	_ZN10QtMobility24QMessageContentContainerC2Ev @ 224 NONAME
	_ZN10QtMobility24QMessageContentContainerD0Ev @ 225 NONAME
	_ZN10QtMobility24QMessageContentContainerD1Ev @ 226 NONAME
	_ZN10QtMobility24QMessageContentContainerD2Ev @ 227 NONAME
	_ZN10QtMobility24QMessageContentContaineraSERKS0_ @ 228 NONAME
	_ZN10QtMobility26QMessageContentContainerIdC1ERK7QString @ 229 NONAME
	_ZN10QtMobility26QMessageContentContainerIdC1ERKS0_ @ 230 NONAME
	_ZN10QtMobility26QMessageContentContainerIdC1Ev @ 231 NONAME
	_ZN10QtMobility26QMessageContentContainerIdC2ERK7QString @ 232 NONAME
	_ZN10QtMobility26QMessageContentContainerIdC2ERKS0_ @ 233 NONAME
	_ZN10QtMobility26QMessageContentContainerIdC2Ev @ 234 NONAME
	_ZN10QtMobility26QMessageContentContainerIdD1Ev @ 235 NONAME
	_ZN10QtMobility26QMessageContentContainerIdD2Ev @ 236 NONAME
	_ZN10QtMobility26QMessageContentContainerIdaSERKS0_ @ 237 NONAME
	_ZN10QtMobility5qHashERKNS_10QMessageIdE @ 238 NONAME
	_ZN10QtMobility5qHashERKNS_16QMessageFolderIdE @ 239 NONAME
	_ZN10QtMobility5qHashERKNS_17QMessageAccountIdE @ 240 NONAME
	_ZN10QtMobility8QMessage10setSubjectERK7QString @ 241 NONAME
	_ZN10QtMobility8QMessage11setPriorityENS0_8PriorityE @ 242 NONAME
	_ZN10QtMobility8QMessage15setReceivedDateERK9QDateTime @ 243 NONAME
	_ZN10QtMobility8QMessage16clearAttachmentsEv @ 244 NONAME
	_ZN10QtMobility8QMessage17appendAttachmentsERK11QStringList @ 245 NONAME
	_ZN10QtMobility8QMessage17preferredCharsetsEv @ 246 NONAME
	_ZN10QtMobility8QMessage18setParentAccountIdERKNS_17QMessageAccountIdE @ 247 NONAME
	_ZN10QtMobility8QMessage19preferredCharsetForERK7QString @ 248 NONAME
	_ZN10QtMobility8QMessage20setPreferredCharsetsERK5QListI10QByteArrayE @ 249 NONAME
	_ZN10QtMobility8QMessage5setCcERK5QListINS_15QMessageAddressEE @ 250 NONAME
	_ZN10QtMobility8QMessage5setToERK5QListINS_15QMessageAddressEE @ 251 NONAME
	_ZN10QtMobility8QMessage5setToERKNS_15QMessageAddressE @ 252 NONAME
	_ZN10QtMobility8QMessage6setBccERK5QListINS_15QMessageAddressEE @ 253 NONAME
	_ZN10QtMobility8QMessage7setBodyER11QTextStreamRK10QByteArray @ 254 NONAME
	_ZN10QtMobility8QMessage7setBodyERK7QStringRK10QByteArray @ 255 NONAME
	_ZN10QtMobility8QMessage7setDateERK9QDateTime @ 256 NONAME
	_ZN10QtMobility8QMessage7setFromERKNS_15QMessageAddressE @ 257 NONAME
	_ZN10QtMobility8QMessage7setTypeENS0_4TypeE @ 258 NONAME
	_ZN10QtMobility8QMessage9setStatusE6QFlagsINS0_6StatusEE @ 259 NONAME
	_ZN10QtMobility8QMessage9setStatusENS0_6StatusEb @ 260 NONAME
	_ZN10QtMobility8QMessageC1ERKNS_10QMessageIdE @ 261 NONAME
	_ZN10QtMobility8QMessageC1ERKS0_ @ 262 NONAME
	_ZN10QtMobility8QMessageC1Ev @ 263 NONAME
	_ZN10QtMobility8QMessageC2ERKNS_10QMessageIdE @ 264 NONAME
	_ZN10QtMobility8QMessageC2ERKS0_ @ 265 NONAME
	_ZN10QtMobility8QMessageC2Ev @ 266 NONAME
	_ZN10QtMobility8QMessageD0Ev @ 267 NONAME
	_ZN10QtMobility8QMessageD1Ev @ 268 NONAME
	_ZN10QtMobility8QMessageD2Ev @ 269 NONAME
	_ZN10QtMobility8QMessageaSERKS0_ @ 270 NONAME
	_ZNK10QtMobility10QMessageId7isValidEv @ 271 NONAME
	_ZNK10QtMobility10QMessageId8toStringEv @ 272 NONAME
	_ZNK10QtMobility10QMessageIdeqERKS0_ @ 273 NONAME
	_ZNK10QtMobility10QMessageIdltERKS0_ @ 274 NONAME
	_ZNK10QtMobility10QMessageIdneERKS0_ @ 275 NONAME
	_ZNK10QtMobility13QMessageStore10metaObjectEv @ 276 NONAME
	_ZNK10QtMobility13QMessageStore12countFoldersERKNS_20QMessageFolderFilterE @ 277 NONAME
	_ZNK10QtMobility13QMessageStore12queryFoldersERKNS_20QMessageFolderFilterERKNS_22QMessageFolderOrderingEjj @ 278 NONAME
	_ZNK10QtMobility13QMessageStore13countAccountsERKNS_21QMessageAccountFilterE @ 279 NONAME
	_ZNK10QtMobility13QMessageStore13countMessagesERKNS_14QMessageFilterE @ 280 NONAME
	_ZNK10QtMobility13QMessageStore13queryAccountsERKNS_21QMessageAccountFilterERKNS_23QMessageAccountOrderingEjj @ 281 NONAME
	_ZNK10QtMobility13QMessageStore13queryMessagesERKNS_14QMessageFilterERK7QString6QFlagsINS_22QMessageDataComparator6OptionEERKNS_16QMessageOrderingEjj @ 282 NONAME
	_ZNK10QtMobility13QMessageStore13queryMessagesERKNS_14QMessageFilterERKNS_16QMessageOrderingEjj @ 283 NONAME
	_ZNK10QtMobility13QMessageStore6folderERKNS_16QMessageFolderIdE @ 284 NONAME
	_ZNK10QtMobility13QMessageStore7accountERKNS_17QMessageAccountIdE @ 285 NONAME
	_ZNK10QtMobility13QMessageStore7messageERKNS_10QMessageIdE @ 286 NONAME
	_ZNK10QtMobility13QMessageStore9lastErrorEv @ 287 NONAME
	_ZNK10QtMobility14QMessageFilter11isSupportedEv @ 288 NONAME
	_ZNK10QtMobility14QMessageFilter7isEmptyEv @ 289 NONAME
	_ZNK10QtMobility14QMessageFilter7optionsEv @ 290 NONAME
	_ZNK10QtMobility14QMessageFilteranERKS0_ @ 291 NONAME
	_ZNK10QtMobility14QMessageFiltercoEv @ 292 NONAME
	_ZNK10QtMobility14QMessageFiltereqERKS0_ @ 293 NONAME
	_ZNK10QtMobility14QMessageFilterneERKS0_ @ 294 NONAME
	_ZNK10QtMobility14QMessageFilterorERKS0_ @ 295 NONAME
	_ZNK10QtMobility14QMessageFolder11displayNameEv @ 296 NONAME
	_ZNK10QtMobility14QMessageFolder14parentFolderIdEv @ 297 NONAME
	_ZNK10QtMobility14QMessageFolder15parentAccountIdEv @ 298 NONAME
	_ZNK10QtMobility14QMessageFolder2idEv @ 299 NONAME
	_ZNK10QtMobility14QMessageFolder4pathEv @ 300 NONAME
	_ZNK10QtMobility15QMessageAccount12messageTypesEv @ 301 NONAME
	_ZNK10QtMobility15QMessageAccount2idEv @ 302 NONAME
	_ZNK10QtMobility15QMessageAccount4nameEv @ 303 NONAME
	_ZNK10QtMobility15QMessageAddress4typeEv @ 304 NONAME
	_ZNK10QtMobility15QMessageAddress9recipientEv @ 305 NONAME
	_ZNK10QtMobility15QMessageAddresseqERKS0_ @ 306 NONAME
	_ZNK10QtMobility15QMessageAddressneERKS0_ @ 307 NONAME
	_ZNK10QtMobility16QMessageFolderId7isValidEv @ 308 NONAME
	_ZNK10QtMobility16QMessageFolderId8toStringEv @ 309 NONAME
	_ZNK10QtMobility16QMessageFolderIdeqERKS0_ @ 310 NONAME
	_ZNK10QtMobility16QMessageFolderIdltERKS0_ @ 311 NONAME
	_ZNK10QtMobility16QMessageFolderIdneERKS0_ @ 312 NONAME
	_ZNK10QtMobility16QMessageOrdering11isSupportedEv @ 313 NONAME
	_ZNK10QtMobility16QMessageOrdering7isEmptyEv @ 314 NONAME
	_ZNK10QtMobility16QMessageOrderingeqERKS0_ @ 315 NONAME
	_ZNK10QtMobility16QMessageOrderingneERKS0_ @ 316 NONAME
	_ZNK10QtMobility16QMessageOrderingplERKS0_ @ 317 NONAME
	_ZNK10QtMobility17QMessageAccountId7isValidEv @ 318 NONAME
	_ZNK10QtMobility17QMessageAccountId8toStringEv @ 319 NONAME
	_ZNK10QtMobility17QMessageAccountIdeqERKS0_ @ 320 NONAME
	_ZNK10QtMobility17QMessageAccountIdltERKS0_ @ 321 NONAME
	_ZNK10QtMobility17QMessageAccountIdneERKS0_ @ 322 NONAME
	_ZNK10QtMobility20QMessageFolderFilter11isSupportedEv @ 323 NONAME
	_ZNK10QtMobility20QMessageFolderFilter7isEmptyEv @ 324 NONAME
	_ZNK10QtMobility20QMessageFolderFilter7optionsEv @ 325 NONAME
	_ZNK10QtMobility20QMessageFolderFilteranERKS0_ @ 326 NONAME
	_ZNK10QtMobility20QMessageFolderFiltercoEv @ 327 NONAME
	_ZNK10QtMobility20QMessageFolderFiltereqERKS0_ @ 328 NONAME
	_ZNK10QtMobility20QMessageFolderFilterneERKS0_ @ 329 NONAME
	_ZNK10QtMobility20QMessageFolderFilterorERKS0_ @ 330 NONAME
	_ZNK10QtMobility21QMessageAccountFilter11isSupportedEv @ 331 NONAME
	_ZNK10QtMobility21QMessageAccountFilter7isEmptyEv @ 332 NONAME
	_ZNK10QtMobility21QMessageAccountFilter7optionsEv @ 333 NONAME
	_ZNK10QtMobility21QMessageAccountFilteranERKS0_ @ 334 NONAME
	_ZNK10QtMobility21QMessageAccountFiltercoEv @ 335 NONAME
	_ZNK10QtMobility21QMessageAccountFiltereqERKS0_ @ 336 NONAME
	_ZNK10QtMobility21QMessageAccountFilterneERKS0_ @ 337 NONAME
	_ZNK10QtMobility21QMessageAccountFilterorERKS0_ @ 338 NONAME
	_ZNK10QtMobility21QMessageServiceAction10metaObjectEv @ 339 NONAME
	_ZNK10QtMobility21QMessageServiceAction5stateEv @ 340 NONAME
	_ZNK10QtMobility21QMessageServiceAction9lastErrorEv @ 341 NONAME
	_ZNK10QtMobility22QMessageFolderOrdering11isSupportedEv @ 342 NONAME
	_ZNK10QtMobility22QMessageFolderOrdering7isEmptyEv @ 343 NONAME
	_ZNK10QtMobility22QMessageFolderOrderingeqERKS0_ @ 344 NONAME
	_ZNK10QtMobility22QMessageFolderOrderingneERKS0_ @ 345 NONAME
	_ZNK10QtMobility22QMessageFolderOrderingplERKS0_ @ 346 NONAME
	_ZNK10QtMobility23QMessageAccountOrdering11isSupportedEv @ 347 NONAME
	_ZNK10QtMobility23QMessageAccountOrdering7isEmptyEv @ 348 NONAME
	_ZNK10QtMobility23QMessageAccountOrderingeqERKS0_ @ 349 NONAME
	_ZNK10QtMobility23QMessageAccountOrderingneERKS0_ @ 350 NONAME
	_ZNK10QtMobility24QMessageContentContainer10contentIdsEv @ 351 NONAME
	_ZNK10QtMobility24QMessageContentContainer11contentTypeEv @ 352 NONAME
	_ZNK10QtMobility24QMessageContentContainer11textContentEv @ 353 NONAME
	_ZNK10QtMobility24QMessageContentContainer12headerFieldsEv @ 354 NONAME
	_ZNK10QtMobility24QMessageContentContainer14contentCharsetEv @ 355 NONAME
	_ZNK10QtMobility24QMessageContentContainer14contentSubTypeEv @ 356 NONAME
	_ZNK10QtMobility24QMessageContentContainer14writeContentToER11QDataStream @ 357 NONAME
	_ZNK10QtMobility24QMessageContentContainer16headerFieldValueERK10QByteArray @ 358 NONAME
	_ZNK10QtMobility24QMessageContentContainer17headerFieldValuesERK10QByteArray @ 359 NONAME
	_ZNK10QtMobility24QMessageContentContainer17suggestedFileNameEv @ 360 NONAME
	_ZNK10QtMobility24QMessageContentContainer18isContentAvailableEv @ 361 NONAME
	_ZNK10QtMobility24QMessageContentContainer18writeTextContentToER11QTextStream @ 362 NONAME
	_ZNK10QtMobility24QMessageContentContainer4findERKNS_26QMessageContentContainerIdE @ 363 NONAME
	_ZNK10QtMobility24QMessageContentContainer4sizeEv @ 364 NONAME
	_ZNK10QtMobility24QMessageContentContainer7contentEv @ 365 NONAME
	_ZNK10QtMobility24QMessageContentContainer8containsERKNS_26QMessageContentContainerIdE @ 366 NONAME
	_ZNK10QtMobility26QMessageContentContainerId7isValidEv @ 367 NONAME
	_ZNK10QtMobility26QMessageContentContainerId8toStringEv @ 368 NONAME
	_ZNK10QtMobility26QMessageContentContainerIdeqERKS0_ @ 369 NONAME
	_ZNK10QtMobility26QMessageContentContainerIdneERKS0_ @ 370 NONAME
	_ZNK10QtMobility8QMessage10isModifiedEv @ 371 NONAME
	_ZNK10QtMobility8QMessage12receivedDateEv @ 372 NONAME
	_ZNK10QtMobility8QMessage13attachmentIdsEv @ 373 NONAME
	_ZNK10QtMobility8QMessage14parentFolderIdEv @ 374 NONAME
	_ZNK10QtMobility8QMessage14standardFolderEv @ 375 NONAME
	_ZNK10QtMobility8QMessage15parentAccountIdEv @ 376 NONAME
	_ZNK10QtMobility8QMessage21createResponseMessageENS0_12ResponseTypeE @ 377 NONAME
	_ZNK10QtMobility8QMessage2ccEv @ 378 NONAME
	_ZNK10QtMobility8QMessage2idEv @ 379 NONAME
	_ZNK10QtMobility8QMessage2toEv @ 380 NONAME
	_ZNK10QtMobility8QMessage3bccEv @ 381 NONAME
	_ZNK10QtMobility8QMessage4dateEv @ 382 NONAME
	_ZNK10QtMobility8QMessage4fromEv @ 383 NONAME
	_ZNK10QtMobility8QMessage4sizeEv @ 384 NONAME
	_ZNK10QtMobility8QMessage4typeEv @ 385 NONAME
	_ZNK10QtMobility8QMessage6bodyIdEv @ 386 NONAME
	_ZNK10QtMobility8QMessage6statusEv @ 387 NONAME
	_ZNK10QtMobility8QMessage7subjectEv @ 388 NONAME
	_ZNK10QtMobility8QMessage8priorityEv @ 389 NONAME
	_ZTIN10QtMobility13QMessageStoreE @ 390 NONAME ; #<TI>#
	_ZTIN10QtMobility14QMessageFilterE @ 391 NONAME ; #<TI>#
	_ZTIN10QtMobility14QMessageFolderE @ 392 NONAME ; #<TI>#
	_ZTIN10QtMobility15QMessageAccountE @ 393 NONAME ; #<TI>#
	_ZTIN10QtMobility15QMessageAddressE @ 394 NONAME ; #<TI>#
	_ZTIN10QtMobility16QMessageOrderingE @ 395 NONAME ; #<TI>#
	_ZTIN10QtMobility20QMessageFolderFilterE @ 396 NONAME ; #<TI>#
	_ZTIN10QtMobility21QMessageAccountFilterE @ 397 NONAME ; #<TI>#
	_ZTIN10QtMobility21QMessageServiceActionE @ 398 NONAME ; #<TI>#
	_ZTIN10QtMobility22QMessageFolderOrderingE @ 399 NONAME ; #<TI>#
	_ZTIN10QtMobility23QMessageAccountOrderingE @ 400 NONAME ; #<TI>#
	_ZTIN10QtMobility24QMessageContentContainerE @ 401 NONAME ; #<TI>#
	_ZTIN10QtMobility8QMessageE @ 402 NONAME ; #<TI>#
	_ZTVN10QtMobility13QMessageStoreE @ 403 NONAME ; #<VT>#
	_ZTVN10QtMobility14QMessageFilterE @ 404 NONAME ; #<VT>#
	_ZTVN10QtMobility14QMessageFolderE @ 405 NONAME ; #<VT>#
	_ZTVN10QtMobility15QMessageAccountE @ 406 NONAME ; #<VT>#
	_ZTVN10QtMobility15QMessageAddressE @ 407 NONAME ; #<VT>#
	_ZTVN10QtMobility16QMessageOrderingE @ 408 NONAME ; #<VT>#
	_ZTVN10QtMobility20QMessageFolderFilterE @ 409 NONAME ; #<VT>#
	_ZTVN10QtMobility21QMessageAccountFilterE @ 410 NONAME ; #<VT>#
	_ZTVN10QtMobility21QMessageServiceActionE @ 411 NONAME ; #<VT>#
	_ZTVN10QtMobility22QMessageFolderOrderingE @ 412 NONAME ; #<VT>#
	_ZTVN10QtMobility23QMessageAccountOrderingE @ 413 NONAME ; #<VT>#
	_ZTVN10QtMobility24QMessageContentContainerE @ 414 NONAME ; #<VT>#
	_ZTVN10QtMobility8QMessageE @ 415 NONAME ; #<VT>#

