EXPORTS
	_ZN10QtMobility15QNetworkSession11qt_metacallEN11QMetaObject4CallEiPPv @ 1 NONAME
	_ZN10QtMobility15QNetworkSession11qt_metacastEPKc @ 2 NONAME
	_ZN10QtMobility15QNetworkSession12stateChangedENS0_5StateE @ 3 NONAME
	_ZN10QtMobility15QNetworkSession13connectNotifyEPKc @ 4 NONAME
	_ZN10QtMobility15QNetworkSession13waitForOpenedEi @ 5 NONAME
	_ZN10QtMobility15QNetworkSession16disconnectNotifyEPKc @ 6 NONAME
	_ZN10QtMobility15QNetworkSession16staticMetaObjectE @ 7 NONAME DATA 16
	_ZN10QtMobility15QNetworkSession18setSessionPropertyERK7QStringRK8QVariant @ 8 NONAME
	_ZN10QtMobility15QNetworkSession19getStaticMetaObjectEv @ 9 NONAME
	_ZN10QtMobility15QNetworkSession25newConfigurationActivatedEv @ 10 NONAME
	_ZN10QtMobility15QNetworkSession29preferredConfigurationChangedERKNS_21QNetworkConfigurationEb @ 11 NONAME
	_ZN10QtMobility15QNetworkSession4openEv @ 12 NONAME
	_ZN10QtMobility15QNetworkSession4stopEv @ 13 NONAME
	_ZN10QtMobility15QNetworkSession5closeEv @ 14 NONAME
	_ZN10QtMobility15QNetworkSession5errorENS0_12SessionErrorE @ 15 NONAME
	_ZN10QtMobility15QNetworkSession6acceptEv @ 16 NONAME
	_ZN10QtMobility15QNetworkSession6closedEv @ 17 NONAME
	_ZN10QtMobility15QNetworkSession6ignoreEv @ 18 NONAME
	_ZN10QtMobility15QNetworkSession6openedEv @ 19 NONAME
	_ZN10QtMobility15QNetworkSession6rejectEv @ 20 NONAME
	_ZN10QtMobility15QNetworkSession7migrateEv @ 21 NONAME
	_ZN10QtMobility15QNetworkSessionC1ERKNS_21QNetworkConfigurationEP7QObject @ 22 NONAME
	_ZN10QtMobility15QNetworkSessionC2ERKNS_21QNetworkConfigurationEP7QObject @ 23 NONAME
	_ZN10QtMobility15QNetworkSessionD0Ev @ 24 NONAME
	_ZN10QtMobility15QNetworkSessionD1Ev @ 25 NONAME
	_ZN10QtMobility15QNetworkSessionD2Ev @ 26 NONAME
	_ZN10QtMobility21QNetworkConfigurationC1ERKS0_ @ 27 NONAME
	_ZN10QtMobility21QNetworkConfigurationC1Ev @ 28 NONAME
	_ZN10QtMobility21QNetworkConfigurationC2ERKS0_ @ 29 NONAME
	_ZN10QtMobility21QNetworkConfigurationC2Ev @ 30 NONAME
	_ZN10QtMobility21QNetworkConfigurationD1Ev @ 31 NONAME
	_ZN10QtMobility21QNetworkConfigurationD2Ev @ 32 NONAME
	_ZN10QtMobility21QNetworkConfigurationaSERKS0_ @ 33 NONAME
	_ZN10QtMobility28QNetworkConfigurationManager11qt_metacallEN11QMetaObject4CallEiPPv @ 34 NONAME
	_ZN10QtMobility28QNetworkConfigurationManager11qt_metacastEPKc @ 35 NONAME
	_ZN10QtMobility28QNetworkConfigurationManager15updateCompletedEv @ 36 NONAME
	_ZN10QtMobility28QNetworkConfigurationManager16staticMetaObjectE @ 37 NONAME DATA 16
	_ZN10QtMobility28QNetworkConfigurationManager18configurationAddedERKNS_21QNetworkConfigurationE @ 38 NONAME
	_ZN10QtMobility28QNetworkConfigurationManager18onlineStateChangedEb @ 39 NONAME
	_ZN10QtMobility28QNetworkConfigurationManager19getStaticMetaObjectEv @ 40 NONAME
	_ZN10QtMobility28QNetworkConfigurationManager20configurationChangedERKNS_21QNetworkConfigurationE @ 41 NONAME
	_ZN10QtMobility28QNetworkConfigurationManager20configurationRemovedERKNS_21QNetworkConfigurationE @ 42 NONAME
	_ZN10QtMobility28QNetworkConfigurationManager20updateConfigurationsEv @ 43 NONAME
	_ZN10QtMobility28QNetworkConfigurationManagerC1EP7QObject @ 44 NONAME
	_ZN10QtMobility28QNetworkConfigurationManagerC2EP7QObject @ 45 NONAME
	_ZN10QtMobility28QNetworkConfigurationManagerD0Ev @ 46 NONAME
	_ZN10QtMobility28QNetworkConfigurationManagerD1Ev @ 47 NONAME
	_ZN10QtMobility28QNetworkConfigurationManagerD2Ev @ 48 NONAME
	_ZNK10QtMobility15QNetworkSession10activeTimeEv @ 49 NONAME
	_ZNK10QtMobility15QNetworkSession10metaObjectEv @ 50 NONAME
	_ZNK10QtMobility15QNetworkSession11errorStringEv @ 51 NONAME
	_ZNK10QtMobility15QNetworkSession12bytesWrittenEv @ 52 NONAME
	_ZNK10QtMobility15QNetworkSession13bytesReceivedEv @ 53 NONAME
	_ZNK10QtMobility15QNetworkSession13configurationEv @ 54 NONAME
	_ZNK10QtMobility15QNetworkSession15sessionPropertyERK7QString @ 55 NONAME
	_ZNK10QtMobility15QNetworkSession5errorEv @ 56 NONAME
	_ZNK10QtMobility15QNetworkSession5stateEv @ 57 NONAME
	_ZNK10QtMobility15QNetworkSession6isOpenEv @ 58 NONAME
	_ZNK10QtMobility15QNetworkSession9interfaceEv @ 59 NONAME
	_ZNK10QtMobility21QNetworkConfiguration10bearerNameEv @ 60 NONAME
	_ZNK10QtMobility21QNetworkConfiguration10identifierEv @ 61 NONAME
	_ZNK10QtMobility21QNetworkConfiguration18isRoamingAvailableEv @ 62 NONAME
	_ZNK10QtMobility21QNetworkConfiguration4nameEv @ 63 NONAME
	_ZNK10QtMobility21QNetworkConfiguration4typeEv @ 64 NONAME
	_ZNK10QtMobility21QNetworkConfiguration5stateEv @ 65 NONAME
	_ZNK10QtMobility21QNetworkConfiguration7isValidEv @ 66 NONAME
	_ZNK10QtMobility21QNetworkConfiguration7purposeEv @ 67 NONAME
	_ZNK10QtMobility21QNetworkConfiguration8childrenEv @ 68 NONAME
	_ZNK10QtMobility21QNetworkConfigurationeqERKS0_ @ 69 NONAME
	_ZNK10QtMobility28QNetworkConfigurationManager10metaObjectEv @ 70 NONAME
	_ZNK10QtMobility28QNetworkConfigurationManager12capabilitiesEv @ 71 NONAME
	_ZNK10QtMobility28QNetworkConfigurationManager17allConfigurationsE6QFlagsINS_21QNetworkConfiguration9StateFlagEE @ 72 NONAME
	_ZNK10QtMobility28QNetworkConfigurationManager20defaultConfigurationEv @ 73 NONAME
	_ZNK10QtMobility28QNetworkConfigurationManager27configurationFromIdentifierERK7QString @ 74 NONAME
	_ZNK10QtMobility28QNetworkConfigurationManager8isOnlineEv @ 75 NONAME
	_ZTIN10QtMobility15QNetworkSessionE @ 76 NONAME
	_ZTIN10QtMobility28QNetworkConfigurationManagerE @ 77 NONAME
	_ZTVN10QtMobility15QNetworkSessionE @ 78 NONAME
	_ZTVN10QtMobility28QNetworkConfigurationManagerE @ 79 NONAME

