EXPORTS
	_ZN10QtMobility11QLlcpSocket11qt_metacallEN11QMetaObject4CallEiPPv @ 1 NONAME
	_ZN10QtMobility11QLlcpSocket11qt_metacastEPKc @ 2 NONAME
	_ZN10QtMobility11QLlcpSocket12disconnectedEv @ 3 NONAME
	_ZN10QtMobility11QLlcpSocket12readDatagramEPcxPPNS_16QNearFieldTargetEPh @ 4 NONAME
	_ZN10QtMobility11QLlcpSocket12stateChangedENS0_5StateE @ 5 NONAME
	_ZN10QtMobility11QLlcpSocket13writeDatagramEPKcx @ 6 NONAME
	_ZN10QtMobility11QLlcpSocket13writeDatagramEPKcxPNS_16QNearFieldTargetEh @ 7 NONAME
	_ZN10QtMobility11QLlcpSocket13writeDatagramERK10QByteArray @ 8 NONAME
	_ZN10QtMobility11QLlcpSocket13writeDatagramERK10QByteArrayPNS_16QNearFieldTargetEh @ 9 NONAME
	_ZN10QtMobility11QLlcpSocket16connectToServiceEPNS_16QNearFieldTargetERK7QString @ 10 NONAME
	_ZN10QtMobility11QLlcpSocket16staticMetaObjectE @ 11 NONAME DATA 16
	_ZN10QtMobility11QLlcpSocket19getStaticMetaObjectEv @ 12 NONAME
	_ZN10QtMobility11QLlcpSocket21disconnectFromServiceEv @ 13 NONAME
	_ZN10QtMobility11QLlcpSocket4bindEh @ 14 NONAME
	_ZN10QtMobility11QLlcpSocket5errorENS0_5ErrorE @ 15 NONAME
	_ZN10QtMobility11QLlcpSocket8readDataEPcx @ 16 NONAME
	_ZN10QtMobility11QLlcpSocket9connectedEv @ 17 NONAME
	_ZN10QtMobility11QLlcpSocket9writeDataEPKcx @ 18 NONAME
	_ZN10QtMobility11QLlcpSocketC1EP7QObject @ 19 NONAME
	_ZN10QtMobility11QLlcpSocketC2EP7QObject @ 20 NONAME
	_ZN10QtMobility11QLlcpSocketD0Ev @ 21 NONAME
	_ZN10QtMobility11QLlcpSocketD1Ev @ 22 NONAME
	_ZN10QtMobility11QLlcpSocketD2Ev @ 23 NONAME
	_ZN10QtMobility11QNdefFilter12appendRecordENS_11QNdefRecord14TypeNameFormatERK10QByteArrayjj @ 24 NONAME
	_ZN10QtMobility11QNdefFilter12appendRecordERKNS0_6RecordE @ 25 NONAME
	_ZN10QtMobility11QNdefFilter13setOrderMatchEb @ 26 NONAME
	_ZN10QtMobility11QNdefFilter5clearEv @ 27 NONAME
	_ZN10QtMobility11QNdefFilterC1ERKS0_ @ 28 NONAME
	_ZN10QtMobility11QNdefFilterC1Ev @ 29 NONAME
	_ZN10QtMobility11QNdefFilterC2ERKS0_ @ 30 NONAME
	_ZN10QtMobility11QNdefFilterC2Ev @ 31 NONAME
	_ZN10QtMobility11QNdefFilterD1Ev @ 32 NONAME
	_ZN10QtMobility11QNdefFilterD2Ev @ 33 NONAME
	_ZN10QtMobility11QNdefFilteraSERKS0_ @ 34 NONAME
	_ZN10QtMobility11QNdefRecord10setPayloadERK10QByteArray @ 35 NONAME
	_ZN10QtMobility11QNdefRecord17setTypeNameFormatENS0_14TypeNameFormatE @ 36 NONAME
	_ZN10QtMobility11QNdefRecord5setIdERK10QByteArray @ 37 NONAME
	_ZN10QtMobility11QNdefRecord7setTypeERK10QByteArray @ 38 NONAME
	_ZN10QtMobility11QNdefRecordC1ENS0_14TypeNameFormatERK10QByteArray @ 39 NONAME
	_ZN10QtMobility11QNdefRecordC1ERKS0_ @ 40 NONAME
	_ZN10QtMobility11QNdefRecordC1ERKS0_NS0_14TypeNameFormatERK10QByteArray @ 41 NONAME
	_ZN10QtMobility11QNdefRecordC1Ev @ 42 NONAME
	_ZN10QtMobility11QNdefRecordC2ENS0_14TypeNameFormatERK10QByteArray @ 43 NONAME
	_ZN10QtMobility11QNdefRecordC2ERKS0_ @ 44 NONAME
	_ZN10QtMobility11QNdefRecordC2ERKS0_NS0_14TypeNameFormatERK10QByteArray @ 45 NONAME
	_ZN10QtMobility11QNdefRecordC2Ev @ 46 NONAME
	_ZN10QtMobility11QNdefRecordD1Ev @ 47 NONAME
	_ZN10QtMobility11QNdefRecordD2Ev @ 48 NONAME
	_ZN10QtMobility11QNdefRecordaSERKS0_ @ 49 NONAME
	_ZN10QtMobility12QL2capServer11qt_metacallEN11QMetaObject4CallEiPPv @ 50 NONAME
	_ZN10QtMobility12QL2capServer11qt_metacastEPKc @ 51 NONAME
	_ZN10QtMobility12QL2capServer13newConnectionEv @ 52 NONAME
	_ZN10QtMobility12QL2capServer16setSecurityFlagsE6QFlagsINS_10QBluetooth8SecurityEE @ 53 NONAME
	_ZN10QtMobility12QL2capServer16staticMetaObjectE @ 54 NONAME DATA 16
	_ZN10QtMobility12QL2capServer19getStaticMetaObjectEv @ 55 NONAME
	_ZN10QtMobility12QL2capServerC1EP7QObject @ 56 NONAME
	_ZN10QtMobility12QL2capServerC2EP7QObject @ 57 NONAME
	_ZN10QtMobility12QL2capServerD0Ev @ 58 NONAME
	_ZN10QtMobility12QL2capServerD1Ev @ 59 NONAME
	_ZN10QtMobility12QL2capServerD2Ev @ 60 NONAME
	_ZN10QtMobility12QNdefMessage13fromByteArrayERK10QByteArray @ 61 NONAME
	_ZN10QtMobility12qNfcChecksumEPKcj @ 62 NONAME
	_ZN10QtMobility13QRfcommServer11qt_metacallEN11QMetaObject4CallEiPPv @ 63 NONAME
	_ZN10QtMobility13QRfcommServer11qt_metacastEPKc @ 64 NONAME
	_ZN10QtMobility13QRfcommServer13newConnectionEv @ 65 NONAME
	_ZN10QtMobility13QRfcommServer16setSecurityFlagsE6QFlagsINS_10QBluetooth8SecurityEE @ 66 NONAME
	_ZN10QtMobility13QRfcommServer16staticMetaObjectE @ 67 NONAME DATA 16
	_ZN10QtMobility13QRfcommServer19getStaticMetaObjectEv @ 68 NONAME
	_ZN10QtMobility13QRfcommServer21nextPendingConnectionEv @ 69 NONAME
	_ZN10QtMobility13QRfcommServer24setMaxPendingConnectionsEi @ 70 NONAME
	_ZN10QtMobility13QRfcommServer5closeEv @ 71 NONAME
	_ZN10QtMobility13QRfcommServer6listenERKNS_17QBluetoothAddressEt @ 72 NONAME
	_ZN10QtMobility13QRfcommServerC1EP7QObject @ 73 NONAME
	_ZN10QtMobility13QRfcommServerC2EP7QObject @ 74 NONAME
	_ZN10QtMobility13QRfcommServerD0Ev @ 75 NONAME
	_ZN10QtMobility13QRfcommServerD1Ev @ 76 NONAME
	_ZN10QtMobility13QRfcommServerD2Ev @ 77 NONAME
	_ZN10QtMobility14QBluetoothUuidC1ENS0_12ProtocolUuidE @ 78 NONAME
	_ZN10QtMobility14QBluetoothUuidC1ENS0_16ServiceClassUuidE @ 79 NONAME
	_ZN10QtMobility14QBluetoothUuidC1ENS_8quint128E @ 80 NONAME
	_ZN10QtMobility14QBluetoothUuidC1ERK5QUuid @ 81 NONAME
	_ZN10QtMobility14QBluetoothUuidC1ERK7QString @ 82 NONAME
	_ZN10QtMobility14QBluetoothUuidC1ERKS0_ @ 83 NONAME
	_ZN10QtMobility14QBluetoothUuidC1Ej @ 84 NONAME
	_ZN10QtMobility14QBluetoothUuidC1Et @ 85 NONAME
	_ZN10QtMobility14QBluetoothUuidC1Ev @ 86 NONAME
	_ZN10QtMobility14QBluetoothUuidC2ENS0_12ProtocolUuidE @ 87 NONAME
	_ZN10QtMobility14QBluetoothUuidC2ENS0_16ServiceClassUuidE @ 88 NONAME
	_ZN10QtMobility14QBluetoothUuidC2ENS_8quint128E @ 89 NONAME
	_ZN10QtMobility14QBluetoothUuidC2ERK5QUuid @ 90 NONAME
	_ZN10QtMobility14QBluetoothUuidC2ERK7QString @ 91 NONAME
	_ZN10QtMobility14QBluetoothUuidC2ERKS0_ @ 92 NONAME
	_ZN10QtMobility14QBluetoothUuidC2Ej @ 93 NONAME
	_ZN10QtMobility14QBluetoothUuidC2Et @ 94 NONAME
	_ZN10QtMobility14QBluetoothUuidC2Ev @ 95 NONAME
	_ZN10QtMobility14QBluetoothUuidD1Ev @ 96 NONAME
	_ZN10QtMobility14QBluetoothUuidD2Ev @ 97 NONAME
	_ZN10QtMobility16QBluetoothSocket11qt_metacallEN11QMetaObject4CallEiPPv @ 98 NONAME
	_ZN10QtMobility16QBluetoothSocket11qt_metacastEPKc @ 99 NONAME
	_ZN10QtMobility16QBluetoothSocket12disconnectedEv @ 100 NONAME
	_ZN10QtMobility16QBluetoothSocket12stateChangedENS0_11SocketStateE @ 101 NONAME
	_ZN10QtMobility16QBluetoothSocket14setSocketErrorENS0_11SocketErrorE @ 102 NONAME
	_ZN10QtMobility16QBluetoothSocket14setSocketStateENS0_11SocketStateE @ 103 NONAME
	_ZN10QtMobility16QBluetoothSocket16connectToServiceERKNS_17QBluetoothAddressERKNS_14QBluetoothUuidE6QFlagsIN9QIODevice12OpenModeFlagEE @ 104 NONAME
	_ZN10QtMobility16QBluetoothSocket16connectToServiceERKNS_17QBluetoothAddressEt6QFlagsIN9QIODevice12OpenModeFlagEE @ 105 NONAME
	_ZN10QtMobility16QBluetoothSocket16connectToServiceERKNS_21QBluetoothServiceInfoE6QFlagsIN9QIODevice12OpenModeFlagEE @ 106 NONAME
	_ZN10QtMobility16QBluetoothSocket16staticMetaObjectE @ 107 NONAME DATA 16
	_ZN10QtMobility16QBluetoothSocket19getStaticMetaObjectEv @ 108 NONAME
	_ZN10QtMobility16QBluetoothSocket21disconnectFromServiceEv @ 109 NONAME
	_ZN10QtMobility16QBluetoothSocket5abortEv @ 110 NONAME
	_ZN10QtMobility16QBluetoothSocket5closeEv @ 111 NONAME
	_ZN10QtMobility16QBluetoothSocket5errorENS0_11SocketErrorE @ 112 NONAME
	_ZN10QtMobility16QBluetoothSocket8readDataEPcx @ 113 NONAME
	_ZN10QtMobility16QBluetoothSocket9connectedEv @ 114 NONAME
	_ZN10QtMobility16QBluetoothSocket9writeDataEPKcx @ 115 NONAME
	_ZN10QtMobility16QBluetoothSocketC1ENS0_10SocketTypeEP7QObject @ 116 NONAME
	_ZN10QtMobility16QBluetoothSocketC1EP7QObject @ 117 NONAME
	_ZN10QtMobility16QBluetoothSocketC2ENS0_10SocketTypeEP7QObject @ 118 NONAME
	_ZN10QtMobility16QBluetoothSocketC2EP7QObject @ 119 NONAME
	_ZN10QtMobility16QBluetoothSocketD0Ev @ 120 NONAME
	_ZN10QtMobility16QBluetoothSocketD1Ev @ 121 NONAME
	_ZN10QtMobility16QBluetoothSocketD2Ev @ 122 NONAME
	_ZN10QtMobility16QNearFieldTarget11qt_metacallEN11QMetaObject4CallEiPPv @ 123 NONAME
	_ZN10QtMobility16QNearFieldTarget11qt_metacastEPKc @ 124 NONAME
	_ZN10QtMobility16QNearFieldTarget11sendCommandERK10QByteArray @ 125 NONAME
	_ZN10QtMobility16QNearFieldTarget12disconnectedEv @ 126 NONAME
	_ZN10QtMobility16QNearFieldTarget12ndefMessagesEv @ 127 NONAME
	_ZN10QtMobility16QNearFieldTarget12sendCommandsERK5QListI10QByteArrayE @ 128 NONAME
	_ZN10QtMobility16QNearFieldTarget14hasNdefMessageEv @ 129 NONAME
	_ZN10QtMobility16QNearFieldTarget15sendApduCommandERK10QByteArray @ 130 NONAME
	_ZN10QtMobility16QNearFieldTarget15setNdefMessagesERK5QListINS_12QNdefMessageEE @ 131 NONAME
	_ZN10QtMobility16QNearFieldTarget16sendApduCommandsERK5QListI10QByteArrayE @ 132 NONAME
	_ZN10QtMobility16QNearFieldTarget16staticMetaObjectE @ 133 NONAME DATA 16
	_ZN10QtMobility16QNearFieldTarget19getStaticMetaObjectEv @ 134 NONAME
	_ZN10QtMobility16QNearFieldTargetC2EP7QObject @ 135 NONAME
	_ZN10QtMobility17QBluetoothAddress5clearEv @ 136 NONAME
	_ZN10QtMobility17QBluetoothAddressC1ERK7QString @ 137 NONAME
	_ZN10QtMobility17QBluetoothAddressC1ERKS0_ @ 138 NONAME
	_ZN10QtMobility17QBluetoothAddressC1Ev @ 139 NONAME
	_ZN10QtMobility17QBluetoothAddressC1Ey @ 140 NONAME
	_ZN10QtMobility17QBluetoothAddressC2ERK7QString @ 141 NONAME
	_ZN10QtMobility17QBluetoothAddressC2ERKS0_ @ 142 NONAME
	_ZN10QtMobility17QBluetoothAddressC2Ev @ 143 NONAME
	_ZN10QtMobility17QBluetoothAddressC2Ey @ 144 NONAME
	_ZN10QtMobility17QBluetoothAddressaSERKS0_ @ 145 NONAME
	_ZN10QtMobility17QNdefNfcUriRecord6setUriERK4QUrl @ 146 NONAME
	_ZN10QtMobility17QNearFieldManager10targetLostEPNS_16QNearFieldTargetE @ 147 NONAME
	_ZN10QtMobility17QNearFieldManager11qt_metacallEN11QMetaObject4CallEiPPv @ 148 NONAME
	_ZN10QtMobility17QNearFieldManager11qt_metacastEPKc @ 149 NONAME
	_ZN10QtMobility17QNearFieldManager14targetDetectedEPNS_16QNearFieldTargetE @ 150 NONAME
	_ZN10QtMobility17QNearFieldManager16staticMetaObjectE @ 151 NONAME DATA 16
	_ZN10QtMobility17QNearFieldManager19getStaticMetaObjectEv @ 152 NONAME
	_ZN10QtMobility17QNearFieldManager19stopTargetDetectionEv @ 153 NONAME
	_ZN10QtMobility17QNearFieldManager19transactionDetectedERK10QByteArray @ 154 NONAME
	_ZN10QtMobility17QNearFieldManager20startTargetDetectionENS_16QNearFieldTarget4TypeE @ 155 NONAME
	_ZN10QtMobility17QNearFieldManager20startTargetDetectionERK5QListINS_16QNearFieldTarget4TypeEE @ 156 NONAME
	_ZN10QtMobility17QNearFieldManager29registerTargetDetectedHandlerENS_11QNdefRecord14TypeNameFormatERK10QByteArrayP7QObjectPKc @ 157 NONAME
	_ZN10QtMobility17QNearFieldManager29registerTargetDetectedHandlerEP7QObjectPKc @ 158 NONAME
	_ZN10QtMobility17QNearFieldManager29registerTargetDetectedHandlerERKNS_11QNdefFilterEP7QObjectPKc @ 159 NONAME
	_ZN10QtMobility17QNearFieldManager31unregisterTargetDetectedHandlerEi @ 160 NONAME
	_ZN10QtMobility17QNearFieldManagerC1EP7QObject @ 161 NONAME
	_ZN10QtMobility17QNearFieldManagerC1EPNS_24QNearFieldManagerPrivateEP7QObject @ 162 NONAME
	_ZN10QtMobility17QNearFieldManagerC2EP7QObject @ 163 NONAME
	_ZN10QtMobility17QNearFieldManagerC2EPNS_24QNearFieldManagerPrivateEP7QObject @ 164 NONAME
	_ZN10QtMobility17QNearFieldManagerD0Ev @ 165 NONAME
	_ZN10QtMobility17QNearFieldManagerD1Ev @ 166 NONAME
	_ZN10QtMobility17QNearFieldManagerD2Ev @ 167 NONAME
	_ZN10QtMobility18QNdefNfcTextRecord11setEncodingENS0_8EncodingE @ 168 NONAME
	_ZN10QtMobility18QNdefNfcTextRecord7setTextE7QString @ 169 NONAME
	_ZN10QtMobility18QNdefNfcTextRecord9setLocaleERK7QLocale @ 170 NONAME
	_ZN10QtMobility18QNearFieldTagType110memorySizeEv @ 171 NONAME
	_ZN10QtMobility18QNearFieldTagType110writeBlockEhRK10QByteArrayNS0_9WriteModeE @ 172 NONAME
	_ZN10QtMobility18QNearFieldTagType111qt_metacallEN11QMetaObject4CallEiPPv @ 173 NONAME
	_ZN10QtMobility18QNearFieldTagType111qt_metacastEPKc @ 174 NONAME
	_ZN10QtMobility18QNearFieldTagType111readSegmentEh @ 175 NONAME
	_ZN10QtMobility18QNearFieldTagType112ndefMessagesEv @ 176 NONAME
	_ZN10QtMobility18QNearFieldTagType114hasNdefMessageEv @ 177 NONAME
	_ZN10QtMobility18QNearFieldTagType115setNdefMessagesERK5QListINS_12QNdefMessageEE @ 178 NONAME
	_ZN10QtMobility18QNearFieldTagType116staticMetaObjectE @ 179 NONAME DATA 16
	_ZN10QtMobility18QNearFieldTagType118readIdentificationEv @ 180 NONAME
	_ZN10QtMobility18QNearFieldTagType119getStaticMetaObjectEv @ 181 NONAME
	_ZN10QtMobility18QNearFieldTagType17readAllEv @ 182 NONAME
	_ZN10QtMobility18QNearFieldTagType17versionEv @ 183 NONAME
	_ZN10QtMobility18QNearFieldTagType18readByteEh @ 184 NONAME
	_ZN10QtMobility18QNearFieldTagType19readBlockEh @ 185 NONAME
	_ZN10QtMobility18QNearFieldTagType19writeByteEhhNS0_9WriteModeE @ 186 NONAME
	_ZN10QtMobility18QNearFieldTagType1C2EP7QObject @ 187 NONAME
	_ZN10QtMobility18QNearFieldTagType210memorySizeEv @ 188 NONAME
	_ZN10QtMobility18QNearFieldTagType210writeBlockEhRK10QByteArray @ 189 NONAME
	_ZN10QtMobility18QNearFieldTagType211qt_metacallEN11QMetaObject4CallEiPPv @ 190 NONAME
	_ZN10QtMobility18QNearFieldTagType211qt_metacastEPKc @ 191 NONAME
	_ZN10QtMobility18QNearFieldTagType212selectSectorEh @ 192 NONAME
	_ZN10QtMobility18QNearFieldTagType216staticMetaObjectE @ 193 NONAME DATA 16
	_ZN10QtMobility18QNearFieldTagType219getStaticMetaObjectEv @ 194 NONAME
	_ZN10QtMobility18QNearFieldTagType27versionEv @ 195 NONAME
	_ZN10QtMobility18QNearFieldTagType29readBlockEh @ 196 NONAME
	_ZN10QtMobility18QNearFieldTagType2C2EP7QObject @ 197 NONAME
	_ZN10QtMobility20QBluetoothDeviceInfo15setServiceUuidsERK5QListINS_14QBluetoothUuidEENS0_16DataCompletenessE @ 198 NONAME
	_ZN10QtMobility20QBluetoothDeviceInfo27setManufacturerSpecificDataERK10QByteArray @ 199 NONAME
	_ZN10QtMobility20QBluetoothDeviceInfoC1ERKNS_17QBluetoothAddressERK7QStringj @ 200 NONAME
	_ZN10QtMobility20QBluetoothDeviceInfoC1ERKS0_ @ 201 NONAME
	_ZN10QtMobility20QBluetoothDeviceInfoC1Ev @ 202 NONAME
	_ZN10QtMobility20QBluetoothDeviceInfoC2ERKNS_17QBluetoothAddressERK7QStringj @ 203 NONAME
	_ZN10QtMobility20QBluetoothDeviceInfoC2ERKS0_ @ 204 NONAME
	_ZN10QtMobility20QBluetoothDeviceInfoC2Ev @ 205 NONAME
	_ZN10QtMobility20QBluetoothDeviceInfoD1Ev @ 206 NONAME
	_ZN10QtMobility20QBluetoothDeviceInfoD2Ev @ 207 NONAME
	_ZN10QtMobility20QBluetoothDeviceInfoaSERKS0_ @ 208 NONAME
	_ZN10QtMobility21QBluetoothLocalDevice10setPairingERKNS_17QBluetoothAddressENS0_7PairingE @ 209 NONAME
	_ZN10QtMobility21QBluetoothLocalDevice13defaultDeviceEv @ 210 NONAME
	_ZN10QtMobility21QBluetoothLocalDeviceC1Ev @ 211 NONAME
	_ZN10QtMobility21QBluetoothLocalDeviceC2Ev @ 212 NONAME
	_ZN10QtMobility21QBluetoothLocalDeviceD1Ev @ 213 NONAME
	_ZN10QtMobility21QBluetoothLocalDeviceD2Ev @ 214 NONAME
	_ZN10QtMobility21QBluetoothServiceInfo12setAttributeEtRK8QVariant @ 215 NONAME
	_ZN10QtMobility21QBluetoothServiceInfo15removeAttributeEt @ 216 NONAME
	_ZN10QtMobility21QBluetoothServiceInfo9setDeviceERKNS_20QBluetoothDeviceInfoE @ 217 NONAME
	_ZN10QtMobility21QBluetoothServiceInfoC1ERKS0_ @ 218 NONAME
	_ZN10QtMobility21QBluetoothServiceInfoC1Ev @ 219 NONAME
	_ZN10QtMobility21QBluetoothServiceInfoC2ERKS0_ @ 220 NONAME
	_ZN10QtMobility21QBluetoothServiceInfoC2Ev @ 221 NONAME
	_ZN10QtMobility21QBluetoothServiceInfoD1Ev @ 222 NONAME
	_ZN10QtMobility21QBluetoothServiceInfoD2Ev @ 223 NONAME
	_ZN10QtMobility21QBluetoothServiceInfoaSERKS0_ @ 224 NONAME
	_ZN10QtMobility23QBluetoothTransferReply11qt_metacallEN11QMetaObject4CallEiPPv @ 225 NONAME
	_ZN10QtMobility23QBluetoothTransferReply11qt_metacastEPKc @ 226 NONAME
	_ZN10QtMobility23QBluetoothTransferReply12setAttributeENS_25QBluetoothTransferRequest9AttributeERK8QVariant @ 227 NONAME
	_ZN10QtMobility23QBluetoothTransferReply12setOperationENS_25QBluetoothTransferManager9OperationE @ 228 NONAME
	_ZN10QtMobility23QBluetoothTransferReply14uploadProgressExx @ 229 NONAME
	_ZN10QtMobility23QBluetoothTransferReply16downloadProgressExx @ 230 NONAME
	_ZN10QtMobility23QBluetoothTransferReply16staticMetaObjectE @ 231 NONAME DATA 16
	_ZN10QtMobility23QBluetoothTransferReply17setReadBufferSizeEx @ 232 NONAME
	_ZN10QtMobility23QBluetoothTransferReply19getStaticMetaObjectEv @ 233 NONAME
	_ZN10QtMobility23QBluetoothTransferReply8finishedEv @ 234 NONAME
	_ZN10QtMobility23QBluetoothTransferReplyC2EP7QObject @ 235 NONAME
	_ZN10QtMobility23QBluetoothTransferReplyD0Ev @ 236 NONAME
	_ZN10QtMobility23QBluetoothTransferReplyD1Ev @ 237 NONAME
	_ZN10QtMobility23QBluetoothTransferReplyD2Ev @ 238 NONAME
	_ZN10QtMobility25QBluetoothTransferManager11qt_metacallEN11QMetaObject4CallEiPPv @ 239 NONAME
	_ZN10QtMobility25QBluetoothTransferManager11qt_metacastEPKc @ 240 NONAME
	_ZN10QtMobility25QBluetoothTransferManager16staticMetaObjectE @ 241 NONAME DATA 16
	_ZN10QtMobility25QBluetoothTransferManager19getStaticMetaObjectEv @ 242 NONAME
	_ZN10QtMobility25QBluetoothTransferManager3getERKNS_25QBluetoothTransferRequestE @ 243 NONAME
	_ZN10QtMobility25QBluetoothTransferManager3putERKNS_25QBluetoothTransferRequestEP9QIODevice @ 244 NONAME
	_ZN10QtMobility25QBluetoothTransferManager8finishedEPNS_23QBluetoothTransferReplyE @ 245 NONAME
	_ZN10QtMobility25QBluetoothTransferManagerC1EP7QObject @ 246 NONAME
	_ZN10QtMobility25QBluetoothTransferManagerC2EP7QObject @ 247 NONAME
	_ZN10QtMobility25QBluetoothTransferManagerD0Ev @ 248 NONAME
	_ZN10QtMobility25QBluetoothTransferManagerD1Ev @ 249 NONAME
	_ZN10QtMobility25QBluetoothTransferManagerD2Ev @ 250 NONAME
	_ZN10QtMobility25QBluetoothTransferRequest12setAttributeENS0_9AttributeERK8QVariant @ 251 NONAME
	_ZN10QtMobility25QBluetoothTransferRequestC1ERKNS_17QBluetoothAddressE @ 252 NONAME
	_ZN10QtMobility25QBluetoothTransferRequestC1ERKS0_ @ 253 NONAME
	_ZN10QtMobility25QBluetoothTransferRequestC2ERKNS_17QBluetoothAddressE @ 254 NONAME
	_ZN10QtMobility25QBluetoothTransferRequestC2ERKS0_ @ 255 NONAME
	_ZN10QtMobility25QBluetoothTransferRequestD1Ev @ 256 NONAME
	_ZN10QtMobility25QBluetoothTransferRequestD2Ev @ 257 NONAME
	_ZN10QtMobility25QBluetoothTransferRequestaSERKS0_ @ 258 NONAME
	_ZN10QtMobility30QBluetoothDeviceDiscoveryAgent11qt_metacallEN11QMetaObject4CallEiPPv @ 259 NONAME
	_ZN10QtMobility30QBluetoothDeviceDiscoveryAgent11qt_metacastEPKc @ 260 NONAME
	_ZN10QtMobility30QBluetoothDeviceDiscoveryAgent14setInquiryTypeENS0_11InquiryTypeE @ 261 NONAME
	_ZN10QtMobility30QBluetoothDeviceDiscoveryAgent16deviceDiscoveredERKNS_20QBluetoothDeviceInfoE @ 262 NONAME
	_ZN10QtMobility30QBluetoothDeviceDiscoveryAgent16staticMetaObjectE @ 263 NONAME DATA 16
	_ZN10QtMobility30QBluetoothDeviceDiscoveryAgent19getStaticMetaObjectEv @ 264 NONAME
	_ZN10QtMobility30QBluetoothDeviceDiscoveryAgent4stopEv @ 265 NONAME
	_ZN10QtMobility30QBluetoothDeviceDiscoveryAgent5errorENS0_5ErrorE @ 266 NONAME
	_ZN10QtMobility30QBluetoothDeviceDiscoveryAgent5startEv @ 267 NONAME
	_ZN10QtMobility30QBluetoothDeviceDiscoveryAgent8finishedEv @ 268 NONAME
	_ZN10QtMobility30QBluetoothDeviceDiscoveryAgentC1EP7QObject @ 269 NONAME
	_ZN10QtMobility30QBluetoothDeviceDiscoveryAgentC2EP7QObject @ 270 NONAME
	_ZN10QtMobility31QBluetoothServiceDiscoveryAgent11qt_metacallEN11QMetaObject4CallEiPPv @ 271 NONAME
	_ZN10QtMobility31QBluetoothServiceDiscoveryAgent11qt_metacastEPKc @ 272 NONAME
	_ZN10QtMobility31QBluetoothServiceDiscoveryAgent13setUuidFilterERK5QListINS_14QBluetoothUuidEE @ 273 NONAME
	_ZN10QtMobility31QBluetoothServiceDiscoveryAgent13setUuidFilterERKNS_14QBluetoothUuidE @ 274 NONAME
	_ZN10QtMobility31QBluetoothServiceDiscoveryAgent16staticMetaObjectE @ 275 NONAME DATA 16
	_ZN10QtMobility31QBluetoothServiceDiscoveryAgent17serviceDiscoveredERKNS_21QBluetoothServiceInfoE @ 276 NONAME
	_ZN10QtMobility31QBluetoothServiceDiscoveryAgent19getStaticMetaObjectEv @ 277 NONAME
	_ZN10QtMobility31QBluetoothServiceDiscoveryAgent4stopEv @ 278 NONAME
	_ZN10QtMobility31QBluetoothServiceDiscoveryAgent5clearEv @ 279 NONAME
	_ZN10QtMobility31QBluetoothServiceDiscoveryAgent5errorENS0_5ErrorE @ 280 NONAME
	_ZN10QtMobility31QBluetoothServiceDiscoveryAgent5startENS0_13DiscoveryModeE @ 281 NONAME
	_ZN10QtMobility31QBluetoothServiceDiscoveryAgent8finishedEv @ 282 NONAME
	_ZN10QtMobility31QBluetoothServiceDiscoveryAgentC1EP7QObject @ 283 NONAME
	_ZN10QtMobility31QBluetoothServiceDiscoveryAgentC1ERKNS_17QBluetoothAddressEP7QObject @ 284 NONAME
	_ZN10QtMobility31QBluetoothServiceDiscoveryAgentC2EP7QObject @ 285 NONAME
	_ZN10QtMobility31QBluetoothServiceDiscoveryAgentC2ERKNS_17QBluetoothAddressEP7QObject @ 286 NONAME
	_ZN10QtMobilitylsE6QDebugNS_16QBluetoothSocket11SocketErrorE @ 287 NONAME
	_ZN10QtMobilitylsE6QDebugNS_16QBluetoothSocket11SocketStateE @ 288 NONAME
	_ZN10QtMobilitylsE6QDebugRKNS_21QBluetoothServiceInfoE @ 289 NONAME
	_ZNK10QtMobility11QLlcpSocket10metaObjectEv @ 290 NONAME
	_ZNK10QtMobility11QLlcpSocket19hasPendingDatagramsEv @ 291 NONAME
	_ZNK10QtMobility11QLlcpSocket19pendingDatagramSizeEv @ 292 NONAME
	_ZNK10QtMobility11QLlcpSocket5errorEv @ 293 NONAME
	_ZNK10QtMobility11QNdefFilter10orderMatchEv @ 294 NONAME
	_ZNK10QtMobility11QNdefFilter11recordCountEv @ 295 NONAME
	_ZNK10QtMobility11QNdefFilter8recordAtEi @ 296 NONAME
	_ZNK10QtMobility11QNdefRecord14typeNameFormatEv @ 297 NONAME
	_ZNK10QtMobility11QNdefRecord2idEv @ 298 NONAME
	_ZNK10QtMobility11QNdefRecord4typeEv @ 299 NONAME
	_ZNK10QtMobility11QNdefRecord7isEmptyEv @ 300 NONAME
	_ZNK10QtMobility11QNdefRecord7payloadEv @ 301 NONAME
	_ZNK10QtMobility11QNdefRecordeqERKS0_ @ 302 NONAME
	_ZNK10QtMobility12QL2capServer10metaObjectEv @ 303 NONAME
	_ZNK10QtMobility12QL2capServer11isListeningEv @ 304 NONAME
	_ZNK10QtMobility12QL2capServer13securityFlagsEv @ 305 NONAME
	_ZNK10QtMobility12QL2capServer21maxPendingConnectionsEv @ 306 NONAME
	_ZNK10QtMobility12QNdefMessage11toByteArrayEv @ 307 NONAME
	_ZNK10QtMobility12QNdefMessageeqERKS0_ @ 308 NONAME
	_ZNK10QtMobility13QRfcommServer10metaObjectEv @ 309 NONAME
	_ZNK10QtMobility13QRfcommServer10serverPortEv @ 310 NONAME
	_ZNK10QtMobility13QRfcommServer11isListeningEv @ 311 NONAME
	_ZNK10QtMobility13QRfcommServer13securityFlagsEv @ 312 NONAME
	_ZNK10QtMobility13QRfcommServer13serverAddressEv @ 313 NONAME
	_ZNK10QtMobility13QRfcommServer21hasPendingConnectionsEv @ 314 NONAME
	_ZNK10QtMobility13QRfcommServer21maxPendingConnectionsEv @ 315 NONAME
	_ZNK10QtMobility14QBluetoothUuid11minimumSizeEv @ 316 NONAME
	_ZNK10QtMobility14QBluetoothUuid8toUInt16EPb @ 317 NONAME
	_ZNK10QtMobility14QBluetoothUuid8toUInt32EPb @ 318 NONAME
	_ZNK10QtMobility14QBluetoothUuid9toUInt128Ev @ 319 NONAME
	_ZNK10QtMobility14QBluetoothUuideqERKS0_ @ 320 NONAME
	_ZNK10QtMobility16QBluetoothSocket10metaObjectEv @ 321 NONAME
	_ZNK10QtMobility16QBluetoothSocket10socketTypeEv @ 322 NONAME
	_ZNK10QtMobility16QBluetoothSocket11peerAddressEv @ 323 NONAME
	_ZNK10QtMobility16QBluetoothSocket12bytesToWriteEv @ 324 NONAME
	_ZNK10QtMobility16QBluetoothSocket12isSequentialEv @ 325 NONAME
	_ZNK10QtMobility16QBluetoothSocket12localAddressEv @ 326 NONAME
	_ZNK10QtMobility16QBluetoothSocket14bytesAvailableEv @ 327 NONAME
	_ZNK10QtMobility16QBluetoothSocket5errorEv @ 328 NONAME
	_ZNK10QtMobility16QBluetoothSocket5stateEv @ 329 NONAME
	_ZNK10QtMobility16QBluetoothSocket8peerNameEv @ 330 NONAME
	_ZNK10QtMobility16QBluetoothSocket8peerPortEv @ 331 NONAME
	_ZNK10QtMobility16QBluetoothSocket9localNameEv @ 332 NONAME
	_ZNK10QtMobility16QBluetoothSocket9localPortEv @ 333 NONAME
	_ZNK10QtMobility16QNearFieldTarget10metaObjectEv @ 334 NONAME
	_ZNK10QtMobility16QNearFieldTarget3urlEv @ 335 NONAME
	_ZNK10QtMobility17QBluetoothAddress6isNullEv @ 336 NONAME
	_ZNK10QtMobility17QBluetoothAddress8toStringEv @ 337 NONAME
	_ZNK10QtMobility17QBluetoothAddress8toUInt64Ev @ 338 NONAME
	_ZNK10QtMobility17QBluetoothAddresseqERKS0_ @ 339 NONAME
	_ZNK10QtMobility17QBluetoothAddressltERKS0_ @ 340 NONAME
	_ZNK10QtMobility17QNdefNfcUriRecord3uriEv @ 341 NONAME
	_ZNK10QtMobility17QNearFieldManager10metaObjectEv @ 342 NONAME
	_ZNK10QtMobility18QNdefNfcTextRecord4textEv @ 343 NONAME
	_ZNK10QtMobility18QNdefNfcTextRecord6localeEv @ 344 NONAME
	_ZNK10QtMobility18QNdefNfcTextRecord8encodingEv @ 345 NONAME
	_ZNK10QtMobility18QNearFieldTagType110metaObjectEv @ 346 NONAME
	_ZNK10QtMobility18QNearFieldTagType210metaObjectEv @ 347 NONAME
	_ZNK10QtMobility20QBluetoothDeviceInfo12serviceUuidsEPNS0_16DataCompletenessE @ 348 NONAME
	_ZNK10QtMobility20QBluetoothDeviceInfo14serviceClassesEv @ 349 NONAME
	_ZNK10QtMobility20QBluetoothDeviceInfo16majorDeviceClassEv @ 350 NONAME
	_ZNK10QtMobility20QBluetoothDeviceInfo16minorDeviceClassEv @ 351 NONAME
	_ZNK10QtMobility20QBluetoothDeviceInfo24manufacturerSpecificDataEPb @ 352 NONAME
	_ZNK10QtMobility20QBluetoothDeviceInfo24serviceUuidsCompletenessEv @ 353 NONAME
	_ZNK10QtMobility20QBluetoothDeviceInfo4nameEv @ 354 NONAME
	_ZNK10QtMobility20QBluetoothDeviceInfo7addressEv @ 355 NONAME
	_ZNK10QtMobility20QBluetoothDeviceInfo7isValidEv @ 356 NONAME
	_ZNK10QtMobility21QBluetoothLocalDevice4nameEv @ 357 NONAME
	_ZNK10QtMobility21QBluetoothLocalDevice7isValidEv @ 358 NONAME
	_ZNK10QtMobility21QBluetoothLocalDevice7pairingERKNS_17QBluetoothAddressE @ 359 NONAME
	_ZNK10QtMobility21QBluetoothServiceInfo10attributesEv @ 360 NONAME
	_ZNK10QtMobility21QBluetoothServiceInfo10isCompleteEv @ 361 NONAME
	_ZNK10QtMobility21QBluetoothServiceInfo12isRegisteredEv @ 362 NONAME
	_ZNK10QtMobility21QBluetoothServiceInfo13serverChannelEv @ 363 NONAME
	_ZNK10QtMobility21QBluetoothServiceInfo14socketProtocolEv @ 364 NONAME
	_ZNK10QtMobility21QBluetoothServiceInfo15registerServiceEv @ 365 NONAME
	_ZNK10QtMobility21QBluetoothServiceInfo17unregisterServiceEv @ 366 NONAME
	_ZNK10QtMobility21QBluetoothServiceInfo18protocolDescriptorENS_14QBluetoothUuid12ProtocolUuidE @ 367 NONAME
	_ZNK10QtMobility21QBluetoothServiceInfo26protocolServiceMultiplexerEv @ 368 NONAME
	_ZNK10QtMobility21QBluetoothServiceInfo6deviceEv @ 369 NONAME
	_ZNK10QtMobility21QBluetoothServiceInfo7isValidEv @ 370 NONAME
	_ZNK10QtMobility21QBluetoothServiceInfo8containsEt @ 371 NONAME
	_ZNK10QtMobility21QBluetoothServiceInfo9attributeEt @ 372 NONAME
	_ZNK10QtMobility23QBluetoothTransferReply10isFinishedEv @ 373 NONAME
	_ZNK10QtMobility23QBluetoothTransferReply10metaObjectEv @ 374 NONAME
	_ZNK10QtMobility23QBluetoothTransferReply14readBufferSizeEv @ 375 NONAME
	_ZNK10QtMobility23QBluetoothTransferReply7managerEv @ 376 NONAME
	_ZNK10QtMobility23QBluetoothTransferReply7requestEv @ 377 NONAME
	_ZNK10QtMobility23QBluetoothTransferReply9attributeENS_25QBluetoothTransferRequest9AttributeE @ 378 NONAME
	_ZNK10QtMobility23QBluetoothTransferReply9isRunningEv @ 379 NONAME
	_ZNK10QtMobility23QBluetoothTransferReply9operationEv @ 380 NONAME
	_ZNK10QtMobility25QBluetoothTransferManager10metaObjectEv @ 381 NONAME
	_ZNK10QtMobility25QBluetoothTransferRequest9attributeENS0_9AttributeERK8QVariant @ 382 NONAME
	_ZNK10QtMobility25QBluetoothTransferRequesteqERKS0_ @ 383 NONAME
	_ZNK10QtMobility25QBluetoothTransferRequestneERKS0_ @ 384 NONAME
	_ZNK10QtMobility30QBluetoothDeviceDiscoveryAgent10metaObjectEv @ 385 NONAME
	_ZNK10QtMobility30QBluetoothDeviceDiscoveryAgent11errorStringEv @ 386 NONAME
	_ZNK10QtMobility30QBluetoothDeviceDiscoveryAgent11inquiryTypeEv @ 387 NONAME
	_ZNK10QtMobility30QBluetoothDeviceDiscoveryAgent17discoveredDevicesEv @ 388 NONAME
	_ZNK10QtMobility30QBluetoothDeviceDiscoveryAgent5errorEv @ 389 NONAME
	_ZNK10QtMobility30QBluetoothDeviceDiscoveryAgent8isActiveEv @ 390 NONAME
	_ZNK10QtMobility31QBluetoothServiceDiscoveryAgent10metaObjectEv @ 391 NONAME
	_ZNK10QtMobility31QBluetoothServiceDiscoveryAgent10uuidFilterEv @ 392 NONAME
	_ZNK10QtMobility31QBluetoothServiceDiscoveryAgent11errorStringEv @ 393 NONAME
	_ZNK10QtMobility31QBluetoothServiceDiscoveryAgent18discoveredServicesEv @ 394 NONAME
	_ZNK10QtMobility31QBluetoothServiceDiscoveryAgent5errorEv @ 395 NONAME
	_ZNK10QtMobility31QBluetoothServiceDiscoveryAgent8isActiveEv @ 396 NONAME
	_ZTIN10QtMobility11QLlcpSocketE @ 397 NONAME
	_ZTIN10QtMobility12QL2capServerE @ 398 NONAME
	_ZTIN10QtMobility13QRfcommServerE @ 399 NONAME
	_ZTIN10QtMobility16QBluetoothSocketE @ 400 NONAME
	_ZTIN10QtMobility16QNearFieldTargetE @ 401 NONAME
	_ZTIN10QtMobility17QNearFieldManagerE @ 402 NONAME
	_ZTIN10QtMobility18QNearFieldTagType1E @ 403 NONAME
	_ZTIN10QtMobility18QNearFieldTagType2E @ 404 NONAME
	_ZTIN10QtMobility23QBluetoothTransferReplyE @ 405 NONAME
	_ZTIN10QtMobility25QBluetoothTransferManagerE @ 406 NONAME
	_ZTIN10QtMobility30QBluetoothDeviceDiscoveryAgentE @ 407 NONAME
	_ZTIN10QtMobility31QBluetoothServiceDiscoveryAgentE @ 408 NONAME
	_ZTVN10QtMobility11QLlcpSocketE @ 409 NONAME
	_ZTVN10QtMobility12QL2capServerE @ 410 NONAME
	_ZTVN10QtMobility13QRfcommServerE @ 411 NONAME
	_ZTVN10QtMobility16QBluetoothSocketE @ 412 NONAME
	_ZTVN10QtMobility16QNearFieldTargetE @ 413 NONAME
	_ZTVN10QtMobility17QNearFieldManagerE @ 414 NONAME
	_ZTVN10QtMobility18QNearFieldTagType1E @ 415 NONAME
	_ZTVN10QtMobility18QNearFieldTagType2E @ 416 NONAME
	_ZTVN10QtMobility23QBluetoothTransferReplyE @ 417 NONAME
	_ZTVN10QtMobility25QBluetoothTransferManagerE @ 418 NONAME
	_ZTVN10QtMobility30QBluetoothDeviceDiscoveryAgentE @ 419 NONAME
	_ZTVN10QtMobility31QBluetoothServiceDiscoveryAgentE @ 420 NONAME

