EXPORTS
	_ZN10QtMobility10QContactId10setLocalIdERKj @ 1 NONAME
	_ZN10QtMobility10QContactId13setManagerUriERK7QString @ 2 NONAME
	_ZN10QtMobility10QContactIdC1ERKS0_ @ 3 NONAME
	_ZN10QtMobility10QContactIdC1Ev @ 4 NONAME
	_ZN10QtMobility10QContactIdC2ERKS0_ @ 5 NONAME
	_ZN10QtMobility10QContactIdC2Ev @ 6 NONAME
	_ZN10QtMobility10QContactIdD1Ev @ 7 NONAME
	_ZN10QtMobility10QContactIdD2Ev @ 8 NONAME
	_ZN10QtMobility10QContactIdaSERKS0_ @ 9 NONAME
	_ZN10QtMobility11QContactUrl12FieldSubTypeE @ 10 NONAME DATA 8
	_ZN10QtMobility11QContactUrl14DefinitionNameE @ 11 NONAME DATA 4
	_ZN10QtMobility11QContactUrl15SubTypeHomePageE @ 12 NONAME DATA 9
	_ZN10QtMobility11QContactUrl16SubTypeFavouriteE @ 13 NONAME DATA 10
	_ZN10QtMobility11QContactUrl8FieldUrlE @ 14 NONAME DATA 4
	_ZN10QtMobility12QContactGuid14DefinitionNameE @ 15 NONAME DATA 5
	_ZN10QtMobility12QContactGuid9FieldGuidE @ 16 NONAME DATA 5
	_ZN10QtMobility12QContactName10FieldFirstE @ 17 NONAME DATA 10
	_ZN10QtMobility12QContactName11FieldMiddleE @ 18 NONAME DATA 11
	_ZN10QtMobility12QContactName11FieldPrefixE @ 19 NONAME DATA 7
	_ZN10QtMobility12QContactName11FieldSuffixE @ 20 NONAME DATA 7
	_ZN10QtMobility12QContactName13FieldLastNameE @ 21 NONAME DATA 9
	_ZN10QtMobility12QContactName14DefinitionNameE @ 22 NONAME DATA 5
	_ZN10QtMobility12QContactName14FieldFirstNameE @ 23 NONAME DATA 10
	_ZN10QtMobility12QContactName15FieldMiddleNameE @ 24 NONAME DATA 11
	_ZN10QtMobility12QContactName16FieldCustomLabelE @ 25 NONAME DATA 12
	_ZN10QtMobility12QContactName5matchERK7QString @ 26 NONAME
	_ZN10QtMobility12QContactName5matchERK7QStringS3_ @ 27 NONAME
	_ZN10QtMobility12QContactName9FieldLastE @ 28 NONAME DATA 9
	_ZN10QtMobility12QContactNote14DefinitionNameE @ 29 NONAME DATA 5
	_ZN10QtMobility12QContactNote9FieldNoteE @ 30 NONAME DATA 5
	_ZN10QtMobility12QContactType11TypeContactE @ 31 NONAME DATA 8
	_ZN10QtMobility12QContactType14DefinitionNameE @ 32 NONAME DATA 5
	_ZN10QtMobility12QContactType9FieldTypeE @ 33 NONAME DATA 5
	_ZN10QtMobility12QContactType9TypeGroupE @ 34 NONAME DATA 6
	_ZN10QtMobility14QContactAction11qt_metacallEN11QMetaObject4CallEiPPv @ 35 NONAME
	_ZN10QtMobility14QContactAction11qt_metacastEPKc @ 36 NONAME
	_ZN10QtMobility14QContactAction16availableActionsERK7QStringi @ 37 NONAME
	_ZN10QtMobility14QContactAction16staticMetaObjectE @ 38 NONAME DATA 16
	_ZN10QtMobility14QContactAction17actionDescriptorsERK7QStringS3_i @ 39 NONAME
	_ZN10QtMobility14QContactAction19getStaticMetaObjectEv @ 40 NONAME
	_ZN10QtMobility14QContactAction6actionERKNS_24QContactActionDescriptorE @ 41 NONAME
	_ZN10QtMobility14QContactAction8progressENS0_5StateERK4QMapI7QString8QVariantE @ 42 NONAME
	_ZN10QtMobility14QContactAction8progressENS0_6StatusERK4QMapI7QString8QVariantE @ 43 NONAME
	_ZN10QtMobility14QContactActionD0Ev @ 44 NONAME
	_ZN10QtMobility14QContactActionD1Ev @ 45 NONAME
	_ZN10QtMobility14QContactActionD2Ev @ 46 NONAME
	_ZN10QtMobility14QContactAvatar11FieldAvatarE @ 47 NONAME DATA 7
	_ZN10QtMobility14QContactAvatar12FieldSubTypeE @ 48 NONAME DATA 8
	_ZN10QtMobility14QContactAvatar12SubTypeImageE @ 49 NONAME DATA 6
	_ZN10QtMobility14QContactAvatar12SubTypeVideoE @ 50 NONAME DATA 6
	_ZN10QtMobility14QContactAvatar14DefinitionNameE @ 51 NONAME DATA 7
	_ZN10QtMobility14QContactAvatar17FieldAvatarPixmapE @ 52 NONAME DATA 13
	_ZN10QtMobility14QContactAvatar19SubTypeTexturedMeshE @ 53 NONAME DATA 13
	_ZN10QtMobility14QContactAvatar20SubTypeAudioRingtoneE @ 54 NONAME DATA 14
	_ZN10QtMobility14QContactAvatar20SubTypeVideoRingtoneE @ 55 NONAME DATA 14
	_ZN10QtMobility14QContactDetail11ContextHomeE @ 56 NONAME DATA 5
	_ZN10QtMobility14QContactDetail11ContextWorkE @ 57 NONAME DATA 5
	_ZN10QtMobility14QContactDetail11removeValueERK7QString @ 58 NONAME
	_ZN10QtMobility14QContactDetail12ContextOtherE @ 59 NONAME DATA 6
	_ZN10QtMobility14QContactDetail12FieldContextE @ 60 NONAME DATA 8
	_ZN10QtMobility14QContactDetail14FieldDetailUriE @ 61 NONAME DATA 10
	_ZN10QtMobility14QContactDetail19setPreferredActionsERK5QListINS_24QContactActionDescriptorEE @ 62 NONAME
	_ZN10QtMobility14QContactDetail21FieldLinkedDetailUrisE @ 63 NONAME DATA 17
	_ZN10QtMobility14QContactDetail6assignERKS0_RK7QString @ 64 NONAME
	_ZN10QtMobility14QContactDetail8resetKeyEv @ 65 NONAME
	_ZN10QtMobility14QContactDetail8setValueERK7QStringRK8QVariant @ 66 NONAME
	_ZN10QtMobility14QContactDetailC1ERK7QString @ 67 NONAME
	_ZN10QtMobility14QContactDetailC1ERKS0_ @ 68 NONAME
	_ZN10QtMobility14QContactDetailC1ERKS0_RK7QString @ 69 NONAME
	_ZN10QtMobility14QContactDetailC1Ev @ 70 NONAME
	_ZN10QtMobility14QContactDetailC2ERK7QString @ 71 NONAME
	_ZN10QtMobility14QContactDetailC2ERKS0_ @ 72 NONAME
	_ZN10QtMobility14QContactDetailC2ERKS0_RK7QString @ 73 NONAME
	_ZN10QtMobility14QContactDetailC2Ev @ 74 NONAME
	_ZN10QtMobility14QContactDetailD0Ev @ 75 NONAME
	_ZN10QtMobility14QContactDetailD1Ev @ 76 NONAME
	_ZN10QtMobility14QContactDetailD2Ev @ 77 NONAME
	_ZN10QtMobility14QContactDetailaSERKS0_ @ 78 NONAME
	_ZN10QtMobility14QContactFamily11FieldSpouseE @ 79 NONAME DATA 7
	_ZN10QtMobility14QContactFamily13FieldChildrenE @ 80 NONAME DATA 9
	_ZN10QtMobility14QContactFamily14DefinitionNameE @ 81 NONAME DATA 7
	_ZN10QtMobility14QContactFilterC1EPNS_21QContactFilterPrivateE @ 82 NONAME
	_ZN10QtMobility14QContactFilterC1ERKS0_ @ 83 NONAME
	_ZN10QtMobility14QContactFilterC1Ev @ 84 NONAME
	_ZN10QtMobility14QContactFilterC2EPNS_21QContactFilterPrivateE @ 85 NONAME
	_ZN10QtMobility14QContactFilterC2ERKS0_ @ 86 NONAME
	_ZN10QtMobility14QContactFilterC2Ev @ 87 NONAME
	_ZN10QtMobility14QContactFilterD0Ev @ 88 NONAME
	_ZN10QtMobility14QContactFilterD1Ev @ 89 NONAME
	_ZN10QtMobility14QContactFilterD2Ev @ 90 NONAME
	_ZN10QtMobility14QContactFilteraSERKS0_ @ 91 NONAME
	_ZN10QtMobility14QContactGender10GenderMaleE @ 92 NONAME DATA 5
	_ZN10QtMobility14QContactGender11FieldGenderE @ 93 NONAME DATA 7
	_ZN10QtMobility14QContactGender12GenderFemaleE @ 94 NONAME DATA 7
	_ZN10QtMobility14QContactGender14DefinitionNameE @ 95 NONAME DATA 7
	_ZN10QtMobility14QContactGender17GenderUnspecifiedE @ 96 NONAME DATA 12
	_ZN10QtMobility15QContactAddress11FieldRegionE @ 97 NONAME DATA 7
	_ZN10QtMobility15QContactAddress11FieldStreetE @ 98 NONAME DATA 7
	_ZN10QtMobility15QContactAddress12FieldCountryE @ 99 NONAME DATA 8
	_ZN10QtMobility15QContactAddress13FieldLocalityE @ 100 NONAME DATA 9
	_ZN10QtMobility15QContactAddress13FieldPostcodeE @ 101 NONAME DATA 9
	_ZN10QtMobility15QContactAddress13FieldSubTypesE @ 102 NONAME DATA 9
	_ZN10QtMobility15QContactAddress13SubTypeParcelE @ 103 NONAME DATA 7
	_ZN10QtMobility15QContactAddress13SubTypePostalE @ 104 NONAME DATA 7
	_ZN10QtMobility15QContactAddress14DefinitionNameE @ 105 NONAME DATA 14
	_ZN10QtMobility15QContactAddress15SubTypeDomesticE @ 106 NONAME DATA 9
	_ZN10QtMobility15QContactAddress18FieldPostOfficeBoxE @ 107 NONAME DATA 14
	_ZN10QtMobility15QContactAddress20SubTypeInternationalE @ 108 NONAME DATA 14
	_ZN10QtMobility15QContactManager11dataChangedEv @ 109 NONAME
	_ZN10QtMobility15QContactManager11qt_metacallEN11QMetaObject4CallEiPPv @ 110 NONAME
	_ZN10QtMobility15QContactManager11qt_metacastEPKc @ 111 NONAME
	_ZN10QtMobility15QContactManager11saveContactEPNS_8QContactE @ 112 NONAME
	_ZN10QtMobility15QContactManager12createEngineERK7QStringRK4QMapIS1_S1_E @ 113 NONAME
	_ZN10QtMobility15QContactManager12saveContactsEP5QListINS_8QContactEE @ 114 NONAME
	_ZN10QtMobility15QContactManager12saveContactsEP5QListINS_8QContactEEP4QMapIiNS0_5ErrorEE @ 115 NONAME
	_ZN10QtMobility15QContactManager13contactsAddedERK5QListIjE @ 116 NONAME
	_ZN10QtMobility15QContactManager13removeContactERKj @ 117 NONAME
	_ZN10QtMobility15QContactManager14removeContactsEP5QListIjE @ 118 NONAME
	_ZN10QtMobility15QContactManager14removeContactsEP5QListIjEP4QMapIiNS0_5ErrorEE @ 119 NONAME
	_ZN10QtMobility15QContactManager15contactsChangedERK5QListIjE @ 120 NONAME
	_ZN10QtMobility15QContactManager15contactsRemovedERK5QListIjE @ 121 NONAME
	_ZN10QtMobility15QContactManager16saveRelationshipEPNS_20QContactRelationshipE @ 122 NONAME
	_ZN10QtMobility15QContactManager16setSelfContactIdERKj @ 123 NONAME
	_ZN10QtMobility15QContactManager16staticMetaObjectE @ 124 NONAME DATA 16
	_ZN10QtMobility15QContactManager17availableManagersEv @ 125 NONAME
	_ZN10QtMobility15QContactManager17saveRelationshipsEP5QListINS_20QContactRelationshipEE @ 126 NONAME
	_ZN10QtMobility15QContactManager18relationshipsAddedERK5QListIjE @ 127 NONAME
	_ZN10QtMobility15QContactManager18removeRelationshipERKNS_20QContactRelationshipE @ 128 NONAME
	_ZN10QtMobility15QContactManager19getStaticMetaObjectEv @ 129 NONAME
	_ZN10QtMobility15QContactManager19removeRelationshipsERK5QListINS_20QContactRelationshipEE @ 130 NONAME
	_ZN10QtMobility15QContactManager20relationshipsRemovedERK5QListIjE @ 131 NONAME
	_ZN10QtMobility15QContactManager20saveDetailDefinitionERKNS_24QContactDetailDefinitionERK7QString @ 132 NONAME
	_ZN10QtMobility15QContactManager20selfContactIdChangedERKjS2_ @ 133 NONAME
	_ZN10QtMobility15QContactManager22removeDetailDefinitionERK7QStringS3_ @ 134 NONAME
	_ZN10QtMobility15QContactManager7fromUriERK7QStringP7QObject @ 135 NONAME
	_ZN10QtMobility15QContactManager7versionEv @ 136 NONAME
	_ZN10QtMobility15QContactManager8buildUriERK7QStringRK4QMapIS1_S1_Ei @ 137 NONAME
	_ZN10QtMobility15QContactManager8parseUriERK7QStringPS1_P4QMapIS1_S1_E @ 138 NONAME
	_ZN10QtMobility15QContactManager8splitUriERK7QStringPS1_P4QMapIS1_S1_E @ 139 NONAME
	_ZN10QtMobility15QContactManagerC1EP7QObject @ 140 NONAME
	_ZN10QtMobility15QContactManagerC1ERK7QStringRK4QMapIS1_S1_EP7QObject @ 141 NONAME
	_ZN10QtMobility15QContactManagerC1ERK7QStringiRK4QMapIS1_S1_EP7QObject @ 142 NONAME
	_ZN10QtMobility15QContactManagerC2EP7QObject @ 143 NONAME
	_ZN10QtMobility15QContactManagerC2ERK7QStringRK4QMapIS1_S1_EP7QObject @ 144 NONAME
	_ZN10QtMobility15QContactManagerC2ERK7QStringiRK4QMapIS1_S1_EP7QObject @ 145 NONAME
	_ZN10QtMobility15QContactManagerD0Ev @ 146 NONAME
	_ZN10QtMobility15QContactManagerD1Ev @ 147 NONAME
	_ZN10QtMobility15QContactManagerD2Ev @ 148 NONAME
	_ZN10QtMobility16QContactBirthday13FieldBirthdayE @ 149 NONAME DATA 9
	_ZN10QtMobility16QContactBirthday14DefinitionNameE @ 150 NONAME DATA 9
	_ZN10QtMobility16QContactNickname13FieldNicknameE @ 151 NONAME DATA 9
	_ZN10QtMobility16QContactNickname14DefinitionNameE @ 152 NONAME DATA 9
	_ZN10QtMobility17QContactChangeSet11dataChangedEv @ 153 NONAME
	_ZN10QtMobility17QContactChangeSet11emitSignalsEPNS_21QContactManagerEngineE @ 154 NONAME
	_ZN10QtMobility17QContactChangeSet13addedContactsEv @ 155 NONAME
	_ZN10QtMobility17QContactChangeSet14setDataChangedEb @ 156 NONAME
	_ZN10QtMobility17QContactChangeSet15changedContactsEv @ 157 NONAME
	_ZN10QtMobility17QContactChangeSet15removedContactsEv @ 158 NONAME
	_ZN10QtMobility17QContactChangeSet22oldAndNewSelfContactIdEv @ 159 NONAME
	_ZN10QtMobility17QContactChangeSet26addedRelationshipsContactsEv @ 160 NONAME
	_ZN10QtMobility17QContactChangeSet28removedRelationshipsContactsEv @ 161 NONAME
	_ZN10QtMobility17QContactChangeSet5clearEv @ 162 NONAME
	_ZN10QtMobility17QContactChangeSetC1ERKS0_ @ 163 NONAME
	_ZN10QtMobility17QContactChangeSetC1Ev @ 164 NONAME
	_ZN10QtMobility17QContactChangeSetC2ERKS0_ @ 165 NONAME
	_ZN10QtMobility17QContactChangeSetC2Ev @ 166 NONAME
	_ZN10QtMobility17QContactChangeSetD1Ev @ 167 NONAME
	_ZN10QtMobility17QContactChangeSetD2Ev @ 168 NONAME
	_ZN10QtMobility17QContactChangeSetaSERKS0_ @ 169 NONAME
	_ZN10QtMobility17QContactSortOrder12setDirectionEN2Qt9SortOrderE @ 170 NONAME
	_ZN10QtMobility17QContactSortOrder14setBlankPolicyENS0_11BlankPolicyE @ 171 NONAME
	_ZN10QtMobility17QContactSortOrder18setCaseSensitivityEN2Qt15CaseSensitivityE @ 172 NONAME
	_ZN10QtMobility17QContactSortOrder23setDetailDefinitionNameERK7QStringS3_ @ 173 NONAME
	_ZN10QtMobility17QContactSortOrderC1ERKS0_ @ 174 NONAME
	_ZN10QtMobility17QContactSortOrderC1Ev @ 175 NONAME
	_ZN10QtMobility17QContactSortOrderC2ERKS0_ @ 176 NONAME
	_ZN10QtMobility17QContactSortOrderC2Ev @ 177 NONAME
	_ZN10QtMobility17QContactSortOrderD1Ev @ 178 NONAME
	_ZN10QtMobility17QContactSortOrderD2Ev @ 179 NONAME
	_ZN10QtMobility17QContactSortOrderaSERKS0_ @ 180 NONAME
	_ZN10QtMobility17QContactTimestamp14DefinitionNameE @ 181 NONAME DATA 10
	_ZN10QtMobility17QContactTimestamp22FieldCreationTimestampE @ 182 NONAME DATA 18
	_ZN10QtMobility17QContactTimestamp26FieldModificationTimestampE @ 183 NONAME DATA 22
	_ZN10QtMobility18QContactSyncTarget14DefinitionNameE @ 184 NONAME DATA 11
	_ZN10QtMobility18QContactSyncTarget15FieldSyncTargetE @ 185 NONAME DATA 11
	_ZN10QtMobility19QContactAnniversary10FieldEventE @ 186 NONAME DATA 6
	_ZN10QtMobility19QContactAnniversary12FieldSubTypeE @ 187 NONAME DATA 8
	_ZN10QtMobility19QContactAnniversary12SubTypeHouseE @ 188 NONAME DATA 6
	_ZN10QtMobility19QContactAnniversary14DefinitionNameE @ 189 NONAME DATA 12
	_ZN10QtMobility19QContactAnniversary14SubTypeWeddingE @ 190 NONAME DATA 8
	_ZN10QtMobility19QContactAnniversary15FieldCalendarIdE @ 191 NONAME DATA 11
	_ZN10QtMobility19QContactAnniversary15SubTypeMemorialE @ 192 NONAME DATA 9
	_ZN10QtMobility19QContactAnniversary17FieldOriginalDateE @ 193 NONAME DATA 13
	_ZN10QtMobility19QContactAnniversary17SubTypeEmploymentE @ 194 NONAME DATA 11
	_ZN10QtMobility19QContactAnniversary17SubTypeEngagementE @ 195 NONAME DATA 11
	_ZN10QtMobility19QContactGeoLocation10FieldLabelE @ 196 NONAME DATA 6
	_ZN10QtMobility19QContactGeoLocation10FieldSpeedE @ 197 NONAME DATA 6
	_ZN10QtMobility19QContactGeoLocation12FieldHeadingE @ 198 NONAME DATA 8
	_ZN10QtMobility19QContactGeoLocation13FieldAccuracyE @ 199 NONAME DATA 9
	_ZN10QtMobility19QContactGeoLocation13FieldAltitudeE @ 200 NONAME DATA 9
	_ZN10QtMobility19QContactGeoLocation13FieldLatitudeE @ 201 NONAME DATA 9
	_ZN10QtMobility19QContactGeoLocation14DefinitionNameE @ 202 NONAME DATA 12
	_ZN10QtMobility19QContactGeoLocation14FieldLongitudeE @ 203 NONAME DATA 10
	_ZN10QtMobility19QContactGeoLocation14FieldTimestampE @ 204 NONAME DATA 10
	_ZN10QtMobility19QContactGeoLocation21FieldAltitudeAccuracyE @ 205 NONAME DATA 17
	_ZN10QtMobility19QContactGeolocation10FieldLabelE @ 206 NONAME DATA 6
	_ZN10QtMobility19QContactGeolocation10FieldSpeedE @ 207 NONAME DATA 6
	_ZN10QtMobility19QContactGeolocation12FieldHeadingE @ 208 NONAME DATA 8
	_ZN10QtMobility19QContactGeolocation13FieldAccuracyE @ 209 NONAME DATA 9
	_ZN10QtMobility19QContactGeolocation13FieldAltitudeE @ 210 NONAME DATA 9
	_ZN10QtMobility19QContactGeolocation13FieldLatitudeE @ 211 NONAME DATA 9
	_ZN10QtMobility19QContactGeolocation14DefinitionNameE @ 212 NONAME DATA 12
	_ZN10QtMobility19QContactGeolocation14FieldLongitudeE @ 213 NONAME DATA 10
	_ZN10QtMobility19QContactGeolocation14FieldTimestampE @ 214 NONAME DATA 10
	_ZN10QtMobility19QContactGeolocation21FieldAltitudeAccuracyE @ 215 NONAME DATA 17
	_ZN10QtMobility19QContactPhoneNumber10SubTypeCarE @ 216 NONAME DATA 4
	_ZN10QtMobility19QContactPhoneNumber11FieldNumberE @ 217 NONAME DATA 12
	_ZN10QtMobility19QContactPhoneNumber12SubTypeModemE @ 218 NONAME DATA 6
	_ZN10QtMobility19QContactPhoneNumber12SubTypePagerE @ 219 NONAME DATA 6
	_ZN10QtMobility19QContactPhoneNumber12SubTypeVideoE @ 220 NONAME DATA 6
	_ZN10QtMobility19QContactPhoneNumber12SubTypeVoiceE @ 221 NONAME DATA 6
	_ZN10QtMobility19QContactPhoneNumber13FieldSubTypesE @ 222 NONAME DATA 9
	_ZN10QtMobility19QContactPhoneNumber13SubTypeMobileE @ 223 NONAME DATA 7
	_ZN10QtMobility19QContactPhoneNumber14DefinitionNameE @ 224 NONAME DATA 12
	_ZN10QtMobility19QContactPhoneNumber15SubTypeDtmfMenuE @ 225 NONAME DATA 9
	_ZN10QtMobility19QContactPhoneNumber15SubTypeLandlineE @ 226 NONAME DATA 9
	_ZN10QtMobility19QContactPhoneNumber16SubTypeAssistantE @ 227 NONAME DATA 10
	_ZN10QtMobility19QContactPhoneNumber16SubTypeFacsimileE @ 228 NONAME DATA 10
	_ZN10QtMobility19QContactPhoneNumber23SubTypeMessagingCapableE @ 229 NONAME DATA 17
	_ZN10QtMobility19QContactPhoneNumber26SubTypeBulletinBoardSystemE @ 230 NONAME DATA 20
	_ZN10QtMobility19QContactPhoneNumber5matchERK7QString @ 231 NONAME
	_ZN10QtMobility19QContactSaveRequest11qt_metacallEN11QMetaObject4CallEiPPv @ 232 NONAME
	_ZN10QtMobility19QContactSaveRequest11qt_metacastEPKc @ 233 NONAME
	_ZN10QtMobility19QContactSaveRequest11setContactsERK5QListINS_8QContactEE @ 234 NONAME
	_ZN10QtMobility19QContactSaveRequest16staticMetaObjectE @ 235 NONAME DATA 16
	_ZN10QtMobility19QContactSaveRequest19getStaticMetaObjectEv @ 236 NONAME
	_ZN10QtMobility19QContactSaveRequest8progressEPS0_ @ 237 NONAME
	_ZN10QtMobility19QContactSaveRequestC1Ev @ 238 NONAME
	_ZN10QtMobility19QContactSaveRequestC2Ev @ 239 NONAME
	_ZN10QtMobility19QContactSaveRequestD0Ev @ 240 NONAME
	_ZN10QtMobility19QContactSaveRequestD1Ev @ 241 NONAME
	_ZN10QtMobility19QContactSaveRequestD2Ev @ 242 NONAME
	_ZN10QtMobility19QContactUnionFilter10setFiltersERK5QListINS_14QContactFilterEE @ 243 NONAME
	_ZN10QtMobility19QContactUnionFilter6appendERKNS_14QContactFilterE @ 244 NONAME
	_ZN10QtMobility19QContactUnionFilter6removeERKNS_14QContactFilterE @ 245 NONAME
	_ZN10QtMobility19QContactUnionFilter7prependERKNS_14QContactFilterE @ 246 NONAME
	_ZN10QtMobility19QContactUnionFilterC1ERKNS_14QContactFilterE @ 247 NONAME
	_ZN10QtMobility19QContactUnionFilterC1Ev @ 248 NONAME
	_ZN10QtMobility19QContactUnionFilterC2ERKNS_14QContactFilterE @ 249 NONAME
	_ZN10QtMobility19QContactUnionFilterC2Ev @ 250 NONAME
	_ZN10QtMobility19QContactUnionFilterlsERKNS_14QContactFilterE @ 251 NONAME
	_ZN10QtMobility20QContactActionFilter13setActionNameERK7QString @ 252 NONAME
	_ZN10QtMobility20QContactActionFilter8setValueERK8QVariant @ 253 NONAME
	_ZN10QtMobility20QContactActionFilter9setVendorERK7QStringi @ 254 NONAME
	_ZN10QtMobility20QContactActionFilterC1ERKNS_14QContactFilterE @ 255 NONAME
	_ZN10QtMobility20QContactActionFilterC1Ev @ 256 NONAME
	_ZN10QtMobility20QContactActionFilterC2ERKNS_14QContactFilterE @ 257 NONAME
	_ZN10QtMobility20QContactActionFilterC2Ev @ 258 NONAME
	_ZN10QtMobility20QContactDetailFilter13setMatchFlagsE6QFlagsINS_14QContactFilter9MatchFlagEE @ 259 NONAME
	_ZN10QtMobility20QContactDetailFilter23setDetailDefinitionNameERK7QStringS3_ @ 260 NONAME
	_ZN10QtMobility20QContactDetailFilter8setValueERK8QVariant @ 261 NONAME
	_ZN10QtMobility20QContactDetailFilterC1ERKNS_14QContactFilterE @ 262 NONAME
	_ZN10QtMobility20QContactDetailFilterC1Ev @ 263 NONAME
	_ZN10QtMobility20QContactDetailFilterC2ERKNS_14QContactFilterE @ 264 NONAME
	_ZN10QtMobility20QContactDetailFilterC2Ev @ 265 NONAME
	_ZN10QtMobility20QContactDisplayLabel10FieldLabelE @ 266 NONAME DATA 6
	_ZN10QtMobility20QContactDisplayLabel14DefinitionNameE @ 267 NONAME DATA 13
	_ZN10QtMobility20QContactDisplayLabel5matchERK7QString @ 268 NONAME
	_ZN10QtMobility20QContactEmailAddress14DefinitionNameE @ 269 NONAME DATA 13
	_ZN10QtMobility20QContactEmailAddress17FieldEmailAddressE @ 270 NONAME DATA 13
	_ZN10QtMobility20QContactEmailAddress5matchERK7QString @ 271 NONAME
	_ZN10QtMobility20QContactFetchRequest10setSortingERK5QListINS_17QContactSortOrderEE @ 272 NONAME
	_ZN10QtMobility20QContactFetchRequest11qt_metacallEN11QMetaObject4CallEiPPv @ 273 NONAME
	_ZN10QtMobility20QContactFetchRequest11qt_metacastEPKc @ 274 NONAME
	_ZN10QtMobility20QContactFetchRequest16staticMetaObjectE @ 275 NONAME DATA 16
	_ZN10QtMobility20QContactFetchRequest19getStaticMetaObjectEv @ 276 NONAME
	_ZN10QtMobility20QContactFetchRequest25setDefinitionRestrictionsERK11QStringList @ 277 NONAME
	_ZN10QtMobility20QContactFetchRequest8progressEPS0_b @ 278 NONAME
	_ZN10QtMobility20QContactFetchRequest9setFilterERKNS_14QContactFilterE @ 279 NONAME
	_ZN10QtMobility20QContactFetchRequestC1Ev @ 280 NONAME
	_ZN10QtMobility20QContactFetchRequestC2Ev @ 281 NONAME
	_ZN10QtMobility20QContactFetchRequestD0Ev @ 282 NONAME
	_ZN10QtMobility20QContactFetchRequestD1Ev @ 283 NONAME
	_ZN10QtMobility20QContactFetchRequestD2Ev @ 284 NONAME
	_ZN10QtMobility20QContactMemoryEngine11qt_metacallEN11QMetaObject4CallEiPPv @ 285 NONAME
	_ZN10QtMobility20QContactMemoryEngine11qt_metacastEPKc @ 286 NONAME
	_ZN10QtMobility20QContactMemoryEngine11saveContactEPNS_8QContactERNS_15QContactManager5ErrorE @ 287 NONAME
	_ZN10QtMobility20QContactMemoryEngine11saveContactEPNS_8QContactERNS_17QContactChangeSetERNS_15QContactManager5ErrorE @ 288 NONAME
	_ZN10QtMobility20QContactMemoryEngine12saveContactsEP5QListINS_8QContactEEP4QMapIiNS_15QContactManager5ErrorEERS7_ @ 289 NONAME
	_ZN10QtMobility20QContactMemoryEngine12saveContactsEP5QListINS_8QContactEERNS_15QContactManager5ErrorE @ 290 NONAME
	_ZN10QtMobility20QContactMemoryEngine12startRequestEPNS_23QContactAbstractRequestE @ 291 NONAME
	_ZN10QtMobility20QContactMemoryEngine13cancelRequestEPNS_23QContactAbstractRequestE @ 292 NONAME
	_ZN10QtMobility20QContactMemoryEngine13removeContactERKjRNS_15QContactManager5ErrorE @ 293 NONAME
	_ZN10QtMobility20QContactMemoryEngine13removeContactERKjRNS_17QContactChangeSetERNS_15QContactManager5ErrorE @ 294 NONAME
	_ZN10QtMobility20QContactMemoryEngine14removeContactsEP5QListIjEP4QMapIiNS_15QContactManager5ErrorEERS6_ @ 295 NONAME
	_ZN10QtMobility20QContactMemoryEngine14removeContactsEP5QListIjERNS_15QContactManager5ErrorE @ 296 NONAME
	_ZN10QtMobility20QContactMemoryEngine16requestDestroyedEPNS_23QContactAbstractRequestE @ 297 NONAME
	_ZN10QtMobility20QContactMemoryEngine16saveRelationshipEPNS_20QContactRelationshipERNS_15QContactManager5ErrorE @ 298 NONAME
	_ZN10QtMobility20QContactMemoryEngine16saveRelationshipEPNS_20QContactRelationshipERNS_17QContactChangeSetERNS_15QContactManager5ErrorE @ 299 NONAME
	_ZN10QtMobility20QContactMemoryEngine16setSelfContactIdERKjRNS_15QContactManager5ErrorE @ 300 NONAME
	_ZN10QtMobility20QContactMemoryEngine16staticMetaObjectE @ 301 NONAME DATA 16
	_ZN10QtMobility20QContactMemoryEngine17saveRelationshipsEP5QListINS_20QContactRelationshipEERNS_15QContactManager5ErrorE @ 302 NONAME
	_ZN10QtMobility20QContactMemoryEngine18createMemoryEngineERK4QMapI7QStringS2_E @ 303 NONAME
	_ZN10QtMobility20QContactMemoryEngine18removeRelationshipERKNS_20QContactRelationshipERNS_15QContactManager5ErrorE @ 304 NONAME
	_ZN10QtMobility20QContactMemoryEngine18removeRelationshipERKNS_20QContactRelationshipERNS_17QContactChangeSetERNS_15QContactManager5ErrorE @ 305 NONAME
	_ZN10QtMobility20QContactMemoryEngine19getStaticMetaObjectEv @ 306 NONAME
	_ZN10QtMobility20QContactMemoryEngine19removeRelationshipsERK5QListINS_20QContactRelationshipEERNS_15QContactManager5ErrorE @ 307 NONAME
	_ZN10QtMobility20QContactMemoryEngine20saveDetailDefinitionERKNS_24QContactDetailDefinitionERK7QStringRNS_15QContactManager5ErrorE @ 308 NONAME
	_ZN10QtMobility20QContactMemoryEngine20saveDetailDefinitionERKNS_24QContactDetailDefinitionERK7QStringRNS_17QContactChangeSetERNS_15QContactManager5ErrorE @ 309 NONAME
	_ZN10QtMobility20QContactMemoryEngine22removeDetailDefinitionERK7QStringS3_RNS_15QContactManager5ErrorE @ 310 NONAME
	_ZN10QtMobility20QContactMemoryEngine22removeDetailDefinitionERK7QStringS3_RNS_17QContactChangeSetERNS_15QContactManager5ErrorE @ 311 NONAME
	_ZN10QtMobility20QContactMemoryEngine22waitForRequestFinishedEPNS_23QContactAbstractRequestEi @ 312 NONAME
	_ZN10QtMobility20QContactMemoryEngine22waitForRequestProgressEPNS_23QContactAbstractRequestEi @ 313 NONAME
	_ZN10QtMobility20QContactMemoryEngine28performAsynchronousOperationEv @ 314 NONAME
	_ZN10QtMobility20QContactMemoryEngine5derefEv @ 315 NONAME
	_ZN10QtMobility20QContactMemoryEngine7enginesE @ 316 NONAME DATA 4
	_ZN10QtMobility20QContactMemoryEngineC1ERK4QMapI7QStringS2_E @ 317 NONAME
	_ZN10QtMobility20QContactMemoryEngineC2ERK4QMapI7QStringS2_E @ 318 NONAME
	_ZN10QtMobility20QContactOrganization10FieldTitleE @ 319 NONAME DATA 6
	_ZN10QtMobility20QContactOrganization13FieldLocationE @ 320 NONAME DATA 9
	_ZN10QtMobility20QContactOrganization14DefinitionNameE @ 321 NONAME DATA 13
	_ZN10QtMobility20QContactOrganization15FieldDepartmentE @ 322 NONAME DATA 11
	_ZN10QtMobility20QContactOrganization18FieldAssistantNameE @ 323 NONAME DATA 14
	_ZN10QtMobility20QContactOrganization9FieldLogoE @ 324 NONAME DATA 5
	_ZN10QtMobility20QContactOrganization9FieldNameE @ 325 NONAME DATA 5
	_ZN10QtMobility20QContactOrganization9FieldRoleE @ 326 NONAME DATA 5
	_ZN10QtMobility20QContactRelationship10AggregatesE @ 327 NONAME DATA 11
	_ZN10QtMobility20QContactRelationship10HasManagerE @ 328 NONAME DATA 11
	_ZN10QtMobility20QContactRelationship12HasAssistantE @ 329 NONAME DATA 13
	_ZN10QtMobility20QContactRelationship19setRelationshipTypeERK7QString @ 330 NONAME
	_ZN10QtMobility20QContactRelationship2IsE @ 331 NONAME DATA 9
	_ZN10QtMobility20QContactRelationship8IsSameAsE @ 332 NONAME DATA 9
	_ZN10QtMobility20QContactRelationship8setFirstERKNS_10QContactIdE @ 333 NONAME
	_ZN10QtMobility20QContactRelationship9HasMemberE @ 334 NONAME DATA 10
	_ZN10QtMobility20QContactRelationship9HasSpouseE @ 335 NONAME DATA 10
	_ZN10QtMobility20QContactRelationship9setSecondERKNS_10QContactIdE @ 336 NONAME
	_ZN10QtMobility20QContactRelationshipC1ERKS0_ @ 337 NONAME
	_ZN10QtMobility20QContactRelationshipC1Ev @ 338 NONAME
	_ZN10QtMobility20QContactRelationshipC2ERKS0_ @ 339 NONAME
	_ZN10QtMobility20QContactRelationshipC2Ev @ 340 NONAME
	_ZN10QtMobility20QContactRelationshipD1Ev @ 341 NONAME
	_ZN10QtMobility20QContactRelationshipD2Ev @ 342 NONAME
	_ZN10QtMobility20QContactRelationshipaSERKS0_ @ 343 NONAME
	_ZN10QtMobility21QContactActionFactory11qt_metacallEN11QMetaObject4CallEiPPv @ 344 NONAME
	_ZN10QtMobility21QContactActionFactory11qt_metacastEPKc @ 345 NONAME
	_ZN10QtMobility21QContactActionFactory16staticMetaObjectE @ 346 NONAME DATA 16
	_ZN10QtMobility21QContactActionFactory19getStaticMetaObjectEv @ 347 NONAME
	_ZN10QtMobility21QContactActionFactoryD0Ev @ 348 NONAME
	_ZN10QtMobility21QContactActionFactoryD1Ev @ 349 NONAME
	_ZN10QtMobility21QContactActionFactoryD2Ev @ 350 NONAME
	_ZN10QtMobility21QContactInvalidFilterC1ERKNS_14QContactFilterE @ 351 NONAME
	_ZN10QtMobility21QContactInvalidFilterC1Ev @ 352 NONAME
	_ZN10QtMobility21QContactInvalidFilterC2ERKNS_14QContactFilterE @ 353 NONAME
	_ZN10QtMobility21QContactInvalidFilterC2Ev @ 354 NONAME
	_ZN10QtMobility21QContactLocalIdFilter6setIdsERK5QListIjE @ 355 NONAME
	_ZN10QtMobility21QContactLocalIdFilterC1ERKNS_14QContactFilterE @ 356 NONAME
	_ZN10QtMobility21QContactLocalIdFilterC1Ev @ 357 NONAME
	_ZN10QtMobility21QContactLocalIdFilterC2ERKNS_14QContactFilterE @ 358 NONAME
	_ZN10QtMobility21QContactLocalIdFilterC2Ev @ 359 NONAME
	_ZN10QtMobility21QContactManagerEngine10testFilterERKNS_14QContactFilterERKNS_8QContactE @ 360 NONAME
	_ZN10QtMobility21QContactManagerEngine11dataChangedEv @ 361 NONAME
	_ZN10QtMobility21QContactManagerEngine11qt_metacallEN11QMetaObject4CallEiPPv @ 362 NONAME
	_ZN10QtMobility21QContactManagerEngine11qt_metacastEPKc @ 363 NONAME
	_ZN10QtMobility21QContactManagerEngine11saveContactEPNS_8QContactERNS_15QContactManager5ErrorE @ 364 NONAME
	_ZN10QtMobility21QContactManagerEngine12saveContactsEP5QListINS_8QContactEEP4QMapIiNS_15QContactManager5ErrorEERS7_ @ 365 NONAME
	_ZN10QtMobility21QContactManagerEngine12saveContactsEP5QListINS_8QContactEERNS_15QContactManager5ErrorE @ 366 NONAME
	_ZN10QtMobility21QContactManagerEngine12sortContactsERK5QListINS_8QContactEERKS1_INS_17QContactSortOrderEE @ 367 NONAME
	_ZN10QtMobility21QContactManagerEngine12startRequestEPNS_23QContactAbstractRequestE @ 368 NONAME
	_ZN10QtMobility21QContactManagerEngine13cancelRequestEPNS_23QContactAbstractRequestE @ 369 NONAME
	_ZN10QtMobility21QContactManagerEngine13contactsAddedERK5QListIjE @ 370 NONAME
	_ZN10QtMobility21QContactManagerEngine13removeContactERKjRNS_15QContactManager5ErrorE @ 371 NONAME
	_ZN10QtMobility21QContactManagerEngine13updateRequestEPNS_23QContactAbstractRequestERK4QMapI7QStringNS_24QContactDetailDefinitionEENS_15QContactManager5ErrorERK5QListISA_ENS1_6StatusEb @ 372 NONAME
	_ZN10QtMobility21QContactManagerEngine13updateRequestEPNS_23QContactAbstractRequestERK5QListINS_20QContactRelationshipEENS_15QContactManager5ErrorERKS3_IS9_ENS1_6StatusEb @ 373 NONAME
	_ZN10QtMobility21QContactManagerEngine13updateRequestEPNS_23QContactAbstractRequestERK5QListINS_24QContactDetailDefinitionEENS_15QContactManager5ErrorERKS3_IS9_ENS1_6StatusE @ 374 NONAME
	_ZN10QtMobility21QContactManagerEngine13updateRequestEPNS_23QContactAbstractRequestERK5QListINS_8QContactEENS_15QContactManager5ErrorERKS3_IS9_ENS1_6StatusEb @ 375 NONAME
	_ZN10QtMobility21QContactManagerEngine13updateRequestEPNS_23QContactAbstractRequestERK5QListIjENS_15QContactManager5ErrorERKS3_IS8_ENS1_6StatusEb @ 376 NONAME
	_ZN10QtMobility21QContactManagerEngine14compareContactERKNS_8QContactES3_RK5QListINS_17QContactSortOrderEE @ 377 NONAME
	_ZN10QtMobility21QContactManagerEngine14compareVariantERK8QVariantS3_N2Qt15CaseSensitivityE @ 378 NONAME
	_ZN10QtMobility21QContactManagerEngine14removeContactsEP5QListIjEP4QMapIiNS_15QContactManager5ErrorEERS6_ @ 379 NONAME
	_ZN10QtMobility21QContactManagerEngine14removeContactsEP5QListIjERNS_15QContactManager5ErrorE @ 380 NONAME
	_ZN10QtMobility21QContactManagerEngine15contactsChangedERK5QListIjE @ 381 NONAME
	_ZN10QtMobility21QContactManagerEngine15contactsRemovedERK5QListIjE @ 382 NONAME
	_ZN10QtMobility21QContactManagerEngine16requestDestroyedEPNS_23QContactAbstractRequestE @ 383 NONAME
	_ZN10QtMobility21QContactManagerEngine16saveRelationshipEPNS_20QContactRelationshipERNS_15QContactManager5ErrorE @ 384 NONAME
	_ZN10QtMobility21QContactManagerEngine16setSelfContactIdERKjRNS_15QContactManager5ErrorE @ 385 NONAME
	_ZN10QtMobility21QContactManagerEngine16staticMetaObjectE @ 386 NONAME DATA 16
	_ZN10QtMobility21QContactManagerEngine17saveRelationshipsEP5QListINS_20QContactRelationshipEERNS_15QContactManager5ErrorE @ 387 NONAME
	_ZN10QtMobility21QContactManagerEngine17schemaDefinitionsEv @ 388 NONAME
	_ZN10QtMobility21QContactManagerEngine18relationshipsAddedERK5QListIjE @ 389 NONAME
	_ZN10QtMobility21QContactManagerEngine18removeRelationshipERKNS_20QContactRelationshipERNS_15QContactManager5ErrorE @ 390 NONAME
	_ZN10QtMobility21QContactManagerEngine18updateRequestStateEPNS_23QContactAbstractRequestENS1_5StateE @ 391 NONAME
	_ZN10QtMobility21QContactManagerEngine19getStaticMetaObjectEv @ 392 NONAME
	_ZN10QtMobility21QContactManagerEngine19removeRelationshipsERK5QListINS_20QContactRelationshipEERNS_15QContactManager5ErrorE @ 393 NONAME
	_ZN10QtMobility21QContactManagerEngine19updateRequestStatusEPNS_23QContactAbstractRequestENS_15QContactManager5ErrorER5QListIS4_ENS1_6StatusEb @ 394 NONAME
	_ZN10QtMobility21QContactManagerEngine20relationshipsRemovedERK5QListIjE @ 395 NONAME
	_ZN10QtMobility21QContactManagerEngine20saveDetailDefinitionERKNS_24QContactDetailDefinitionERK7QStringRNS_15QContactManager5ErrorE @ 396 NONAME
	_ZN10QtMobility21QContactManagerEngine20selfContactIdChangedERKjS2_ @ 397 NONAME
	_ZN10QtMobility21QContactManagerEngine20validateActionFilterERKNS_14QContactFilterE @ 398 NONAME
	_ZN10QtMobility21QContactManagerEngine22removeDetailDefinitionERK7QStringS3_RNS_15QContactManager5ErrorE @ 399 NONAME
	_ZN10QtMobility21QContactManagerEngine22waitForRequestFinishedEPNS_23QContactAbstractRequestEi @ 400 NONAME
	_ZN10QtMobility21QContactManagerEngine22waitForRequestProgressEPNS_23QContactAbstractRequestEi @ 401 NONAME
	_ZN10QtMobility21QContactManagerEngine23setContactRelationshipsEPNS_8QContactERK5QListINS_20QContactRelationshipEE @ 402 NONAME
	_ZN10QtMobility21QContactManagerEngine24updateContactSaveRequestEPNS_19QContactSaveRequestERK5QListINS_8QContactEENS_15QContactManager5ErrorERK4QMapIiS9_E @ 403 NONAME
	_ZN10QtMobility21QContactManagerEngine25updateContactFetchRequestEPNS_20QContactFetchRequestERK5QListINS_8QContactEENS_15QContactManager5ErrorE @ 404 NONAME
	_ZN10QtMobility21QContactManagerEngine26updateContactRemoveRequestEPNS_21QContactRemoveRequestENS_15QContactManager5ErrorERK4QMapIiS4_E @ 405 NONAME
	_ZN10QtMobility21QContactManagerEngine27updateDefinitionSaveRequestEPNS_35QContactDetailDefinitionSaveRequestERK5QListINS_24QContactDetailDefinitionEENS_15QContactManager5ErrorERK4QMapIiS9_E @ 406 NONAME
	_ZN10QtMobility21QContactManagerEngine28updateDefinitionFetchRequestEPNS_36QContactDetailDefinitionFetchRequestERK4QMapI7QStringNS_24QContactDetailDefinitionEENS_15QContactManager5ErrorERKS3_IiSA_E @ 407 NONAME
	_ZN10QtMobility21QContactManagerEngine29updateDefinitionRemoveRequestEPNS_37QContactDetailDefinitionRemoveRequestENS_15QContactManager5ErrorERK4QMapIiS4_E @ 408 NONAME
	_ZN10QtMobility21QContactManagerEngine29updateRelationshipSaveRequestEPNS_31QContactRelationshipSaveRequestERK5QListINS_20QContactRelationshipEENS_15QContactManager5ErrorERK4QMapIiS9_E @ 409 NONAME
	_ZN10QtMobility21QContactManagerEngine30updateRelationshipFetchRequestEPNS_32QContactRelationshipFetchRequestERK5QListINS_20QContactRelationshipEENS_15QContactManager5ErrorE @ 410 NONAME
	_ZN10QtMobility21QContactManagerEngine31updateRelationshipRemoveRequestEPNS_33QContactRelationshipRemoveRequestENS_15QContactManager5ErrorERK4QMapIiS4_E @ 411 NONAME
	_ZN10QtMobility21QContactManagerEngine32updateContactLocalIdFetchRequestEPNS_27QContactLocalIdFetchRequestERK5QListIjENS_15QContactManager5ErrorE @ 412 NONAME
	_ZN10QtMobility21QContactManagerEngine7versionEv @ 413 NONAME
	_ZN10QtMobility21QContactManagerEngine9addSortedEP5QListINS_8QContactEERKS2_RKS1_INS_17QContactSortOrderEE @ 414 NONAME
	_ZN10QtMobility21QContactOnlineAccount10SubTypeSipE @ 415 NONAME DATA 4
	_ZN10QtMobility21QContactOnlineAccount11SubTypeImppE @ 416 NONAME DATA 5
	_ZN10QtMobility21QContactOnlineAccount12PresenceAwayE @ 417 NONAME DATA 5
	_ZN10QtMobility21QContactOnlineAccount12PresenceBusyE @ 418 NONAME DATA 5
	_ZN10QtMobility21QContactOnlineAccount13FieldNicknameE @ 419 NONAME DATA 9
	_ZN10QtMobility21QContactOnlineAccount13FieldPresenceE @ 420 NONAME DATA 9
	_ZN10QtMobility21QContactOnlineAccount13FieldSubTypesE @ 421 NONAME DATA 9
	_ZN10QtMobility21QContactOnlineAccount14DefinitionNameE @ 422 NONAME DATA 14
	_ZN10QtMobility21QContactOnlineAccount14PresenceHiddenE @ 423 NONAME DATA 7
	_ZN10QtMobility21QContactOnlineAccount14SubTypeSipVoipE @ 424 NONAME DATA 8
	_ZN10QtMobility21QContactOnlineAccount15FieldAccountUriE @ 425 NONAME DATA 11
	_ZN10QtMobility21QContactOnlineAccount15PresenceOfflineE @ 426 NONAME DATA 8
	_ZN10QtMobility21QContactOnlineAccount15PresenceUnknownE @ 427 NONAME DATA 8
	_ZN10QtMobility21QContactOnlineAccount17FieldCapabilitiesE @ 428 NONAME DATA 13
	_ZN10QtMobility21QContactOnlineAccount17PresenceAvailableE @ 429 NONAME DATA 10
	_ZN10QtMobility21QContactOnlineAccount17SubTypeVideoShareE @ 430 NONAME DATA 11
	_ZN10QtMobility21QContactOnlineAccount18FieldStatusMessageE @ 431 NONAME DATA 14
	_ZN10QtMobility21QContactOnlineAccount20FieldServiceProviderE @ 432 NONAME DATA 16
	_ZN10QtMobility21QContactOnlineAccount20PresenceExtendedAwayE @ 433 NONAME DATA 13
	_ZN10QtMobility21QContactRemoveRequest11qt_metacallEN11QMetaObject4CallEiPPv @ 434 NONAME
	_ZN10QtMobility21QContactRemoveRequest11qt_metacastEPKc @ 435 NONAME
	_ZN10QtMobility21QContactRemoveRequest13setContactIdsERK5QListIjE @ 436 NONAME
	_ZN10QtMobility21QContactRemoveRequest16staticMetaObjectE @ 437 NONAME DATA 16
	_ZN10QtMobility21QContactRemoveRequest19getStaticMetaObjectEv @ 438 NONAME
	_ZN10QtMobility21QContactRemoveRequest8progressEPS0_ @ 439 NONAME
	_ZN10QtMobility21QContactRemoveRequest9setFilterERKNS_14QContactFilterE @ 440 NONAME
	_ZN10QtMobility21QContactRemoveRequestC1Ev @ 441 NONAME
	_ZN10QtMobility21QContactRemoveRequestC2Ev @ 442 NONAME
	_ZN10QtMobility21QContactRemoveRequestD0Ev @ 443 NONAME
	_ZN10QtMobility21QContactRemoveRequestD1Ev @ 444 NONAME
	_ZN10QtMobility21QContactRemoveRequestD2Ev @ 445 NONAME
	_ZN10QtMobility23QContactAbstractRequest10setManagerEPNS_15QContactManagerE @ 446 NONAME
	_ZN10QtMobility23QContactAbstractRequest11qt_metacallEN11QMetaObject4CallEiPPv @ 447 NONAME
	_ZN10QtMobility23QContactAbstractRequest11qt_metacastEPKc @ 448 NONAME
	_ZN10QtMobility23QContactAbstractRequest12stateChangedENS0_5StateE @ 449 NONAME
	_ZN10QtMobility23QContactAbstractRequest15waitForFinishedEi @ 450 NONAME
	_ZN10QtMobility23QContactAbstractRequest15waitForProgressEi @ 451 NONAME
	_ZN10QtMobility23QContactAbstractRequest16resultsAvailableEv @ 452 NONAME
	_ZN10QtMobility23QContactAbstractRequest16staticMetaObjectE @ 453 NONAME DATA 16
	_ZN10QtMobility23QContactAbstractRequest19getStaticMetaObjectEv @ 454 NONAME
	_ZN10QtMobility23QContactAbstractRequest5startEv @ 455 NONAME
	_ZN10QtMobility23QContactAbstractRequest6cancelEv @ 456 NONAME
	_ZN10QtMobility23QContactAbstractRequestC1EPNS_30QContactAbstractRequestPrivateE @ 457 NONAME
	_ZN10QtMobility23QContactAbstractRequestC2EPNS_30QContactAbstractRequestPrivateE @ 458 NONAME
	_ZN10QtMobility23QContactAbstractRequestD0Ev @ 459 NONAME
	_ZN10QtMobility23QContactAbstractRequestD1Ev @ 460 NONAME
	_ZN10QtMobility23QContactAbstractRequestD2Ev @ 461 NONAME
	_ZN10QtMobility23QContactChangeLogFilter12setEventTypeENS0_9EventTypeE @ 462 NONAME
	_ZN10QtMobility23QContactChangeLogFilter8setSinceERK9QDateTime @ 463 NONAME
	_ZN10QtMobility23QContactChangeLogFilterC1ENS0_9EventTypeE @ 464 NONAME
	_ZN10QtMobility23QContactChangeLogFilterC1ERKNS_14QContactFilterE @ 465 NONAME
	_ZN10QtMobility23QContactChangeLogFilterC2ENS0_9EventTypeE @ 466 NONAME
	_ZN10QtMobility23QContactChangeLogFilterC2ERKNS_14QContactFilterE @ 467 NONAME
	_ZN10QtMobility24QContactActionDescriptor13setActionNameERK7QString @ 468 NONAME
	_ZN10QtMobility24QContactActionDescriptor13setVendorNameERK7QString @ 469 NONAME
	_ZN10QtMobility24QContactActionDescriptor24setImplementationVersionEi @ 470 NONAME
	_ZN10QtMobility24QContactActionDescriptorC1ERK7QStringS3_i @ 471 NONAME
	_ZN10QtMobility24QContactActionDescriptorC1ERKS0_ @ 472 NONAME
	_ZN10QtMobility24QContactActionDescriptorC2ERK7QStringS3_i @ 473 NONAME
	_ZN10QtMobility24QContactActionDescriptorC2ERKS0_ @ 474 NONAME
	_ZN10QtMobility24QContactActionDescriptorD1Ev @ 475 NONAME
	_ZN10QtMobility24QContactActionDescriptorD2Ev @ 476 NONAME
	_ZN10QtMobility24QContactActionDescriptoraSERKS0_ @ 477 NONAME
	_ZN10QtMobility24QContactDetailDefinition11insertFieldERK7QStringRKNS_29QContactDetailFieldDefinitionE @ 478 NONAME
	_ZN10QtMobility24QContactDetailDefinition11removeFieldERK7QString @ 479 NONAME
	_ZN10QtMobility24QContactDetailDefinition19setAccessConstraintERKNS0_16AccessConstraintE @ 480 NONAME
	_ZN10QtMobility24QContactDetailDefinition6fieldsEv @ 481 NONAME
	_ZN10QtMobility24QContactDetailDefinition7setNameERK7QString @ 482 NONAME
	_ZN10QtMobility24QContactDetailDefinition9setFieldsERK4QMapI7QStringNS_29QContactDetailFieldDefinitionEE @ 483 NONAME
	_ZN10QtMobility24QContactDetailDefinition9setUniqueEb @ 484 NONAME
	_ZN10QtMobility24QContactDetailDefinitionC1ERKS0_ @ 485 NONAME
	_ZN10QtMobility24QContactDetailDefinitionC1Ev @ 486 NONAME
	_ZN10QtMobility24QContactDetailDefinitionC2ERKS0_ @ 487 NONAME
	_ZN10QtMobility24QContactDetailDefinitionC2Ev @ 488 NONAME
	_ZN10QtMobility24QContactDetailDefinitionD1Ev @ 489 NONAME
	_ZN10QtMobility24QContactDetailDefinitionD2Ev @ 490 NONAME
	_ZN10QtMobility24QContactDetailDefinitionaSERKS0_ @ 491 NONAME
	_ZN10QtMobility25QContactDetailRangeFilter13setMatchFlagsE6QFlagsINS_14QContactFilter9MatchFlagEE @ 492 NONAME
	_ZN10QtMobility25QContactDetailRangeFilter23setDetailDefinitionNameERK7QStringS3_ @ 493 NONAME
	_ZN10QtMobility25QContactDetailRangeFilter8setRangeERK8QVariantS3_6QFlagsINS0_9RangeFlagEE @ 494 NONAME
	_ZN10QtMobility25QContactDetailRangeFilterC1ERKNS_14QContactFilterE @ 495 NONAME
	_ZN10QtMobility25QContactDetailRangeFilterC1Ev @ 496 NONAME
	_ZN10QtMobility25QContactDetailRangeFilterC2ERKNS_14QContactFilterE @ 497 NONAME
	_ZN10QtMobility25QContactDetailRangeFilterC2Ev @ 498 NONAME
	_ZN10QtMobility26QContactIntersectionFilter10setFiltersERK5QListINS_14QContactFilterEE @ 499 NONAME
	_ZN10QtMobility26QContactIntersectionFilter6appendERKNS_14QContactFilterE @ 500 NONAME
	_ZN10QtMobility26QContactIntersectionFilter6removeERKNS_14QContactFilterE @ 501 NONAME
	_ZN10QtMobility26QContactIntersectionFilter7prependERKNS_14QContactFilterE @ 502 NONAME
	_ZN10QtMobility26QContactIntersectionFilterC1ERKNS_14QContactFilterE @ 503 NONAME
	_ZN10QtMobility26QContactIntersectionFilterC1Ev @ 504 NONAME
	_ZN10QtMobility26QContactIntersectionFilterC2ERKNS_14QContactFilterE @ 505 NONAME
	_ZN10QtMobility26QContactIntersectionFilterC2Ev @ 506 NONAME
	_ZN10QtMobility26QContactIntersectionFilterlsERKNS_14QContactFilterE @ 507 NONAME
	_ZN10QtMobility26QContactRelationshipFilter19setRelatedContactIdERKNS_10QContactIdE @ 508 NONAME
	_ZN10QtMobility26QContactRelationshipFilter19setRelationshipTypeERK7QString @ 509 NONAME
	_ZN10QtMobility26QContactRelationshipFilter21setOtherParticipantIdERKNS_10QContactIdE @ 510 NONAME
	_ZN10QtMobility26QContactRelationshipFilter21setRelatedContactRoleENS0_4RoleE @ 511 NONAME
	_ZN10QtMobility26QContactRelationshipFilter7setRoleENS0_4RoleE @ 512 NONAME
	_ZN10QtMobility26QContactRelationshipFilterC1ERKNS_14QContactFilterE @ 513 NONAME
	_ZN10QtMobility26QContactRelationshipFilterC1Ev @ 514 NONAME
	_ZN10QtMobility26QContactRelationshipFilterC2ERKNS_14QContactFilterE @ 515 NONAME
	_ZN10QtMobility26QContactRelationshipFilterC2Ev @ 516 NONAME
	_ZN10QtMobility27QContactLocalIdFetchRequest10setSortingERK5QListINS_17QContactSortOrderEE @ 517 NONAME
	_ZN10QtMobility27QContactLocalIdFetchRequest11qt_metacallEN11QMetaObject4CallEiPPv @ 518 NONAME
	_ZN10QtMobility27QContactLocalIdFetchRequest11qt_metacastEPKc @ 519 NONAME
	_ZN10QtMobility27QContactLocalIdFetchRequest16staticMetaObjectE @ 520 NONAME DATA 16
	_ZN10QtMobility27QContactLocalIdFetchRequest19getStaticMetaObjectEv @ 521 NONAME
	_ZN10QtMobility27QContactLocalIdFetchRequest8progressEPS0_b @ 522 NONAME
	_ZN10QtMobility27QContactLocalIdFetchRequest9setFilterERKNS_14QContactFilterE @ 523 NONAME
	_ZN10QtMobility27QContactLocalIdFetchRequestC1Ev @ 524 NONAME
	_ZN10QtMobility27QContactLocalIdFetchRequestC2Ev @ 525 NONAME
	_ZN10QtMobility27QContactLocalIdFetchRequestD0Ev @ 526 NONAME
	_ZN10QtMobility27QContactLocalIdFetchRequestD1Ev @ 527 NONAME
	_ZN10QtMobility27QContactLocalIdFetchRequestD2Ev @ 528 NONAME
	_ZN10QtMobility29QContactDetailFieldDefinition11setDataTypeEN8QVariant4TypeE @ 529 NONAME
	_ZN10QtMobility29QContactDetailFieldDefinition18setAllowableValuesE5QListI8QVariantE @ 530 NONAME
	_ZN10QtMobility29QContactDetailFieldDefinition19setAccessConstraintENS0_16AccessConstraintE @ 531 NONAME
	_ZN10QtMobility29QContactDetailFieldDefinitionC1ERKS0_ @ 532 NONAME
	_ZN10QtMobility29QContactDetailFieldDefinitionC1Ev @ 533 NONAME
	_ZN10QtMobility29QContactDetailFieldDefinitionC2ERKS0_ @ 534 NONAME
	_ZN10QtMobility29QContactDetailFieldDefinitionC2Ev @ 535 NONAME
	_ZN10QtMobility29QContactDetailFieldDefinitionD1Ev @ 536 NONAME
	_ZN10QtMobility29QContactDetailFieldDefinitionD2Ev @ 537 NONAME
	_ZN10QtMobility29QContactDetailFieldDefinitionaSERKS0_ @ 538 NONAME
	_ZN10QtMobility31QContactRelationshipSaveRequest11qt_metacallEN11QMetaObject4CallEiPPv @ 539 NONAME
	_ZN10QtMobility31QContactRelationshipSaveRequest11qt_metacastEPKc @ 540 NONAME
	_ZN10QtMobility31QContactRelationshipSaveRequest16setRelationshipsERK5QListINS_20QContactRelationshipEE @ 541 NONAME
	_ZN10QtMobility31QContactRelationshipSaveRequest16staticMetaObjectE @ 542 NONAME DATA 16
	_ZN10QtMobility31QContactRelationshipSaveRequest19getStaticMetaObjectEv @ 543 NONAME
	_ZN10QtMobility31QContactRelationshipSaveRequest8progressEPS0_ @ 544 NONAME
	_ZN10QtMobility31QContactRelationshipSaveRequestC1Ev @ 545 NONAME
	_ZN10QtMobility31QContactRelationshipSaveRequestC2Ev @ 546 NONAME
	_ZN10QtMobility31QContactRelationshipSaveRequestD0Ev @ 547 NONAME
	_ZN10QtMobility31QContactRelationshipSaveRequestD1Ev @ 548 NONAME
	_ZN10QtMobility31QContactRelationshipSaveRequestD2Ev @ 549 NONAME
	_ZN10QtMobility32QContactRelationshipFetchRequest11qt_metacallEN11QMetaObject4CallEiPPv @ 550 NONAME
	_ZN10QtMobility32QContactRelationshipFetchRequest11qt_metacastEPKc @ 551 NONAME
	_ZN10QtMobility32QContactRelationshipFetchRequest14setParticipantERKNS_10QContactIdENS_26QContactRelationshipFilter4RoleE @ 552 NONAME
	_ZN10QtMobility32QContactRelationshipFetchRequest16staticMetaObjectE @ 553 NONAME DATA 16
	_ZN10QtMobility32QContactRelationshipFetchRequest19getStaticMetaObjectEv @ 554 NONAME
	_ZN10QtMobility32QContactRelationshipFetchRequest19setRelationshipTypeERK7QString @ 555 NONAME
	_ZN10QtMobility32QContactRelationshipFetchRequest8progressEPS0_b @ 556 NONAME
	_ZN10QtMobility32QContactRelationshipFetchRequest8setFirstERKNS_10QContactIdE @ 557 NONAME
	_ZN10QtMobility32QContactRelationshipFetchRequest9setSecondERKNS_10QContactIdE @ 558 NONAME
	_ZN10QtMobility32QContactRelationshipFetchRequestC1Ev @ 559 NONAME
	_ZN10QtMobility32QContactRelationshipFetchRequestC2Ev @ 560 NONAME
	_ZN10QtMobility32QContactRelationshipFetchRequestD0Ev @ 561 NONAME
	_ZN10QtMobility32QContactRelationshipFetchRequestD1Ev @ 562 NONAME
	_ZN10QtMobility32QContactRelationshipFetchRequestD2Ev @ 563 NONAME
	_ZN10QtMobility33QContactRelationshipRemoveRequest11qt_metacallEN11QMetaObject4CallEiPPv @ 564 NONAME
	_ZN10QtMobility33QContactRelationshipRemoveRequest11qt_metacastEPKc @ 565 NONAME
	_ZN10QtMobility33QContactRelationshipRemoveRequest16setRelationshipsERK5QListINS_20QContactRelationshipEE @ 566 NONAME
	_ZN10QtMobility33QContactRelationshipRemoveRequest16staticMetaObjectE @ 567 NONAME DATA 16
	_ZN10QtMobility33QContactRelationshipRemoveRequest19getStaticMetaObjectEv @ 568 NONAME
	_ZN10QtMobility33QContactRelationshipRemoveRequest19setRelationshipTypeERK7QString @ 569 NONAME
	_ZN10QtMobility33QContactRelationshipRemoveRequest8progressEPS0_ @ 570 NONAME
	_ZN10QtMobility33QContactRelationshipRemoveRequest8setFirstERKNS_10QContactIdE @ 571 NONAME
	_ZN10QtMobility33QContactRelationshipRemoveRequest9setSecondERKNS_10QContactIdE @ 572 NONAME
	_ZN10QtMobility33QContactRelationshipRemoveRequestC1Ev @ 573 NONAME
	_ZN10QtMobility33QContactRelationshipRemoveRequestC2Ev @ 574 NONAME
	_ZN10QtMobility33QContactRelationshipRemoveRequestD0Ev @ 575 NONAME
	_ZN10QtMobility33QContactRelationshipRemoveRequestD1Ev @ 576 NONAME
	_ZN10QtMobility33QContactRelationshipRemoveRequestD2Ev @ 577 NONAME
	_ZN10QtMobility35QContactDetailDefinitionSaveRequest11qt_metacallEN11QMetaObject4CallEiPPv @ 578 NONAME
	_ZN10QtMobility35QContactDetailDefinitionSaveRequest11qt_metacastEPKc @ 579 NONAME
	_ZN10QtMobility35QContactDetailDefinitionSaveRequest14setContactTypeERK7QString @ 580 NONAME
	_ZN10QtMobility35QContactDetailDefinitionSaveRequest14setDefinitionsERK5QListINS_24QContactDetailDefinitionEE @ 581 NONAME
	_ZN10QtMobility35QContactDetailDefinitionSaveRequest16staticMetaObjectE @ 582 NONAME DATA 16
	_ZN10QtMobility35QContactDetailDefinitionSaveRequest19getStaticMetaObjectEv @ 583 NONAME
	_ZN10QtMobility35QContactDetailDefinitionSaveRequest8progressEPS0_ @ 584 NONAME
	_ZN10QtMobility35QContactDetailDefinitionSaveRequestC1Ev @ 585 NONAME
	_ZN10QtMobility35QContactDetailDefinitionSaveRequestC2Ev @ 586 NONAME
	_ZN10QtMobility35QContactDetailDefinitionSaveRequestD0Ev @ 587 NONAME
	_ZN10QtMobility35QContactDetailDefinitionSaveRequestD1Ev @ 588 NONAME
	_ZN10QtMobility35QContactDetailDefinitionSaveRequestD2Ev @ 589 NONAME
	_ZN10QtMobility36QContactDetailDefinitionFetchRequest11qt_metacallEN11QMetaObject4CallEiPPv @ 590 NONAME
	_ZN10QtMobility36QContactDetailDefinitionFetchRequest11qt_metacastEPKc @ 591 NONAME
	_ZN10QtMobility36QContactDetailDefinitionFetchRequest14setContactTypeERK7QString @ 592 NONAME
	_ZN10QtMobility36QContactDetailDefinitionFetchRequest16staticMetaObjectE @ 593 NONAME DATA 16
	_ZN10QtMobility36QContactDetailDefinitionFetchRequest18setDefinitionNamesERK11QStringList @ 594 NONAME
	_ZN10QtMobility36QContactDetailDefinitionFetchRequest19getStaticMetaObjectEv @ 595 NONAME
	_ZN10QtMobility36QContactDetailDefinitionFetchRequest8progressEPS0_b @ 596 NONAME
	_ZN10QtMobility36QContactDetailDefinitionFetchRequest8setNamesERK11QStringList @ 597 NONAME
	_ZN10QtMobility36QContactDetailDefinitionFetchRequestC1Ev @ 598 NONAME
	_ZN10QtMobility36QContactDetailDefinitionFetchRequestC2Ev @ 599 NONAME
	_ZN10QtMobility36QContactDetailDefinitionFetchRequestD0Ev @ 600 NONAME
	_ZN10QtMobility36QContactDetailDefinitionFetchRequestD1Ev @ 601 NONAME
	_ZN10QtMobility36QContactDetailDefinitionFetchRequestD2Ev @ 602 NONAME
	_ZN10QtMobility37QContactDetailDefinitionRemoveRequest11qt_metacallEN11QMetaObject4CallEiPPv @ 603 NONAME
	_ZN10QtMobility37QContactDetailDefinitionRemoveRequest11qt_metacastEPKc @ 604 NONAME
	_ZN10QtMobility37QContactDetailDefinitionRemoveRequest16staticMetaObjectE @ 605 NONAME DATA 16
	_ZN10QtMobility37QContactDetailDefinitionRemoveRequest18setDefinitionNamesERK7QStringRK11QStringList @ 606 NONAME
	_ZN10QtMobility37QContactDetailDefinitionRemoveRequest19getStaticMetaObjectEv @ 607 NONAME
	_ZN10QtMobility37QContactDetailDefinitionRemoveRequest8progressEPS0_ @ 608 NONAME
	_ZN10QtMobility37QContactDetailDefinitionRemoveRequest8setNamesERK11QStringList @ 609 NONAME
	_ZN10QtMobility37QContactDetailDefinitionRemoveRequestC1Ev @ 610 NONAME
	_ZN10QtMobility37QContactDetailDefinitionRemoveRequestC2Ev @ 611 NONAME
	_ZN10QtMobility37QContactDetailDefinitionRemoveRequestD0Ev @ 612 NONAME
	_ZN10QtMobility37QContactDetailDefinitionRemoveRequestD1Ev @ 613 NONAME
	_ZN10QtMobility37QContactDetailDefinitionRemoveRequestD2Ev @ 614 NONAME
	_ZN10QtMobility8QContact10saveDetailEPNS_14QContactDetailE @ 615 NONAME
	_ZN10QtMobility8QContact12clearDetailsEv @ 616 NONAME
	_ZN10QtMobility8QContact12removeDetailEPNS_14QContactDetailE @ 617 NONAME
	_ZN10QtMobility8QContact18setPreferredDetailERK7QStringRKNS_14QContactDetailE @ 618 NONAME
	_ZN10QtMobility8QContact20setRelationshipOrderERK5QListINS_20QContactRelationshipEE @ 619 NONAME
	_ZN10QtMobility8QContact5setIdERKNS_10QContactIdE @ 620 NONAME
	_ZN10QtMobility8QContact7setTypeERK7QString @ 621 NONAME
	_ZN10QtMobility8QContact7setTypeERKNS_12QContactTypeE @ 622 NONAME
	_ZN10QtMobility8QContactC1ERKS0_ @ 623 NONAME
	_ZN10QtMobility8QContactC1Ev @ 624 NONAME
	_ZN10QtMobility8QContactC2ERKS0_ @ 625 NONAME
	_ZN10QtMobility8QContactC2Ev @ 626 NONAME
	_ZN10QtMobility8QContactD1Ev @ 627 NONAME
	_ZN10QtMobility8QContactD2Ev @ 628 NONAME
	_ZN10QtMobility8QContactaSERKS0_ @ 629 NONAME
	_ZN10QtMobilityanERKNS_14QContactFilterES2_ @ 630 NONAME
	_ZN10QtMobilityorERKNS_14QContactFilterES2_ @ 631 NONAME
	_ZNK10QtMobility10QContactId10managerUriEv @ 632 NONAME
	_ZNK10QtMobility10QContactId7localIdEv @ 633 NONAME
	_ZNK10QtMobility10QContactIdeqERKS0_ @ 634 NONAME
	_ZNK10QtMobility10QContactIdneERKS0_ @ 635 NONAME
	_ZNK10QtMobility14QContactAction10metaObjectEv @ 636 NONAME
	_ZNK10QtMobility14QContactAction16supportedDetailsERKNS_8QContactE @ 637 NONAME
	_ZNK10QtMobility14QContactDetail12variantValueERK7QString @ 638 NONAME
	_ZNK10QtMobility14QContactDetail13variantValuesEv @ 639 NONAME
	_ZNK10QtMobility14QContactDetail14definitionNameEv @ 640 NONAME
	_ZNK10QtMobility14QContactDetail16preferredActionsEv @ 641 NONAME
	_ZNK10QtMobility14QContactDetail17accessConstraintsEv @ 642 NONAME
	_ZNK10QtMobility14QContactDetail3keyEv @ 643 NONAME
	_ZNK10QtMobility14QContactDetail5valueERK7QString @ 644 NONAME
	_ZNK10QtMobility14QContactDetail6valuesEv @ 645 NONAME
	_ZNK10QtMobility14QContactDetail7isEmptyEv @ 646 NONAME
	_ZNK10QtMobility14QContactDetail8hasValueERK7QString @ 647 NONAME
	_ZNK10QtMobility14QContactDetaileqERKS0_ @ 648 NONAME
	_ZNK10QtMobility14QContactFilter4typeEv @ 649 NONAME
	_ZNK10QtMobility14QContactFiltereqERKS0_ @ 650 NONAME
	_ZNK10QtMobility15QContactManager10contactIdsERK5QListINS_17QContactSortOrderEE @ 651 NONAME
	_ZNK10QtMobility15QContactManager10contactIdsERKNS_14QContactFilterERK5QListINS_17QContactSortOrderEE @ 652 NONAME
	_ZNK10QtMobility15QContactManager10hasFeatureENS0_14ManagerFeatureERK7QString @ 653 NONAME
	_ZNK10QtMobility15QContactManager10managerUriEv @ 654 NONAME
	_ZNK10QtMobility15QContactManager10metaObjectEv @ 655 NONAME
	_ZNK10QtMobility15QContactManager11managerNameEv @ 656 NONAME
	_ZNK10QtMobility15QContactManager13relationshipsERK7QStringRKNS_10QContactIdENS_26QContactRelationshipFilter4RoleE @ 657 NONAME
	_ZNK10QtMobility15QContactManager13relationshipsERKNS_10QContactIdENS_26QContactRelationshipFilter4RoleE @ 658 NONAME
	_ZNK10QtMobility15QContactManager13selfContactIdEv @ 659 NONAME
	_ZNK10QtMobility15QContactManager14managerVersionEv @ 660 NONAME
	_ZNK10QtMobility15QContactManager15filterSupportedERKNS_14QContactFilterE @ 661 NONAME
	_ZNK10QtMobility15QContactManager16detailDefinitionERK7QStringS3_ @ 662 NONAME
	_ZNK10QtMobility15QContactManager17detailDefinitionsERK7QString @ 663 NONAME
	_ZNK10QtMobility15QContactManager17isFilterSupportedERKNS_14QContactFilterE @ 664 NONAME
	_ZNK10QtMobility15QContactManager17managerParametersEv @ 665 NONAME
	_ZNK10QtMobility15QContactManager18supportedDataTypesEv @ 666 NONAME
	_ZNK10QtMobility15QContactManager21implementationVersionEv @ 667 NONAME
	_ZNK10QtMobility15QContactManager21supportedContactTypesEv @ 668 NONAME
	_ZNK10QtMobility15QContactManager22synthesizeDisplayLabelERKNS_8QContactE @ 669 NONAME
	_ZNK10QtMobility15QContactManager23synthesizedDisplayLabelERKNS_8QContactE @ 670 NONAME
	_ZNK10QtMobility15QContactManager26supportedRelationshipTypesERK7QString @ 671 NONAME
	_ZNK10QtMobility15QContactManager5errorEv @ 672 NONAME
	_ZNK10QtMobility15QContactManager7contactERKjRK11QStringList @ 673 NONAME
	_ZNK10QtMobility15QContactManager8contactsERK5QListINS_17QContactSortOrderEE @ 674 NONAME
	_ZNK10QtMobility15QContactManager8contactsERK5QListINS_17QContactSortOrderEERK11QStringList @ 675 NONAME
	_ZNK10QtMobility15QContactManager8contactsERKNS_14QContactFilterERK5QListINS_17QContactSortOrderEE @ 676 NONAME
	_ZNK10QtMobility15QContactManager8contactsERKNS_14QContactFilterERK5QListINS_17QContactSortOrderEERK11QStringList @ 677 NONAME
	_ZNK10QtMobility17QContactSortOrder11blankPolicyEv @ 678 NONAME
	_ZNK10QtMobility17QContactSortOrder15caseSensitivityEv @ 679 NONAME
	_ZNK10QtMobility17QContactSortOrder15detailFieldNameEv @ 680 NONAME
	_ZNK10QtMobility17QContactSortOrder20detailDefinitionNameEv @ 681 NONAME
	_ZNK10QtMobility17QContactSortOrder7isValidEv @ 682 NONAME
	_ZNK10QtMobility17QContactSortOrder9directionEv @ 683 NONAME
	_ZNK10QtMobility17QContactSortOrdereqERKS0_ @ 684 NONAME
	_ZNK10QtMobility19QContactSaveRequest10metaObjectEv @ 685 NONAME
	_ZNK10QtMobility19QContactSaveRequest8contactsEv @ 686 NONAME
	_ZNK10QtMobility19QContactSaveRequest8errorMapEv @ 687 NONAME
	_ZNK10QtMobility19QContactUnionFilter7filtersEv @ 688 NONAME
	_ZNK10QtMobility20QContactActionFilter10actionNameEv @ 689 NONAME
	_ZNK10QtMobility20QContactActionFilter10vendorNameEv @ 690 NONAME
	_ZNK10QtMobility20QContactActionFilter21implementationVersionEv @ 691 NONAME
	_ZNK10QtMobility20QContactActionFilter5valueEv @ 692 NONAME
	_ZNK10QtMobility20QContactDetailFilter10matchFlagsEv @ 693 NONAME
	_ZNK10QtMobility20QContactDetailFilter15detailFieldNameEv @ 694 NONAME
	_ZNK10QtMobility20QContactDetailFilter20detailDefinitionNameEv @ 695 NONAME
	_ZNK10QtMobility20QContactDetailFilter5valueEv @ 696 NONAME
	_ZNK10QtMobility20QContactFetchRequest10metaObjectEv @ 697 NONAME
	_ZNK10QtMobility20QContactFetchRequest22definitionRestrictionsEv @ 698 NONAME
	_ZNK10QtMobility20QContactFetchRequest6filterEv @ 699 NONAME
	_ZNK10QtMobility20QContactFetchRequest7sortingEv @ 700 NONAME
	_ZNK10QtMobility20QContactFetchRequest8contactsEv @ 701 NONAME
	_ZNK10QtMobility20QContactMemoryEngine10contactIdsERK5QListINS_17QContactSortOrderEERNS_15QContactManager5ErrorE @ 702 NONAME
	_ZNK10QtMobility20QContactMemoryEngine10hasFeatureENS_15QContactManager14ManagerFeatureERK7QString @ 703 NONAME
	_ZNK10QtMobility20QContactMemoryEngine10metaObjectEv @ 704 NONAME
	_ZNK10QtMobility20QContactMemoryEngine11managerNameEv @ 705 NONAME
	_ZNK10QtMobility20QContactMemoryEngine13relationshipsERK7QStringRKNS_10QContactIdENS_26QContactRelationshipFilter4RoleERNS_15QContactManager5ErrorE @ 706 NONAME
	_ZNK10QtMobility20QContactMemoryEngine13selfContactIdERNS_15QContactManager5ErrorE @ 707 NONAME
	_ZNK10QtMobility20QContactMemoryEngine15filterSupportedERKNS_14QContactFilterE @ 708 NONAME
	_ZNK10QtMobility20QContactMemoryEngine17detailDefinitionsERK7QStringRNS_15QContactManager5ErrorE @ 709 NONAME
	_ZNK10QtMobility20QContactMemoryEngine17managerParametersEv @ 710 NONAME
	_ZNK10QtMobility20QContactMemoryEngine18supportedDataTypesEv @ 711 NONAME
	_ZNK10QtMobility20QContactMemoryEngine21implementationVersionEv @ 712 NONAME
	_ZNK10QtMobility20QContactMemoryEngine26supportedRelationshipTypesERK7QString @ 713 NONAME
	_ZNK10QtMobility20QContactMemoryEngine7contactERKjRK11QStringListRNS_15QContactManager5ErrorE @ 714 NONAME
	_ZNK10QtMobility20QContactMemoryEngine7contactERKjRNS_15QContactManager5ErrorE @ 715 NONAME
	_ZNK10QtMobility20QContactMemoryEngine8contactsERK5QListINS_17QContactSortOrderEERK11QStringListRNS_15QContactManager5ErrorE @ 716 NONAME
	_ZNK10QtMobility20QContactMemoryEngine8contactsERK5QListINS_17QContactSortOrderEERNS_15QContactManager5ErrorE @ 717 NONAME
	_ZNK10QtMobility20QContactRelationship16relationshipTypeEv @ 718 NONAME
	_ZNK10QtMobility20QContactRelationship5firstEv @ 719 NONAME
	_ZNK10QtMobility20QContactRelationship6secondEv @ 720 NONAME
	_ZNK10QtMobility20QContactRelationshipeqERKS0_ @ 721 NONAME
	_ZNK10QtMobility21QContactActionFactory10metaObjectEv @ 722 NONAME
	_ZNK10QtMobility21QContactLocalIdFilter3idsEv @ 723 NONAME
	_ZNK10QtMobility21QContactManagerEngine10contactIdsERK5QListINS_17QContactSortOrderEERNS_15QContactManager5ErrorE @ 724 NONAME
	_ZNK10QtMobility21QContactManagerEngine10contactIdsERKNS_14QContactFilterERK5QListINS_17QContactSortOrderEERNS_15QContactManager5ErrorE @ 725 NONAME
	_ZNK10QtMobility21QContactManagerEngine10hasFeatureENS_15QContactManager14ManagerFeatureERK7QString @ 726 NONAME
	_ZNK10QtMobility21QContactManagerEngine10managerUriEv @ 727 NONAME
	_ZNK10QtMobility21QContactManagerEngine10metaObjectEv @ 728 NONAME
	_ZNK10QtMobility21QContactManagerEngine11managerNameEv @ 729 NONAME
	_ZNK10QtMobility21QContactManagerEngine13relationshipsERK7QStringRKNS_10QContactIdENS_26QContactRelationshipFilter4RoleERNS_15QContactManager5ErrorE @ 730 NONAME
	_ZNK10QtMobility21QContactManagerEngine13selfContactIdERNS_15QContactManager5ErrorE @ 731 NONAME
	_ZNK10QtMobility21QContactManagerEngine14managerVersionEv @ 732 NONAME
	_ZNK10QtMobility21QContactManagerEngine15filterSupportedERKNS_14QContactFilterE @ 733 NONAME
	_ZNK10QtMobility21QContactManagerEngine15validateContactERKNS_8QContactERNS_15QContactManager5ErrorE @ 734 NONAME
	_ZNK10QtMobility21QContactManagerEngine16detailDefinitionERK7QStringS3_RNS_15QContactManager5ErrorE @ 735 NONAME
	_ZNK10QtMobility21QContactManagerEngine17detailDefinitionsERK7QStringRNS_15QContactManager5ErrorE @ 736 NONAME
	_ZNK10QtMobility21QContactManagerEngine17isFilterSupportedERKNS_14QContactFilterE @ 737 NONAME
	_ZNK10QtMobility21QContactManagerEngine17managerParametersEv @ 738 NONAME
	_ZNK10QtMobility21QContactManagerEngine18supportedDataTypesEv @ 739 NONAME
	_ZNK10QtMobility21QContactManagerEngine18validateDefinitionERKNS_24QContactDetailDefinitionERNS_15QContactManager5ErrorE @ 740 NONAME
	_ZNK10QtMobility21QContactManagerEngine21implementationVersionEv @ 741 NONAME
	_ZNK10QtMobility21QContactManagerEngine21supportedContactTypesEv @ 742 NONAME
	_ZNK10QtMobility21QContactManagerEngine22setContactDisplayLabelERK7QStringRKNS_8QContactE @ 743 NONAME
	_ZNK10QtMobility21QContactManagerEngine22synthesizeDisplayLabelERKNS_8QContactERNS_15QContactManager5ErrorE @ 744 NONAME
	_ZNK10QtMobility21QContactManagerEngine23synthesizedDisplayLabelERKNS_8QContactERNS_15QContactManager5ErrorE @ 745 NONAME
	_ZNK10QtMobility21QContactManagerEngine26setDetailAccessConstraintsEPNS_14QContactDetailE6QFlagsINS1_16AccessConstraintEE @ 746 NONAME
	_ZNK10QtMobility21QContactManagerEngine26supportedRelationshipTypesERK7QString @ 747 NONAME
	_ZNK10QtMobility21QContactManagerEngine7contactERKjRK11QStringListRNS_15QContactManager5ErrorE @ 748 NONAME
	_ZNK10QtMobility21QContactManagerEngine7contactERKjRNS_15QContactManager5ErrorE @ 749 NONAME
	_ZNK10QtMobility21QContactManagerEngine8contactsERK5QListINS_17QContactSortOrderEERK11QStringListRNS_15QContactManager5ErrorE @ 750 NONAME
	_ZNK10QtMobility21QContactManagerEngine8contactsERK5QListINS_17QContactSortOrderEERNS_15QContactManager5ErrorE @ 751 NONAME
	_ZNK10QtMobility21QContactManagerEngine8contactsERKNS_14QContactFilterERK5QListINS_17QContactSortOrderEERK11QStringListRNS_15QContactManager5ErrorE @ 752 NONAME
	_ZNK10QtMobility21QContactManagerEngine8contactsERKNS_14QContactFilterERK5QListINS_17QContactSortOrderEERNS_15QContactManager5ErrorE @ 753 NONAME
	_ZNK10QtMobility21QContactRemoveRequest10contactIdsEv @ 754 NONAME
	_ZNK10QtMobility21QContactRemoveRequest10metaObjectEv @ 755 NONAME
	_ZNK10QtMobility21QContactRemoveRequest6filterEv @ 756 NONAME
	_ZNK10QtMobility21QContactRemoveRequest8errorMapEv @ 757 NONAME
	_ZNK10QtMobility23QContactAbstractRequest10isCanceledEv @ 758 NONAME
	_ZNK10QtMobility23QContactAbstractRequest10isFinishedEv @ 759 NONAME
	_ZNK10QtMobility23QContactAbstractRequest10isInactiveEv @ 760 NONAME
	_ZNK10QtMobility23QContactAbstractRequest10metaObjectEv @ 761 NONAME
	_ZNK10QtMobility23QContactAbstractRequest4typeEv @ 762 NONAME
	_ZNK10QtMobility23QContactAbstractRequest5errorEv @ 763 NONAME
	_ZNK10QtMobility23QContactAbstractRequest5stateEv @ 764 NONAME
	_ZNK10QtMobility23QContactAbstractRequest6errorsEv @ 765 NONAME
	_ZNK10QtMobility23QContactAbstractRequest6statusEv @ 766 NONAME
	_ZNK10QtMobility23QContactAbstractRequest7managerEv @ 767 NONAME
	_ZNK10QtMobility23QContactAbstractRequest8isActiveEv @ 768 NONAME
	_ZNK10QtMobility23QContactChangeLogFilter5sinceEv @ 769 NONAME
	_ZNK10QtMobility23QContactChangeLogFilter9eventTypeEv @ 770 NONAME
	_ZNK10QtMobility24QContactActionDescriptor10actionNameEv @ 771 NONAME
	_ZNK10QtMobility24QContactActionDescriptor10vendorNameEv @ 772 NONAME
	_ZNK10QtMobility24QContactActionDescriptor21implementationVersionEv @ 773 NONAME
	_ZNK10QtMobility24QContactActionDescriptor7isEmptyEv @ 774 NONAME
	_ZNK10QtMobility24QContactActionDescriptoreqERKS0_ @ 775 NONAME
	_ZNK10QtMobility24QContactActionDescriptorneERKS0_ @ 776 NONAME
	_ZNK10QtMobility24QContactDetailDefinition16accessConstraintEv @ 777 NONAME
	_ZNK10QtMobility24QContactDetailDefinition4nameEv @ 778 NONAME
	_ZNK10QtMobility24QContactDetailDefinition6fieldsEv @ 779 NONAME
	_ZNK10QtMobility24QContactDetailDefinition7isEmptyEv @ 780 NONAME
	_ZNK10QtMobility24QContactDetailDefinition8isUniqueEv @ 781 NONAME
	_ZNK10QtMobility24QContactDetailDefinitioneqERKS0_ @ 782 NONAME
	_ZNK10QtMobility25QContactDetailRangeFilter10matchFlagsEv @ 783 NONAME
	_ZNK10QtMobility25QContactDetailRangeFilter10rangeFlagsEv @ 784 NONAME
	_ZNK10QtMobility25QContactDetailRangeFilter15detailFieldNameEv @ 785 NONAME
	_ZNK10QtMobility25QContactDetailRangeFilter20detailDefinitionNameEv @ 786 NONAME
	_ZNK10QtMobility25QContactDetailRangeFilter8maxValueEv @ 787 NONAME
	_ZNK10QtMobility25QContactDetailRangeFilter8minValueEv @ 788 NONAME
	_ZNK10QtMobility26QContactIntersectionFilter7filtersEv @ 789 NONAME
	_ZNK10QtMobility26QContactRelationshipFilter16relatedContactIdEv @ 790 NONAME
	_ZNK10QtMobility26QContactRelationshipFilter16relationshipTypeEv @ 791 NONAME
	_ZNK10QtMobility26QContactRelationshipFilter18otherParticipantIdEv @ 792 NONAME
	_ZNK10QtMobility26QContactRelationshipFilter18relatedContactRoleEv @ 793 NONAME
	_ZNK10QtMobility26QContactRelationshipFilter4roleEv @ 794 NONAME
	_ZNK10QtMobility27QContactLocalIdFetchRequest10metaObjectEv @ 795 NONAME
	_ZNK10QtMobility27QContactLocalIdFetchRequest3idsEv @ 796 NONAME
	_ZNK10QtMobility27QContactLocalIdFetchRequest6filterEv @ 797 NONAME
	_ZNK10QtMobility27QContactLocalIdFetchRequest7sortingEv @ 798 NONAME
	_ZNK10QtMobility29QContactDetailFieldDefinition15allowableValuesEv @ 799 NONAME
	_ZNK10QtMobility29QContactDetailFieldDefinition16accessConstraintEv @ 800 NONAME
	_ZNK10QtMobility29QContactDetailFieldDefinition8dataTypeEv @ 801 NONAME
	_ZNK10QtMobility29QContactDetailFieldDefinitioneqERKS0_ @ 802 NONAME
	_ZNK10QtMobility29QContactDetailFieldDefinitionneERKS0_ @ 803 NONAME
	_ZNK10QtMobility31QContactRelationshipSaveRequest10metaObjectEv @ 804 NONAME
	_ZNK10QtMobility31QContactRelationshipSaveRequest13relationshipsEv @ 805 NONAME
	_ZNK10QtMobility31QContactRelationshipSaveRequest8errorMapEv @ 806 NONAME
	_ZNK10QtMobility32QContactRelationshipFetchRequest10metaObjectEv @ 807 NONAME
	_ZNK10QtMobility32QContactRelationshipFetchRequest11participantEv @ 808 NONAME
	_ZNK10QtMobility32QContactRelationshipFetchRequest13relationshipsEv @ 809 NONAME
	_ZNK10QtMobility32QContactRelationshipFetchRequest15participantRoleEv @ 810 NONAME
	_ZNK10QtMobility32QContactRelationshipFetchRequest16relationshipTypeEv @ 811 NONAME
	_ZNK10QtMobility32QContactRelationshipFetchRequest5firstEv @ 812 NONAME
	_ZNK10QtMobility32QContactRelationshipFetchRequest6secondEv @ 813 NONAME
	_ZNK10QtMobility33QContactRelationshipRemoveRequest10metaObjectEv @ 814 NONAME
	_ZNK10QtMobility33QContactRelationshipRemoveRequest13relationshipsEv @ 815 NONAME
	_ZNK10QtMobility33QContactRelationshipRemoveRequest16relationshipTypeEv @ 816 NONAME
	_ZNK10QtMobility33QContactRelationshipRemoveRequest5firstEv @ 817 NONAME
	_ZNK10QtMobility33QContactRelationshipRemoveRequest6secondEv @ 818 NONAME
	_ZNK10QtMobility33QContactRelationshipRemoveRequest8errorMapEv @ 819 NONAME
	_ZNK10QtMobility35QContactDetailDefinitionSaveRequest10metaObjectEv @ 820 NONAME
	_ZNK10QtMobility35QContactDetailDefinitionSaveRequest11contactTypeEv @ 821 NONAME
	_ZNK10QtMobility35QContactDetailDefinitionSaveRequest11definitionsEv @ 822 NONAME
	_ZNK10QtMobility35QContactDetailDefinitionSaveRequest8errorMapEv @ 823 NONAME
	_ZNK10QtMobility36QContactDetailDefinitionFetchRequest10metaObjectEv @ 824 NONAME
	_ZNK10QtMobility36QContactDetailDefinitionFetchRequest11contactTypeEv @ 825 NONAME
	_ZNK10QtMobility36QContactDetailDefinitionFetchRequest11definitionsEv @ 826 NONAME
	_ZNK10QtMobility36QContactDetailDefinitionFetchRequest15definitionNamesEv @ 827 NONAME
	_ZNK10QtMobility36QContactDetailDefinitionFetchRequest5namesEv @ 828 NONAME
	_ZNK10QtMobility36QContactDetailDefinitionFetchRequest8errorMapEv @ 829 NONAME
	_ZNK10QtMobility37QContactDetailDefinitionRemoveRequest10metaObjectEv @ 830 NONAME
	_ZNK10QtMobility37QContactDetailDefinitionRemoveRequest11contactTypeEv @ 831 NONAME
	_ZNK10QtMobility37QContactDetailDefinitionRemoveRequest15definitionNamesEv @ 832 NONAME
	_ZNK10QtMobility37QContactDetailDefinitionRemoveRequest5namesEv @ 833 NONAME
	_ZNK10QtMobility37QContactDetailDefinitionRemoveRequest8errorMapEv @ 834 NONAME
	_ZNK10QtMobility8QContact12displayLabelEv @ 835 NONAME
	_ZNK10QtMobility8QContact13relationshipsERK7QString @ 836 NONAME
	_ZNK10QtMobility8QContact15preferredDetailERK7QString @ 837 NONAME
	_ZNK10QtMobility8QContact15relatedContactsERK7QStringNS_26QContactRelationshipFilter4RoleE @ 838 NONAME
	_ZNK10QtMobility8QContact16availableActionsERK7QStringi @ 839 NONAME
	_ZNK10QtMobility8QContact16detailWithActionERK7QString @ 840 NONAME
	_ZNK10QtMobility8QContact17detailsWithActionERK7QString @ 841 NONAME
	_ZNK10QtMobility8QContact17isPreferredDetailERK7QStringRKNS_14QContactDetailE @ 842 NONAME
	_ZNK10QtMobility8QContact17relationshipOrderEv @ 843 NONAME
	_ZNK10QtMobility8QContact2idEv @ 844 NONAME
	_ZNK10QtMobility8QContact4typeEv @ 845 NONAME
	_ZNK10QtMobility8QContact6detailERK7QString @ 846 NONAME
	_ZNK10QtMobility8QContact7detailsERK7QString @ 847 NONAME
	_ZNK10QtMobility8QContact7detailsERK7QStringS3_S3_ @ 848 NONAME
	_ZNK10QtMobility8QContact7isEmptyEv @ 849 NONAME
	_ZNK10QtMobility8QContact7localIdEv @ 850 NONAME
	_ZNK10QtMobility8QContacteqERKS0_ @ 851 NONAME
	_ZTIN10QtMobility12QContactNameE @ 852 NONAME ; #<TI>#
	_ZTIN10QtMobility12QContactTypeE @ 853 NONAME ; #<TI>#
	_ZTIN10QtMobility14QContactActionE @ 854 NONAME ; #<TI>#
	_ZTIN10QtMobility14QContactDetailE @ 855 NONAME ; #<TI>#
	_ZTIN10QtMobility14QContactFilterE @ 856 NONAME ; #<TI>#
	_ZTIN10QtMobility15QContactManagerE @ 857 NONAME ; #<TI>#
	_ZTIN10QtMobility17QContactTimestampE @ 858 NONAME ; #<TI>#
	_ZTIN10QtMobility19QContactSaveRequestE @ 859 NONAME ; #<TI>#
	_ZTIN10QtMobility19QContactUnionFilterE @ 860 NONAME ; #<TI>#
	_ZTIN10QtMobility20QContactActionFilterE @ 861 NONAME ; #<TI>#
	_ZTIN10QtMobility20QContactDetailFilterE @ 862 NONAME ; #<TI>#
	_ZTIN10QtMobility20QContactDisplayLabelE @ 863 NONAME ; #<TI>#
	_ZTIN10QtMobility20QContactFetchRequestE @ 864 NONAME ; #<TI>#
	_ZTIN10QtMobility20QContactMemoryEngineE @ 865 NONAME ; #<TI>#
	_ZTIN10QtMobility20QContactOrganizationE @ 866 NONAME ; #<TI>#
	_ZTIN10QtMobility21QContactActionFactoryE @ 867 NONAME ; #<TI>#
	_ZTIN10QtMobility21QContactInvalidFilterE @ 868 NONAME ; #<TI>#
	_ZTIN10QtMobility21QContactLocalIdFilterE @ 869 NONAME ; #<TI>#
	_ZTIN10QtMobility21QContactManagerEngineE @ 870 NONAME ; #<TI>#
	_ZTIN10QtMobility21QContactRemoveRequestE @ 871 NONAME ; #<TI>#
	_ZTIN10QtMobility23QContactAbstractRequestE @ 872 NONAME ; #<TI>#
	_ZTIN10QtMobility23QContactChangeLogFilterE @ 873 NONAME ; #<TI>#
	_ZTIN10QtMobility25QContactDetailRangeFilterE @ 874 NONAME ; #<TI>#
	_ZTIN10QtMobility26QContactIntersectionFilterE @ 875 NONAME ; #<TI>#
	_ZTIN10QtMobility26QContactRelationshipFilterE @ 876 NONAME ; #<TI>#
	_ZTIN10QtMobility27QContactLocalIdFetchRequestE @ 877 NONAME ; #<TI>#
	_ZTIN10QtMobility31QContactRelationshipSaveRequestE @ 878 NONAME ; #<TI>#
	_ZTIN10QtMobility32QContactRelationshipFetchRequestE @ 879 NONAME ; #<TI>#
	_ZTIN10QtMobility33QContactRelationshipRemoveRequestE @ 880 NONAME ; #<TI>#
	_ZTIN10QtMobility35QContactDetailDefinitionSaveRequestE @ 881 NONAME ; #<TI>#
	_ZTIN10QtMobility36QContactDetailDefinitionFetchRequestE @ 882 NONAME ; #<TI>#
	_ZTIN10QtMobility37QContactDetailDefinitionRemoveRequestE @ 883 NONAME ; #<TI>#
	_ZTVN10QtMobility12QContactNameE @ 884 NONAME ; #<VT>#
	_ZTVN10QtMobility12QContactTypeE @ 885 NONAME ; #<VT>#
	_ZTVN10QtMobility14QContactActionE @ 886 NONAME ; #<VT>#
	_ZTVN10QtMobility14QContactDetailE @ 887 NONAME ; #<VT>#
	_ZTVN10QtMobility14QContactFilterE @ 888 NONAME ; #<VT>#
	_ZTVN10QtMobility15QContactManagerE @ 889 NONAME ; #<VT>#
	_ZTVN10QtMobility17QContactTimestampE @ 890 NONAME ; #<VT>#
	_ZTVN10QtMobility19QContactSaveRequestE @ 891 NONAME ; #<VT>#
	_ZTVN10QtMobility19QContactUnionFilterE @ 892 NONAME ; #<VT>#
	_ZTVN10QtMobility20QContactActionFilterE @ 893 NONAME ; #<VT>#
	_ZTVN10QtMobility20QContactDetailFilterE @ 894 NONAME ; #<VT>#
	_ZTVN10QtMobility20QContactDisplayLabelE @ 895 NONAME ; #<VT>#
	_ZTVN10QtMobility20QContactFetchRequestE @ 896 NONAME ; #<VT>#
	_ZTVN10QtMobility20QContactMemoryEngineE @ 897 NONAME ; #<VT>#
	_ZTVN10QtMobility20QContactOrganizationE @ 898 NONAME ; #<VT>#
	_ZTVN10QtMobility21QContactActionFactoryE @ 899 NONAME ; #<VT>#
	_ZTVN10QtMobility21QContactInvalidFilterE @ 900 NONAME ; #<VT>#
	_ZTVN10QtMobility21QContactLocalIdFilterE @ 901 NONAME ; #<VT>#
	_ZTVN10QtMobility21QContactManagerEngineE @ 902 NONAME ; #<VT>#
	_ZTVN10QtMobility21QContactRemoveRequestE @ 903 NONAME ; #<VT>#
	_ZTVN10QtMobility23QContactAbstractRequestE @ 904 NONAME ; #<VT>#
	_ZTVN10QtMobility23QContactChangeLogFilterE @ 905 NONAME ; #<VT>#
	_ZTVN10QtMobility25QContactDetailRangeFilterE @ 906 NONAME ; #<VT>#
	_ZTVN10QtMobility26QContactIntersectionFilterE @ 907 NONAME ; #<VT>#
	_ZTVN10QtMobility26QContactRelationshipFilterE @ 908 NONAME ; #<VT>#
	_ZTVN10QtMobility27QContactLocalIdFetchRequestE @ 909 NONAME ; #<VT>#
	_ZTVN10QtMobility31QContactRelationshipSaveRequestE @ 910 NONAME ; #<VT>#
	_ZTVN10QtMobility32QContactRelationshipFetchRequestE @ 911 NONAME ; #<VT>#
	_ZTVN10QtMobility33QContactRelationshipRemoveRequestE @ 912 NONAME ; #<VT>#
	_ZTVN10QtMobility35QContactDetailDefinitionSaveRequestE @ 913 NONAME ; #<VT>#
	_ZTVN10QtMobility36QContactDetailDefinitionFetchRequestE @ 914 NONAME ; #<VT>#
	_ZTVN10QtMobility37QContactDetailDefinitionRemoveRequestE @ 915 NONAME ; #<VT>#

