EXPORTS
	_ZN10QtMobility15QFeedbackEffect11qt_metacallEN11QMetaObject4CallEiPPv @ 1 NONAME
	_ZN10QtMobility15QFeedbackEffect11qt_metacastEPKc @ 2 NONAME
	_ZN10QtMobility15QFeedbackEffect12stateChangedEv @ 3 NONAME
	_ZN10QtMobility15QFeedbackEffect15playThemeEffectENS0_11ThemeEffectE @ 4 NONAME
	_ZN10QtMobility15QFeedbackEffect16staticMetaObjectE @ 5 NONAME DATA 16
	_ZN10QtMobility15QFeedbackEffect19getStaticMetaObjectEv @ 6 NONAME
	_ZN10QtMobility15QFeedbackEffect19supportsThemeEffectEv @ 7 NONAME
	_ZN10QtMobility15QFeedbackEffect4stopEv @ 8 NONAME
	_ZN10QtMobility15QFeedbackEffect5pauseEv @ 9 NONAME
	_ZN10QtMobility15QFeedbackEffect5startEv @ 10 NONAME
	_ZN10QtMobility15QFeedbackEffectC2EP7QObject @ 11 NONAME
	_ZN10QtMobility17QFeedbackActuator10setEnabledEb @ 12 NONAME
	_ZN10QtMobility17QFeedbackActuator11qt_metacallEN11QMetaObject4CallEiPPv @ 13 NONAME
	_ZN10QtMobility17QFeedbackActuator11qt_metacastEPKc @ 14 NONAME
	_ZN10QtMobility17QFeedbackActuator14enabledChangedEv @ 15 NONAME
	_ZN10QtMobility17QFeedbackActuator16staticMetaObjectE @ 16 NONAME DATA 16
	_ZN10QtMobility17QFeedbackActuator19getStaticMetaObjectEv @ 17 NONAME
	_ZN10QtMobility17QFeedbackActuator9actuatorsEv @ 18 NONAME
	_ZN10QtMobility17QFeedbackActuatorC1EP7QObject @ 19 NONAME
	_ZN10QtMobility17QFeedbackActuatorC1EP7QObjecti @ 20 NONAME
	_ZN10QtMobility17QFeedbackActuatorC2EP7QObject @ 21 NONAME
	_ZN10QtMobility17QFeedbackActuatorC2EP7QObjecti @ 22 NONAME
	_ZN10QtMobility18QFeedbackInterface11reportErrorEPKNS_15QFeedbackEffectENS1_9ErrorTypeE @ 23 NONAME
	_ZN10QtMobility19QFeedbackFileEffect11qt_metacallEN11QMetaObject4CallEiPPv @ 24 NONAME
	_ZN10QtMobility19QFeedbackFileEffect11qt_metacastEPKc @ 25 NONAME
	_ZN10QtMobility19QFeedbackFileEffect16staticMetaObjectE @ 26 NONAME DATA 16
	_ZN10QtMobility19QFeedbackFileEffect18supportedMimeTypesEv @ 27 NONAME
	_ZN10QtMobility19QFeedbackFileEffect19getStaticMetaObjectEv @ 28 NONAME
	_ZN10QtMobility19QFeedbackFileEffect4loadEv @ 29 NONAME
	_ZN10QtMobility19QFeedbackFileEffect6unloadEv @ 30 NONAME
	_ZN10QtMobility19QFeedbackFileEffect8setStateENS_15QFeedbackEffect5StateE @ 31 NONAME
	_ZN10QtMobility19QFeedbackFileEffect9setLoadedEb @ 32 NONAME
	_ZN10QtMobility19QFeedbackFileEffect9setSourceERK4QUrl @ 33 NONAME
	_ZN10QtMobility19QFeedbackFileEffectC1EP7QObject @ 34 NONAME
	_ZN10QtMobility19QFeedbackFileEffectC2EP7QObject @ 35 NONAME
	_ZN10QtMobility19QFeedbackFileEffectD0Ev @ 36 NONAME
	_ZN10QtMobility19QFeedbackFileEffectD1Ev @ 37 NONAME
	_ZN10QtMobility19QFeedbackFileEffectD2Ev @ 38 NONAME
	_ZN10QtMobility22QFeedbackFileInterface18reportLoadFinishedEPNS_19QFeedbackFileEffectEb @ 39 NONAME
	_ZN10QtMobility22QFeedbackFileInterface8instanceEv @ 40 NONAME
	_ZN10QtMobility22QFeedbackHapticsEffect11qt_metacallEN11QMetaObject4CallEiPPv @ 41 NONAME
	_ZN10QtMobility22QFeedbackHapticsEffect11qt_metacastEPKc @ 42 NONAME
	_ZN10QtMobility22QFeedbackHapticsEffect11setActuatorEPNS_17QFeedbackActuatorE @ 43 NONAME
	_ZN10QtMobility22QFeedbackHapticsEffect11setDurationEi @ 44 NONAME
	_ZN10QtMobility22QFeedbackHapticsEffect11setFadeTimeEi @ 45 NONAME
	_ZN10QtMobility22QFeedbackHapticsEffect12setIntensityEf @ 46 NONAME
	_ZN10QtMobility22QFeedbackHapticsEffect13setAttackTimeEi @ 47 NONAME
	_ZN10QtMobility22QFeedbackHapticsEffect16setFadeIntensityEf @ 48 NONAME
	_ZN10QtMobility22QFeedbackHapticsEffect16staticMetaObjectE @ 49 NONAME DATA 16
	_ZN10QtMobility22QFeedbackHapticsEffect18setAttackIntensityEf @ 50 NONAME
	_ZN10QtMobility22QFeedbackHapticsEffect19getStaticMetaObjectEv @ 51 NONAME
	_ZN10QtMobility22QFeedbackHapticsEffect8setStateENS_15QFeedbackEffect5StateE @ 52 NONAME
	_ZN10QtMobility22QFeedbackHapticsEffect9setPeriodEi @ 53 NONAME
	_ZN10QtMobility22QFeedbackHapticsEffectC1EP7QObject @ 54 NONAME
	_ZN10QtMobility22QFeedbackHapticsEffectC2EP7QObject @ 55 NONAME
	_ZN10QtMobility22QFeedbackHapticsEffectD0Ev @ 56 NONAME
	_ZN10QtMobility22QFeedbackHapticsEffectD1Ev @ 57 NONAME
	_ZN10QtMobility22QFeedbackHapticsEffectD2Ev @ 58 NONAME
	_ZN10QtMobility25QFeedbackHapticsInterface22createFeedbackActuatorEP7QObjecti @ 59 NONAME
	_ZN10QtMobility25QFeedbackHapticsInterface8instanceEv @ 60 NONAME
	_ZNK10QtMobility15QFeedbackEffect10metaObjectEv @ 61 NONAME
	_ZNK10QtMobility15QFeedbackEffect5errorENS0_9ErrorTypeE @ 62 NONAME
	_ZNK10QtMobility17QFeedbackActuator10metaObjectEv @ 63 NONAME
	_ZNK10QtMobility17QFeedbackActuator21isCapabilitySupportedENS0_10CapabilityE @ 64 NONAME
	_ZNK10QtMobility17QFeedbackActuator2idEv @ 65 NONAME
	_ZNK10QtMobility17QFeedbackActuator4nameEv @ 66 NONAME
	_ZNK10QtMobility17QFeedbackActuator5stateEv @ 67 NONAME
	_ZNK10QtMobility17QFeedbackActuator7isValidEv @ 68 NONAME
	_ZNK10QtMobility17QFeedbackActuator9isEnabledEv @ 69 NONAME
	_ZNK10QtMobility17QFeedbackActuatoreqERKS0_ @ 70 NONAME
	_ZNK10QtMobility19QFeedbackFileEffect10metaObjectEv @ 71 NONAME
	_ZNK10QtMobility19QFeedbackFileEffect5stateEv @ 72 NONAME
	_ZNK10QtMobility19QFeedbackFileEffect6sourceEv @ 73 NONAME
	_ZNK10QtMobility19QFeedbackFileEffect8durationEv @ 74 NONAME
	_ZNK10QtMobility19QFeedbackFileEffect8isLoadedEv @ 75 NONAME
	_ZNK10QtMobility22QFeedbackHapticsEffect10attackTimeEv @ 76 NONAME
	_ZNK10QtMobility22QFeedbackHapticsEffect10metaObjectEv @ 77 NONAME
	_ZNK10QtMobility22QFeedbackHapticsEffect13fadeIntensityEv @ 78 NONAME
	_ZNK10QtMobility22QFeedbackHapticsEffect15attackIntensityEv @ 79 NONAME
	_ZNK10QtMobility22QFeedbackHapticsEffect5stateEv @ 80 NONAME
	_ZNK10QtMobility22QFeedbackHapticsEffect6periodEv @ 81 NONAME
	_ZNK10QtMobility22QFeedbackHapticsEffect8actuatorEv @ 82 NONAME
	_ZNK10QtMobility22QFeedbackHapticsEffect8durationEv @ 83 NONAME
	_ZNK10QtMobility22QFeedbackHapticsEffect8fadeTimeEv @ 84 NONAME
	_ZNK10QtMobility22QFeedbackHapticsEffect9intensityEv @ 85 NONAME
	_ZTIN10QtMobility15QFeedbackEffectE @ 86 NONAME
	_ZTIN10QtMobility17QFeedbackActuatorE @ 87 NONAME
	_ZTIN10QtMobility18QFeedbackInterfaceE @ 88 NONAME
	_ZTIN10QtMobility19QFeedbackFileEffectE @ 89 NONAME
	_ZTIN10QtMobility22QFeedbackFileInterfaceE @ 90 NONAME
	_ZTIN10QtMobility22QFeedbackHapticsEffectE @ 91 NONAME
	_ZTIN10QtMobility25QFeedbackHapticsInterfaceE @ 92 NONAME
	_ZTVN10QtMobility15QFeedbackEffectE @ 93 NONAME
	_ZTVN10QtMobility17QFeedbackActuatorE @ 94 NONAME
	_ZTVN10QtMobility19QFeedbackFileEffectE @ 95 NONAME
	_ZTVN10QtMobility22QFeedbackHapticsEffectE @ 96 NONAME

