EXPORTS
	_ZN10QtMobility14QGeoCoordinate11setAltitudeEd @ 1 NONAME
	_ZN10QtMobility14QGeoCoordinate11setLatitudeEd @ 2 NONAME
	_ZN10QtMobility14QGeoCoordinate12setLongitudeEd @ 3 NONAME
	_ZN10QtMobility14QGeoCoordinateC1ERKS0_ @ 4 NONAME
	_ZN10QtMobility14QGeoCoordinateC1Edd @ 5 NONAME
	_ZN10QtMobility14QGeoCoordinateC1Eddd @ 6 NONAME
	_ZN10QtMobility14QGeoCoordinateC1Ev @ 7 NONAME
	_ZN10QtMobility14QGeoCoordinateC2ERKS0_ @ 8 NONAME
	_ZN10QtMobility14QGeoCoordinateC2Edd @ 9 NONAME
	_ZN10QtMobility14QGeoCoordinateC2Eddd @ 10 NONAME
	_ZN10QtMobility14QGeoCoordinateC2Ev @ 11 NONAME
	_ZN10QtMobility14QGeoCoordinateD1Ev @ 12 NONAME
	_ZN10QtMobility14QGeoCoordinateD2Ev @ 13 NONAME
	_ZN10QtMobility14QGeoCoordinateaSERKS0_ @ 14 NONAME
	_ZN10QtMobility15QGeoAreaMonitor10areaExitedERKNS_16QGeoPositionInfoE @ 15 NONAME
	_ZN10QtMobility15QGeoAreaMonitor11areaEnteredERKNS_16QGeoPositionInfoE @ 16 NONAME
	_ZN10QtMobility15QGeoAreaMonitor11qt_metacallEN11QMetaObject4CallEiPPv @ 17 NONAME
	_ZN10QtMobility15QGeoAreaMonitor11qt_metacastEPKc @ 18 NONAME
	_ZN10QtMobility15QGeoAreaMonitor16staticMetaObjectE @ 19 NONAME DATA 16
	_ZN10QtMobility15QGeoAreaMonitor19getStaticMetaObjectEv @ 20 NONAME
	_ZN10QtMobility15QGeoAreaMonitor20createDefaultMonitorEP7QObject @ 21 NONAME
	_ZN10QtMobility15QGeoAreaMonitor9setCenterERKNS_14QGeoCoordinateE @ 22 NONAME
	_ZN10QtMobility15QGeoAreaMonitor9setRadiusEf @ 23 NONAME
	_ZN10QtMobility15QGeoAreaMonitorC2EP7QObject @ 24 NONAME
	_ZN10QtMobility15QGeoAreaMonitorD0Ev @ 25 NONAME
	_ZN10QtMobility15QGeoAreaMonitorD1Ev @ 26 NONAME
	_ZN10QtMobility15QGeoAreaMonitorD2Ev @ 27 NONAME
	_ZN10QtMobility16QGeoPositionInfo12setAttributeENS0_9AttributeEf @ 28 NONAME
	_ZN10QtMobility16QGeoPositionInfo12setTimestampERK9QDateTime @ 29 NONAME
	_ZN10QtMobility16QGeoPositionInfo13setCoordinateERKNS_14QGeoCoordinateE @ 30 NONAME
	_ZN10QtMobility16QGeoPositionInfo15removeAttributeENS0_9AttributeE @ 31 NONAME
	_ZN10QtMobility16QGeoPositionInfoC1ERKNS_14QGeoCoordinateERK9QDateTime @ 32 NONAME
	_ZN10QtMobility16QGeoPositionInfoC1ERKS0_ @ 33 NONAME
	_ZN10QtMobility16QGeoPositionInfoC1Ev @ 34 NONAME
	_ZN10QtMobility16QGeoPositionInfoC2ERKNS_14QGeoCoordinateERK9QDateTime @ 35 NONAME
	_ZN10QtMobility16QGeoPositionInfoC2ERKS0_ @ 36 NONAME
	_ZN10QtMobility16QGeoPositionInfoC2Ev @ 37 NONAME
	_ZN10QtMobility16QGeoPositionInfoD1Ev @ 38 NONAME
	_ZN10QtMobility16QGeoPositionInfoD2Ev @ 39 NONAME
	_ZN10QtMobility16QGeoPositionInfoaSERKS0_ @ 40 NONAME
	_ZN10QtMobility17QGeoSatelliteInfo12setAttributeENS0_9AttributeEf @ 41 NONAME
	_ZN10QtMobility17QGeoSatelliteInfo12setPrnNumberEi @ 42 NONAME
	_ZN10QtMobility17QGeoSatelliteInfo15removeAttributeENS0_9AttributeE @ 43 NONAME
	_ZN10QtMobility17QGeoSatelliteInfo17setSignalStrengthEi @ 44 NONAME
	_ZN10QtMobility17QGeoSatelliteInfoC1ERKS0_ @ 45 NONAME
	_ZN10QtMobility17QGeoSatelliteInfoC1Ev @ 46 NONAME
	_ZN10QtMobility17QGeoSatelliteInfoC2ERKS0_ @ 47 NONAME
	_ZN10QtMobility17QGeoSatelliteInfoC2Ev @ 48 NONAME
	_ZN10QtMobility17QGeoSatelliteInfoD1Ev @ 49 NONAME
	_ZN10QtMobility17QGeoSatelliteInfoD2Ev @ 50 NONAME
	_ZN10QtMobility17QGeoSatelliteInfoaSERKS0_ @ 51 NONAME
	_ZN10QtMobility22QGeoPositionInfoSource11qt_metacallEN11QMetaObject4CallEiPPv @ 52 NONAME
	_ZN10QtMobility22QGeoPositionInfoSource11qt_metacastEPKc @ 53 NONAME
	_ZN10QtMobility22QGeoPositionInfoSource13updateTimeoutEv @ 54 NONAME
	_ZN10QtMobility22QGeoPositionInfoSource15positionUpdatedERKNS_16QGeoPositionInfoE @ 55 NONAME
	_ZN10QtMobility22QGeoPositionInfoSource16staticMetaObjectE @ 56 NONAME DATA 16
	_ZN10QtMobility22QGeoPositionInfoSource17setUpdateIntervalEi @ 57 NONAME
	_ZN10QtMobility22QGeoPositionInfoSource19createDefaultSourceEP7QObject @ 58 NONAME
	_ZN10QtMobility22QGeoPositionInfoSource19getStaticMetaObjectEv @ 59 NONAME
	_ZN10QtMobility22QGeoPositionInfoSource30setPreferredPositioningMethodsE6QFlagsINS0_17PositioningMethodEE @ 60 NONAME
	_ZN10QtMobility22QGeoPositionInfoSourceC2EP7QObject @ 61 NONAME
	_ZN10QtMobility22QGeoPositionInfoSourceD0Ev @ 62 NONAME
	_ZN10QtMobility22QGeoPositionInfoSourceD1Ev @ 63 NONAME
	_ZN10QtMobility22QGeoPositionInfoSourceD2Ev @ 64 NONAME
	_ZN10QtMobility23QGeoSatelliteInfoSource11qt_metacallEN11QMetaObject4CallEiPPv @ 65 NONAME
	_ZN10QtMobility23QGeoSatelliteInfoSource11qt_metacastEPKc @ 66 NONAME
	_ZN10QtMobility23QGeoSatelliteInfoSource14requestTimeoutEv @ 67 NONAME
	_ZN10QtMobility23QGeoSatelliteInfoSource16staticMetaObjectE @ 68 NONAME DATA 16
	_ZN10QtMobility23QGeoSatelliteInfoSource19createDefaultSourceEP7QObject @ 69 NONAME
	_ZN10QtMobility23QGeoSatelliteInfoSource19getStaticMetaObjectEv @ 70 NONAME
	_ZN10QtMobility23QGeoSatelliteInfoSource22satellitesInUseUpdatedERK5QListINS_17QGeoSatelliteInfoEE @ 71 NONAME
	_ZN10QtMobility23QGeoSatelliteInfoSource23satellitesInViewUpdatedERK5QListINS_17QGeoSatelliteInfoEE @ 72 NONAME
	_ZN10QtMobility23QGeoSatelliteInfoSourceC2EP7QObject @ 73 NONAME
	_ZN10QtMobility23QNmeaPositionInfoSource11qt_metacallEN11QMetaObject4CallEiPPv @ 74 NONAME
	_ZN10QtMobility23QNmeaPositionInfoSource11qt_metacastEPKc @ 75 NONAME
	_ZN10QtMobility23QNmeaPositionInfoSource11stopUpdatesEv @ 76 NONAME
	_ZN10QtMobility23QNmeaPositionInfoSource12startUpdatesEv @ 77 NONAME
	_ZN10QtMobility23QNmeaPositionInfoSource13requestUpdateEi @ 78 NONAME
	_ZN10QtMobility23QNmeaPositionInfoSource16staticMetaObjectE @ 79 NONAME DATA 16
	_ZN10QtMobility23QNmeaPositionInfoSource17setUpdateIntervalEi @ 80 NONAME
	_ZN10QtMobility23QNmeaPositionInfoSource19getStaticMetaObjectEv @ 81 NONAME
	_ZN10QtMobility23QNmeaPositionInfoSource24parsePosInfoFromNmeaDataEPKciPNS_16QGeoPositionInfoEPb @ 82 NONAME
	_ZN10QtMobility23QNmeaPositionInfoSource9setDeviceEP9QIODevice @ 83 NONAME
	_ZN10QtMobility23QNmeaPositionInfoSourceC1ENS0_10UpdateModeEP7QObject @ 84 NONAME
	_ZN10QtMobility23QNmeaPositionInfoSourceC2ENS0_10UpdateModeEP7QObject @ 85 NONAME
	_ZN10QtMobility23QNmeaPositionInfoSourceD0Ev @ 86 NONAME
	_ZN10QtMobility23QNmeaPositionInfoSourceD1Ev @ 87 NONAME
	_ZN10QtMobility23QNmeaPositionInfoSourceD2Ev @ 88 NONAME
	_ZN10QtMobilitylsE6QDebugRKNS_14QGeoCoordinateE @ 89 NONAME
	_ZN10QtMobilitylsE6QDebugRKNS_16QGeoPositionInfoE @ 90 NONAME
	_ZN10QtMobilitylsE6QDebugRKNS_17QGeoSatelliteInfoE @ 91 NONAME
	_ZN10QtMobilitylsER11QDataStreamRKNS_14QGeoCoordinateE @ 92 NONAME
	_ZN10QtMobilitylsER11QDataStreamRKNS_16QGeoPositionInfoE @ 93 NONAME
	_ZN10QtMobilitylsER11QDataStreamRKNS_17QGeoSatelliteInfoE @ 94 NONAME
	_ZN10QtMobilityrsER11QDataStreamRNS_14QGeoCoordinateE @ 95 NONAME
	_ZN10QtMobilityrsER11QDataStreamRNS_16QGeoPositionInfoE @ 96 NONAME
	_ZN10QtMobilityrsER11QDataStreamRNS_17QGeoSatelliteInfoE @ 97 NONAME
	_ZNK10QtMobility14QGeoCoordinate10distanceToERKS0_ @ 98 NONAME
	_ZNK10QtMobility14QGeoCoordinate4typeEv @ 99 NONAME
	_ZNK10QtMobility14QGeoCoordinate7isValidEv @ 100 NONAME
	_ZNK10QtMobility14QGeoCoordinate8altitudeEv @ 101 NONAME
	_ZNK10QtMobility14QGeoCoordinate8latitudeEv @ 102 NONAME
	_ZNK10QtMobility14QGeoCoordinate8toStringENS0_16CoordinateFormatE @ 103 NONAME
	_ZNK10QtMobility14QGeoCoordinate9azimuthToERKS0_ @ 104 NONAME
	_ZNK10QtMobility14QGeoCoordinate9longitudeEv @ 105 NONAME
	_ZNK10QtMobility14QGeoCoordinateeqERKS0_ @ 106 NONAME
	_ZNK10QtMobility15QGeoAreaMonitor10metaObjectEv @ 107 NONAME
	_ZNK10QtMobility15QGeoAreaMonitor6centerEv @ 108 NONAME
	_ZNK10QtMobility15QGeoAreaMonitor6radiusEv @ 109 NONAME
	_ZNK10QtMobility16QGeoPositionInfo10coordinateEv @ 110 NONAME
	_ZNK10QtMobility16QGeoPositionInfo12hasAttributeENS0_9AttributeE @ 111 NONAME
	_ZNK10QtMobility16QGeoPositionInfo7isValidEv @ 112 NONAME
	_ZNK10QtMobility16QGeoPositionInfo9attributeENS0_9AttributeE @ 113 NONAME
	_ZNK10QtMobility16QGeoPositionInfo9timestampEv @ 114 NONAME
	_ZNK10QtMobility16QGeoPositionInfoeqERKS0_ @ 115 NONAME
	_ZNK10QtMobility17QGeoSatelliteInfo12hasAttributeENS0_9AttributeE @ 116 NONAME
	_ZNK10QtMobility17QGeoSatelliteInfo14signalStrengthEv @ 117 NONAME
	_ZNK10QtMobility17QGeoSatelliteInfo9attributeENS0_9AttributeE @ 118 NONAME
	_ZNK10QtMobility17QGeoSatelliteInfo9prnNumberEv @ 119 NONAME
	_ZNK10QtMobility17QGeoSatelliteInfoeqERKS0_ @ 120 NONAME
	_ZNK10QtMobility22QGeoPositionInfoSource10metaObjectEv @ 121 NONAME
	_ZNK10QtMobility22QGeoPositionInfoSource14updateIntervalEv @ 122 NONAME
	_ZNK10QtMobility22QGeoPositionInfoSource27preferredPositioningMethodsEv @ 123 NONAME
	_ZNK10QtMobility23QGeoSatelliteInfoSource10metaObjectEv @ 124 NONAME
	_ZNK10QtMobility23QNmeaPositionInfoSource10metaObjectEv @ 125 NONAME
	_ZNK10QtMobility23QNmeaPositionInfoSource10updateModeEv @ 126 NONAME
	_ZNK10QtMobility23QNmeaPositionInfoSource17lastKnownPositionEb @ 127 NONAME
	_ZNK10QtMobility23QNmeaPositionInfoSource21minimumUpdateIntervalEv @ 128 NONAME
	_ZNK10QtMobility23QNmeaPositionInfoSource27supportedPositioningMethodsEv @ 129 NONAME
	_ZNK10QtMobility23QNmeaPositionInfoSource6deviceEv @ 130 NONAME
	_ZTIN10QtMobility15QGeoAreaMonitorE @ 131 NONAME ; #<TI>#
	_ZTIN10QtMobility22QGeoPositionInfoSourceE @ 132 NONAME ; #<TI>#
	_ZTIN10QtMobility23QGeoSatelliteInfoSourceE @ 133 NONAME ; #<TI>#
	_ZTIN10QtMobility23QNmeaPositionInfoSourceE @ 134 NONAME ; #<TI>#
	_ZTVN10QtMobility15QGeoAreaMonitorE @ 135 NONAME ; #<VT>#
	_ZTVN10QtMobility22QGeoPositionInfoSourceE @ 136 NONAME ; #<VT>#
	_ZTVN10QtMobility23QGeoSatelliteInfoSourceE @ 137 NONAME ; #<VT>#
	_ZTVN10QtMobility23QNmeaPositionInfoSourceE @ 138 NONAME ; #<VT>#
	_ZN10QtMobility11QGeoAddress10setCountryERK7QString @ 139 NONAME
	_ZN10QtMobility11QGeoAddress11setDistrictERK7QString @ 140 NONAME
	_ZN10QtMobility11QGeoAddress11setPostCodeERK7QString @ 141 NONAME
	_ZN10QtMobility11QGeoAddress14setCountryCodeERK7QString @ 142 NONAME
	_ZN10QtMobility11QGeoAddress15setStreetNumberERK7QString @ 143 NONAME
	_ZN10QtMobility11QGeoAddress16setPostOfficeBoxERK7QString @ 144 NONAME
	_ZN10QtMobility11QGeoAddress5clearEv @ 145 NONAME
	_ZN10QtMobility11QGeoAddress7setCityERK7QString @ 146 NONAME
	_ZN10QtMobility11QGeoAddress8setStateERK7QString @ 147 NONAME
	_ZN10QtMobility11QGeoAddress9setCountyERK7QString @ 148 NONAME
	_ZN10QtMobility11QGeoAddress9setStreetERK7QString @ 149 NONAME
	_ZN10QtMobility11QGeoAddressC1ERKS0_ @ 150 NONAME
	_ZN10QtMobility11QGeoAddressC1Ev @ 151 NONAME
	_ZN10QtMobility11QGeoAddressC2ERKS0_ @ 152 NONAME
	_ZN10QtMobility11QGeoAddressC2Ev @ 153 NONAME
	_ZN10QtMobility11QGeoAddressD1Ev @ 154 NONAME
	_ZN10QtMobility11QGeoAddressD2Ev @ 155 NONAME
	_ZN10QtMobility11QGeoAddressaSERKS0_ @ 156 NONAME
	_ZN10QtMobility11QGeoMapData10mapObjectsEv @ 157 NONAME
	_ZN10QtMobility11QGeoMapData10setMapTypeENS_13QGeoMapWidget7MapTypeE @ 158 NONAME
	_ZN10QtMobility11QGeoMapData11qt_metacallEN11QMetaObject4CallEiPPv @ 159 NONAME
	_ZN10QtMobility11QGeoMapData11qt_metacastEPKc @ 160 NONAME
	_ZN10QtMobility11QGeoMapData11stopPanningEv @ 161 NONAME
	_ZN10QtMobility11QGeoMapData12addMapObjectEPNS_13QGeoMapObjectE @ 162 NONAME
	_ZN10QtMobility11QGeoMapData12setZoomLevelEf @ 163 NONAME
	_ZN10QtMobility11QGeoMapData12startPanningEv @ 164 NONAME
	_ZN10QtMobility11QGeoMapData15containerObjectEv @ 165 NONAME
	_ZN10QtMobility11QGeoMapData15removeMapObjectEPNS_13QGeoMapObjectE @ 166 NONAME
	_ZN10QtMobility11QGeoMapData15setViewportSizeERK6QSizeF @ 167 NONAME
	_ZN10QtMobility11QGeoMapData16staticMetaObjectE @ 168 NONAME DATA 16
	_ZN10QtMobility11QGeoMapData17visibleMapObjectsEv @ 169 NONAME
	_ZN10QtMobility11QGeoMapData19getStaticMetaObjectEv @ 170 NONAME
	_ZN10QtMobility11QGeoMapData22mapObjectsInScreenRectERK6QRectF @ 171 NONAME
	_ZN10QtMobility11QGeoMapData26mapObjectsAtScreenPositionERK7QPointF @ 172 NONAME
	_ZN10QtMobility11QGeoMapData3panEii @ 173 NONAME
	_ZN10QtMobility11QGeoMapData5paintEP8QPainterPK24QStyleOptionGraphicsItem @ 174 NONAME
	_ZN10QtMobility11QGeoMapData9setCenterERKNS_14QGeoCoordinateE @ 175 NONAME
	_ZN10QtMobility11QGeoMapDataC2EPNS_18QGeoMapDataPrivateE @ 176 NONAME
	_ZN10QtMobility11QGeoMapDataC2EPNS_24QGeoMappingManagerEngineEPNS_13QGeoMapWidgetE @ 177 NONAME
	_ZN10QtMobility11QGeoMapDataD0Ev @ 178 NONAME
	_ZN10QtMobility11QGeoMapDataD1Ev @ 179 NONAME
	_ZN10QtMobility11QGeoMapDataD2Ev @ 180 NONAME
	_ZN10QtMobility11QLandmarkId10setLocalIdERK7QString @ 181 NONAME
	_ZN10QtMobility11QLandmarkId13setManagerUriERK7QString @ 182 NONAME
	_ZN10QtMobility11QLandmarkIdC1ERKS0_ @ 183 NONAME
	_ZN10QtMobility11QLandmarkIdC1Ev @ 184 NONAME
	_ZN10QtMobility11QLandmarkIdC2ERKS0_ @ 185 NONAME
	_ZN10QtMobility11QLandmarkIdC2Ev @ 186 NONAME
	_ZN10QtMobility11QLandmarkIdD1Ev @ 187 NONAME
	_ZN10QtMobility11QLandmarkIdD2Ev @ 188 NONAME
	_ZN10QtMobility11QLandmarkIdaSERKS0_ @ 189 NONAME
	_ZN10QtMobility13QGeoMapObject10setVisibleEb @ 190 NONAME
	_ZN10QtMobility13QGeoMapObject11qt_metacallEN11QMetaObject4CallEiPPv @ 191 NONAME
	_ZN10QtMobility13QGeoMapObject11qt_metacastEPKc @ 192 NONAME
	_ZN10QtMobility13QGeoMapObject12objectUpdateEv @ 193 NONAME
	_ZN10QtMobility13QGeoMapObject14addChildObjectEPS0_ @ 194 NONAME
	_ZN10QtMobility13QGeoMapObject16staticMetaObjectE @ 195 NONAME DATA 16
	_ZN10QtMobility13QGeoMapObject17removeChildObjectEPS0_ @ 196 NONAME
	_ZN10QtMobility13QGeoMapObject19getStaticMetaObjectEv @ 197 NONAME
	_ZN10QtMobility13QGeoMapObject9mapUpdateEv @ 198 NONAME
	_ZN10QtMobility13QGeoMapObject9setZValueEi @ 199 NONAME
	_ZN10QtMobility13QGeoMapObjectC1EPNS_18QGeoMapDataPrivateE @ 200 NONAME
	_ZN10QtMobility13QGeoMapObjectC1EPNS_20QGeoMapObjectPrivateE @ 201 NONAME
	_ZN10QtMobility13QGeoMapObjectC1EPS0_ @ 202 NONAME
	_ZN10QtMobility13QGeoMapObjectC2EPNS_18QGeoMapDataPrivateE @ 203 NONAME
	_ZN10QtMobility13QGeoMapObjectC2EPNS_20QGeoMapObjectPrivateE @ 204 NONAME
	_ZN10QtMobility13QGeoMapObjectC2EPS0_ @ 205 NONAME
	_ZN10QtMobility13QGeoMapObjectD0Ev @ 206 NONAME
	_ZN10QtMobility13QGeoMapObjectD1Ev @ 207 NONAME
	_ZN10QtMobility13QGeoMapObjectD2Ev @ 208 NONAME
	_ZN10QtMobility13QGeoMapWidget10mapObjectsEv @ 209 NONAME
	_ZN10QtMobility13QGeoMapWidget10setMapTypeENS0_7MapTypeE @ 210 NONAME
	_ZN10QtMobility13QGeoMapWidget11qt_metacallEN11QMetaObject4CallEiPPv @ 211 NONAME
	_ZN10QtMobility13QGeoMapWidget11qt_metacastEPKc @ 212 NONAME
	_ZN10QtMobility13QGeoMapWidget11resizeEventEP25QGraphicsSceneResizeEvent @ 213 NONAME
	_ZN10QtMobility13QGeoMapWidget11stopPanningEv @ 214 NONAME
	_ZN10QtMobility13QGeoMapWidget12addMapObjectEPNS_13QGeoMapObjectE @ 215 NONAME
	_ZN10QtMobility13QGeoMapWidget12setZoomLevelEf @ 216 NONAME
	_ZN10QtMobility13QGeoMapWidget12startPanningEv @ 217 NONAME
	_ZN10QtMobility13QGeoMapWidget14mapTypeChangedENS0_7MapTypeE @ 218 NONAME
	_ZN10QtMobility13QGeoMapWidget15removeMapObjectEPNS_13QGeoMapObjectE @ 219 NONAME
	_ZN10QtMobility13QGeoMapWidget16staticMetaObjectE @ 220 NONAME DATA 16
	_ZN10QtMobility13QGeoMapWidget16zoomLevelChangedEf @ 221 NONAME
	_ZN10QtMobility13QGeoMapWidget17visibleMapObjectsEv @ 222 NONAME
	_ZN10QtMobility13QGeoMapWidget19getStaticMetaObjectEv @ 223 NONAME
	_ZN10QtMobility13QGeoMapWidget22mapObjectsInScreenRectERK6QRectF @ 224 NONAME
	_ZN10QtMobility13QGeoMapWidget26mapObjectsAtScreenPositionERK7QPointF @ 225 NONAME
	_ZN10QtMobility13QGeoMapWidget3panEii @ 226 NONAME
	_ZN10QtMobility13QGeoMapWidget5paintEP8QPainterPK24QStyleOptionGraphicsItemP7QWidget @ 227 NONAME
	_ZN10QtMobility13QGeoMapWidget8centeredERKNS_14QGeoCoordinateE @ 228 NONAME
	_ZN10QtMobility13QGeoMapWidget9setCenterERKNS_14QGeoCoordinateE @ 229 NONAME
	_ZN10QtMobility13QGeoMapWidgetC1EPNS_18QGeoMappingManagerEP13QGraphicsItem @ 230 NONAME
	_ZN10QtMobility13QGeoMapWidgetC2EPNS_18QGeoMappingManagerEP13QGraphicsItem @ 231 NONAME
	_ZN10QtMobility13QGeoMapWidgetD0Ev @ 232 NONAME
	_ZN10QtMobility13QGeoMapWidgetD1Ev @ 233 NONAME
	_ZN10QtMobility13QGeoMapWidgetD2Ev @ 234 NONAME
	_ZN10QtMobility14QGeoRouteReply11qt_metacallEN11QMetaObject4CallEiPPv @ 235 NONAME
	_ZN10QtMobility14QGeoRouteReply11qt_metacastEPKc @ 236 NONAME
	_ZN10QtMobility14QGeoRouteReply11setFinishedEb @ 237 NONAME
	_ZN10QtMobility14QGeoRouteReply16staticMetaObjectE @ 238 NONAME DATA 16
	_ZN10QtMobility14QGeoRouteReply19getStaticMetaObjectEv @ 239 NONAME
	_ZN10QtMobility14QGeoRouteReply5abortEv @ 240 NONAME
	_ZN10QtMobility14QGeoRouteReply5errorENS0_5ErrorERK7QString @ 241 NONAME
	_ZN10QtMobility14QGeoRouteReply8finishedEv @ 242 NONAME
	_ZN10QtMobility14QGeoRouteReply8setErrorENS0_5ErrorERK7QString @ 243 NONAME
	_ZN10QtMobility14QGeoRouteReply9setRoutesERK5QListINS_9QGeoRouteEE @ 244 NONAME
	_ZN10QtMobility14QGeoRouteReplyC1ENS0_5ErrorERK7QStringP7QObject @ 245 NONAME
	_ZN10QtMobility14QGeoRouteReplyC1ERKNS_16QGeoRouteRequestEP7QObject @ 246 NONAME
	_ZN10QtMobility14QGeoRouteReplyC2ENS0_5ErrorERK7QStringP7QObject @ 247 NONAME
	_ZN10QtMobility14QGeoRouteReplyC2ERKNS_16QGeoRouteRequestEP7QObject @ 248 NONAME
	_ZN10QtMobility14QGeoRouteReplyD0Ev @ 249 NONAME
	_ZN10QtMobility14QGeoRouteReplyD1Ev @ 250 NONAME
	_ZN10QtMobility14QGeoRouteReplyD2Ev @ 251 NONAME
	_ZN10QtMobility15QGeoBoundingBox10setTopLeftERKNS_14QGeoCoordinateE @ 252 NONAME
	_ZN10QtMobility15QGeoBoundingBox11setTopRightERKNS_14QGeoCoordinateE @ 253 NONAME
	_ZN10QtMobility15QGeoBoundingBox13setBottomLeftERKNS_14QGeoCoordinateE @ 254 NONAME
	_ZN10QtMobility15QGeoBoundingBox14setBottomRightERKNS_14QGeoCoordinateE @ 255 NONAME
	_ZN10QtMobility15QGeoBoundingBox6heightEv @ 256 NONAME
	_ZN10QtMobility15QGeoBoundingBox8setWidthEd @ 257 NONAME
	_ZN10QtMobility15QGeoBoundingBox9setCenterERKNS_14QGeoCoordinateE @ 258 NONAME
	_ZN10QtMobility15QGeoBoundingBox9setHeightEd @ 259 NONAME
	_ZN10QtMobility15QGeoBoundingBox9translateEdd @ 260 NONAME
	_ZN10QtMobility15QGeoBoundingBoxC1ERKNS_14QGeoCoordinateES3_ @ 261 NONAME
	_ZN10QtMobility15QGeoBoundingBoxC1ERKNS_14QGeoCoordinateEdd @ 262 NONAME
	_ZN10QtMobility15QGeoBoundingBoxC1ERKS0_ @ 263 NONAME
	_ZN10QtMobility15QGeoBoundingBoxC1Ev @ 264 NONAME
	_ZN10QtMobility15QGeoBoundingBoxC2ERKNS_14QGeoCoordinateES3_ @ 265 NONAME
	_ZN10QtMobility15QGeoBoundingBoxC2ERKNS_14QGeoCoordinateEdd @ 266 NONAME
	_ZN10QtMobility15QGeoBoundingBoxC2ERKS0_ @ 267 NONAME
	_ZN10QtMobility15QGeoBoundingBoxC2Ev @ 268 NONAME
	_ZN10QtMobility15QGeoBoundingBoxD1Ev @ 269 NONAME
	_ZN10QtMobility15QGeoBoundingBoxD2Ev @ 270 NONAME
	_ZN10QtMobility15QGeoBoundingBoxaSERKS0_ @ 271 NONAME
	_ZN10QtMobility15QGeoBoundingBoxoRERKS0_ @ 272 NONAME
	_ZN10QtMobility15QGeoSearchReply11qt_metacallEN11QMetaObject4CallEiPPv @ 273 NONAME
	_ZN10QtMobility15QGeoSearchReply11qt_metacastEPKc @ 274 NONAME
	_ZN10QtMobility15QGeoSearchReply11setFinishedEb @ 275 NONAME
	_ZN10QtMobility15QGeoSearchReply16staticMetaObjectE @ 276 NONAME DATA 16
	_ZN10QtMobility15QGeoSearchReply19getStaticMetaObjectEv @ 277 NONAME
	_ZN10QtMobility15QGeoSearchReply5abortEv @ 278 NONAME
	_ZN10QtMobility15QGeoSearchReply5errorENS0_5ErrorERK7QString @ 279 NONAME
	_ZN10QtMobility15QGeoSearchReply8addPlaceERKNS_9QGeoPlaceE @ 280 NONAME
	_ZN10QtMobility15QGeoSearchReply8finishedEv @ 281 NONAME
	_ZN10QtMobility15QGeoSearchReply8setErrorENS0_5ErrorERK7QString @ 282 NONAME
	_ZN10QtMobility15QGeoSearchReply9setBoundsERKNS_15QGeoBoundingBoxE @ 283 NONAME
	_ZN10QtMobility15QGeoSearchReply9setPlacesERK5QListINS_9QGeoPlaceEE @ 284 NONAME
	_ZN10QtMobility15QGeoSearchReplyC1ENS0_5ErrorERK7QStringP7QObject @ 285 NONAME
	_ZN10QtMobility15QGeoSearchReplyC1EP7QObject @ 286 NONAME
	_ZN10QtMobility15QGeoSearchReplyC2ENS0_5ErrorERK7QStringP7QObject @ 287 NONAME
	_ZN10QtMobility15QGeoSearchReplyC2EP7QObject @ 288 NONAME
	_ZN10QtMobility15QGeoSearchReplyD0Ev @ 289 NONAME
	_ZN10QtMobility15QGeoSearchReplyD1Ev @ 290 NONAME
	_ZN10QtMobility15QGeoSearchReplyD2Ev @ 291 NONAME
	_ZN10QtMobility15QLandmarkFilterC1EPNS_22QLandmarkFilterPrivateE @ 292 NONAME
	_ZN10QtMobility15QLandmarkFilterC1ERKS0_ @ 293 NONAME
	_ZN10QtMobility15QLandmarkFilterC1Ev @ 294 NONAME
	_ZN10QtMobility15QLandmarkFilterC2EPNS_22QLandmarkFilterPrivateE @ 295 NONAME
	_ZN10QtMobility15QLandmarkFilterC2ERKS0_ @ 296 NONAME
	_ZN10QtMobility15QLandmarkFilterC2Ev @ 297 NONAME
	_ZN10QtMobility15QLandmarkFilterD0Ev @ 298 NONAME
	_ZN10QtMobility15QLandmarkFilterD1Ev @ 299 NONAME
	_ZN10QtMobility15QLandmarkFilterD2Ev @ 300 NONAME
	_ZN10QtMobility15QLandmarkFilteraSERKS0_ @ 301 NONAME
	_ZN10QtMobility16QGeoRouteRequest12setWaypointsERK5QListINS_14QGeoCoordinateEE @ 302 NONAME
	_ZN10QtMobility16QGeoRouteRequest14setTravelModesE6QFlagsINS0_10TravelModeEE @ 303 NONAME
	_ZN10QtMobility16QGeoRouteRequest15setExcludeAreasERK5QListINS_15QGeoBoundingBoxEE @ 304 NONAME
	_ZN10QtMobility16QGeoRouteRequest16setSegmentDetailENS0_13SegmentDetailE @ 305 NONAME
	_ZN10QtMobility16QGeoRouteRequest20setAvoidFeatureTypesE6QFlagsINS0_16AvoidFeatureTypeEE @ 306 NONAME
	_ZN10QtMobility16QGeoRouteRequest20setInstructionDetailENS0_17InstructionDetailE @ 307 NONAME
	_ZN10QtMobility16QGeoRouteRequest20setRouteOptimizationE6QFlagsINS0_17RouteOptimizationEE @ 308 NONAME
	_ZN10QtMobility16QGeoRouteRequest26setNumberAlternativeRoutesEi @ 309 NONAME
	_ZN10QtMobility16QGeoRouteRequestC1ERK5QListINS_14QGeoCoordinateEE @ 310 NONAME
	_ZN10QtMobility16QGeoRouteRequestC1ERKNS_14QGeoCoordinateES3_ @ 311 NONAME
	_ZN10QtMobility16QGeoRouteRequestC1ERKS0_ @ 312 NONAME
	_ZN10QtMobility16QGeoRouteRequestC2ERK5QListINS_14QGeoCoordinateEE @ 313 NONAME
	_ZN10QtMobility16QGeoRouteRequestC2ERKNS_14QGeoCoordinateES3_ @ 314 NONAME
	_ZN10QtMobility16QGeoRouteRequestC2ERKS0_ @ 315 NONAME
	_ZN10QtMobility16QGeoRouteRequestD1Ev @ 316 NONAME
	_ZN10QtMobility16QGeoRouteRequestD2Ev @ 317 NONAME
	_ZN10QtMobility16QGeoRouteRequestaSERKS0_ @ 318 NONAME
	_ZN10QtMobility16QGeoRouteSegment11setDistanceEf @ 319 NONAME
	_ZN10QtMobility16QGeoRouteSegment13setTravelTimeEi @ 320 NONAME
	_ZN10QtMobility16QGeoRouteSegment14setInstructionERKNS_25QGeoNavigationInstructionE @ 321 NONAME
	_ZN10QtMobility16QGeoRouteSegment7setPathERK5QListINS_14QGeoCoordinateEE @ 322 NONAME
	_ZN10QtMobility16QGeoRouteSegmentC1ERKS0_ @ 323 NONAME
	_ZN10QtMobility16QGeoRouteSegmentC1Ev @ 324 NONAME
	_ZN10QtMobility16QGeoRouteSegmentC2ERKS0_ @ 325 NONAME
	_ZN10QtMobility16QGeoRouteSegmentC2Ev @ 326 NONAME
	_ZN10QtMobility16QGeoRouteSegmentD1Ev @ 327 NONAME
	_ZN10QtMobility16QGeoRouteSegmentD2Ev @ 328 NONAME
	_ZN10QtMobility16QGeoRouteSegmentaSERKS0_ @ 329 NONAME
	_ZN10QtMobility16QGeoTiledMapData10setMapTypeENS_13QGeoMapWidget7MapTypeE @ 330 NONAME
	_ZN10QtMobility16QGeoTiledMapData11qt_metacallEN11QMetaObject4CallEiPPv @ 331 NONAME
	_ZN10QtMobility16QGeoTiledMapData11qt_metacastEPKc @ 332 NONAME
	_ZN10QtMobility16QGeoTiledMapData11stopPanningEv @ 333 NONAME
	_ZN10QtMobility16QGeoTiledMapData12setZoomLevelEf @ 334 NONAME
	_ZN10QtMobility16QGeoTiledMapData12startPanningEv @ 335 NONAME
	_ZN10QtMobility16QGeoTiledMapData12tileFinishedEv @ 336 NONAME
	_ZN10QtMobility16QGeoTiledMapData13cleanupCachesEv @ 337 NONAME
	_ZN10QtMobility16QGeoTiledMapData13clearRequestsEv @ 338 NONAME
	_ZN10QtMobility16QGeoTiledMapData14updateMapImageEv @ 339 NONAME
	_ZN10QtMobility16QGeoTiledMapData15paintMapObjectsEP8QPainterPK24QStyleOptionGraphicsItem @ 340 NONAME
	_ZN10QtMobility16QGeoTiledMapData15processRequestsEv @ 341 NONAME
	_ZN10QtMobility16QGeoTiledMapData15setViewportSizeERK6QSizeF @ 342 NONAME
	_ZN10QtMobility16QGeoTiledMapData16staticMetaObjectE @ 343 NONAME DATA 16
	_ZN10QtMobility16QGeoTiledMapData17visibleMapObjectsEv @ 344 NONAME
	_ZN10QtMobility16QGeoTiledMapData19getStaticMetaObjectEv @ 345 NONAME
	_ZN10QtMobility16QGeoTiledMapData22mapObjectsInScreenRectERK6QRectF @ 346 NONAME
	_ZN10QtMobility16QGeoTiledMapData26mapObjectsAtScreenPositionERK7QPointFi @ 347 NONAME
	_ZN10QtMobility16QGeoTiledMapData3panEii @ 348 NONAME
	_ZN10QtMobility16QGeoTiledMapData5paintEP8QPainterPK24QStyleOptionGraphicsItem @ 349 NONAME
	_ZN10QtMobility16QGeoTiledMapData8paintMapEP8QPainterPK24QStyleOptionGraphicsItem @ 350 NONAME
	_ZN10QtMobility16QGeoTiledMapData9setCenterERKNS_14QGeoCoordinateE @ 351 NONAME
	_ZN10QtMobility16QGeoTiledMapData9tileErrorENS_17QGeoTiledMapReply5ErrorE7QString @ 352 NONAME
	_ZN10QtMobility16QGeoTiledMapDataC1EPNS_24QGeoMappingManagerEngineEPNS_13QGeoMapWidgetE @ 353 NONAME
	_ZN10QtMobility16QGeoTiledMapDataC2EPNS_24QGeoMappingManagerEngineEPNS_13QGeoMapWidgetE @ 354 NONAME
	_ZN10QtMobility16QGeoTiledMapDataD0Ev @ 355 NONAME
	_ZN10QtMobility16QGeoTiledMapDataD1Ev @ 356 NONAME
	_ZN10QtMobility16QGeoTiledMapDataD2Ev @ 357 NONAME
	_ZN10QtMobility16QLandmarkManager11dataChangedEv @ 358 NONAME
	_ZN10QtMobility16QLandmarkManager11qt_metacallEN11QMetaObject4CallEiPPv @ 359 NONAME
	_ZN10QtMobility16QLandmarkManager11qt_metacastEPKc @ 360 NONAME
	_ZN10QtMobility16QLandmarkManager12saveCategoryEPNS_17QLandmarkCategoryE @ 361 NONAME
	_ZN10QtMobility16QLandmarkManager12saveLandmarkEPNS_9QLandmarkE @ 362 NONAME
	_ZN10QtMobility16QLandmarkManager13connectNotifyEPKc @ 363 NONAME
	_ZN10QtMobility16QLandmarkManager13saveLandmarksEP5QListINS_9QLandmarkEEP4QMapIiNS0_5ErrorEE @ 364 NONAME
	_ZN10QtMobility16QLandmarkManager14landmarksAddedERK5QListINS_11QLandmarkIdEE @ 365 NONAME
	_ZN10QtMobility16QLandmarkManager14removeCategoryERKNS_19QLandmarkCategoryIdE @ 366 NONAME
	_ZN10QtMobility16QLandmarkManager14removeLandmarkERKNS_11QLandmarkIdE @ 367 NONAME
	_ZN10QtMobility16QLandmarkManager15categoriesAddedERK5QListINS_19QLandmarkCategoryIdEE @ 368 NONAME
	_ZN10QtMobility16QLandmarkManager15exportLandmarksEP9QIODeviceRK7QString5QListINS_11QLandmarkIdEE @ 369 NONAME
	_ZN10QtMobility16QLandmarkManager15exportLandmarksERK7QStringS3_5QListINS_11QLandmarkIdEE @ 370 NONAME
	_ZN10QtMobility16QLandmarkManager15importLandmarksEP9QIODeviceRK7QString @ 371 NONAME
	_ZN10QtMobility16QLandmarkManager15importLandmarksERK7QStringS3_ @ 372 NONAME
	_ZN10QtMobility16QLandmarkManager15removeLandmarksERK5QListINS_11QLandmarkIdEEP4QMapIiNS0_5ErrorEE @ 373 NONAME
	_ZN10QtMobility16QLandmarkManager16disconnectNotifyEPKc @ 374 NONAME
	_ZN10QtMobility16QLandmarkManager16landmarksChangedERK5QListINS_11QLandmarkIdEE @ 375 NONAME
	_ZN10QtMobility16QLandmarkManager16landmarksRemovedERK5QListINS_11QLandmarkIdEE @ 376 NONAME
	_ZN10QtMobility16QLandmarkManager16staticMetaObjectE @ 377 NONAME DATA 16
	_ZN10QtMobility16QLandmarkManager17availableManagersEv @ 378 NONAME
	_ZN10QtMobility16QLandmarkManager17categoriesChangedERK5QListINS_19QLandmarkCategoryIdEE @ 379 NONAME
	_ZN10QtMobility16QLandmarkManager17categoriesRemovedERK5QListINS_19QLandmarkCategoryIdEE @ 380 NONAME
	_ZN10QtMobility16QLandmarkManager19getStaticMetaObjectEv @ 381 NONAME
	_ZN10QtMobility16QLandmarkManager6engineEv @ 382 NONAME
	_ZN10QtMobility16QLandmarkManager7fromUriERK7QStringP7QObject @ 383 NONAME
	_ZN10QtMobility16QLandmarkManager8buildUriERK7QStringRK4QMapIS1_S1_Ei @ 384 NONAME
	_ZN10QtMobility16QLandmarkManager8parseUriERK7QStringPS1_P4QMapIS1_S1_E @ 385 NONAME
	_ZN10QtMobility16QLandmarkManagerC1EP7QObject @ 386 NONAME
	_ZN10QtMobility16QLandmarkManagerC1ERK7QStringRK4QMapIS1_S1_EP7QObject @ 387 NONAME
	_ZN10QtMobility16QLandmarkManagerC1ERK7QStringiRK4QMapIS1_S1_EP7QObject @ 388 NONAME
	_ZN10QtMobility16QLandmarkManagerC2EP7QObject @ 389 NONAME
	_ZN10QtMobility16QLandmarkManagerC2ERK7QStringRK4QMapIS1_S1_EP7QObject @ 390 NONAME
	_ZN10QtMobility16QLandmarkManagerC2ERK7QStringiRK4QMapIS1_S1_EP7QObject @ 391 NONAME
	_ZN10QtMobility16QLandmarkManagerD0Ev @ 392 NONAME
	_ZN10QtMobility16QLandmarkManagerD1Ev @ 393 NONAME
	_ZN10QtMobility16QLandmarkManagerD2Ev @ 394 NONAME
	_ZN10QtMobility17QGeoSearchManager11qt_metacallEN11QMetaObject4CallEiPPv @ 395 NONAME
	_ZN10QtMobility17QGeoSearchManager11qt_metacastEPKc @ 396 NONAME
	_ZN10QtMobility17QGeoSearchManager14reverseGeocodeERKNS_14QGeoCoordinateERKNS_15QGeoBoundingBoxE @ 397 NONAME
	_ZN10QtMobility17QGeoSearchManager16staticMetaObjectE @ 398 NONAME DATA 16
	_ZN10QtMobility17QGeoSearchManager19getStaticMetaObjectEv @ 399 NONAME
	_ZN10QtMobility17QGeoSearchManager28addAdditionalLandmarkManagerEPNS_16QLandmarkManagerE @ 400 NONAME
	_ZN10QtMobility17QGeoSearchManager29setAdditionalLandmarkManagersERK5QListIPNS_16QLandmarkManagerEE @ 401 NONAME
	_ZN10QtMobility17QGeoSearchManager5errorEPNS_15QGeoSearchReplyENS1_5ErrorE7QString @ 402 NONAME
	_ZN10QtMobility17QGeoSearchManager6searchERK7QString6QFlagsINS0_10SearchTypeEERKNS_15QGeoBoundingBoxE @ 403 NONAME
	_ZN10QtMobility17QGeoSearchManager7geocodeERKNS_11QGeoAddressERKNS_15QGeoBoundingBoxE @ 404 NONAME
	_ZN10QtMobility17QGeoSearchManager8finishedEPNS_15QGeoSearchReplyE @ 405 NONAME
	_ZN10QtMobility17QGeoSearchManagerC1EPNS_23QGeoSearchManagerEngineEP7QObject @ 406 NONAME
	_ZN10QtMobility17QGeoSearchManagerC2EPNS_23QGeoSearchManagerEngineEP7QObject @ 407 NONAME
	_ZN10QtMobility17QGeoSearchManagerD0Ev @ 408 NONAME
	_ZN10QtMobility17QGeoSearchManagerD1Ev @ 409 NONAME
	_ZN10QtMobility17QGeoSearchManagerD2Ev @ 410 NONAME
	_ZN10QtMobility17QGeoTiledMapReply11qt_metacallEN11QMetaObject4CallEiPPv @ 411 NONAME
	_ZN10QtMobility17QGeoTiledMapReply11qt_metacastEPKc @ 412 NONAME
	_ZN10QtMobility17QGeoTiledMapReply11setFinishedEb @ 413 NONAME
	_ZN10QtMobility17QGeoTiledMapReply15setMapImageDataERK10QByteArray @ 414 NONAME
	_ZN10QtMobility17QGeoTiledMapReply16staticMetaObjectE @ 415 NONAME DATA 16
	_ZN10QtMobility17QGeoTiledMapReply17setMapImageFormatERK7QString @ 416 NONAME
	_ZN10QtMobility17QGeoTiledMapReply19getStaticMetaObjectEv @ 417 NONAME
	_ZN10QtMobility17QGeoTiledMapReply5abortEv @ 418 NONAME
	_ZN10QtMobility17QGeoTiledMapReply5errorENS0_5ErrorERK7QString @ 419 NONAME
	_ZN10QtMobility17QGeoTiledMapReply8finishedEv @ 420 NONAME
	_ZN10QtMobility17QGeoTiledMapReply8setErrorENS0_5ErrorERK7QString @ 421 NONAME
	_ZN10QtMobility17QGeoTiledMapReply9setCachedEb @ 422 NONAME
	_ZN10QtMobility17QGeoTiledMapReplyC1ENS0_5ErrorERK7QStringP7QObject @ 423 NONAME
	_ZN10QtMobility17QGeoTiledMapReplyC1ERKNS_19QGeoTiledMapRequestEP7QObject @ 424 NONAME
	_ZN10QtMobility17QGeoTiledMapReplyC2ENS0_5ErrorERK7QStringP7QObject @ 425 NONAME
	_ZN10QtMobility17QGeoTiledMapReplyC2ERKNS_19QGeoTiledMapRequestEP7QObject @ 426 NONAME
	_ZN10QtMobility17QGeoTiledMapReplyD0Ev @ 427 NONAME
	_ZN10QtMobility17QGeoTiledMapReplyD1Ev @ 428 NONAME
	_ZN10QtMobility17QGeoTiledMapReplyD2Ev @ 429 NONAME
	_ZN10QtMobility17QLandmarkCategory10setIconUrlERK4QUrl @ 430 NONAME
	_ZN10QtMobility17QLandmarkCategory12setAttributeERK7QStringRK8QVariant @ 431 NONAME
	_ZN10QtMobility17QLandmarkCategory13setCategoryIdERKNS_19QLandmarkCategoryIdE @ 432 NONAME
	_ZN10QtMobility17QLandmarkCategory14setDescriptionERK7QString @ 433 NONAME
	_ZN10QtMobility17QLandmarkCategory5clearEv @ 434 NONAME
	_ZN10QtMobility17QLandmarkCategory7setNameERK7QString @ 435 NONAME
	_ZN10QtMobility17QLandmarkCategoryC1ERKS0_ @ 436 NONAME
	_ZN10QtMobility17QLandmarkCategoryC1Ev @ 437 NONAME
	_ZN10QtMobility17QLandmarkCategoryC2ERKS0_ @ 438 NONAME
	_ZN10QtMobility17QLandmarkCategoryC2Ev @ 439 NONAME
	_ZN10QtMobility17QLandmarkCategoryD1Ev @ 440 NONAME
	_ZN10QtMobility17QLandmarkCategoryD2Ev @ 441 NONAME
	_ZN10QtMobility17QLandmarkCategoryaSERKS0_ @ 442 NONAME
	_ZN10QtMobility17QLandmarkIdFilter14setLandmarkIdsERK5QListINS_11QLandmarkIdEE @ 443 NONAME
	_ZN10QtMobility17QLandmarkIdFilter17setMatchingSchemeENS0_14MatchingSchemeE @ 444 NONAME
	_ZN10QtMobility17QLandmarkIdFilter5clearEv @ 445 NONAME
	_ZN10QtMobility17QLandmarkIdFilter6appendERKNS_11QLandmarkIdE @ 446 NONAME
	_ZN10QtMobility17QLandmarkIdFilter6removeERKNS_11QLandmarkIdE @ 447 NONAME
	_ZN10QtMobility17QLandmarkIdFilterC1ERK5QListINS_11QLandmarkIdEENS0_14MatchingSchemeE @ 448 NONAME
	_ZN10QtMobility17QLandmarkIdFilterC1ERKNS_15QLandmarkFilterE @ 449 NONAME
	_ZN10QtMobility17QLandmarkIdFilterC2ERK5QListINS_11QLandmarkIdEENS0_14MatchingSchemeE @ 450 NONAME
	_ZN10QtMobility17QLandmarkIdFilterC2ERKNS_15QLandmarkFilterE @ 451 NONAME
	_ZN10QtMobility17QLandmarkIdFilterD0Ev @ 452 NONAME
	_ZN10QtMobility17QLandmarkIdFilterD1Ev @ 453 NONAME
	_ZN10QtMobility17QLandmarkIdFilterD2Ev @ 454 NONAME
	_ZN10QtMobility17QLandmarkIdFilterlsERKNS_11QLandmarkIdE @ 455 NONAME
	_ZN10QtMobility17QLandmarkNameSort18setCaseSensitivityEN2Qt15CaseSensitivityE @ 456 NONAME
	_ZN10QtMobility17QLandmarkNameSortC1EN2Qt9SortOrderENS1_15CaseSensitivityE @ 457 NONAME
	_ZN10QtMobility17QLandmarkNameSortC1ERKNS_18QLandmarkSortOrderE @ 458 NONAME
	_ZN10QtMobility17QLandmarkNameSortC2EN2Qt9SortOrderENS1_15CaseSensitivityE @ 459 NONAME
	_ZN10QtMobility17QLandmarkNameSortC2ERKNS_18QLandmarkSortOrderE @ 460 NONAME
	_ZN10QtMobility17QLandmarkNameSortD0Ev @ 461 NONAME
	_ZN10QtMobility17QLandmarkNameSortD1Ev @ 462 NONAME
	_ZN10QtMobility17QLandmarkNameSortD2Ev @ 463 NONAME
	_ZN10QtMobility18QGeoMapRouteObject14setDetailLevelEj @ 464 NONAME
	_ZN10QtMobility18QGeoMapRouteObject6setPenERK4QPen @ 465 NONAME
	_ZN10QtMobility18QGeoMapRouteObjectC1ERKNS_9QGeoRouteEPNS_13QGeoMapObjectE @ 466 NONAME
	_ZN10QtMobility18QGeoMapRouteObjectC2ERKNS_9QGeoRouteEPNS_13QGeoMapObjectE @ 467 NONAME
	_ZN10QtMobility18QGeoMapRouteObjectD0Ev @ 468 NONAME
	_ZN10QtMobility18QGeoMapRouteObjectD1Ev @ 469 NONAME
	_ZN10QtMobility18QGeoMapRouteObjectD2Ev @ 470 NONAME
	_ZN10QtMobility18QGeoMappingManager11qt_metacallEN11QMetaObject4CallEiPPv @ 471 NONAME
	_ZN10QtMobility18QGeoMappingManager11qt_metacastEPKc @ 472 NONAME
	_ZN10QtMobility18QGeoMappingManager13createMapDataEPNS_13QGeoMapWidgetE @ 473 NONAME
	_ZN10QtMobility18QGeoMappingManager13removeMapDataEPNS_11QGeoMapDataE @ 474 NONAME
	_ZN10QtMobility18QGeoMappingManager16staticMetaObjectE @ 475 NONAME DATA 16
	_ZN10QtMobility18QGeoMappingManager19getStaticMetaObjectEv @ 476 NONAME
	_ZN10QtMobility18QGeoMappingManagerC1EPNS_24QGeoMappingManagerEngineEP7QObject @ 477 NONAME
	_ZN10QtMobility18QGeoMappingManagerC2EPNS_24QGeoMappingManagerEngineEP7QObject @ 478 NONAME
	_ZN10QtMobility18QGeoMappingManagerD0Ev @ 479 NONAME
	_ZN10QtMobility18QGeoMappingManagerD1Ev @ 480 NONAME
	_ZN10QtMobility18QGeoMappingManagerD2Ev @ 481 NONAME
	_ZN10QtMobility18QGeoRoutingManager11qt_metacallEN11QMetaObject4CallEiPPv @ 482 NONAME
	_ZN10QtMobility18QGeoRoutingManager11qt_metacastEPKc @ 483 NONAME
	_ZN10QtMobility18QGeoRoutingManager11updateRouteERKNS_9QGeoRouteERKNS_14QGeoCoordinateE @ 484 NONAME
	_ZN10QtMobility18QGeoRoutingManager14calculateRouteERKNS_16QGeoRouteRequestE @ 485 NONAME
	_ZN10QtMobility18QGeoRoutingManager16staticMetaObjectE @ 486 NONAME DATA 16
	_ZN10QtMobility18QGeoRoutingManager19getStaticMetaObjectEv @ 487 NONAME
	_ZN10QtMobility18QGeoRoutingManager5errorEPNS_14QGeoRouteReplyENS1_5ErrorE7QString @ 488 NONAME
	_ZN10QtMobility18QGeoRoutingManager8finishedEPNS_14QGeoRouteReplyE @ 489 NONAME
	_ZN10QtMobility18QGeoRoutingManagerC1EPNS_24QGeoRoutingManagerEngineEP7QObject @ 490 NONAME
	_ZN10QtMobility18QGeoRoutingManagerC2EPNS_24QGeoRoutingManagerEngineEP7QObject @ 491 NONAME
	_ZN10QtMobility18QGeoRoutingManagerD0Ev @ 492 NONAME
	_ZN10QtMobility18QGeoRoutingManagerD1Ev @ 493 NONAME
	_ZN10QtMobility18QGeoRoutingManagerD2Ev @ 494 NONAME
	_ZN10QtMobility18QLandmarkBoxFilter14setBoundingBoxERKNS_15QGeoBoundingBoxE @ 495 NONAME
	_ZN10QtMobility18QLandmarkBoxFilterC1ERKNS_14QGeoCoordinateES3_ @ 496 NONAME
	_ZN10QtMobility18QLandmarkBoxFilterC1ERKNS_15QGeoBoundingBoxE @ 497 NONAME
	_ZN10QtMobility18QLandmarkBoxFilterC1ERKNS_15QLandmarkFilterE @ 498 NONAME
	_ZN10QtMobility18QLandmarkBoxFilterC2ERKNS_14QGeoCoordinateES3_ @ 499 NONAME
	_ZN10QtMobility18QLandmarkBoxFilterC2ERKNS_15QGeoBoundingBoxE @ 500 NONAME
	_ZN10QtMobility18QLandmarkBoxFilterC2ERKNS_15QLandmarkFilterE @ 501 NONAME
	_ZN10QtMobility18QLandmarkBoxFilterD0Ev @ 502 NONAME
	_ZN10QtMobility18QLandmarkBoxFilterD1Ev @ 503 NONAME
	_ZN10QtMobility18QLandmarkBoxFilterD2Ev @ 504 NONAME
	_ZN10QtMobility18QLandmarkFetchHint11setMaxItemsEi @ 505 NONAME
	_ZN10QtMobility18QLandmarkFetchHint9setOffsetEi @ 506 NONAME
	_ZN10QtMobility18QLandmarkFetchHintC1ERKS0_ @ 507 NONAME
	_ZN10QtMobility18QLandmarkFetchHintC1Ev @ 508 NONAME
	_ZN10QtMobility18QLandmarkFetchHintC2ERKS0_ @ 509 NONAME
	_ZN10QtMobility18QLandmarkFetchHintC2Ev @ 510 NONAME
	_ZN10QtMobility18QLandmarkFetchHintD1Ev @ 511 NONAME
	_ZN10QtMobility18QLandmarkFetchHintD2Ev @ 512 NONAME
	_ZN10QtMobility18QLandmarkFetchHintaSERKS0_ @ 513 NONAME
	_ZN10QtMobility18QLandmarkSortOrder12setDirectionEN2Qt9SortOrderE @ 514 NONAME
	_ZN10QtMobility18QLandmarkSortOrderC1EPNS_25QLandmarkSortOrderPrivateE @ 515 NONAME
	_ZN10QtMobility18QLandmarkSortOrderC1ERKS0_ @ 516 NONAME
	_ZN10QtMobility18QLandmarkSortOrderC1Ev @ 517 NONAME
	_ZN10QtMobility18QLandmarkSortOrderC2EPNS_25QLandmarkSortOrderPrivateE @ 518 NONAME
	_ZN10QtMobility18QLandmarkSortOrderC2ERKS0_ @ 519 NONAME
	_ZN10QtMobility18QLandmarkSortOrderC2Ev @ 520 NONAME
	_ZN10QtMobility18QLandmarkSortOrderD0Ev @ 521 NONAME
	_ZN10QtMobility18QLandmarkSortOrderD1Ev @ 522 NONAME
	_ZN10QtMobility18QLandmarkSortOrderD2Ev @ 523 NONAME
	_ZN10QtMobility18QLandmarkSortOrderaSERKS0_ @ 524 NONAME
	_ZN10QtMobility19QGeoMapCircleObject6setPenERK4QPen @ 525 NONAME
	_ZN10QtMobility19QGeoMapCircleObject8setBrushERK6QBrush @ 526 NONAME
	_ZN10QtMobility19QGeoMapCircleObject9setCenterERKNS_14QGeoCoordinateE @ 527 NONAME
	_ZN10QtMobility19QGeoMapCircleObject9setRadiusEf @ 528 NONAME
	_ZN10QtMobility19QGeoMapCircleObjectC1EPNS_13QGeoMapObjectE @ 529 NONAME
	_ZN10QtMobility19QGeoMapCircleObjectC2EPNS_13QGeoMapObjectE @ 530 NONAME
	_ZN10QtMobility19QGeoMapCircleObjectD0Ev @ 531 NONAME
	_ZN10QtMobility19QGeoMapCircleObjectD1Ev @ 532 NONAME
	_ZN10QtMobility19QGeoMapCircleObjectD2Ev @ 533 NONAME
	_ZN10QtMobility19QGeoMapMarkerObjectC1ERKNS_14QGeoCoordinateERK6QPointRK7QPixmapPNS_13QGeoMapObjectE @ 534 NONAME
	_ZN10QtMobility19QGeoMapMarkerObjectC2ERKNS_14QGeoCoordinateERK6QPointRK7QPixmapPNS_13QGeoMapObjectE @ 535 NONAME
	_ZN10QtMobility19QGeoMapMarkerObjectD0Ev @ 536 NONAME
	_ZN10QtMobility19QGeoMapMarkerObjectD1Ev @ 537 NONAME
	_ZN10QtMobility19QGeoMapMarkerObjectD2Ev @ 538 NONAME
	_ZN10QtMobility19QGeoServiceProvider25availableServiceProvidersEv @ 539 NONAME
	_ZN10QtMobility19QGeoServiceProviderC1ERK7QStringRK4QMapIS1_S1_E @ 540 NONAME
	_ZN10QtMobility19QGeoServiceProviderC1ERK7QStringiRK4QMapIS1_S1_E @ 541 NONAME
	_ZN10QtMobility19QGeoServiceProviderC2ERK7QStringRK4QMapIS1_S1_E @ 542 NONAME
	_ZN10QtMobility19QGeoServiceProviderC2ERK7QStringiRK4QMapIS1_S1_E @ 543 NONAME
	_ZN10QtMobility19QGeoServiceProviderD1Ev @ 544 NONAME
	_ZN10QtMobility19QGeoServiceProviderD2Ev @ 545 NONAME
	_ZN10QtMobility19QGeoTiledMapRequestC1EPNS_16QGeoTiledMapDataEiiRK5QRect @ 546 NONAME
	_ZN10QtMobility19QGeoTiledMapRequestC1ERKS0_ @ 547 NONAME
	_ZN10QtMobility19QGeoTiledMapRequestC1Ev @ 548 NONAME
	_ZN10QtMobility19QGeoTiledMapRequestC2EPNS_16QGeoTiledMapDataEiiRK5QRect @ 549 NONAME
	_ZN10QtMobility19QGeoTiledMapRequestC2ERKS0_ @ 550 NONAME
	_ZN10QtMobility19QGeoTiledMapRequestC2Ev @ 551 NONAME
	_ZN10QtMobility19QGeoTiledMapRequestD1Ev @ 552 NONAME
	_ZN10QtMobility19QGeoTiledMapRequestD2Ev @ 553 NONAME
	_ZN10QtMobility19QGeoTiledMapRequestaSERKS0_ @ 554 NONAME
	_ZN10QtMobility19QLandmarkCategoryId10setLocalIdERK7QString @ 555 NONAME
	_ZN10QtMobility19QLandmarkCategoryId13setManagerUriERK7QString @ 556 NONAME
	_ZN10QtMobility19QLandmarkCategoryIdC1ERKS0_ @ 557 NONAME
	_ZN10QtMobility19QLandmarkCategoryIdC1Ev @ 558 NONAME
	_ZN10QtMobility19QLandmarkCategoryIdC2ERKS0_ @ 559 NONAME
	_ZN10QtMobility19QLandmarkCategoryIdC2Ev @ 560 NONAME
	_ZN10QtMobility19QLandmarkCategoryIdD1Ev @ 561 NONAME
	_ZN10QtMobility19QLandmarkCategoryIdD2Ev @ 562 NONAME
	_ZN10QtMobility19QLandmarkCategoryIdaSERKS0_ @ 563 NONAME
	_ZN10QtMobility19QLandmarkNameFilter18setCaseSensitivityEN2Qt15CaseSensitivityE @ 564 NONAME
	_ZN10QtMobility19QLandmarkNameFilter7setNameERK7QString @ 565 NONAME
	_ZN10QtMobility19QLandmarkNameFilterC1ERK7QStringN2Qt15CaseSensitivityE @ 566 NONAME
	_ZN10QtMobility19QLandmarkNameFilterC1ERKNS_15QLandmarkFilterE @ 567 NONAME
	_ZN10QtMobility19QLandmarkNameFilterC2ERK7QStringN2Qt15CaseSensitivityE @ 568 NONAME
	_ZN10QtMobility19QLandmarkNameFilterC2ERKNS_15QLandmarkFilterE @ 569 NONAME
	_ZN10QtMobility19QLandmarkNameFilterD0Ev @ 570 NONAME
	_ZN10QtMobility19QLandmarkNameFilterD1Ev @ 571 NONAME
	_ZN10QtMobility19QLandmarkNameFilterD2Ev @ 572 NONAME
	_ZN10QtMobility20QGeoMapPolygonObject8setBrushERK6QBrush @ 573 NONAME
	_ZN10QtMobility20QGeoMapPolygonObjectC1EPNS_13QGeoMapObjectE @ 574 NONAME
	_ZN10QtMobility20QGeoMapPolygonObjectC2EPNS_13QGeoMapObjectE @ 575 NONAME
	_ZN10QtMobility20QGeoMapPolygonObjectD0Ev @ 576 NONAME
	_ZN10QtMobility20QGeoMapPolygonObjectD1Ev @ 577 NONAME
	_ZN10QtMobility20QGeoMapPolygonObjectD2Ev @ 578 NONAME
	_ZN10QtMobility20QLandmarkSaveRequest11qt_metacallEN11QMetaObject4CallEiPPv @ 579 NONAME
	_ZN10QtMobility20QLandmarkSaveRequest11qt_metacastEPKc @ 580 NONAME
	_ZN10QtMobility20QLandmarkSaveRequest11setLandmarkERKNS_9QLandmarkE @ 581 NONAME
	_ZN10QtMobility20QLandmarkSaveRequest12setLandmarksERK5QListINS_9QLandmarkEE @ 582 NONAME
	_ZN10QtMobility20QLandmarkSaveRequest16staticMetaObjectE @ 583 NONAME DATA 16
	_ZN10QtMobility20QLandmarkSaveRequest19getStaticMetaObjectEv @ 584 NONAME
	_ZN10QtMobility20QLandmarkSaveRequestC1EPNS_16QLandmarkManagerEP7QObject @ 585 NONAME
	_ZN10QtMobility20QLandmarkSaveRequestC2EPNS_16QLandmarkManagerEP7QObject @ 586 NONAME
	_ZN10QtMobility20QLandmarkSaveRequestD0Ev @ 587 NONAME
	_ZN10QtMobility20QLandmarkSaveRequestD1Ev @ 588 NONAME
	_ZN10QtMobility20QLandmarkSaveRequestD2Ev @ 589 NONAME
	_ZN10QtMobility20QLandmarkUnionFilter10setFiltersERK5QListINS_15QLandmarkFilterEE @ 590 NONAME
	_ZN10QtMobility20QLandmarkUnionFilter5clearEv @ 591 NONAME
	_ZN10QtMobility20QLandmarkUnionFilter6appendERKNS_15QLandmarkFilterE @ 592 NONAME
	_ZN10QtMobility20QLandmarkUnionFilter6removeERKNS_15QLandmarkFilterE @ 593 NONAME
	_ZN10QtMobility20QLandmarkUnionFilter7prependERKNS_15QLandmarkFilterE @ 594 NONAME
	_ZN10QtMobility20QLandmarkUnionFilterC1ERKNS_15QLandmarkFilterE @ 595 NONAME
	_ZN10QtMobility20QLandmarkUnionFilterC1Ev @ 596 NONAME
	_ZN10QtMobility20QLandmarkUnionFilterC2ERKNS_15QLandmarkFilterE @ 597 NONAME
	_ZN10QtMobility20QLandmarkUnionFilterC2Ev @ 598 NONAME
	_ZN10QtMobility20QLandmarkUnionFilterD0Ev @ 599 NONAME
	_ZN10QtMobility20QLandmarkUnionFilterD1Ev @ 600 NONAME
	_ZN10QtMobility20QLandmarkUnionFilterD2Ev @ 601 NONAME
	_ZN10QtMobility20QLandmarkUnionFilterlsERKNS_15QLandmarkFilterE @ 602 NONAME
	_ZN10QtMobility21QGeoMapPolylineObject6setPenERK4QPen @ 603 NONAME
	_ZN10QtMobility21QGeoMapPolylineObject7setPathERK5QListINS_14QGeoCoordinateEE @ 604 NONAME
	_ZN10QtMobility21QGeoMapPolylineObjectC1EPNS_13QGeoMapObjectE @ 605 NONAME
	_ZN10QtMobility21QGeoMapPolylineObjectC1EPNS_28QGeoMapPolylineObjectPrivateE @ 606 NONAME
	_ZN10QtMobility21QGeoMapPolylineObjectC2EPNS_13QGeoMapObjectE @ 607 NONAME
	_ZN10QtMobility21QGeoMapPolylineObjectC2EPNS_28QGeoMapPolylineObjectPrivateE @ 608 NONAME
	_ZN10QtMobility21QGeoMapPolylineObjectD0Ev @ 609 NONAME
	_ZN10QtMobility21QGeoMapPolylineObjectD1Ev @ 610 NONAME
	_ZN10QtMobility21QGeoMapPolylineObjectD2Ev @ 611 NONAME
	_ZN10QtMobility21QLandmarkDistanceSort13setCoordinateERKNS_14QGeoCoordinateE @ 612 NONAME
	_ZN10QtMobility21QLandmarkDistanceSortC1ERKNS_14QGeoCoordinateEN2Qt9SortOrderE @ 613 NONAME
	_ZN10QtMobility21QLandmarkDistanceSortC1ERKNS_18QLandmarkSortOrderE @ 614 NONAME
	_ZN10QtMobility21QLandmarkDistanceSortC2ERKNS_14QGeoCoordinateEN2Qt9SortOrderE @ 615 NONAME
	_ZN10QtMobility21QLandmarkDistanceSortC2ERKNS_18QLandmarkSortOrderE @ 616 NONAME
	_ZN10QtMobility21QLandmarkDistanceSortD0Ev @ 617 NONAME
	_ZN10QtMobility21QLandmarkDistanceSortD1Ev @ 618 NONAME
	_ZN10QtMobility21QLandmarkDistanceSortD2Ev @ 619 NONAME
	_ZN10QtMobility21QLandmarkFetchRequest10setSortingERK5QListINS_18QLandmarkSortOrderEE @ 620 NONAME
	_ZN10QtMobility21QLandmarkFetchRequest10setSortingERKNS_18QLandmarkSortOrderE @ 621 NONAME
	_ZN10QtMobility21QLandmarkFetchRequest11qt_metacallEN11QMetaObject4CallEiPPv @ 622 NONAME
	_ZN10QtMobility21QLandmarkFetchRequest11qt_metacastEPKc @ 623 NONAME
	_ZN10QtMobility21QLandmarkFetchRequest12setFetchHintERKNS_18QLandmarkFetchHintE @ 624 NONAME
	_ZN10QtMobility21QLandmarkFetchRequest14setLandmarkIdsERK5QListINS_11QLandmarkIdEE @ 625 NONAME
	_ZN10QtMobility21QLandmarkFetchRequest16staticMetaObjectE @ 626 NONAME DATA 16
	_ZN10QtMobility21QLandmarkFetchRequest19getStaticMetaObjectEv @ 627 NONAME
	_ZN10QtMobility21QLandmarkFetchRequest9setFilterERKNS_15QLandmarkFilterE @ 628 NONAME
	_ZN10QtMobility21QLandmarkFetchRequestC1EPNS_16QLandmarkManagerEP7QObject @ 629 NONAME
	_ZN10QtMobility21QLandmarkFetchRequestC2EPNS_16QLandmarkManagerEP7QObject @ 630 NONAME
	_ZN10QtMobility21QLandmarkFetchRequestD0Ev @ 631 NONAME
	_ZN10QtMobility21QLandmarkFetchRequestD1Ev @ 632 NONAME
	_ZN10QtMobility21QLandmarkFetchRequestD2Ev @ 633 NONAME
	_ZN10QtMobility22QGeoMapRectangleObject6setPenERK4QPen @ 634 NONAME
	_ZN10QtMobility22QGeoMapRectangleObject8setBrushERK6QBrush @ 635 NONAME
	_ZN10QtMobility22QGeoMapRectangleObject9setBoundsERKNS_15QGeoBoundingBoxE @ 636 NONAME
	_ZN10QtMobility22QGeoMapRectangleObjectC1ERKNS_14QGeoCoordinateES3_PNS_13QGeoMapObjectE @ 637 NONAME
	_ZN10QtMobility22QGeoMapRectangleObjectC1ERKNS_15QGeoBoundingBoxEPNS_13QGeoMapObjectE @ 638 NONAME
	_ZN10QtMobility22QGeoMapRectangleObjectC2ERKNS_14QGeoCoordinateES3_PNS_13QGeoMapObjectE @ 639 NONAME
	_ZN10QtMobility22QGeoMapRectangleObjectC2ERKNS_15QGeoBoundingBoxEPNS_13QGeoMapObjectE @ 640 NONAME
	_ZN10QtMobility22QGeoMapRectangleObjectD0Ev @ 641 NONAME
	_ZN10QtMobility22QGeoMapRectangleObjectD1Ev @ 642 NONAME
	_ZN10QtMobility22QGeoMapRectangleObjectD2Ev @ 643 NONAME
	_ZN10QtMobility22QLandmarkExportRequest11qt_metacallEN11QMetaObject4CallEiPPv @ 644 NONAME
	_ZN10QtMobility22QLandmarkExportRequest11qt_metacastEPKc @ 645 NONAME
	_ZN10QtMobility22QLandmarkExportRequest11setFileNameERK7QString @ 646 NONAME
	_ZN10QtMobility22QLandmarkExportRequest14setLandmarkIdsER5QListINS_11QLandmarkIdEE @ 647 NONAME
	_ZN10QtMobility22QLandmarkExportRequest16staticMetaObjectE @ 648 NONAME DATA 16
	_ZN10QtMobility22QLandmarkExportRequest19getStaticMetaObjectEv @ 649 NONAME
	_ZN10QtMobility22QLandmarkExportRequest9setDeviceEP9QIODevice @ 650 NONAME
	_ZN10QtMobility22QLandmarkExportRequest9setFormatERK7QString @ 651 NONAME
	_ZN10QtMobility22QLandmarkExportRequestC1EPNS_16QLandmarkManagerEP7QObject @ 652 NONAME
	_ZN10QtMobility22QLandmarkExportRequestC2EPNS_16QLandmarkManagerEP7QObject @ 653 NONAME
	_ZN10QtMobility22QLandmarkExportRequestD0Ev @ 654 NONAME
	_ZN10QtMobility22QLandmarkExportRequestD1Ev @ 655 NONAME
	_ZN10QtMobility22QLandmarkExportRequestD2Ev @ 656 NONAME
	_ZN10QtMobility22QLandmarkImportRequest11qt_metacallEN11QMetaObject4CallEiPPv @ 657 NONAME
	_ZN10QtMobility22QLandmarkImportRequest11qt_metacastEPKc @ 658 NONAME
	_ZN10QtMobility22QLandmarkImportRequest11setFileNameERK7QString @ 659 NONAME
	_ZN10QtMobility22QLandmarkImportRequest16staticMetaObjectE @ 660 NONAME DATA 16
	_ZN10QtMobility22QLandmarkImportRequest19getStaticMetaObjectEv @ 661 NONAME
	_ZN10QtMobility22QLandmarkImportRequest9setDeviceEP9QIODevice @ 662 NONAME
	_ZN10QtMobility22QLandmarkImportRequest9setFormatERK7QString @ 663 NONAME
	_ZN10QtMobility22QLandmarkImportRequestC1EPNS_16QLandmarkManagerEP7QObject @ 664 NONAME
	_ZN10QtMobility22QLandmarkImportRequestC2EPNS_16QLandmarkManagerEP7QObject @ 665 NONAME
	_ZN10QtMobility22QLandmarkImportRequestD0Ev @ 666 NONAME
	_ZN10QtMobility22QLandmarkImportRequestD1Ev @ 667 NONAME
	_ZN10QtMobility22QLandmarkImportRequestD2Ev @ 668 NONAME
	_ZN10QtMobility22QLandmarkManagerEngine10testFilterERKNS_15QLandmarkFilterERKNS_9QLandmarkE @ 669 NONAME
	_ZN10QtMobility22QLandmarkManagerEngine11compareNameERKNS_9QLandmarkES3_RKNS_17QLandmarkNameSortE @ 670 NONAME
	_ZN10QtMobility22QLandmarkManagerEngine11dataChangedEv @ 671 NONAME
	_ZN10QtMobility22QLandmarkManagerEngine11qt_metacallEN11QMetaObject4CallEiPPv @ 672 NONAME
	_ZN10QtMobility22QLandmarkManagerEngine11qt_metacastEPKc @ 673 NONAME
	_ZN10QtMobility22QLandmarkManagerEngine12saveCategoryEPNS_17QLandmarkCategoryEPNS_16QLandmarkManager5ErrorEP7QString @ 674 NONAME
	_ZN10QtMobility22QLandmarkManagerEngine12saveLandmarkEPNS_9QLandmarkEPNS_16QLandmarkManager5ErrorEP7QString @ 675 NONAME
	_ZN10QtMobility22QLandmarkManagerEngine12startRequestEPNS_24QLandmarkAbstractRequestE @ 676 NONAME
	_ZN10QtMobility22QLandmarkManagerEngine13cancelRequestEPNS_24QLandmarkAbstractRequestE @ 677 NONAME
	_ZN10QtMobility22QLandmarkManagerEngine13saveLandmarksEP5QListINS_9QLandmarkEEP4QMapIiNS_16QLandmarkManager5ErrorEEPS7_P7QString @ 678 NONAME
	_ZN10QtMobility22QLandmarkManagerEngine13sortLandmarksERK5QListINS_9QLandmarkEERKS1_INS_18QLandmarkSortOrderEE @ 679 NONAME
	_ZN10QtMobility22QLandmarkManagerEngine14landmarksAddedERK5QListINS_11QLandmarkIdEE @ 680 NONAME
	_ZN10QtMobility22QLandmarkManagerEngine14removeCategoryERKNS_19QLandmarkCategoryIdEPNS_16QLandmarkManager5ErrorEP7QString @ 681 NONAME
	_ZN10QtMobility22QLandmarkManagerEngine14removeLandmarkERKNS_11QLandmarkIdEPNS_16QLandmarkManager5ErrorEP7QString @ 682 NONAME
	_ZN10QtMobility22QLandmarkManagerEngine15categoriesAddedERK5QListINS_19QLandmarkCategoryIdEE @ 683 NONAME
	_ZN10QtMobility22QLandmarkManagerEngine15compareDistanceERKNS_9QLandmarkES3_RKNS_21QLandmarkDistanceSortE @ 684 NONAME
	_ZN10QtMobility22QLandmarkManagerEngine15compareLandmarkERKNS_9QLandmarkES3_RK5QListINS_18QLandmarkSortOrderEE @ 685 NONAME
	_ZN10QtMobility22QLandmarkManagerEngine15importLandmarksEP9QIODeviceRK7QStringPNS_16QLandmarkManager5ErrorEPS3_ @ 686 NONAME
	_ZN10QtMobility22QLandmarkManagerEngine15removeLandmarksERK5QListINS_11QLandmarkIdEEP4QMapIiNS_16QLandmarkManager5ErrorEEPS8_P7QString @ 687 NONAME
	_ZN10QtMobility22QLandmarkManagerEngine16landmarksChangedERK5QListINS_11QLandmarkIdEE @ 688 NONAME
	_ZN10QtMobility22QLandmarkManagerEngine16landmarksRemovedERK5QListINS_11QLandmarkIdEE @ 689 NONAME
	_ZN10QtMobility22QLandmarkManagerEngine16requestDestroyedEPNS_24QLandmarkAbstractRequestE @ 690 NONAME
	_ZN10QtMobility22QLandmarkManagerEngine16staticMetaObjectE @ 691 NONAME DATA 16
	_ZN10QtMobility22QLandmarkManagerEngine17categoriesChangedERK5QListINS_19QLandmarkCategoryIdEE @ 692 NONAME
	_ZN10QtMobility22QLandmarkManagerEngine17categoriesRemovedERK5QListINS_19QLandmarkCategoryIdEE @ 693 NONAME
	_ZN10QtMobility22QLandmarkManagerEngine18updateRequestStateEPNS_24QLandmarkAbstractRequestENS1_5StateE @ 694 NONAME
	_ZN10QtMobility22QLandmarkManagerEngine19getStaticMetaObjectEv @ 695 NONAME
	_ZN10QtMobility22QLandmarkManagerEngine22waitForRequestFinishedEPNS_24QLandmarkAbstractRequestEi @ 696 NONAME
	_ZN10QtMobility22QLandmarkManagerEngine25updateLandmarkSaveRequestEPNS_20QLandmarkSaveRequestERK5QListINS_9QLandmarkEENS_16QLandmarkManager5ErrorERK7QStringRK4QMapIiS9_ENS_24QLandmarkAbstractRequest5StateE @ 697 NONAME
	_ZN10QtMobility22QLandmarkManagerEngine26updateLandmarkFetchRequestEPNS_21QLandmarkFetchRequestERK5QListINS_9QLandmarkEENS_16QLandmarkManager5ErrorERK7QStringNS_24QLandmarkAbstractRequest5StateE @ 698 NONAME
	_ZN10QtMobility22QLandmarkManagerEngine27updateLandmarkExportRequestEPNS_22QLandmarkExportRequestENS_16QLandmarkManager5ErrorERK7QStringNS_24QLandmarkAbstractRequest5StateE @ 699 NONAME
	_ZN10QtMobility22QLandmarkManagerEngine27updateLandmarkImportRequestEPNS_22QLandmarkImportRequestENS_16QLandmarkManager5ErrorERK7QStringNS_24QLandmarkAbstractRequest5StateE @ 700 NONAME
	_ZN10QtMobility22QLandmarkManagerEngine27updateLandmarkRemoveRequestEPNS_22QLandmarkRemoveRequestENS_16QLandmarkManager5ErrorERK7QStringRK4QMapIiS4_ENS_24QLandmarkAbstractRequest5StateE @ 701 NONAME
	_ZN10QtMobility22QLandmarkManagerEngine28updateLandmarkIdFetchRequestEPNS_23QLandmarkIdFetchRequestERK5QListINS_11QLandmarkIdEENS_16QLandmarkManager5ErrorERK7QStringNS_24QLandmarkAbstractRequest5StateE @ 702 NONAME
	_ZN10QtMobility22QLandmarkManagerEngine33updateLandmarkCategorySaveRequestEPNS_28QLandmarkCategorySaveRequestERK5QListINS_17QLandmarkCategoryEENS_16QLandmarkManager5ErrorERK7QStringRK4QMapIiS9_ENS_24QLandmarkAbstractRequest5StateE @ 703 NONAME
	_ZN10QtMobility22QLandmarkManagerEngine34updateLandmarkCategoryFetchRequestEPNS_29QLandmarkCategoryFetchRequestERK5QListINS_17QLandmarkCategoryEENS_16QLandmarkManager5ErrorERK7QStringNS_24QLandmarkAbstractRequest5StateE @ 704 NONAME
	_ZN10QtMobility22QLandmarkManagerEngine35updateLandmarkCategoryRemoveRequestEPNS_30QLandmarkCategoryRemoveRequestENS_16QLandmarkManager5ErrorERK7QStringRK4QMapIiS4_ENS_24QLandmarkAbstractRequest5StateE @ 705 NONAME
	_ZN10QtMobility22QLandmarkManagerEngine36updateLandmarkCategoryIdFetchRequestEPNS_31QLandmarkCategoryIdFetchRequestERK5QListINS_19QLandmarkCategoryIdEENS_16QLandmarkManager5ErrorERK7QStringNS_24QLandmarkAbstractRequest5StateE @ 706 NONAME
	_ZN10QtMobility22QLandmarkManagerEngine9addSortedEP5QListINS_9QLandmarkEERKS2_RKS1_INS_18QLandmarkSortOrderEE @ 707 NONAME
	_ZN10QtMobility22QLandmarkManagerEngineC2Ev @ 708 NONAME
	_ZN10QtMobility22QLandmarkManagerEngineD0Ev @ 709 NONAME
	_ZN10QtMobility22QLandmarkManagerEngineD1Ev @ 710 NONAME
	_ZN10QtMobility22QLandmarkManagerEngineD2Ev @ 711 NONAME
	_ZN10QtMobility22QLandmarkRemoveRequest11qt_metacallEN11QMetaObject4CallEiPPv @ 712 NONAME
	_ZN10QtMobility22QLandmarkRemoveRequest11qt_metacastEPKc @ 713 NONAME
	_ZN10QtMobility22QLandmarkRemoveRequest13setLandmarkIdERKNS_11QLandmarkIdE @ 714 NONAME
	_ZN10QtMobility22QLandmarkRemoveRequest14setLandmarkIdsERK5QListINS_11QLandmarkIdEE @ 715 NONAME
	_ZN10QtMobility22QLandmarkRemoveRequest16staticMetaObjectE @ 716 NONAME DATA 16
	_ZN10QtMobility22QLandmarkRemoveRequest19getStaticMetaObjectEv @ 717 NONAME
	_ZN10QtMobility22QLandmarkRemoveRequestC1EPNS_16QLandmarkManagerEP7QObject @ 718 NONAME
	_ZN10QtMobility22QLandmarkRemoveRequestC2EPNS_16QLandmarkManagerEP7QObject @ 719 NONAME
	_ZN10QtMobility22QLandmarkRemoveRequestD0Ev @ 720 NONAME
	_ZN10QtMobility22QLandmarkRemoveRequestD1Ev @ 721 NONAME
	_ZN10QtMobility22QLandmarkRemoveRequestD2Ev @ 722 NONAME
	_ZN10QtMobility23QGeoSearchManagerEngine11qt_metacallEN11QMetaObject4CallEiPPv @ 723 NONAME
	_ZN10QtMobility23QGeoSearchManagerEngine11qt_metacastEPKc @ 724 NONAME
	_ZN10QtMobility23QGeoSearchManagerEngine14reverseGeocodeERKNS_14QGeoCoordinateERKNS_15QGeoBoundingBoxE @ 725 NONAME
	_ZN10QtMobility23QGeoSearchManagerEngine14setManagerNameERK7QString @ 726 NONAME
	_ZN10QtMobility23QGeoSearchManagerEngine16staticMetaObjectE @ 727 NONAME DATA 16
	_ZN10QtMobility23QGeoSearchManagerEngine17setManagerVersionEi @ 728 NONAME
	_ZN10QtMobility23QGeoSearchManagerEngine19getStaticMetaObjectEv @ 729 NONAME
	_ZN10QtMobility23QGeoSearchManagerEngine20setSupportsGeocodingEb @ 730 NONAME
	_ZN10QtMobility23QGeoSearchManagerEngine23setSupportedSearchTypesE6QFlagsINS_17QGeoSearchManager10SearchTypeEE @ 731 NONAME
	_ZN10QtMobility23QGeoSearchManagerEngine25setDefaultLandmarkManagerEPNS_16QLandmarkManagerE @ 732 NONAME
	_ZN10QtMobility23QGeoSearchManagerEngine28addAdditionalLandmarkManagerEPNS_16QLandmarkManagerE @ 733 NONAME
	_ZN10QtMobility23QGeoSearchManagerEngine29setAdditionalLandmarkManagersERK5QListIPNS_16QLandmarkManagerEE @ 734 NONAME
	_ZN10QtMobility23QGeoSearchManagerEngine5errorEPNS_15QGeoSearchReplyENS1_5ErrorE7QString @ 735 NONAME
	_ZN10QtMobility23QGeoSearchManagerEngine6searchERK7QString6QFlagsINS_17QGeoSearchManager10SearchTypeEERKNS_15QGeoBoundingBoxE @ 736 NONAME
	_ZN10QtMobility23QGeoSearchManagerEngine7geocodeERKNS_11QGeoAddressERKNS_15QGeoBoundingBoxE @ 737 NONAME
	_ZN10QtMobility23QGeoSearchManagerEngine8finishedEPNS_15QGeoSearchReplyE @ 738 NONAME
	_ZN10QtMobility23QGeoSearchManagerEngineC1ERK4QMapI7QStringS2_EP7QObject @ 739 NONAME
	_ZN10QtMobility23QGeoSearchManagerEngineC2ERK4QMapI7QStringS2_EP7QObject @ 740 NONAME
	_ZN10QtMobility23QGeoSearchManagerEngineD0Ev @ 741 NONAME
	_ZN10QtMobility23QGeoSearchManagerEngineD1Ev @ 742 NONAME
	_ZN10QtMobility23QGeoSearchManagerEngineD2Ev @ 743 NONAME
	_ZN10QtMobility23QLandmarkCategoryFilter13setCategoryIdERKNS_19QLandmarkCategoryIdE @ 744 NONAME
	_ZN10QtMobility23QLandmarkCategoryFilterC1ERKNS_15QLandmarkFilterE @ 745 NONAME
	_ZN10QtMobility23QLandmarkCategoryFilterC1ERKNS_19QLandmarkCategoryIdE @ 746 NONAME
	_ZN10QtMobility23QLandmarkCategoryFilterC2ERKNS_15QLandmarkFilterE @ 747 NONAME
	_ZN10QtMobility23QLandmarkCategoryFilterC2ERKNS_19QLandmarkCategoryIdE @ 748 NONAME
	_ZN10QtMobility23QLandmarkCategoryFilterD0Ev @ 749 NONAME
	_ZN10QtMobility23QLandmarkCategoryFilterD1Ev @ 750 NONAME
	_ZN10QtMobility23QLandmarkCategoryFilterD2Ev @ 751 NONAME
	_ZN10QtMobility23QLandmarkFreeTextFilter15setSearchStringERK7QString @ 752 NONAME
	_ZN10QtMobility23QLandmarkFreeTextFilterC1ERK7QString @ 753 NONAME
	_ZN10QtMobility23QLandmarkFreeTextFilterC1ERKNS_15QLandmarkFilterE @ 754 NONAME
	_ZN10QtMobility23QLandmarkFreeTextFilterC2ERK7QString @ 755 NONAME
	_ZN10QtMobility23QLandmarkFreeTextFilterC2ERKNS_15QLandmarkFilterE @ 756 NONAME
	_ZN10QtMobility23QLandmarkFreeTextFilterD0Ev @ 757 NONAME
	_ZN10QtMobility23QLandmarkFreeTextFilterD1Ev @ 758 NONAME
	_ZN10QtMobility23QLandmarkFreeTextFilterD2Ev @ 759 NONAME
	_ZN10QtMobility23QLandmarkIdFetchRequest10setSortingERK5QListINS_18QLandmarkSortOrderEE @ 760 NONAME
	_ZN10QtMobility23QLandmarkIdFetchRequest10setSortingERKNS_18QLandmarkSortOrderE @ 761 NONAME
	_ZN10QtMobility23QLandmarkIdFetchRequest11qt_metacallEN11QMetaObject4CallEiPPv @ 762 NONAME
	_ZN10QtMobility23QLandmarkIdFetchRequest11qt_metacastEPKc @ 763 NONAME
	_ZN10QtMobility23QLandmarkIdFetchRequest12setFetchHintERKNS_18QLandmarkFetchHintE @ 764 NONAME
	_ZN10QtMobility23QLandmarkIdFetchRequest16staticMetaObjectE @ 765 NONAME DATA 16
	_ZN10QtMobility23QLandmarkIdFetchRequest19getStaticMetaObjectEv @ 766 NONAME
	_ZN10QtMobility23QLandmarkIdFetchRequest9setFilterERKNS_15QLandmarkFilterE @ 767 NONAME
	_ZN10QtMobility23QLandmarkIdFetchRequestC1EPNS_16QLandmarkManagerEP7QObject @ 768 NONAME
	_ZN10QtMobility23QLandmarkIdFetchRequestC2EPNS_16QLandmarkManagerEP7QObject @ 769 NONAME
	_ZN10QtMobility23QLandmarkIdFetchRequestD0Ev @ 770 NONAME
	_ZN10QtMobility23QLandmarkIdFetchRequestD1Ev @ 771 NONAME
	_ZN10QtMobility23QLandmarkIdFetchRequestD2Ev @ 772 NONAME
	_ZN10QtMobility24QGeoMappingManagerEngine11qt_metacallEN11QMetaObject4CallEiPPv @ 773 NONAME
	_ZN10QtMobility24QGeoMappingManagerEngine11qt_metacastEPKc @ 774 NONAME
	_ZN10QtMobility24QGeoMappingManagerEngine13removeMapDataEPNS_11QGeoMapDataE @ 775 NONAME
	_ZN10QtMobility24QGeoMappingManagerEngine14setManagerNameERK7QString @ 776 NONAME
	_ZN10QtMobility24QGeoMappingManagerEngine16staticMetaObjectE @ 777 NONAME DATA 16
	_ZN10QtMobility24QGeoMappingManagerEngine17setManagerVersionEi @ 778 NONAME
	_ZN10QtMobility24QGeoMappingManagerEngine19getStaticMetaObjectEv @ 779 NONAME
	_ZN10QtMobility24QGeoMappingManagerEngine19setMaximumImageSizeERK5QSize @ 780 NONAME
	_ZN10QtMobility24QGeoMappingManagerEngine19setMaximumZoomLevelEf @ 781 NONAME
	_ZN10QtMobility24QGeoMappingManagerEngine19setMinimumImageSizeERK5QSize @ 782 NONAME
	_ZN10QtMobility24QGeoMappingManagerEngine19setMinimumZoomLevelEf @ 783 NONAME
	_ZN10QtMobility24QGeoMappingManagerEngine20setSupportedMapTypesERK5QListINS_13QGeoMapWidget7MapTypeEE @ 784 NONAME
	_ZN10QtMobility24QGeoMappingManagerEngineC2EPNS_31QGeoMappingManagerEnginePrivateEP7QObject @ 785 NONAME
	_ZN10QtMobility24QGeoMappingManagerEngineC2ERK4QMapI7QStringS2_EP7QObject @ 786 NONAME
	_ZN10QtMobility24QGeoMappingManagerEngineD0Ev @ 787 NONAME
	_ZN10QtMobility24QGeoMappingManagerEngineD1Ev @ 788 NONAME
	_ZN10QtMobility24QGeoMappingManagerEngineD2Ev @ 789 NONAME
	_ZN10QtMobility24QGeoRoutingManagerEngine11qt_metacallEN11QMetaObject4CallEiPPv @ 790 NONAME
	_ZN10QtMobility24QGeoRoutingManagerEngine11qt_metacastEPKc @ 791 NONAME
	_ZN10QtMobility24QGeoRoutingManagerEngine11updateRouteERKNS_9QGeoRouteERKNS_14QGeoCoordinateE @ 792 NONAME
	_ZN10QtMobility24QGeoRoutingManagerEngine14setManagerNameERK7QString @ 793 NONAME
	_ZN10QtMobility24QGeoRoutingManagerEngine16staticMetaObjectE @ 794 NONAME DATA 16
	_ZN10QtMobility24QGeoRoutingManagerEngine17setManagerVersionEi @ 795 NONAME
	_ZN10QtMobility24QGeoRoutingManagerEngine19getStaticMetaObjectEv @ 796 NONAME
	_ZN10QtMobility24QGeoRoutingManagerEngine23setSupportedTravelModesE6QFlagsINS_16QGeoRouteRequest10TravelModeEE @ 797 NONAME
	_ZN10QtMobility24QGeoRoutingManagerEngine23setSupportsExcludeAreasEb @ 798 NONAME
	_ZN10QtMobility24QGeoRoutingManagerEngine23setSupportsRouteUpdatesEb @ 799 NONAME
	_ZN10QtMobility24QGeoRoutingManagerEngine26setSupportedSegmentDetailsE6QFlagsINS_16QGeoRouteRequest13SegmentDetailEE @ 800 NONAME
	_ZN10QtMobility24QGeoRoutingManagerEngine28setSupportsAlternativeRoutesEb @ 801 NONAME
	_ZN10QtMobility24QGeoRoutingManagerEngine29setSupportedAvoidFeatureTypesE6QFlagsINS_16QGeoRouteRequest16AvoidFeatureTypeEE @ 802 NONAME
	_ZN10QtMobility24QGeoRoutingManagerEngine30setSupportedInstructionDetailsE6QFlagsINS_16QGeoRouteRequest17InstructionDetailEE @ 803 NONAME
	_ZN10QtMobility24QGeoRoutingManagerEngine30setSupportedRouteOptimizationsE6QFlagsINS_16QGeoRouteRequest17RouteOptimizationEE @ 804 NONAME
	_ZN10QtMobility24QGeoRoutingManagerEngine5errorEPNS_14QGeoRouteReplyENS1_5ErrorE7QString @ 805 NONAME
	_ZN10QtMobility24QGeoRoutingManagerEngine8finishedEPNS_14QGeoRouteReplyE @ 806 NONAME
	_ZN10QtMobility24QGeoRoutingManagerEngineC2ERK4QMapI7QStringS2_EP7QObject @ 807 NONAME
	_ZN10QtMobility24QGeoRoutingManagerEngineD0Ev @ 808 NONAME
	_ZN10QtMobility24QGeoRoutingManagerEngineD1Ev @ 809 NONAME
	_ZN10QtMobility24QGeoRoutingManagerEngineD2Ev @ 810 NONAME
	_ZN10QtMobility24QLandmarkAbstractRequest10setManagerEPNS_16QLandmarkManagerE @ 811 NONAME
	_ZN10QtMobility24QLandmarkAbstractRequest11qt_metacallEN11QMetaObject4CallEiPPv @ 812 NONAME
	_ZN10QtMobility24QLandmarkAbstractRequest11qt_metacastEPKc @ 813 NONAME
	_ZN10QtMobility24QLandmarkAbstractRequest12stateChangedENS0_5StateE @ 814 NONAME
	_ZN10QtMobility24QLandmarkAbstractRequest15waitForFinishedEi @ 815 NONAME
	_ZN10QtMobility24QLandmarkAbstractRequest16resultsAvailableEv @ 816 NONAME
	_ZN10QtMobility24QLandmarkAbstractRequest16staticMetaObjectE @ 817 NONAME DATA 16
	_ZN10QtMobility24QLandmarkAbstractRequest19getStaticMetaObjectEv @ 818 NONAME
	_ZN10QtMobility24QLandmarkAbstractRequest5startEv @ 819 NONAME
	_ZN10QtMobility24QLandmarkAbstractRequest5stateEv @ 820 NONAME
	_ZN10QtMobility24QLandmarkAbstractRequest6cancelEv @ 821 NONAME
	_ZN10QtMobility24QLandmarkAbstractRequestC1EPNS_16QLandmarkManagerEP7QObject @ 822 NONAME
	_ZN10QtMobility24QLandmarkAbstractRequestC1EPNS_31QLandmarkAbstractRequestPrivateEP7QObject @ 823 NONAME
	_ZN10QtMobility24QLandmarkAbstractRequestC2EPNS_16QLandmarkManagerEP7QObject @ 824 NONAME
	_ZN10QtMobility24QLandmarkAbstractRequestC2EPNS_31QLandmarkAbstractRequestPrivateEP7QObject @ 825 NONAME
	_ZN10QtMobility24QLandmarkAbstractRequestD0Ev @ 826 NONAME
	_ZN10QtMobility24QLandmarkAbstractRequestD1Ev @ 827 NONAME
	_ZN10QtMobility24QLandmarkAbstractRequestD2Ev @ 828 NONAME
	_ZN10QtMobility24QLandmarkAttributeFilter12setAttributeERK7QStringRK8QVariant @ 829 NONAME
	_ZN10QtMobility24QLandmarkAttributeFilter15clearAttributesEv @ 830 NONAME
	_ZN10QtMobility24QLandmarkAttributeFilter15removeAttributeERK7QString @ 831 NONAME
	_ZN10QtMobility24QLandmarkAttributeFilterC1ERKNS_15QLandmarkFilterE @ 832 NONAME
	_ZN10QtMobility24QLandmarkAttributeFilterC1Ev @ 833 NONAME
	_ZN10QtMobility24QLandmarkAttributeFilterC2ERKNS_15QLandmarkFilterE @ 834 NONAME
	_ZN10QtMobility24QLandmarkAttributeFilterC2Ev @ 835 NONAME
	_ZN10QtMobility24QLandmarkAttributeFilterD0Ev @ 836 NONAME
	_ZN10QtMobility24QLandmarkAttributeFilterD1Ev @ 837 NONAME
	_ZN10QtMobility24QLandmarkAttributeFilterD2Ev @ 838 NONAME
	_ZN10QtMobility24QLandmarkProximityFilter12setSelectionENS0_9SelectionE @ 839 NONAME
	_ZN10QtMobility24QLandmarkProximityFilter13setCoordinateERKNS_14QGeoCoordinateE @ 840 NONAME
	_ZN10QtMobility24QLandmarkProximityFilter9setRadiusEd @ 841 NONAME
	_ZN10QtMobility24QLandmarkProximityFilterC1ERKNS_14QGeoCoordinateEd @ 842 NONAME
	_ZN10QtMobility24QLandmarkProximityFilterC1ERKNS_15QLandmarkFilterE @ 843 NONAME
	_ZN10QtMobility24QLandmarkProximityFilterC2ERKNS_14QGeoCoordinateEd @ 844 NONAME
	_ZN10QtMobility24QLandmarkProximityFilterC2ERKNS_15QLandmarkFilterE @ 845 NONAME
	_ZN10QtMobility24QLandmarkProximityFilterD0Ev @ 846 NONAME
	_ZN10QtMobility24QLandmarkProximityFilterD1Ev @ 847 NONAME
	_ZN10QtMobility24QLandmarkProximityFilterD2Ev @ 848 NONAME
	_ZN10QtMobility25QGeoNavigationInstruction11setPositionERKNS_14QGeoCoordinateE @ 849 NONAME
	_ZN10QtMobility25QGeoNavigationInstruction12setDirectionENS0_20InstructionDirectionE @ 850 NONAME
	_ZN10QtMobility25QGeoNavigationInstruction18setInstructionTextERK7QString @ 851 NONAME
	_ZN10QtMobility25QGeoNavigationInstruction24setTimeToNextInstructionEi @ 852 NONAME
	_ZN10QtMobility25QGeoNavigationInstruction28setDistanceToNextInstructionEf @ 853 NONAME
	_ZN10QtMobility25QGeoNavigationInstructionC1ERKS0_ @ 854 NONAME
	_ZN10QtMobility25QGeoNavigationInstructionC1Ev @ 855 NONAME
	_ZN10QtMobility25QGeoNavigationInstructionC2ERKS0_ @ 856 NONAME
	_ZN10QtMobility25QGeoNavigationInstructionC2Ev @ 857 NONAME
	_ZN10QtMobility25QGeoNavigationInstructionD1Ev @ 858 NONAME
	_ZN10QtMobility25QGeoNavigationInstructionD2Ev @ 859 NONAME
	_ZN10QtMobility25QGeoNavigationInstructionaSERKS0_ @ 860 NONAME
	_ZN10QtMobility27QLandmarkIntersectionFilter10setFiltersERK5QListINS_15QLandmarkFilterEE @ 861 NONAME
	_ZN10QtMobility27QLandmarkIntersectionFilter5clearEv @ 862 NONAME
	_ZN10QtMobility27QLandmarkIntersectionFilter6appendERKNS_15QLandmarkFilterE @ 863 NONAME
	_ZN10QtMobility27QLandmarkIntersectionFilter6removeERKNS_15QLandmarkFilterE @ 864 NONAME
	_ZN10QtMobility27QLandmarkIntersectionFilter7prependERKNS_15QLandmarkFilterE @ 865 NONAME
	_ZN10QtMobility27QLandmarkIntersectionFilterC1ERKNS_15QLandmarkFilterE @ 866 NONAME
	_ZN10QtMobility27QLandmarkIntersectionFilterC1Ev @ 867 NONAME
	_ZN10QtMobility27QLandmarkIntersectionFilterC2ERKNS_15QLandmarkFilterE @ 868 NONAME
	_ZN10QtMobility27QLandmarkIntersectionFilterC2Ev @ 869 NONAME
	_ZN10QtMobility27QLandmarkIntersectionFilterD0Ev @ 870 NONAME
	_ZN10QtMobility27QLandmarkIntersectionFilterD1Ev @ 871 NONAME
	_ZN10QtMobility27QLandmarkIntersectionFilterD2Ev @ 872 NONAME
	_ZN10QtMobility27QLandmarkIntersectionFilterlsERKNS_15QLandmarkFilterE @ 873 NONAME
	_ZN10QtMobility28QLandmarkCategorySaveRequest11qt_metacallEN11QMetaObject4CallEiPPv @ 874 NONAME
	_ZN10QtMobility28QLandmarkCategorySaveRequest11qt_metacastEPKc @ 875 NONAME
	_ZN10QtMobility28QLandmarkCategorySaveRequest11setCategoryERKNS_17QLandmarkCategoryE @ 876 NONAME
	_ZN10QtMobility28QLandmarkCategorySaveRequest13setCategoriesERK5QListINS_17QLandmarkCategoryEE @ 877 NONAME
	_ZN10QtMobility28QLandmarkCategorySaveRequest16staticMetaObjectE @ 878 NONAME DATA 16
	_ZN10QtMobility28QLandmarkCategorySaveRequest19getStaticMetaObjectEv @ 879 NONAME
	_ZN10QtMobility28QLandmarkCategorySaveRequestC1EPNS_16QLandmarkManagerEP7QObject @ 880 NONAME
	_ZN10QtMobility28QLandmarkCategorySaveRequestC2EPNS_16QLandmarkManagerEP7QObject @ 881 NONAME
	_ZN10QtMobility28QLandmarkCategorySaveRequestD0Ev @ 882 NONAME
	_ZN10QtMobility28QLandmarkCategorySaveRequestD1Ev @ 883 NONAME
	_ZN10QtMobility28QLandmarkCategorySaveRequestD2Ev @ 884 NONAME
	_ZN10QtMobility29QGeoTiledMappingManagerEngine11qt_metacallEN11QMetaObject4CallEiPPv @ 885 NONAME
	_ZN10QtMobility29QGeoTiledMappingManagerEngine11qt_metacastEPKc @ 886 NONAME
	_ZN10QtMobility29QGeoTiledMappingManagerEngine11setTileSizeERK5QSize @ 887 NONAME
	_ZN10QtMobility29QGeoTiledMappingManagerEngine13createMapDataEPNS_13QGeoMapWidgetE @ 888 NONAME
	_ZN10QtMobility29QGeoTiledMappingManagerEngine13removeMapDataEPNS_11QGeoMapDataE @ 889 NONAME
	_ZN10QtMobility29QGeoTiledMappingManagerEngine16staticMetaObjectE @ 890 NONAME DATA 16
	_ZN10QtMobility29QGeoTiledMappingManagerEngine19getStaticMetaObjectEv @ 891 NONAME
	_ZN10QtMobility29QGeoTiledMappingManagerEngine24setSupportedImageFormatsERK5QListI7QStringE @ 892 NONAME
	_ZN10QtMobility29QGeoTiledMappingManagerEngineC2ERK4QMapI7QStringS2_EP7QObject @ 893 NONAME
	_ZN10QtMobility29QGeoTiledMappingManagerEngineD0Ev @ 894 NONAME
	_ZN10QtMobility29QGeoTiledMappingManagerEngineD1Ev @ 895 NONAME
	_ZN10QtMobility29QGeoTiledMappingManagerEngineD2Ev @ 896 NONAME
	_ZN10QtMobility29QLandmarkCategoryFetchRequest10setSortingERKNS_17QLandmarkNameSortE @ 897 NONAME
	_ZN10QtMobility29QLandmarkCategoryFetchRequest11qt_metacallEN11QMetaObject4CallEiPPv @ 898 NONAME
	_ZN10QtMobility29QLandmarkCategoryFetchRequest11qt_metacastEPKc @ 899 NONAME
	_ZN10QtMobility29QLandmarkCategoryFetchRequest13setCategoryIdERKNS_19QLandmarkCategoryIdE @ 900 NONAME
	_ZN10QtMobility29QLandmarkCategoryFetchRequest14setCategoryIdsERK5QListINS_19QLandmarkCategoryIdEE @ 901 NONAME
	_ZN10QtMobility29QLandmarkCategoryFetchRequest16staticMetaObjectE @ 902 NONAME DATA 16
	_ZN10QtMobility29QLandmarkCategoryFetchRequest17setMatchingSchemeENS0_14MatchingSchemeE @ 903 NONAME
	_ZN10QtMobility29QLandmarkCategoryFetchRequest19getStaticMetaObjectEv @ 904 NONAME
	_ZN10QtMobility29QLandmarkCategoryFetchRequestC1EPNS_16QLandmarkManagerEP7QObject @ 905 NONAME
	_ZN10QtMobility29QLandmarkCategoryFetchRequestC2EPNS_16QLandmarkManagerEP7QObject @ 906 NONAME
	_ZN10QtMobility29QLandmarkCategoryFetchRequestD0Ev @ 907 NONAME
	_ZN10QtMobility29QLandmarkCategoryFetchRequestD1Ev @ 908 NONAME
	_ZN10QtMobility29QLandmarkCategoryFetchRequestD2Ev @ 909 NONAME
	_ZN10QtMobility29QLandmarkManagerEngineFactoryD0Ev @ 910 NONAME
	_ZN10QtMobility29QLandmarkManagerEngineFactoryD1Ev @ 911 NONAME
	_ZN10QtMobility29QLandmarkManagerEngineFactoryD2Ev @ 912 NONAME
	_ZN10QtMobility30QLandmarkCategoryRemoveRequest11qt_metacallEN11QMetaObject4CallEiPPv @ 913 NONAME
	_ZN10QtMobility30QLandmarkCategoryRemoveRequest11qt_metacastEPKc @ 914 NONAME
	_ZN10QtMobility30QLandmarkCategoryRemoveRequest13setCategoryIdERKNS_19QLandmarkCategoryIdE @ 915 NONAME
	_ZN10QtMobility30QLandmarkCategoryRemoveRequest14setCategoryIdsERK5QListINS_19QLandmarkCategoryIdEE @ 916 NONAME
	_ZN10QtMobility30QLandmarkCategoryRemoveRequest16staticMetaObjectE @ 917 NONAME DATA 16
	_ZN10QtMobility30QLandmarkCategoryRemoveRequest19getStaticMetaObjectEv @ 918 NONAME
	_ZN10QtMobility30QLandmarkCategoryRemoveRequestC1EPNS_16QLandmarkManagerEP7QObject @ 919 NONAME
	_ZN10QtMobility30QLandmarkCategoryRemoveRequestC2EPNS_16QLandmarkManagerEP7QObject @ 920 NONAME
	_ZN10QtMobility30QLandmarkCategoryRemoveRequestD0Ev @ 921 NONAME
	_ZN10QtMobility30QLandmarkCategoryRemoveRequestD1Ev @ 922 NONAME
	_ZN10QtMobility30QLandmarkCategoryRemoveRequestD2Ev @ 923 NONAME
	_ZN10QtMobility31QLandmarkCategoryIdFetchRequest10setSortingERKNS_17QLandmarkNameSortE @ 924 NONAME
	_ZN10QtMobility31QLandmarkCategoryIdFetchRequest11qt_metacallEN11QMetaObject4CallEiPPv @ 925 NONAME
	_ZN10QtMobility31QLandmarkCategoryIdFetchRequest11qt_metacastEPKc @ 926 NONAME
	_ZN10QtMobility31QLandmarkCategoryIdFetchRequest16staticMetaObjectE @ 927 NONAME DATA 16
	_ZN10QtMobility31QLandmarkCategoryIdFetchRequest19getStaticMetaObjectEv @ 928 NONAME
	_ZN10QtMobility31QLandmarkCategoryIdFetchRequestC1EPNS_16QLandmarkManagerEP7QObject @ 929 NONAME
	_ZN10QtMobility31QLandmarkCategoryIdFetchRequestC2EPNS_16QLandmarkManagerEP7QObject @ 930 NONAME
	_ZN10QtMobility31QLandmarkCategoryIdFetchRequestD0Ev @ 931 NONAME
	_ZN10QtMobility31QLandmarkCategoryIdFetchRequestD1Ev @ 932 NONAME
	_ZN10QtMobility31QLandmarkCategoryIdFetchRequestD2Ev @ 933 NONAME
	_ZN10QtMobility5qHashERKNS_19QGeoTiledMapRequestE @ 934 NONAME
	_ZN10QtMobility9QGeoPlace10setAddressERKNS_11QGeoAddressE @ 935 NONAME
	_ZN10QtMobility9QGeoPlace11setViewportERKNS_15QGeoBoundingBoxE @ 936 NONAME
	_ZN10QtMobility9QGeoPlace13setCoordinateERKNS_14QGeoCoordinateE @ 937 NONAME
	_ZN10QtMobility9QGeoPlaceC1EPNS_16QGeoPlacePrivateE @ 938 NONAME
	_ZN10QtMobility9QGeoPlaceC1ERKS0_ @ 939 NONAME
	_ZN10QtMobility9QGeoPlaceC1Ev @ 940 NONAME
	_ZN10QtMobility9QGeoPlaceC2EPNS_16QGeoPlacePrivateE @ 941 NONAME
	_ZN10QtMobility9QGeoPlaceC2ERKS0_ @ 942 NONAME
	_ZN10QtMobility9QGeoPlaceC2Ev @ 943 NONAME
	_ZN10QtMobility9QGeoPlaceD0Ev @ 944 NONAME
	_ZN10QtMobility9QGeoPlaceD1Ev @ 945 NONAME
	_ZN10QtMobility9QGeoPlaceD2Ev @ 946 NONAME
	_ZN10QtMobility9QGeoPlaceaSERKS0_ @ 947 NONAME
	_ZN10QtMobility9QGeoRoute10setRequestERKNS_16QGeoRouteRequestE @ 948 NONAME
	_ZN10QtMobility9QGeoRoute10setRouteIdERK7QString @ 949 NONAME
	_ZN10QtMobility9QGeoRoute11setDistanceEf @ 950 NONAME
	_ZN10QtMobility9QGeoRoute13setTravelModeENS_16QGeoRouteRequest10TravelModeE @ 951 NONAME
	_ZN10QtMobility9QGeoRoute13setTravelTimeEi @ 952 NONAME
	_ZN10QtMobility9QGeoRoute16setRouteSegmentsERK5QListINS_16QGeoRouteSegmentEE @ 953 NONAME
	_ZN10QtMobility9QGeoRoute7setPathERK5QListINS_14QGeoCoordinateEE @ 954 NONAME
	_ZN10QtMobility9QGeoRoute9setBoundsERKNS_15QGeoBoundingBoxE @ 955 NONAME
	_ZN10QtMobility9QGeoRouteC1ERKS0_ @ 956 NONAME
	_ZN10QtMobility9QGeoRouteC1Ev @ 957 NONAME
	_ZN10QtMobility9QGeoRouteC2ERKS0_ @ 958 NONAME
	_ZN10QtMobility9QGeoRouteC2Ev @ 959 NONAME
	_ZN10QtMobility9QGeoRouteD1Ev @ 960 NONAME
	_ZN10QtMobility9QGeoRouteD2Ev @ 961 NONAME
	_ZN10QtMobility9QGeoRouteaSERKS0_ @ 962 NONAME
	_ZN10QtMobility9QLandmark10setIconUrlERK4QUrl @ 963 NONAME
	_ZN10QtMobility9QLandmark12setAttributeERK7QStringRK8QVariant @ 964 NONAME
	_ZN10QtMobility9QLandmark13addCategoryIdERKNS_19QLandmarkCategoryIdE @ 965 NONAME
	_ZN10QtMobility9QLandmark13setLandmarkIdERKNS_11QLandmarkIdE @ 966 NONAME
	_ZN10QtMobility9QLandmark14setCategoryIdsERK5QListINS_19QLandmarkCategoryIdEE @ 967 NONAME
	_ZN10QtMobility9QLandmark14setDescriptionERK7QString @ 968 NONAME
	_ZN10QtMobility9QLandmark16removeCategoryIdERKNS_19QLandmarkCategoryIdE @ 969 NONAME
	_ZN10QtMobility9QLandmark5clearEv @ 970 NONAME
	_ZN10QtMobility9QLandmark6setUrlERK4QUrl @ 971 NONAME
	_ZN10QtMobility9QLandmark7setNameERK7QString @ 972 NONAME
	_ZN10QtMobility9QLandmark8setPhoneERK7QString @ 973 NONAME
	_ZN10QtMobility9QLandmark9setRadiusEd @ 974 NONAME
	_ZN10QtMobility9QLandmarkC1ERKNS_9QGeoPlaceE @ 975 NONAME
	_ZN10QtMobility9QLandmarkC1ERKS0_ @ 976 NONAME
	_ZN10QtMobility9QLandmarkC1Ev @ 977 NONAME
	_ZN10QtMobility9QLandmarkC2ERKNS_9QGeoPlaceE @ 978 NONAME
	_ZN10QtMobility9QLandmarkC2ERKS0_ @ 979 NONAME
	_ZN10QtMobility9QLandmarkC2Ev @ 980 NONAME
	_ZN10QtMobility9QLandmarkD0Ev @ 981 NONAME
	_ZN10QtMobility9QLandmarkD1Ev @ 982 NONAME
	_ZN10QtMobility9QLandmarkD2Ev @ 983 NONAME
	_ZN10QtMobility9QLandmarkaSERKS0_ @ 984 NONAME
	_ZN10QtMobilityanERKNS_15QLandmarkFilterES2_ @ 985 NONAME
	_ZN10QtMobilityorERKNS_15QLandmarkFilterES2_ @ 986 NONAME
	_ZNK10QtMobility11QGeoAddress11countryCodeEv @ 987 NONAME
	_ZNK10QtMobility11QGeoAddress12streetNumberEv @ 988 NONAME
	_ZNK10QtMobility11QGeoAddress13postOfficeBoxEv @ 989 NONAME
	_ZNK10QtMobility11QGeoAddress4cityEv @ 990 NONAME
	_ZNK10QtMobility11QGeoAddress5stateEv @ 991 NONAME
	_ZNK10QtMobility11QGeoAddress6countyEv @ 992 NONAME
	_ZNK10QtMobility11QGeoAddress6streetEv @ 993 NONAME
	_ZNK10QtMobility11QGeoAddress7countryEv @ 994 NONAME
	_ZNK10QtMobility11QGeoAddress7isEmptyEv @ 995 NONAME
	_ZNK10QtMobility11QGeoAddress8districtEv @ 996 NONAME
	_ZNK10QtMobility11QGeoAddress8postCodeEv @ 997 NONAME
	_ZNK10QtMobility11QGeoAddresseqERKS0_ @ 998 NONAME
	_ZNK10QtMobility11QGeoMapData10metaObjectEv @ 999 NONAME
	_ZNK10QtMobility11QGeoMapData12viewportSizeEv @ 1000 NONAME
	_ZNK10QtMobility11QGeoMapData6centerEv @ 1001 NONAME
	_ZNK10QtMobility11QGeoMapData6engineEv @ 1002 NONAME
	_ZNK10QtMobility11QGeoMapData6widgetEv @ 1003 NONAME
	_ZNK10QtMobility11QGeoMapData7mapTypeEv @ 1004 NONAME
	_ZNK10QtMobility11QGeoMapData9zoomLevelEv @ 1005 NONAME
	_ZNK10QtMobility11QLandmarkId10managerUriEv @ 1006 NONAME
	_ZNK10QtMobility11QLandmarkId7isValidEv @ 1007 NONAME
	_ZNK10QtMobility11QLandmarkId7localIdEv @ 1008 NONAME
	_ZNK10QtMobility11QLandmarkIdeqERKS0_ @ 1009 NONAME
	_ZNK10QtMobility11QLandmarkIdneERKS0_ @ 1010 NONAME
	_ZNK10QtMobility13QGeoMapObject10metaObjectEv @ 1011 NONAME
	_ZNK10QtMobility13QGeoMapObject11boundingBoxEv @ 1012 NONAME
	_ZNK10QtMobility13QGeoMapObject12childObjectsEv @ 1013 NONAME
	_ZNK10QtMobility13QGeoMapObject12parentObjectEv @ 1014 NONAME
	_ZNK10QtMobility13QGeoMapObject4typeEv @ 1015 NONAME
	_ZNK10QtMobility13QGeoMapObject6zValueEv @ 1016 NONAME
	_ZNK10QtMobility13QGeoMapObject8containsERKNS_14QGeoCoordinateE @ 1017 NONAME
	_ZNK10QtMobility13QGeoMapObject9isVisibleEv @ 1018 NONAME
	_ZNK10QtMobility13QGeoMapObjectgtERKS0_ @ 1019 NONAME
	_ZNK10QtMobility13QGeoMapObjectltERKS0_ @ 1020 NONAME
	_ZNK10QtMobility13QGeoMapWidget10metaObjectEv @ 1021 NONAME
	_ZNK10QtMobility13QGeoMapWidget16maximumZoomLevelEv @ 1022 NONAME
	_ZNK10QtMobility13QGeoMapWidget16minimumZoomLevelEv @ 1023 NONAME
	_ZNK10QtMobility13QGeoMapWidget17supportedMapTypesEv @ 1024 NONAME
	_ZNK10QtMobility13QGeoMapWidget26coordinateToScreenPositionERKNS_14QGeoCoordinateE @ 1025 NONAME
	_ZNK10QtMobility13QGeoMapWidget26screenPositionToCoordinateE7QPointF @ 1026 NONAME
	_ZNK10QtMobility13QGeoMapWidget5shapeEv @ 1027 NONAME
	_ZNK10QtMobility13QGeoMapWidget6centerEv @ 1028 NONAME
	_ZNK10QtMobility13QGeoMapWidget7mapTypeEv @ 1029 NONAME
	_ZNK10QtMobility13QGeoMapWidget9zoomLevelEv @ 1030 NONAME
	_ZNK10QtMobility14QGeoRouteReply10isFinishedEv @ 1031 NONAME
	_ZNK10QtMobility14QGeoRouteReply10metaObjectEv @ 1032 NONAME
	_ZNK10QtMobility14QGeoRouteReply11errorStringEv @ 1033 NONAME
	_ZNK10QtMobility14QGeoRouteReply5errorEv @ 1034 NONAME
	_ZNK10QtMobility14QGeoRouteReply6routesEv @ 1035 NONAME
	_ZNK10QtMobility14QGeoRouteReply7requestEv @ 1036 NONAME
	_ZNK10QtMobility15QGeoBoundingBox10bottomLeftEv @ 1037 NONAME
	_ZNK10QtMobility15QGeoBoundingBox10intersectsERKS0_ @ 1038 NONAME
	_ZNK10QtMobility15QGeoBoundingBox10translatedEdd @ 1039 NONAME
	_ZNK10QtMobility15QGeoBoundingBox11bottomRightEv @ 1040 NONAME
	_ZNK10QtMobility15QGeoBoundingBox5widthEv @ 1041 NONAME
	_ZNK10QtMobility15QGeoBoundingBox6centerEv @ 1042 NONAME
	_ZNK10QtMobility15QGeoBoundingBox6unitedERKS0_ @ 1043 NONAME
	_ZNK10QtMobility15QGeoBoundingBox7isEmptyEv @ 1044 NONAME
	_ZNK10QtMobility15QGeoBoundingBox7isValidEv @ 1045 NONAME
	_ZNK10QtMobility15QGeoBoundingBox7topLeftEv @ 1046 NONAME
	_ZNK10QtMobility15QGeoBoundingBox8containsERKNS_14QGeoCoordinateE @ 1047 NONAME
	_ZNK10QtMobility15QGeoBoundingBox8containsERKS0_ @ 1048 NONAME
	_ZNK10QtMobility15QGeoBoundingBox8topRightEv @ 1049 NONAME
	_ZNK10QtMobility15QGeoBoundingBoxeqERKS0_ @ 1050 NONAME
	_ZNK10QtMobility15QGeoBoundingBoxneERKS0_ @ 1051 NONAME
	_ZNK10QtMobility15QGeoSearchReply10isFinishedEv @ 1052 NONAME
	_ZNK10QtMobility15QGeoSearchReply10metaObjectEv @ 1053 NONAME
	_ZNK10QtMobility15QGeoSearchReply11errorStringEv @ 1054 NONAME
	_ZNK10QtMobility15QGeoSearchReply5errorEv @ 1055 NONAME
	_ZNK10QtMobility15QGeoSearchReply6boundsEv @ 1056 NONAME
	_ZNK10QtMobility15QGeoSearchReply6placesEv @ 1057 NONAME
	_ZNK10QtMobility15QLandmarkFilter4typeEv @ 1058 NONAME
	_ZNK10QtMobility15QLandmarkFiltereqERKS0_ @ 1059 NONAME
	_ZNK10QtMobility16QGeoRouteRequest11travelModesEv @ 1060 NONAME
	_ZNK10QtMobility16QGeoRouteRequest12excludeAreasEv @ 1061 NONAME
	_ZNK10QtMobility16QGeoRouteRequest13segmentDetailEv @ 1062 NONAME
	_ZNK10QtMobility16QGeoRouteRequest17avoidFeatureTypesEv @ 1063 NONAME
	_ZNK10QtMobility16QGeoRouteRequest17instructionDetailEv @ 1064 NONAME
	_ZNK10QtMobility16QGeoRouteRequest17routeOptimizationEv @ 1065 NONAME
	_ZNK10QtMobility16QGeoRouteRequest23numberAlternativeRoutesEv @ 1066 NONAME
	_ZNK10QtMobility16QGeoRouteRequest9waypointsEv @ 1067 NONAME
	_ZNK10QtMobility16QGeoRouteSegment10travelTimeEv @ 1068 NONAME
	_ZNK10QtMobility16QGeoRouteSegment11instructionEv @ 1069 NONAME
	_ZNK10QtMobility16QGeoRouteSegment4pathEv @ 1070 NONAME
	_ZNK10QtMobility16QGeoRouteSegment8distanceEv @ 1071 NONAME
	_ZNK10QtMobility16QGeoTiledMapData10metaObjectEv @ 1072 NONAME
	_ZNK10QtMobility16QGeoTiledMapData22coordinateToWorldPixelERKNS_14QGeoCoordinateE @ 1073 NONAME
	_ZNK10QtMobility16QGeoTiledMapData22worldPixelToCoordinateERK6QPoint @ 1074 NONAME
	_ZNK10QtMobility16QGeoTiledMapData26coordinateToScreenPositionERKNS_14QGeoCoordinateE @ 1075 NONAME
	_ZNK10QtMobility16QGeoTiledMapData26screenPositionToCoordinateERK7QPointF @ 1076 NONAME
	_ZNK10QtMobility16QGeoTiledMapData6centerEv @ 1077 NONAME
	_ZNK10QtMobility16QLandmarkManager10categoriesERK5QListINS_19QLandmarkCategoryIdEE @ 1078 NONAME
	_ZNK10QtMobility16QLandmarkManager10categoriesERKNS_17QLandmarkNameSortE @ 1079 NONAME
	_ZNK10QtMobility16QLandmarkManager10isReadOnlyERKNS_11QLandmarkIdE @ 1080 NONAME
	_ZNK10QtMobility16QLandmarkManager10isReadOnlyERKNS_19QLandmarkCategoryIdE @ 1081 NONAME
	_ZNK10QtMobility16QLandmarkManager10isReadOnlyEv @ 1082 NONAME
	_ZNK10QtMobility16QLandmarkManager10managerUriEv @ 1083 NONAME
	_ZNK10QtMobility16QLandmarkManager10metaObjectEv @ 1084 NONAME
	_ZNK10QtMobility16QLandmarkManager11categoryIdsERKNS_17QLandmarkNameSortE @ 1085 NONAME
	_ZNK10QtMobility16QLandmarkManager11errorStringEv @ 1086 NONAME
	_ZNK10QtMobility16QLandmarkManager11landmarkIdsERKNS_15QLandmarkFilterERK5QListINS_18QLandmarkSortOrderEERKNS_18QLandmarkFetchHintE @ 1087 NONAME
	_ZNK10QtMobility16QLandmarkManager11landmarkIdsERKNS_15QLandmarkFilterERKNS_18QLandmarkSortOrderERKNS_18QLandmarkFetchHintE @ 1088 NONAME
	_ZNK10QtMobility16QLandmarkManager11managerNameEv @ 1089 NONAME
	_ZNK10QtMobility16QLandmarkManager14managerVersionEv @ 1090 NONAME
	_ZNK10QtMobility16QLandmarkManager16supportedFormatsEv @ 1091 NONAME
	_ZNK10QtMobility16QLandmarkManager17managerParametersEv @ 1092 NONAME
	_ZNK10QtMobility16QLandmarkManager18filterSupportLevelERKNS_15QLandmarkFilterE @ 1093 NONAME
	_ZNK10QtMobility16QLandmarkManager18isFeatureSupportedENS0_15LandmarkFeatureE @ 1094 NONAME
	_ZNK10QtMobility16QLandmarkManager29platformCategoryAttributeKeysEv @ 1095 NONAME
	_ZNK10QtMobility16QLandmarkManager29platformLandmarkAttributeKeysEv @ 1096 NONAME
	_ZNK10QtMobility16QLandmarkManager5errorEv @ 1097 NONAME
	_ZNK10QtMobility16QLandmarkManager8categoryERKNS_19QLandmarkCategoryIdE @ 1098 NONAME
	_ZNK10QtMobility16QLandmarkManager8landmarkERKNS_11QLandmarkIdE @ 1099 NONAME
	_ZNK10QtMobility16QLandmarkManager9landmarksERK5QListINS_11QLandmarkIdEE @ 1100 NONAME
	_ZNK10QtMobility16QLandmarkManager9landmarksERKNS_15QLandmarkFilterERK5QListINS_18QLandmarkSortOrderEERKNS_18QLandmarkFetchHintE @ 1101 NONAME
	_ZNK10QtMobility16QLandmarkManager9landmarksERKNS_15QLandmarkFilterERKNS_18QLandmarkSortOrderERKNS_18QLandmarkFetchHintE @ 1102 NONAME
	_ZNK10QtMobility17QGeoSearchManager10metaObjectEv @ 1103 NONAME
	_ZNK10QtMobility17QGeoSearchManager11managerNameEv @ 1104 NONAME
	_ZNK10QtMobility17QGeoSearchManager14managerVersionEv @ 1105 NONAME
	_ZNK10QtMobility17QGeoSearchManager17managerParametersEv @ 1106 NONAME
	_ZNK10QtMobility17QGeoSearchManager17supportsGeocodingEv @ 1107 NONAME
	_ZNK10QtMobility17QGeoSearchManager20supportedSearchTypesEv @ 1108 NONAME
	_ZNK10QtMobility17QGeoSearchManager22defaultLandmarkManagerEv @ 1109 NONAME
	_ZNK10QtMobility17QGeoSearchManager26additionalLandmarkManagersEv @ 1110 NONAME
	_ZNK10QtMobility17QGeoTiledMapReply10isFinishedEv @ 1111 NONAME
	_ZNK10QtMobility17QGeoTiledMapReply10metaObjectEv @ 1112 NONAME
	_ZNK10QtMobility17QGeoTiledMapReply11errorStringEv @ 1113 NONAME
	_ZNK10QtMobility17QGeoTiledMapReply12mapImageDataEv @ 1114 NONAME
	_ZNK10QtMobility17QGeoTiledMapReply14mapImageFormatEv @ 1115 NONAME
	_ZNK10QtMobility17QGeoTiledMapReply5errorEv @ 1116 NONAME
	_ZNK10QtMobility17QGeoTiledMapReply7requestEv @ 1117 NONAME
	_ZNK10QtMobility17QGeoTiledMapReply8isCachedEv @ 1118 NONAME
	_ZNK10QtMobility17QLandmarkCategory10categoryIdEv @ 1119 NONAME
	_ZNK10QtMobility17QLandmarkCategory11descriptionEv @ 1120 NONAME
	_ZNK10QtMobility17QLandmarkCategory13attributeKeysEv @ 1121 NONAME
	_ZNK10QtMobility17QLandmarkCategory4nameEv @ 1122 NONAME
	_ZNK10QtMobility17QLandmarkCategory7iconUrlEv @ 1123 NONAME
	_ZNK10QtMobility17QLandmarkCategory9attributeERK7QStringRK8QVariant @ 1124 NONAME
	_ZNK10QtMobility17QLandmarkCategoryeqERKS0_ @ 1125 NONAME
	_ZNK10QtMobility17QLandmarkCategoryneERKS0_ @ 1126 NONAME
	_ZNK10QtMobility17QLandmarkIdFilter11landmarkIdsEv @ 1127 NONAME
	_ZNK10QtMobility17QLandmarkIdFilter14matchingSchemeEv @ 1128 NONAME
	_ZNK10QtMobility17QLandmarkNameSort15caseSensitivityEv @ 1129 NONAME
	_ZNK10QtMobility18QGeoMapRouteObject11detailLevelEv @ 1130 NONAME
	_ZNK10QtMobility18QGeoMapRouteObject3penEv @ 1131 NONAME
	_ZNK10QtMobility18QGeoMapRouteObject5routeEv @ 1132 NONAME
	_ZNK10QtMobility18QGeoMappingManager10metaObjectEv @ 1133 NONAME
	_ZNK10QtMobility18QGeoMappingManager11managerNameEv @ 1134 NONAME
	_ZNK10QtMobility18QGeoMappingManager14managerVersionEv @ 1135 NONAME
	_ZNK10QtMobility18QGeoMappingManager16maximumImageSizeEv @ 1136 NONAME
	_ZNK10QtMobility18QGeoMappingManager16maximumZoomLevelEv @ 1137 NONAME
	_ZNK10QtMobility18QGeoMappingManager16minimumImageSizeEv @ 1138 NONAME
	_ZNK10QtMobility18QGeoMappingManager16minimumZoomLevelEv @ 1139 NONAME
	_ZNK10QtMobility18QGeoMappingManager17managerParametersEv @ 1140 NONAME
	_ZNK10QtMobility18QGeoMappingManager17supportedMapTypesEv @ 1141 NONAME
	_ZNK10QtMobility18QGeoRoutingManager10metaObjectEv @ 1142 NONAME
	_ZNK10QtMobility18QGeoRoutingManager11managerNameEv @ 1143 NONAME
	_ZNK10QtMobility18QGeoRoutingManager14managerVersionEv @ 1144 NONAME
	_ZNK10QtMobility18QGeoRoutingManager17managerParametersEv @ 1145 NONAME
	_ZNK10QtMobility18QGeoRoutingManager20supportedTravelModesEv @ 1146 NONAME
	_ZNK10QtMobility18QGeoRoutingManager20supportsExcludeAreasEv @ 1147 NONAME
	_ZNK10QtMobility18QGeoRoutingManager20supportsRouteUpdatesEv @ 1148 NONAME
	_ZNK10QtMobility18QGeoRoutingManager23supportedSegmentDetailsEv @ 1149 NONAME
	_ZNK10QtMobility18QGeoRoutingManager25supportsAlternativeRoutesEv @ 1150 NONAME
	_ZNK10QtMobility18QGeoRoutingManager26supportedAvoidFeatureTypesEv @ 1151 NONAME
	_ZNK10QtMobility18QGeoRoutingManager27supportedInstructionDetailsEv @ 1152 NONAME
	_ZNK10QtMobility18QGeoRoutingManager27supportedRouteOptimizationsEv @ 1153 NONAME
	_ZNK10QtMobility18QLandmarkBoxFilter11boundingBoxEv @ 1154 NONAME
	_ZNK10QtMobility18QLandmarkFetchHint6offsetEv @ 1155 NONAME
	_ZNK10QtMobility18QLandmarkFetchHint8maxItemsEv @ 1156 NONAME
	_ZNK10QtMobility18QLandmarkSortOrder4typeEv @ 1157 NONAME
	_ZNK10QtMobility18QLandmarkSortOrder9directionEv @ 1158 NONAME
	_ZNK10QtMobility18QLandmarkSortOrdereqERKS0_ @ 1159 NONAME
	_ZNK10QtMobility19QGeoMapCircleObject3penEv @ 1160 NONAME
	_ZNK10QtMobility19QGeoMapCircleObject5brushEv @ 1161 NONAME
	_ZNK10QtMobility19QGeoMapCircleObject6centerEv @ 1162 NONAME
	_ZNK10QtMobility19QGeoMapCircleObject6radiusEv @ 1163 NONAME
	_ZNK10QtMobility19QGeoMapMarkerObject10coordinateEv @ 1164 NONAME
	_ZNK10QtMobility19QGeoMapMarkerObject4iconEv @ 1165 NONAME
	_ZNK10QtMobility19QGeoMapMarkerObject6anchorEv @ 1166 NONAME
	_ZNK10QtMobility19QGeoServiceProvider11errorStringEv @ 1167 NONAME
	_ZNK10QtMobility19QGeoServiceProvider13searchManagerEv @ 1168 NONAME
	_ZNK10QtMobility19QGeoServiceProvider14mappingManagerEv @ 1169 NONAME
	_ZNK10QtMobility19QGeoServiceProvider14routingManagerEv @ 1170 NONAME
	_ZNK10QtMobility19QGeoServiceProvider5errorEv @ 1171 NONAME
	_ZNK10QtMobility19QGeoTiledMapRequest3rowEv @ 1172 NONAME
	_ZNK10QtMobility19QGeoTiledMapRequest6columnEv @ 1173 NONAME
	_ZNK10QtMobility19QGeoTiledMapRequest7mapDataEv @ 1174 NONAME
	_ZNK10QtMobility19QGeoTiledMapRequest7mapTypeEv @ 1175 NONAME
	_ZNK10QtMobility19QGeoTiledMapRequest8tileRectEv @ 1176 NONAME
	_ZNK10QtMobility19QGeoTiledMapRequest9zoomLevelEv @ 1177 NONAME
	_ZNK10QtMobility19QGeoTiledMapRequesteqERKS0_ @ 1178 NONAME
	_ZNK10QtMobility19QLandmarkCategoryId10managerUriEv @ 1179 NONAME
	_ZNK10QtMobility19QLandmarkCategoryId7isValidEv @ 1180 NONAME
	_ZNK10QtMobility19QLandmarkCategoryId7localIdEv @ 1181 NONAME
	_ZNK10QtMobility19QLandmarkCategoryIdeqERKS0_ @ 1182 NONAME
	_ZNK10QtMobility19QLandmarkCategoryIdneERKS0_ @ 1183 NONAME
	_ZNK10QtMobility19QLandmarkNameFilter15caseSensitivityEv @ 1184 NONAME
	_ZNK10QtMobility19QLandmarkNameFilter4nameEv @ 1185 NONAME
	_ZNK10QtMobility20QGeoMapPolygonObject5brushEv @ 1186 NONAME
	_ZNK10QtMobility20QLandmarkSaveRequest10metaObjectEv @ 1187 NONAME
	_ZNK10QtMobility20QLandmarkSaveRequest8errorMapEv @ 1188 NONAME
	_ZNK10QtMobility20QLandmarkSaveRequest9landmarksEv @ 1189 NONAME
	_ZNK10QtMobility20QLandmarkUnionFilter7filtersEv @ 1190 NONAME
	_ZNK10QtMobility21QGeoMapPolylineObject3penEv @ 1191 NONAME
	_ZNK10QtMobility21QGeoMapPolylineObject4pathEv @ 1192 NONAME
	_ZNK10QtMobility21QLandmarkDistanceSort10coordinateEv @ 1193 NONAME
	_ZNK10QtMobility21QLandmarkFetchRequest10metaObjectEv @ 1194 NONAME
	_ZNK10QtMobility21QLandmarkFetchRequest6filterEv @ 1195 NONAME
	_ZNK10QtMobility21QLandmarkFetchRequest7sortingEv @ 1196 NONAME
	_ZNK10QtMobility21QLandmarkFetchRequest9fetchHintEv @ 1197 NONAME
	_ZNK10QtMobility21QLandmarkFetchRequest9landmarksEv @ 1198 NONAME
	_ZNK10QtMobility22QGeoMapRectangleObject3penEv @ 1199 NONAME
	_ZNK10QtMobility22QGeoMapRectangleObject5brushEv @ 1200 NONAME
	_ZNK10QtMobility22QGeoMapRectangleObject6boundsEv @ 1201 NONAME
	_ZNK10QtMobility22QLandmarkExportRequest10metaObjectEv @ 1202 NONAME
	_ZNK10QtMobility22QLandmarkExportRequest11landmarkIdsEv @ 1203 NONAME
	_ZNK10QtMobility22QLandmarkExportRequest6deviceEv @ 1204 NONAME
	_ZNK10QtMobility22QLandmarkExportRequest6formatEv @ 1205 NONAME
	_ZNK10QtMobility22QLandmarkExportRequest8fileNameEv @ 1206 NONAME
	_ZNK10QtMobility22QLandmarkImportRequest10metaObjectEv @ 1207 NONAME
	_ZNK10QtMobility22QLandmarkImportRequest11landmarkIdsEv @ 1208 NONAME
	_ZNK10QtMobility22QLandmarkImportRequest6deviceEv @ 1209 NONAME
	_ZNK10QtMobility22QLandmarkImportRequest6formatEv @ 1210 NONAME
	_ZNK10QtMobility22QLandmarkImportRequest8fileNameEv @ 1211 NONAME
	_ZNK10QtMobility22QLandmarkManagerEngine10categoriesERK5QListINS_19QLandmarkCategoryIdEEPNS_16QLandmarkManager5ErrorEP7QString @ 1212 NONAME
	_ZNK10QtMobility22QLandmarkManagerEngine10categoriesERKNS_17QLandmarkNameSortEPNS_16QLandmarkManager5ErrorEP7QString @ 1213 NONAME
	_ZNK10QtMobility22QLandmarkManagerEngine10managerUriEv @ 1214 NONAME
	_ZNK10QtMobility22QLandmarkManagerEngine10metaObjectEv @ 1215 NONAME
	_ZNK10QtMobility22QLandmarkManagerEngine11categoryIdsERKNS_17QLandmarkNameSortEPNS_16QLandmarkManager5ErrorEP7QString @ 1216 NONAME
	_ZNK10QtMobility22QLandmarkManagerEngine11landmarkIdsERKNS_15QLandmarkFilterERK5QListINS_18QLandmarkSortOrderEERKNS_18QLandmarkFetchHintEPNS_16QLandmarkManager5ErrorEP7QString @ 1217 NONAME
	_ZNK10QtMobility22QLandmarkManagerEngine11managerNameEv @ 1218 NONAME
	_ZNK10QtMobility22QLandmarkManagerEngine14managerVersionEv @ 1219 NONAME
	_ZNK10QtMobility22QLandmarkManagerEngine15exportLandmarksEP9QIODeviceRK7QString5QListINS_11QLandmarkIdEEPNS_16QLandmarkManager5ErrorEPS3_ @ 1220 NONAME
	_ZNK10QtMobility22QLandmarkManagerEngine16supportedFormatsEPNS_16QLandmarkManager5ErrorEP7QString @ 1221 NONAME
	_ZNK10QtMobility22QLandmarkManagerEngine17managerParametersEv @ 1222 NONAME
	_ZNK10QtMobility22QLandmarkManagerEngine8categoryERKNS_19QLandmarkCategoryIdEPNS_16QLandmarkManager5ErrorEP7QString @ 1223 NONAME
	_ZNK10QtMobility22QLandmarkManagerEngine8landmarkERKNS_11QLandmarkIdEPNS_16QLandmarkManager5ErrorEP7QString @ 1224 NONAME
	_ZNK10QtMobility22QLandmarkManagerEngine9landmarksERKNS_15QLandmarkFilterERK5QListINS_18QLandmarkSortOrderEERKNS_18QLandmarkFetchHintEPNS_16QLandmarkManager5ErrorEP7QString @ 1225 NONAME
	_ZNK10QtMobility22QLandmarkRemoveRequest10metaObjectEv @ 1226 NONAME
	_ZNK10QtMobility22QLandmarkRemoveRequest11landmarkIdsEv @ 1227 NONAME
	_ZNK10QtMobility22QLandmarkRemoveRequest8errorMapEv @ 1228 NONAME
	_ZNK10QtMobility23QGeoSearchManagerEngine10metaObjectEv @ 1229 NONAME
	_ZNK10QtMobility23QGeoSearchManagerEngine11managerNameEv @ 1230 NONAME
	_ZNK10QtMobility23QGeoSearchManagerEngine14managerVersionEv @ 1231 NONAME
	_ZNK10QtMobility23QGeoSearchManagerEngine17managerParametersEv @ 1232 NONAME
	_ZNK10QtMobility23QGeoSearchManagerEngine17supportsGeocodingEv @ 1233 NONAME
	_ZNK10QtMobility23QGeoSearchManagerEngine20supportedSearchTypesEv @ 1234 NONAME
	_ZNK10QtMobility23QGeoSearchManagerEngine22defaultLandmarkManagerEv @ 1235 NONAME
	_ZNK10QtMobility23QGeoSearchManagerEngine26additionalLandmarkManagersEv @ 1236 NONAME
	_ZNK10QtMobility23QLandmarkCategoryFilter10categoryIdEv @ 1237 NONAME
	_ZNK10QtMobility23QLandmarkFreeTextFilter12searchStringEv @ 1238 NONAME
	_ZNK10QtMobility23QLandmarkIdFetchRequest10metaObjectEv @ 1239 NONAME
	_ZNK10QtMobility23QLandmarkIdFetchRequest11landmarkIdsEv @ 1240 NONAME
	_ZNK10QtMobility23QLandmarkIdFetchRequest6filterEv @ 1241 NONAME
	_ZNK10QtMobility23QLandmarkIdFetchRequest7sortingEv @ 1242 NONAME
	_ZNK10QtMobility23QLandmarkIdFetchRequest9fetchHintEv @ 1243 NONAME
	_ZNK10QtMobility24QGeoMappingManagerEngine10metaObjectEv @ 1244 NONAME
	_ZNK10QtMobility24QGeoMappingManagerEngine11managerNameEv @ 1245 NONAME
	_ZNK10QtMobility24QGeoMappingManagerEngine14managerVersionEv @ 1246 NONAME
	_ZNK10QtMobility24QGeoMappingManagerEngine16maximumImageSizeEv @ 1247 NONAME
	_ZNK10QtMobility24QGeoMappingManagerEngine16maximumZoomLevelEv @ 1248 NONAME
	_ZNK10QtMobility24QGeoMappingManagerEngine16minimumImageSizeEv @ 1249 NONAME
	_ZNK10QtMobility24QGeoMappingManagerEngine16minimumZoomLevelEv @ 1250 NONAME
	_ZNK10QtMobility24QGeoMappingManagerEngine17managerParametersEv @ 1251 NONAME
	_ZNK10QtMobility24QGeoMappingManagerEngine17supportedMapTypesEv @ 1252 NONAME
	_ZNK10QtMobility24QGeoRoutingManagerEngine10metaObjectEv @ 1253 NONAME
	_ZNK10QtMobility24QGeoRoutingManagerEngine11managerNameEv @ 1254 NONAME
	_ZNK10QtMobility24QGeoRoutingManagerEngine14managerVersionEv @ 1255 NONAME
	_ZNK10QtMobility24QGeoRoutingManagerEngine17managerParametersEv @ 1256 NONAME
	_ZNK10QtMobility24QGeoRoutingManagerEngine20supportedTravelModesEv @ 1257 NONAME
	_ZNK10QtMobility24QGeoRoutingManagerEngine20supportsExcludeAreasEv @ 1258 NONAME
	_ZNK10QtMobility24QGeoRoutingManagerEngine20supportsRouteUpdatesEv @ 1259 NONAME
	_ZNK10QtMobility24QGeoRoutingManagerEngine23supportedSegmentDetailsEv @ 1260 NONAME
	_ZNK10QtMobility24QGeoRoutingManagerEngine25supportsAlternativeRoutesEv @ 1261 NONAME
	_ZNK10QtMobility24QGeoRoutingManagerEngine26supportedAvoidFeatureTypesEv @ 1262 NONAME
	_ZNK10QtMobility24QGeoRoutingManagerEngine27supportedInstructionDetailsEv @ 1263 NONAME
	_ZNK10QtMobility24QGeoRoutingManagerEngine27supportedRouteOptimizationsEv @ 1264 NONAME
	_ZNK10QtMobility24QLandmarkAbstractRequest10isFinishedEv @ 1265 NONAME
	_ZNK10QtMobility24QLandmarkAbstractRequest10isInactiveEv @ 1266 NONAME
	_ZNK10QtMobility24QLandmarkAbstractRequest10metaObjectEv @ 1267 NONAME
	_ZNK10QtMobility24QLandmarkAbstractRequest11errorStringEv @ 1268 NONAME
	_ZNK10QtMobility24QLandmarkAbstractRequest4typeEv @ 1269 NONAME
	_ZNK10QtMobility24QLandmarkAbstractRequest5errorEv @ 1270 NONAME
	_ZNK10QtMobility24QLandmarkAbstractRequest7managerEv @ 1271 NONAME
	_ZNK10QtMobility24QLandmarkAbstractRequest8isActiveEv @ 1272 NONAME
	_ZNK10QtMobility24QLandmarkAttributeFilter13attributeKeysEv @ 1273 NONAME
	_ZNK10QtMobility24QLandmarkAttributeFilter9attributeERK7QString @ 1274 NONAME
	_ZNK10QtMobility24QLandmarkProximityFilter10coordinateEv @ 1275 NONAME
	_ZNK10QtMobility24QLandmarkProximityFilter6radiusEv @ 1276 NONAME
	_ZNK10QtMobility24QLandmarkProximityFilter9selectionEv @ 1277 NONAME
	_ZNK10QtMobility25QGeoNavigationInstruction15instructionTextEv @ 1278 NONAME
	_ZNK10QtMobility25QGeoNavigationInstruction21timeToNextInstructionEv @ 1279 NONAME
	_ZNK10QtMobility25QGeoNavigationInstruction25distanceToNextInstructionEv @ 1280 NONAME
	_ZNK10QtMobility25QGeoNavigationInstruction8positionEv @ 1281 NONAME
	_ZNK10QtMobility25QGeoNavigationInstruction9directionEv @ 1282 NONAME
	_ZNK10QtMobility25QGeoNavigationInstructioneqERKS0_ @ 1283 NONAME
	_ZNK10QtMobility25QGeoNavigationInstructionneERKS0_ @ 1284 NONAME
	_ZNK10QtMobility26QGeoServiceProviderFactory25createSearchManagerEngineERK4QMapI7QStringS2_EPNS_19QGeoServiceProvider5ErrorEPS2_ @ 1285 NONAME
	_ZNK10QtMobility26QGeoServiceProviderFactory26createMappingManagerEngineERK4QMapI7QStringS2_EPNS_19QGeoServiceProvider5ErrorEPS2_ @ 1286 NONAME
	_ZNK10QtMobility26QGeoServiceProviderFactory26createRoutingManagerEngineERK4QMapI7QStringS2_EPNS_19QGeoServiceProvider5ErrorEPS2_ @ 1287 NONAME
	_ZNK10QtMobility27QLandmarkIntersectionFilter7filtersEv @ 1288 NONAME
	_ZNK10QtMobility28QLandmarkCategorySaveRequest10categoriesEv @ 1289 NONAME
	_ZNK10QtMobility28QLandmarkCategorySaveRequest10metaObjectEv @ 1290 NONAME
	_ZNK10QtMobility28QLandmarkCategorySaveRequest8errorMapEv @ 1291 NONAME
	_ZNK10QtMobility29QGeoTiledMappingManagerEngine10metaObjectEv @ 1292 NONAME
	_ZNK10QtMobility29QGeoTiledMappingManagerEngine21supportedImageFormatsEv @ 1293 NONAME
	_ZNK10QtMobility29QGeoTiledMappingManagerEngine8tileSizeEv @ 1294 NONAME
	_ZNK10QtMobility29QLandmarkCategoryFetchRequest10categoriesEv @ 1295 NONAME
	_ZNK10QtMobility29QLandmarkCategoryFetchRequest10metaObjectEv @ 1296 NONAME
	_ZNK10QtMobility29QLandmarkCategoryFetchRequest11categoryIdsEv @ 1297 NONAME
	_ZNK10QtMobility29QLandmarkCategoryFetchRequest14matchingSchemeEv @ 1298 NONAME
	_ZNK10QtMobility29QLandmarkCategoryFetchRequest7sortingEv @ 1299 NONAME
	_ZNK10QtMobility29QLandmarkManagerEngineFactory31supportedImplementationVersionsEv @ 1300 NONAME
	_ZNK10QtMobility30QLandmarkCategoryRemoveRequest10metaObjectEv @ 1301 NONAME
	_ZNK10QtMobility30QLandmarkCategoryRemoveRequest11categoryIdsEv @ 1302 NONAME
	_ZNK10QtMobility30QLandmarkCategoryRemoveRequest8errorMapEv @ 1303 NONAME
	_ZNK10QtMobility31QLandmarkCategoryIdFetchRequest10metaObjectEv @ 1304 NONAME
	_ZNK10QtMobility31QLandmarkCategoryIdFetchRequest11categoryIdsEv @ 1305 NONAME
	_ZNK10QtMobility31QLandmarkCategoryIdFetchRequest7sortingEv @ 1306 NONAME
	_ZNK10QtMobility9QGeoPlace10coordinateEv @ 1307 NONAME
	_ZNK10QtMobility9QGeoPlace4typeEv @ 1308 NONAME
	_ZNK10QtMobility9QGeoPlace7addressEv @ 1309 NONAME
	_ZNK10QtMobility9QGeoPlace8viewportEv @ 1310 NONAME
	_ZNK10QtMobility9QGeoPlaceeqERKS0_ @ 1311 NONAME
	_ZNK10QtMobility9QGeoPlaceneERKS0_ @ 1312 NONAME
	_ZNK10QtMobility9QGeoRoute10travelModeEv @ 1313 NONAME
	_ZNK10QtMobility9QGeoRoute10travelTimeEv @ 1314 NONAME
	_ZNK10QtMobility9QGeoRoute13routeSegmentsEv @ 1315 NONAME
	_ZNK10QtMobility9QGeoRoute4pathEv @ 1316 NONAME
	_ZNK10QtMobility9QGeoRoute6boundsEv @ 1317 NONAME
	_ZNK10QtMobility9QGeoRoute7requestEv @ 1318 NONAME
	_ZNK10QtMobility9QGeoRoute7routeIdEv @ 1319 NONAME
	_ZNK10QtMobility9QGeoRoute8distanceEv @ 1320 NONAME
	_ZNK10QtMobility9QLandmark10landmarkIdEv @ 1321 NONAME
	_ZNK10QtMobility9QLandmark11categoryIdsEv @ 1322 NONAME
	_ZNK10QtMobility9QLandmark11descriptionEv @ 1323 NONAME
	_ZNK10QtMobility9QLandmark13attributeKeysEv @ 1324 NONAME
	_ZNK10QtMobility9QLandmark3urlEv @ 1325 NONAME
	_ZNK10QtMobility9QLandmark4nameEv @ 1326 NONAME
	_ZNK10QtMobility9QLandmark5phoneEv @ 1327 NONAME
	_ZNK10QtMobility9QLandmark6radiusEv @ 1328 NONAME
	_ZNK10QtMobility9QLandmark7iconUrlEv @ 1329 NONAME
	_ZNK10QtMobility9QLandmark9attributeERK7QStringRK8QVariant @ 1330 NONAME
	_ZNK10QtMobility9QLandmarkeqERKS0_ @ 1331 NONAME
	_ZTIN10QtMobility11QGeoMapDataE @ 1332 NONAME
	_ZTIN10QtMobility13QGeoMapObjectE @ 1333 NONAME
	_ZTIN10QtMobility13QGeoMapWidgetE @ 1334 NONAME
	_ZTIN10QtMobility14QGeoRouteReplyE @ 1335 NONAME
	_ZTIN10QtMobility15QGeoSearchReplyE @ 1336 NONAME
	_ZTIN10QtMobility15QLandmarkFilterE @ 1337 NONAME
	_ZTIN10QtMobility16QGeoTiledMapDataE @ 1338 NONAME
	_ZTIN10QtMobility16QLandmarkManagerE @ 1339 NONAME
	_ZTIN10QtMobility17QGeoSearchManagerE @ 1340 NONAME
	_ZTIN10QtMobility17QGeoTiledMapReplyE @ 1341 NONAME
	_ZTIN10QtMobility17QLandmarkIdFilterE @ 1342 NONAME
	_ZTIN10QtMobility17QLandmarkNameSortE @ 1343 NONAME
	_ZTIN10QtMobility18QGeoMapRouteObjectE @ 1344 NONAME
	_ZTIN10QtMobility18QGeoMappingManagerE @ 1345 NONAME
	_ZTIN10QtMobility18QGeoRoutingManagerE @ 1346 NONAME
	_ZTIN10QtMobility18QLandmarkBoxFilterE @ 1347 NONAME
	_ZTIN10QtMobility18QLandmarkSortOrderE @ 1348 NONAME
	_ZTIN10QtMobility19QGeoMapCircleObjectE @ 1349 NONAME
	_ZTIN10QtMobility19QGeoMapMarkerObjectE @ 1350 NONAME
	_ZTIN10QtMobility19QLandmarkNameFilterE @ 1351 NONAME
	_ZTIN10QtMobility20QGeoMapPolygonObjectE @ 1352 NONAME
	_ZTIN10QtMobility20QLandmarkSaveRequestE @ 1353 NONAME
	_ZTIN10QtMobility20QLandmarkUnionFilterE @ 1354 NONAME
	_ZTIN10QtMobility21QGeoMapPolylineObjectE @ 1355 NONAME
	_ZTIN10QtMobility21QLandmarkDistanceSortE @ 1356 NONAME
	_ZTIN10QtMobility21QLandmarkFetchRequestE @ 1357 NONAME
	_ZTIN10QtMobility22QGeoMapRectangleObjectE @ 1358 NONAME
	_ZTIN10QtMobility22QLandmarkExportRequestE @ 1359 NONAME
	_ZTIN10QtMobility22QLandmarkImportRequestE @ 1360 NONAME
	_ZTIN10QtMobility22QLandmarkManagerEngineE @ 1361 NONAME
	_ZTIN10QtMobility22QLandmarkRemoveRequestE @ 1362 NONAME
	_ZTIN10QtMobility23QGeoSearchManagerEngineE @ 1363 NONAME
	_ZTIN10QtMobility23QLandmarkCategoryFilterE @ 1364 NONAME
	_ZTIN10QtMobility23QLandmarkFreeTextFilterE @ 1365 NONAME
	_ZTIN10QtMobility23QLandmarkIdFetchRequestE @ 1366 NONAME
	_ZTIN10QtMobility24QGeoMappingManagerEngineE @ 1367 NONAME
	_ZTIN10QtMobility24QGeoRoutingManagerEngineE @ 1368 NONAME
	_ZTIN10QtMobility24QLandmarkAbstractRequestE @ 1369 NONAME
	_ZTIN10QtMobility24QLandmarkAttributeFilterE @ 1370 NONAME
	_ZTIN10QtMobility24QLandmarkProximityFilterE @ 1371 NONAME
	_ZTIN10QtMobility26QGeoServiceProviderFactoryE @ 1372 NONAME
	_ZTIN10QtMobility27QLandmarkIntersectionFilterE @ 1373 NONAME
	_ZTIN10QtMobility28QLandmarkCategorySaveRequestE @ 1374 NONAME
	_ZTIN10QtMobility29QGeoTiledMappingManagerEngineE @ 1375 NONAME
	_ZTIN10QtMobility29QLandmarkCategoryFetchRequestE @ 1376 NONAME
	_ZTIN10QtMobility29QLandmarkManagerEngineFactoryE @ 1377 NONAME
	_ZTIN10QtMobility30QLandmarkCategoryRemoveRequestE @ 1378 NONAME
	_ZTIN10QtMobility31QLandmarkCategoryIdFetchRequestE @ 1379 NONAME
	_ZTIN10QtMobility9QGeoPlaceE @ 1380 NONAME
	_ZTIN10QtMobility9QLandmarkE @ 1381 NONAME
	_ZTVN10QtMobility11QGeoMapDataE @ 1382 NONAME
	_ZTVN10QtMobility13QGeoMapObjectE @ 1383 NONAME
	_ZTVN10QtMobility13QGeoMapWidgetE @ 1384 NONAME
	_ZTVN10QtMobility14QGeoRouteReplyE @ 1385 NONAME
	_ZTVN10QtMobility15QGeoSearchReplyE @ 1386 NONAME
	_ZTVN10QtMobility15QLandmarkFilterE @ 1387 NONAME
	_ZTVN10QtMobility16QGeoTiledMapDataE @ 1388 NONAME
	_ZTVN10QtMobility16QLandmarkManagerE @ 1389 NONAME
	_ZTVN10QtMobility17QGeoSearchManagerE @ 1390 NONAME
	_ZTVN10QtMobility17QGeoTiledMapReplyE @ 1391 NONAME
	_ZTVN10QtMobility17QLandmarkIdFilterE @ 1392 NONAME
	_ZTVN10QtMobility17QLandmarkNameSortE @ 1393 NONAME
	_ZTVN10QtMobility18QGeoMapRouteObjectE @ 1394 NONAME
	_ZTVN10QtMobility18QGeoMappingManagerE @ 1395 NONAME
	_ZTVN10QtMobility18QGeoRoutingManagerE @ 1396 NONAME
	_ZTVN10QtMobility18QLandmarkBoxFilterE @ 1397 NONAME
	_ZTVN10QtMobility18QLandmarkSortOrderE @ 1398 NONAME
	_ZTVN10QtMobility19QGeoMapCircleObjectE @ 1399 NONAME
	_ZTVN10QtMobility19QGeoMapMarkerObjectE @ 1400 NONAME
	_ZTVN10QtMobility19QLandmarkNameFilterE @ 1401 NONAME
	_ZTVN10QtMobility20QGeoMapPolygonObjectE @ 1402 NONAME
	_ZTVN10QtMobility20QLandmarkSaveRequestE @ 1403 NONAME
	_ZTVN10QtMobility20QLandmarkUnionFilterE @ 1404 NONAME
	_ZTVN10QtMobility21QGeoMapPolylineObjectE @ 1405 NONAME
	_ZTVN10QtMobility21QLandmarkDistanceSortE @ 1406 NONAME
	_ZTVN10QtMobility21QLandmarkFetchRequestE @ 1407 NONAME
	_ZTVN10QtMobility22QGeoMapRectangleObjectE @ 1408 NONAME
	_ZTVN10QtMobility22QLandmarkExportRequestE @ 1409 NONAME
	_ZTVN10QtMobility22QLandmarkImportRequestE @ 1410 NONAME
	_ZTVN10QtMobility22QLandmarkManagerEngineE @ 1411 NONAME
	_ZTVN10QtMobility22QLandmarkRemoveRequestE @ 1412 NONAME
	_ZTVN10QtMobility23QGeoSearchManagerEngineE @ 1413 NONAME
	_ZTVN10QtMobility23QLandmarkCategoryFilterE @ 1414 NONAME
	_ZTVN10QtMobility23QLandmarkFreeTextFilterE @ 1415 NONAME
	_ZTVN10QtMobility23QLandmarkIdFetchRequestE @ 1416 NONAME
	_ZTVN10QtMobility24QGeoMappingManagerEngineE @ 1417 NONAME
	_ZTVN10QtMobility24QGeoRoutingManagerEngineE @ 1418 NONAME
	_ZTVN10QtMobility24QLandmarkAbstractRequestE @ 1419 NONAME
	_ZTVN10QtMobility24QLandmarkAttributeFilterE @ 1420 NONAME
	_ZTVN10QtMobility24QLandmarkProximityFilterE @ 1421 NONAME
	_ZTVN10QtMobility26QGeoServiceProviderFactoryE @ 1422 NONAME
	_ZTVN10QtMobility27QLandmarkIntersectionFilterE @ 1423 NONAME
	_ZTVN10QtMobility28QLandmarkCategorySaveRequestE @ 1424 NONAME
	_ZTVN10QtMobility29QGeoTiledMappingManagerEngineE @ 1425 NONAME
	_ZTVN10QtMobility29QLandmarkCategoryFetchRequestE @ 1426 NONAME
	_ZTVN10QtMobility29QLandmarkManagerEngineFactoryE @ 1427 NONAME
	_ZTVN10QtMobility30QLandmarkCategoryRemoveRequestE @ 1428 NONAME
	_ZTVN10QtMobility31QLandmarkCategoryIdFetchRequestE @ 1429 NONAME
	_ZTVN10QtMobility9QGeoPlaceE @ 1430 NONAME
	_ZTVN10QtMobility9QLandmarkE @ 1431 NONAME
	_ZThn16_N10QtMobility13QGeoMapWidgetD0Ev @ 1432 NONAME
	_ZThn16_N10QtMobility13QGeoMapWidgetD1Ev @ 1433 NONAME
	_ZThn8_N10QtMobility13QGeoMapWidget5paintEP8QPainterPK24QStyleOptionGraphicsItemP7QWidget @ 1434 NONAME
	_ZThn8_N10QtMobility13QGeoMapWidgetD0Ev @ 1435 NONAME
	_ZThn8_N10QtMobility13QGeoMapWidgetD1Ev @ 1436 NONAME
	_ZThn8_NK10QtMobility13QGeoMapWidget5shapeEv @ 1437 NONAME

