EXPORTS
	_ZN10QtMobility11QRadioTuner11bandChangedENS0_4BandE @ 1 NONAME
	_ZN10QtMobility11QRadioTuner11qt_metacallEN11QMetaObject4CallEiPPv @ 2 NONAME
	_ZN10QtMobility11QRadioTuner11qt_metacastEPKc @ 3 NONAME
	_ZN10QtMobility11QRadioTuner12cancelSearchEv @ 4 NONAME
	_ZN10QtMobility11QRadioTuner12mutedChangedEb @ 5 NONAME
	_ZN10QtMobility11QRadioTuner12setFrequencyEi @ 6 NONAME
	_ZN10QtMobility11QRadioTuner12stateChangedENS0_5StateE @ 7 NONAME
	_ZN10QtMobility11QRadioTuner13searchForwardEv @ 8 NONAME
	_ZN10QtMobility11QRadioTuner13setStereoModeENS0_10StereoModeE @ 9 NONAME
	_ZN10QtMobility11QRadioTuner13volumeChangedEi @ 10 NONAME
	_ZN10QtMobility11QRadioTuner14searchBackwardEv @ 11 NONAME
	_ZN10QtMobility11QRadioTuner16frequencyChangedEi @ 12 NONAME
	_ZN10QtMobility11QRadioTuner16searchingChangedEb @ 13 NONAME
	_ZN10QtMobility11QRadioTuner16staticMetaObjectE @ 14 NONAME DATA 16
	_ZN10QtMobility11QRadioTuner19getStaticMetaObjectEv @ 15 NONAME
	_ZN10QtMobility11QRadioTuner19stereoStatusChangedEb @ 16 NONAME
	_ZN10QtMobility11QRadioTuner21signalStrengthChangedEi @ 17 NONAME
	_ZN10QtMobility11QRadioTuner4stopEv @ 18 NONAME
	_ZN10QtMobility11QRadioTuner5errorENS0_5ErrorE @ 19 NONAME
	_ZN10QtMobility11QRadioTuner5startEv @ 20 NONAME
	_ZN10QtMobility11QRadioTuner7setBandENS0_4BandE @ 21 NONAME
	_ZN10QtMobility11QRadioTuner8setMutedEb @ 22 NONAME
	_ZN10QtMobility11QRadioTuner9setVolumeEi @ 23 NONAME
	_ZN10QtMobility11QRadioTunerC1EP7QObjectPNS_21QMediaServiceProviderE @ 24 NONAME
	_ZN10QtMobility11QRadioTunerC2EP7QObjectPNS_21QMediaServiceProviderE @ 25 NONAME
	_ZN10QtMobility11QRadioTunerD0Ev @ 26 NONAME
	_ZN10QtMobility11QRadioTunerD1Ev @ 27 NONAME
	_ZN10QtMobility11QRadioTunerD2Ev @ 28 NONAME
	_ZN10QtMobility12QMediaObject11qt_metacallEN11QMetaObject4CallEiPPv @ 29 NONAME
	_ZN10QtMobility12QMediaObject11qt_metacastEPKc @ 30 NONAME
	_ZN10QtMobility12QMediaObject11setMetaDataENS_7QtMedia8MetaDataERK8QVariant @ 31 NONAME
	_ZN10QtMobility12QMediaObject13setupMetaDataEv @ 32 NONAME
	_ZN10QtMobility12QMediaObject15metaDataChangedEv @ 33 NONAME
	_ZN10QtMobility12QMediaObject16addPropertyWatchERK10QByteArray @ 34 NONAME
	_ZN10QtMobility12QMediaObject16staticMetaObjectE @ 35 NONAME DATA 16
	_ZN10QtMobility12QMediaObject17setNotifyIntervalEi @ 36 NONAME
	_ZN10QtMobility12QMediaObject19availabilityChangedEb @ 37 NONAME
	_ZN10QtMobility12QMediaObject19getStaticMetaObjectEv @ 38 NONAME
	_ZN10QtMobility12QMediaObject19removePropertyWatchERK10QByteArray @ 39 NONAME
	_ZN10QtMobility12QMediaObject19setExtendedMetaDataERK7QStringRK8QVariant @ 40 NONAME
	_ZN10QtMobility12QMediaObject21notifyIntervalChangedEi @ 41 NONAME
	_ZN10QtMobility12QMediaObject23metaDataWritableChangedEb @ 42 NONAME
	_ZN10QtMobility12QMediaObject24metaDataAvailableChangedEb @ 43 NONAME
	_ZN10QtMobility12QMediaObject4bindEP7QObject @ 44 NONAME
	_ZN10QtMobility12QMediaObject6unbindEP7QObject @ 45 NONAME
	_ZN10QtMobility12QMediaObjectC1EP7QObjectPNS_13QMediaServiceE @ 46 NONAME
	_ZN10QtMobility12QMediaObjectC1ERNS_19QMediaObjectPrivateEP7QObjectPNS_13QMediaServiceE @ 47 NONAME
	_ZN10QtMobility12QMediaObjectC2EP7QObjectPNS_13QMediaServiceE @ 48 NONAME
	_ZN10QtMobility12QMediaObjectC2ERNS_19QMediaObjectPrivateEP7QObjectPNS_13QMediaServiceE @ 49 NONAME
	_ZN10QtMobility12QMediaObjectD0Ev @ 50 NONAME
	_ZN10QtMobility12QMediaObjectD1Ev @ 51 NONAME
	_ZN10QtMobility12QMediaObjectD2Ev @ 52 NONAME
	_ZN10QtMobility12QMediaPlayer10hasSupportERK7QStringRK11QStringList6QFlagsINS0_4FlagEE @ 53 NONAME
	_ZN10QtMobility12QMediaPlayer11qt_metacallEN11QMetaObject4CallEiPPv @ 54 NONAME
	_ZN10QtMobility12QMediaPlayer11qt_metacastEPKc @ 55 NONAME
	_ZN10QtMobility12QMediaPlayer11setPositionEx @ 56 NONAME
	_ZN10QtMobility12QMediaPlayer12mediaChangedERKNS_13QMediaContentE @ 57 NONAME
	_ZN10QtMobility12QMediaPlayer12mutedChangedEb @ 58 NONAME
	_ZN10QtMobility12QMediaPlayer12stateChangedENS0_5StateE @ 59 NONAME
	_ZN10QtMobility12QMediaPlayer13volumeChangedEi @ 60 NONAME
	_ZN10QtMobility12QMediaPlayer15durationChangedEx @ 61 NONAME
	_ZN10QtMobility12QMediaPlayer15positionChangedEx @ 62 NONAME
	_ZN10QtMobility12QMediaPlayer15seekableChangedEb @ 63 NONAME
	_ZN10QtMobility12QMediaPlayer15setPlaybackRateEf @ 64 NONAME
	_ZN10QtMobility12QMediaPlayer16staticMetaObjectE @ 65 NONAME DATA 16
	_ZN10QtMobility12QMediaPlayer18mediaStatusChangedENS0_11MediaStatusE @ 66 NONAME
	_ZN10QtMobility12QMediaPlayer18supportedMimeTypesE6QFlagsINS0_4FlagEE @ 67 NONAME
	_ZN10QtMobility12QMediaPlayer19bufferStatusChangedEi @ 68 NONAME
	_ZN10QtMobility12QMediaPlayer19getStaticMetaObjectEv @ 69 NONAME
	_ZN10QtMobility12QMediaPlayer19playbackRateChangedEf @ 70 NONAME
	_ZN10QtMobility12QMediaPlayer21audioAvailableChangedEb @ 71 NONAME
	_ZN10QtMobility12QMediaPlayer21videoAvailableChangedEb @ 72 NONAME
	_ZN10QtMobility12QMediaPlayer4bindEP7QObject @ 73 NONAME
	_ZN10QtMobility12QMediaPlayer4playEv @ 74 NONAME
	_ZN10QtMobility12QMediaPlayer4stopEv @ 75 NONAME
	_ZN10QtMobility12QMediaPlayer5errorENS0_5ErrorE @ 76 NONAME
	_ZN10QtMobility12QMediaPlayer5pauseEv @ 77 NONAME
	_ZN10QtMobility12QMediaPlayer6unbindEP7QObject @ 78 NONAME
	_ZN10QtMobility12QMediaPlayer8setMediaERKNS_13QMediaContentEP9QIODevice @ 79 NONAME
	_ZN10QtMobility12QMediaPlayer8setMutedEb @ 80 NONAME
	_ZN10QtMobility12QMediaPlayer9setVolumeEi @ 81 NONAME
	_ZN10QtMobility12QMediaPlayerC1EP7QObject6QFlagsINS0_4FlagEEPNS_21QMediaServiceProviderE @ 82 NONAME
	_ZN10QtMobility12QMediaPlayerC2EP7QObject6QFlagsINS0_4FlagEEPNS_21QMediaServiceProviderE @ 83 NONAME
	_ZN10QtMobility12QMediaPlayerD0Ev @ 84 NONAME
	_ZN10QtMobility12QMediaPlayerD1Ev @ 85 NONAME
	_ZN10QtMobility12QMediaPlayerD2Ev @ 86 NONAME
	_ZN10QtMobility12QVideoWidget10hueChangedEi @ 87 NONAME
	_ZN10QtMobility12QVideoWidget10paintEventEP11QPaintEvent @ 88 NONAME
	_ZN10QtMobility12QVideoWidget11qt_metacallEN11QMetaObject4CallEiPPv @ 89 NONAME
	_ZN10QtMobility12QVideoWidget11qt_metacastEPKc @ 90 NONAME
	_ZN10QtMobility12QVideoWidget11resizeEventEP12QResizeEvent @ 91 NONAME
	_ZN10QtMobility12QVideoWidget11setContrastEi @ 92 NONAME
	_ZN10QtMobility12QVideoWidget13setBrightnessEi @ 93 NONAME
	_ZN10QtMobility12QVideoWidget13setFullScreenEb @ 94 NONAME
	_ZN10QtMobility12QVideoWidget13setSaturationEi @ 95 NONAME
	_ZN10QtMobility12QVideoWidget14setMediaObjectEPNS_12QMediaObjectE @ 96 NONAME
	_ZN10QtMobility12QVideoWidget15contrastChangedEi @ 97 NONAME
	_ZN10QtMobility12QVideoWidget16staticMetaObjectE @ 98 NONAME DATA 16
	_ZN10QtMobility12QVideoWidget17brightnessChangedEi @ 99 NONAME
	_ZN10QtMobility12QVideoWidget17fullScreenChangedEb @ 100 NONAME
	_ZN10QtMobility12QVideoWidget17saturationChangedEi @ 101 NONAME
	_ZN10QtMobility12QVideoWidget18setAspectRatioModeENS0_15AspectRatioModeE @ 102 NONAME
	_ZN10QtMobility12QVideoWidget19getStaticMetaObjectEv @ 103 NONAME
	_ZN10QtMobility12QVideoWidget5eventEP6QEvent @ 104 NONAME
	_ZN10QtMobility12QVideoWidget6setHueEi @ 105 NONAME
	_ZN10QtMobility12QVideoWidget9hideEventEP10QHideEvent @ 106 NONAME
	_ZN10QtMobility12QVideoWidget9moveEventEP10QMoveEvent @ 107 NONAME
	_ZN10QtMobility12QVideoWidget9showEventEP10QShowEvent @ 108 NONAME
	_ZN10QtMobility12QVideoWidgetC1EP7QWidget @ 109 NONAME
	_ZN10QtMobility12QVideoWidgetC2EP7QWidget @ 110 NONAME
	_ZN10QtMobility12QVideoWidgetD0Ev @ 111 NONAME
	_ZN10QtMobility12QVideoWidgetD1Ev @ 112 NONAME
	_ZN10QtMobility12QVideoWidgetD2Ev @ 113 NONAME
	_ZN10QtMobility13QMediaContentC1ERK4QUrl @ 114 NONAME
	_ZN10QtMobility13QMediaContentC1ERK5QListINS_14QMediaResourceEE @ 115 NONAME
	_ZN10QtMobility13QMediaContentC1ERKNS_14QMediaResourceE @ 116 NONAME
	_ZN10QtMobility13QMediaContentC1ERKS0_ @ 117 NONAME
	_ZN10QtMobility13QMediaContentC1Ev @ 118 NONAME
	_ZN10QtMobility13QMediaContentC2ERK4QUrl @ 119 NONAME
	_ZN10QtMobility13QMediaContentC2ERK5QListINS_14QMediaResourceEE @ 120 NONAME
	_ZN10QtMobility13QMediaContentC2ERKNS_14QMediaResourceE @ 121 NONAME
	_ZN10QtMobility13QMediaContentC2ERKS0_ @ 122 NONAME
	_ZN10QtMobility13QMediaContentC2Ev @ 123 NONAME
	_ZN10QtMobility13QMediaContentD1Ev @ 124 NONAME
	_ZN10QtMobility13QMediaContentD2Ev @ 125 NONAME
	_ZN10QtMobility13QMediaContentaSERKS0_ @ 126 NONAME
	_ZN10QtMobility13QMediaControl11qt_metacallEN11QMetaObject4CallEiPPv @ 127 NONAME
	_ZN10QtMobility13QMediaControl11qt_metacastEPKc @ 128 NONAME
	_ZN10QtMobility13QMediaControl16staticMetaObjectE @ 129 NONAME DATA 16
	_ZN10QtMobility13QMediaControl19getStaticMetaObjectEv @ 130 NONAME
	_ZN10QtMobility13QMediaControlC1EP7QObject @ 131 NONAME
	_ZN10QtMobility13QMediaControlC1ERNS_20QMediaControlPrivateEP7QObject @ 132 NONAME
	_ZN10QtMobility13QMediaControlC2EP7QObject @ 133 NONAME
	_ZN10QtMobility13QMediaControlC2ERNS_20QMediaControlPrivateEP7QObject @ 134 NONAME
	_ZN10QtMobility13QMediaControlD0Ev @ 135 NONAME
	_ZN10QtMobility13QMediaControlD1Ev @ 136 NONAME
	_ZN10QtMobility13QMediaControlD2Ev @ 137 NONAME
	_ZN10QtMobility13QMediaService11qt_metacallEN11QMetaObject4CallEiPPv @ 138 NONAME
	_ZN10QtMobility13QMediaService11qt_metacastEPKc @ 139 NONAME
	_ZN10QtMobility13QMediaService16staticMetaObjectE @ 140 NONAME DATA 16
	_ZN10QtMobility13QMediaService19getStaticMetaObjectEv @ 141 NONAME
	_ZN10QtMobility13QMediaServiceC2EP7QObject @ 142 NONAME
	_ZN10QtMobility13QMediaServiceC2ERNS_20QMediaServicePrivateEP7QObject @ 143 NONAME
	_ZN10QtMobility13QMediaServiceD0Ev @ 144 NONAME
	_ZN10QtMobility13QMediaServiceD1Ev @ 145 NONAME
	_ZN10QtMobility13QMediaServiceD2Ev @ 146 NONAME
	_ZN10QtMobility14QCameraControl11qt_metacallEN11QMetaObject4CallEiPPv @ 147 NONAME
	_ZN10QtMobility14QCameraControl11qt_metacastEPKc @ 148 NONAME
	_ZN10QtMobility14QCameraControl12stateChangedENS_7QCamera5StateE @ 149 NONAME
	_ZN10QtMobility14QCameraControl16staticMetaObjectE @ 150 NONAME DATA 16
	_ZN10QtMobility14QCameraControl18captureModeChangedENS_7QCamera11CaptureModeE @ 151 NONAME
	_ZN10QtMobility14QCameraControl19getStaticMetaObjectEv @ 152 NONAME
	_ZN10QtMobility14QCameraControl5errorEiRK7QString @ 153 NONAME
	_ZN10QtMobility14QCameraControlC2EP7QObject @ 154 NONAME
	_ZN10QtMobility14QCameraControlD0Ev @ 155 NONAME
	_ZN10QtMobility14QCameraControlD1Ev @ 156 NONAME
	_ZN10QtMobility14QCameraControlD2Ev @ 157 NONAME
	_ZN10QtMobility14QMediaPlaylist10loadFailedEv @ 158 NONAME
	_ZN10QtMobility14QMediaPlaylist11insertMediaEiRK5QListINS_13QMediaContentEE @ 159 NONAME
	_ZN10QtMobility14QMediaPlaylist11insertMediaEiRKNS_13QMediaContentE @ 160 NONAME
	_ZN10QtMobility14QMediaPlaylist11qt_metacallEN11QMetaObject4CallEiPPv @ 161 NONAME
	_ZN10QtMobility14QMediaPlaylist11qt_metacastEPKc @ 162 NONAME
	_ZN10QtMobility14QMediaPlaylist11removeMediaEi @ 163 NONAME
	_ZN10QtMobility14QMediaPlaylist11removeMediaEii @ 164 NONAME
	_ZN10QtMobility14QMediaPlaylist12mediaChangedEii @ 165 NONAME
	_ZN10QtMobility14QMediaPlaylist12mediaRemovedEii @ 166 NONAME
	_ZN10QtMobility14QMediaPlaylist13mediaInsertedEii @ 167 NONAME
	_ZN10QtMobility14QMediaPlaylist14setMediaObjectEPNS_12QMediaObjectE @ 168 NONAME
	_ZN10QtMobility14QMediaPlaylist15setCurrentIndexEi @ 169 NONAME
	_ZN10QtMobility14QMediaPlaylist15setPlaybackModeENS0_12PlaybackModeE @ 170 NONAME
	_ZN10QtMobility14QMediaPlaylist16staticMetaObjectE @ 171 NONAME DATA 16
	_ZN10QtMobility14QMediaPlaylist19currentIndexChangedEi @ 172 NONAME
	_ZN10QtMobility14QMediaPlaylist19currentMediaChangedERKNS_13QMediaContentE @ 173 NONAME
	_ZN10QtMobility14QMediaPlaylist19getStaticMetaObjectEv @ 174 NONAME
	_ZN10QtMobility14QMediaPlaylist19playbackModeChangedENS0_12PlaybackModeE @ 175 NONAME
	_ZN10QtMobility14QMediaPlaylist21mediaAboutToBeRemovedEii @ 176 NONAME
	_ZN10QtMobility14QMediaPlaylist22mediaAboutToBeInsertedEii @ 177 NONAME
	_ZN10QtMobility14QMediaPlaylist4loadEP9QIODevicePKc @ 178 NONAME
	_ZN10QtMobility14QMediaPlaylist4loadERK4QUrlPKc @ 179 NONAME
	_ZN10QtMobility14QMediaPlaylist4nextEv @ 180 NONAME
	_ZN10QtMobility14QMediaPlaylist4saveEP9QIODevicePKc @ 181 NONAME
	_ZN10QtMobility14QMediaPlaylist4saveERK4QUrlPKc @ 182 NONAME
	_ZN10QtMobility14QMediaPlaylist5clearEv @ 183 NONAME
	_ZN10QtMobility14QMediaPlaylist6loadedEv @ 184 NONAME
	_ZN10QtMobility14QMediaPlaylist7shuffleEv @ 185 NONAME
	_ZN10QtMobility14QMediaPlaylist8addMediaERK5QListINS_13QMediaContentEE @ 186 NONAME
	_ZN10QtMobility14QMediaPlaylist8addMediaERKNS_13QMediaContentE @ 187 NONAME
	_ZN10QtMobility14QMediaPlaylist8previousEv @ 188 NONAME
	_ZN10QtMobility14QMediaPlaylistC1EP7QObject @ 189 NONAME
	_ZN10QtMobility14QMediaPlaylistC2EP7QObject @ 190 NONAME
	_ZN10QtMobility14QMediaPlaylistD0Ev @ 191 NONAME
	_ZN10QtMobility14QMediaPlaylistD1Ev @ 192 NONAME
	_ZN10QtMobility14QMediaPlaylistD2Ev @ 193 NONAME
	_ZN10QtMobility14QMediaRecorder11qt_metacallEN11QMetaObject4CallEiPPv @ 194 NONAME
	_ZN10QtMobility14QMediaRecorder11qt_metacastEPKc @ 195 NONAME
	_ZN10QtMobility14QMediaRecorder12stateChangedENS0_5StateE @ 196 NONAME
	_ZN10QtMobility14QMediaRecorder15durationChangedEx @ 197 NONAME
	_ZN10QtMobility14QMediaRecorder16staticMetaObjectE @ 198 NONAME DATA 16
	_ZN10QtMobility14QMediaRecorder17setOutputLocationERK4QUrl @ 199 NONAME
	_ZN10QtMobility14QMediaRecorder19getStaticMetaObjectEv @ 200 NONAME
	_ZN10QtMobility14QMediaRecorder19setEncodingSettingsERKNS_21QAudioEncoderSettingsERKNS_21QVideoEncoderSettingsERK7QString @ 201 NONAME
	_ZN10QtMobility14QMediaRecorder4stopEv @ 202 NONAME
	_ZN10QtMobility14QMediaRecorder5errorENS0_5ErrorE @ 203 NONAME
	_ZN10QtMobility14QMediaRecorder5pauseEv @ 204 NONAME
	_ZN10QtMobility14QMediaRecorder6recordEv @ 205 NONAME
	_ZN10QtMobility14QMediaRecorderC1EPNS_12QMediaObjectEP7QObject @ 206 NONAME
	_ZN10QtMobility14QMediaRecorderC2EPNS_12QMediaObjectEP7QObject @ 207 NONAME
	_ZN10QtMobility14QMediaRecorderD0Ev @ 208 NONAME
	_ZN10QtMobility14QMediaRecorderD1Ev @ 209 NONAME
	_ZN10QtMobility14QMediaRecorderD2Ev @ 210 NONAME
	_ZN10QtMobility14QMediaResource11setDataSizeEx @ 211 NONAME
	_ZN10QtMobility14QMediaResource11setLanguageERK7QString @ 212 NONAME
	_ZN10QtMobility14QMediaResource13setAudioCodecERK7QString @ 213 NONAME
	_ZN10QtMobility14QMediaResource13setResolutionERK5QSize @ 214 NONAME
	_ZN10QtMobility14QMediaResource13setResolutionEii @ 215 NONAME
	_ZN10QtMobility14QMediaResource13setSampleRateEi @ 216 NONAME
	_ZN10QtMobility14QMediaResource13setVideoCodecERK7QString @ 217 NONAME
	_ZN10QtMobility14QMediaResource15setAudioBitRateEi @ 218 NONAME
	_ZN10QtMobility14QMediaResource15setChannelCountEi @ 219 NONAME
	_ZN10QtMobility14QMediaResource15setVideoBitRateEi @ 220 NONAME
	_ZN10QtMobility14QMediaResourceC1ERK4QUrlRK7QString @ 221 NONAME
	_ZN10QtMobility14QMediaResourceC1ERKS0_ @ 222 NONAME
	_ZN10QtMobility14QMediaResourceC1Ev @ 223 NONAME
	_ZN10QtMobility14QMediaResourceC2ERK4QUrlRK7QString @ 224 NONAME
	_ZN10QtMobility14QMediaResourceC2ERKS0_ @ 225 NONAME
	_ZN10QtMobility14QMediaResourceC2Ev @ 226 NONAME
	_ZN10QtMobility14QMediaResourceD1Ev @ 227 NONAME
	_ZN10QtMobility14QMediaResourceD2Ev @ 228 NONAME
	_ZN10QtMobility14QMediaResourceaSERKS0_ @ 229 NONAME
	_ZN10QtMobility15QMediaTimeRange11addIntervalERKNS_18QMediaTimeIntervalE @ 230 NONAME
	_ZN10QtMobility15QMediaTimeRange11addIntervalExx @ 231 NONAME
	_ZN10QtMobility15QMediaTimeRange12addTimeRangeERKS0_ @ 232 NONAME
	_ZN10QtMobility15QMediaTimeRange14removeIntervalERKNS_18QMediaTimeIntervalE @ 233 NONAME
	_ZN10QtMobility15QMediaTimeRange14removeIntervalExx @ 234 NONAME
	_ZN10QtMobility15QMediaTimeRange15removeTimeRangeERKS0_ @ 235 NONAME
	_ZN10QtMobility15QMediaTimeRange5clearEv @ 236 NONAME
	_ZN10QtMobility15QMediaTimeRangeC1ERKNS_18QMediaTimeIntervalE @ 237 NONAME
	_ZN10QtMobility15QMediaTimeRangeC1ERKS0_ @ 238 NONAME
	_ZN10QtMobility15QMediaTimeRangeC1Ev @ 239 NONAME
	_ZN10QtMobility15QMediaTimeRangeC1Exx @ 240 NONAME
	_ZN10QtMobility15QMediaTimeRangeC2ERKNS_18QMediaTimeIntervalE @ 241 NONAME
	_ZN10QtMobility15QMediaTimeRangeC2ERKS0_ @ 242 NONAME
	_ZN10QtMobility15QMediaTimeRangeC2Ev @ 243 NONAME
	_ZN10QtMobility15QMediaTimeRangeC2Exx @ 244 NONAME
	_ZN10QtMobility15QMediaTimeRangeD1Ev @ 245 NONAME
	_ZN10QtMobility15QMediaTimeRangeD2Ev @ 246 NONAME
	_ZN10QtMobility15QMediaTimeRangeaSERKNS_18QMediaTimeIntervalE @ 247 NONAME
	_ZN10QtMobility15QMediaTimeRangeaSERKS0_ @ 248 NONAME
	_ZN10QtMobility15QMediaTimeRangemIERKNS_18QMediaTimeIntervalE @ 249 NONAME
	_ZN10QtMobility15QMediaTimeRangemIERKS0_ @ 250 NONAME
	_ZN10QtMobility15QMediaTimeRangepLERKNS_18QMediaTimeIntervalE @ 251 NONAME
	_ZN10QtMobility15QMediaTimeRangepLERKS0_ @ 252 NONAME
	_ZN10QtMobility16QMetaDataControl11qt_metacallEN11QMetaObject4CallEiPPv @ 253 NONAME
	_ZN10QtMobility16QMetaDataControl11qt_metacastEPKc @ 254 NONAME
	_ZN10QtMobility16QMetaDataControl15metaDataChangedEv @ 255 NONAME
	_ZN10QtMobility16QMetaDataControl15writableChangedEb @ 256 NONAME
	_ZN10QtMobility16QMetaDataControl16staticMetaObjectE @ 257 NONAME DATA 16
	_ZN10QtMobility16QMetaDataControl19getStaticMetaObjectEv @ 258 NONAME
	_ZN10QtMobility16QMetaDataControl24metaDataAvailableChangedEb @ 259 NONAME
	_ZN10QtMobility16QMetaDataControlC2EP7QObject @ 260 NONAME
	_ZN10QtMobility16QMetaDataControlD0Ev @ 261 NONAME
	_ZN10QtMobility16QMetaDataControlD1Ev @ 262 NONAME
	_ZN10QtMobility16QMetaDataControlD2Ev @ 263 NONAME
	_ZN10QtMobility17QMediaImageViewer10setTimeoutEi @ 264 NONAME
	_ZN10QtMobility17QMediaImageViewer10timerEventEP11QTimerEvent @ 265 NONAME
	_ZN10QtMobility17QMediaImageViewer11qt_metacallEN11QMetaObject4CallEiPPv @ 266 NONAME
	_ZN10QtMobility17QMediaImageViewer11qt_metacastEPKc @ 267 NONAME
	_ZN10QtMobility17QMediaImageViewer12mediaChangedERKNS_13QMediaContentE @ 268 NONAME
	_ZN10QtMobility17QMediaImageViewer12stateChangedENS0_5StateE @ 269 NONAME
	_ZN10QtMobility17QMediaImageViewer16staticMetaObjectE @ 270 NONAME DATA 16
	_ZN10QtMobility17QMediaImageViewer18elapsedTimeChangedEi @ 271 NONAME
	_ZN10QtMobility17QMediaImageViewer18mediaStatusChangedENS0_11MediaStatusE @ 272 NONAME
	_ZN10QtMobility17QMediaImageViewer19getStaticMetaObjectEv @ 273 NONAME
	_ZN10QtMobility17QMediaImageViewer4bindEP7QObject @ 274 NONAME
	_ZN10QtMobility17QMediaImageViewer4playEv @ 275 NONAME
	_ZN10QtMobility17QMediaImageViewer4stopEv @ 276 NONAME
	_ZN10QtMobility17QMediaImageViewer5pauseEv @ 277 NONAME
	_ZN10QtMobility17QMediaImageViewer6unbindEP7QObject @ 278 NONAME
	_ZN10QtMobility17QMediaImageViewer8setMediaERKNS_13QMediaContentE @ 279 NONAME
	_ZN10QtMobility17QMediaImageViewerC1EP7QObject @ 280 NONAME
	_ZN10QtMobility17QMediaImageViewerC2EP7QObject @ 281 NONAME
	_ZN10QtMobility17QMediaImageViewerD0Ev @ 282 NONAME
	_ZN10QtMobility17QMediaImageViewerD1Ev @ 283 NONAME
	_ZN10QtMobility17QMediaImageViewerD2Ev @ 284 NONAME
	_ZN10QtMobility18QGraphicsVideoItem10itemChangeEN13QGraphicsItem18GraphicsItemChangeERK8QVariant @ 285 NONAME
	_ZN10QtMobility18QGraphicsVideoItem11qt_metacallEN11QMetaObject4CallEiPPv @ 286 NONAME
	_ZN10QtMobility18QGraphicsVideoItem11qt_metacastEPKc @ 287 NONAME
	_ZN10QtMobility18QGraphicsVideoItem14setMediaObjectEPNS_12QMediaObjectE @ 288 NONAME
	_ZN10QtMobility18QGraphicsVideoItem16staticMetaObjectE @ 289 NONAME DATA 16
	_ZN10QtMobility18QGraphicsVideoItem18setAspectRatioModeEN2Qt15AspectRatioModeE @ 290 NONAME
	_ZN10QtMobility18QGraphicsVideoItem19getStaticMetaObjectEv @ 291 NONAME
	_ZN10QtMobility18QGraphicsVideoItem5paintEP8QPainterPK24QStyleOptionGraphicsItemP7QWidget @ 292 NONAME
	_ZN10QtMobility18QGraphicsVideoItem7setSizeERK6QSizeF @ 293 NONAME
	_ZN10QtMobility18QGraphicsVideoItem9setOffsetERK7QPointF @ 294 NONAME
	_ZN10QtMobility18QGraphicsVideoItemC1EP13QGraphicsItem @ 295 NONAME
	_ZN10QtMobility18QGraphicsVideoItemC2EP13QGraphicsItem @ 296 NONAME
	_ZN10QtMobility18QGraphicsVideoItemD0Ev @ 297 NONAME
	_ZN10QtMobility18QGraphicsVideoItemD1Ev @ 298 NONAME
	_ZN10QtMobility18QGraphicsVideoItemD2Ev @ 299 NONAME
	_ZN10QtMobility18QMediaTimeIntervalC1ERKS0_ @ 300 NONAME
	_ZN10QtMobility18QMediaTimeIntervalC1Ev @ 301 NONAME
	_ZN10QtMobility18QMediaTimeIntervalC1Exx @ 302 NONAME
	_ZN10QtMobility18QMediaTimeIntervalC2ERKS0_ @ 303 NONAME
	_ZN10QtMobility18QMediaTimeIntervalC2Ev @ 304 NONAME
	_ZN10QtMobility18QMediaTimeIntervalC2Exx @ 305 NONAME
	_ZN10QtMobility18QRadioTunerControl11bandChangedENS_11QRadioTuner4BandE @ 306 NONAME
	_ZN10QtMobility18QRadioTunerControl11qt_metacallEN11QMetaObject4CallEiPPv @ 307 NONAME
	_ZN10QtMobility18QRadioTunerControl11qt_metacastEPKc @ 308 NONAME
	_ZN10QtMobility18QRadioTunerControl12mutedChangedEb @ 309 NONAME
	_ZN10QtMobility18QRadioTunerControl12stateChangedENS_11QRadioTuner5StateE @ 310 NONAME
	_ZN10QtMobility18QRadioTunerControl13volumeChangedEi @ 311 NONAME
	_ZN10QtMobility18QRadioTunerControl16frequencyChangedEi @ 312 NONAME
	_ZN10QtMobility18QRadioTunerControl16searchingChangedEb @ 313 NONAME
	_ZN10QtMobility18QRadioTunerControl16staticMetaObjectE @ 314 NONAME DATA 16
	_ZN10QtMobility18QRadioTunerControl19getStaticMetaObjectEv @ 315 NONAME
	_ZN10QtMobility18QRadioTunerControl19stereoStatusChangedEb @ 316 NONAME
	_ZN10QtMobility18QRadioTunerControl21signalStrengthChangedEi @ 317 NONAME
	_ZN10QtMobility18QRadioTunerControl5errorENS_11QRadioTuner5ErrorE @ 318 NONAME
	_ZN10QtMobility18QRadioTunerControlC2EP7QObject @ 319 NONAME
	_ZN10QtMobility18QRadioTunerControlD0Ev @ 320 NONAME
	_ZN10QtMobility18QRadioTunerControlD1Ev @ 321 NONAME
	_ZN10QtMobility18QRadioTunerControlD2Ev @ 322 NONAME
	_ZN10QtMobility18QStillImageCapture10imageSavedERK7QString @ 323 NONAME
	_ZN10QtMobility18QStillImageCapture11qt_metacallEN11QMetaObject4CallEiPPv @ 324 NONAME
	_ZN10QtMobility18QStillImageCapture11qt_metacastEPKc @ 325 NONAME
	_ZN10QtMobility18QStillImageCapture13imageCapturedERK7QStringRK6QImage @ 326 NONAME
	_ZN10QtMobility18QStillImageCapture16staticMetaObjectE @ 327 NONAME DATA 16
	_ZN10QtMobility18QStillImageCapture19getStaticMetaObjectEv @ 328 NONAME
	_ZN10QtMobility18QStillImageCapture19setEncodingSettingsERKNS_21QImageEncoderSettingsE @ 329 NONAME
	_ZN10QtMobility18QStillImageCapture22readyForCaptureChangedEb @ 330 NONAME
	_ZN10QtMobility18QStillImageCapture5errorENS0_5ErrorE @ 331 NONAME
	_ZN10QtMobility18QStillImageCapture7captureERK7QString @ 332 NONAME
	_ZN10QtMobility18QStillImageCaptureC1EPNS_12QMediaObjectEP7QObject @ 333 NONAME
	_ZN10QtMobility18QStillImageCaptureC2EPNS_12QMediaObjectEP7QObject @ 334 NONAME
	_ZN10QtMobility18QStillImageCaptureD0Ev @ 335 NONAME
	_ZN10QtMobility18QStillImageCaptureD1Ev @ 336 NONAME
	_ZN10QtMobility18QStillImageCaptureD2Ev @ 337 NONAME
	_ZN10QtMobility19QAudioCaptureSource11qt_metacallEN11QMetaObject4CallEiPPv @ 338 NONAME
	_ZN10QtMobility19QAudioCaptureSource11qt_metacastEPKc @ 339 NONAME
	_ZN10QtMobility19QAudioCaptureSource13setAudioInputERK7QString @ 340 NONAME
	_ZN10QtMobility19QAudioCaptureSource13statusChangedEv @ 341 NONAME
	_ZN10QtMobility19QAudioCaptureSource16staticMetaObjectE @ 342 NONAME DATA 16
	_ZN10QtMobility19QAudioCaptureSource19getStaticMetaObjectEv @ 343 NONAME
	_ZN10QtMobility19QAudioCaptureSource23activeAudioInputChangedERK7QString @ 344 NONAME
	_ZN10QtMobility19QAudioCaptureSource27availableAudioInputsChangedEv @ 345 NONAME
	_ZN10QtMobility19QAudioCaptureSourceC1EP7QObjectPNS_21QMediaServiceProviderE @ 346 NONAME
	_ZN10QtMobility19QAudioCaptureSourceC1EPNS_12QMediaObjectEP7QObject @ 347 NONAME
	_ZN10QtMobility19QAudioCaptureSourceC2EP7QObjectPNS_21QMediaServiceProviderE @ 348 NONAME
	_ZN10QtMobility19QAudioCaptureSourceC2EPNS_12QMediaObjectEP7QObject @ 349 NONAME
	_ZN10QtMobility19QAudioCaptureSourceD0Ev @ 350 NONAME
	_ZN10QtMobility19QAudioCaptureSourceD1Ev @ 351 NONAME
	_ZN10QtMobility19QAudioCaptureSourceD2Ev @ 352 NONAME
	_ZN10QtMobility19QCameraFocusControl11qt_metacallEN11QMetaObject4CallEiPPv @ 353 NONAME
	_ZN10QtMobility19QCameraFocusControl11qt_metacastEPKc @ 354 NONAME
	_ZN10QtMobility19QCameraFocusControl16staticMetaObjectE @ 355 NONAME DATA 16
	_ZN10QtMobility19QCameraFocusControl18digitalZoomChangedEf @ 356 NONAME
	_ZN10QtMobility19QCameraFocusControl18focusStatusChangedENS_7QCamera11FocusStatusE @ 357 NONAME
	_ZN10QtMobility19QCameraFocusControl18opticalZoomChangedEf @ 358 NONAME
	_ZN10QtMobility19QCameraFocusControl19getStaticMetaObjectEv @ 359 NONAME
	_ZN10QtMobility19QCameraFocusControlC2EP7QObject @ 360 NONAME
	_ZN10QtMobility19QCameraFocusControlD0Ev @ 361 NONAME
	_ZN10QtMobility19QCameraFocusControlD1Ev @ 362 NONAME
	_ZN10QtMobility19QCameraFocusControlD2Ev @ 363 NONAME
	_ZN10QtMobility19QMediaPlayerControl11qt_metacallEN11QMetaObject4CallEiPPv @ 364 NONAME
	_ZN10QtMobility19QMediaPlayerControl11qt_metacastEPKc @ 365 NONAME
	_ZN10QtMobility19QMediaPlayerControl12mediaChangedERKNS_13QMediaContentE @ 366 NONAME
	_ZN10QtMobility19QMediaPlayerControl12mutedChangedEb @ 367 NONAME
	_ZN10QtMobility19QMediaPlayerControl12stateChangedENS_12QMediaPlayer5StateE @ 368 NONAME
	_ZN10QtMobility19QMediaPlayerControl13volumeChangedEi @ 369 NONAME
	_ZN10QtMobility19QMediaPlayerControl15durationChangedEx @ 370 NONAME
	_ZN10QtMobility19QMediaPlayerControl15positionChangedEx @ 371 NONAME
	_ZN10QtMobility19QMediaPlayerControl15seekableChangedEb @ 372 NONAME
	_ZN10QtMobility19QMediaPlayerControl16staticMetaObjectE @ 373 NONAME DATA 16
	_ZN10QtMobility19QMediaPlayerControl18mediaStatusChangedENS_12QMediaPlayer11MediaStatusE @ 374 NONAME
	_ZN10QtMobility19QMediaPlayerControl19bufferStatusChangedEi @ 375 NONAME
	_ZN10QtMobility19QMediaPlayerControl19getStaticMetaObjectEv @ 376 NONAME
	_ZN10QtMobility19QMediaPlayerControl19playbackRateChangedEf @ 377 NONAME
	_ZN10QtMobility19QMediaPlayerControl21audioAvailableChangedEb @ 378 NONAME
	_ZN10QtMobility19QMediaPlayerControl21videoAvailableChangedEb @ 379 NONAME
	_ZN10QtMobility19QMediaPlayerControl30availablePlaybackRangesChangedERKNS_15QMediaTimeRangeE @ 380 NONAME
	_ZN10QtMobility19QMediaPlayerControl5errorEiRK7QString @ 381 NONAME
	_ZN10QtMobility19QMediaPlayerControlC2EP7QObject @ 382 NONAME
	_ZN10QtMobility19QMediaPlayerControlD0Ev @ 383 NONAME
	_ZN10QtMobility19QMediaPlayerControlD1Ev @ 384 NONAME
	_ZN10QtMobility19QMediaPlayerControlD2Ev @ 385 NONAME
	_ZN10QtMobility19QVideoDeviceControl11qt_metacallEN11QMetaObject4CallEiPPv @ 386 NONAME
	_ZN10QtMobility19QVideoDeviceControl11qt_metacastEPKc @ 387 NONAME
	_ZN10QtMobility19QVideoDeviceControl14devicesChangedEv @ 388 NONAME
	_ZN10QtMobility19QVideoDeviceControl16staticMetaObjectE @ 389 NONAME DATA 16
	_ZN10QtMobility19QVideoDeviceControl19getStaticMetaObjectEv @ 390 NONAME
	_ZN10QtMobility19QVideoDeviceControl21selectedDeviceChangedERK7QString @ 391 NONAME
	_ZN10QtMobility19QVideoDeviceControl21selectedDeviceChangedEi @ 392 NONAME
	_ZN10QtMobility19QVideoDeviceControlC2EP7QObject @ 393 NONAME
	_ZN10QtMobility19QVideoDeviceControlD0Ev @ 394 NONAME
	_ZN10QtMobility19QVideoDeviceControlD1Ev @ 395 NONAME
	_ZN10QtMobility19QVideoDeviceControlD2Ev @ 396 NONAME
	_ZN10QtMobility19QVideoOutputControl11qt_metacallEN11QMetaObject4CallEiPPv @ 397 NONAME
	_ZN10QtMobility19QVideoOutputControl11qt_metacastEPKc @ 398 NONAME
	_ZN10QtMobility19QVideoOutputControl16staticMetaObjectE @ 399 NONAME DATA 16
	_ZN10QtMobility19QVideoOutputControl19getStaticMetaObjectEv @ 400 NONAME
	_ZN10QtMobility19QVideoOutputControl23availableOutputsChangedERK5QListINS0_6OutputEE @ 401 NONAME
	_ZN10QtMobility19QVideoOutputControlC2EP7QObject @ 402 NONAME
	_ZN10QtMobility19QVideoOutputControlD0Ev @ 403 NONAME
	_ZN10QtMobility19QVideoOutputControlD1Ev @ 404 NONAME
	_ZN10QtMobility19QVideoOutputControlD2Ev @ 405 NONAME
	_ZN10QtMobility19QVideoWidgetControl10hueChangedEi @ 406 NONAME
	_ZN10QtMobility19QVideoWidgetControl11qt_metacallEN11QMetaObject4CallEiPPv @ 407 NONAME
	_ZN10QtMobility19QVideoWidgetControl11qt_metacastEPKc @ 408 NONAME
	_ZN10QtMobility19QVideoWidgetControl15contrastChangedEi @ 409 NONAME
	_ZN10QtMobility19QVideoWidgetControl16staticMetaObjectE @ 410 NONAME DATA 16
	_ZN10QtMobility19QVideoWidgetControl17brightnessChangedEi @ 411 NONAME
	_ZN10QtMobility19QVideoWidgetControl17fullScreenChangedEb @ 412 NONAME
	_ZN10QtMobility19QVideoWidgetControl17saturationChangedEi @ 413 NONAME
	_ZN10QtMobility19QVideoWidgetControl19getStaticMetaObjectEv @ 414 NONAME
	_ZN10QtMobility19QVideoWidgetControlC2EP7QObject @ 415 NONAME
	_ZN10QtMobility19QVideoWidgetControlD0Ev @ 416 NONAME
	_ZN10QtMobility19QVideoWidgetControlD1Ev @ 417 NONAME
	_ZN10QtMobility19QVideoWidgetControlD2Ev @ 418 NONAME
	_ZN10QtMobility19QVideoWindowControl10hueChangedEi @ 419 NONAME
	_ZN10QtMobility19QVideoWindowControl11qt_metacallEN11QMetaObject4CallEiPPv @ 420 NONAME
	_ZN10QtMobility19QVideoWindowControl11qt_metacastEPKc @ 421 NONAME
	_ZN10QtMobility19QVideoWindowControl15contrastChangedEi @ 422 NONAME
	_ZN10QtMobility19QVideoWindowControl16staticMetaObjectE @ 423 NONAME DATA 16
	_ZN10QtMobility19QVideoWindowControl17brightnessChangedEi @ 424 NONAME
	_ZN10QtMobility19QVideoWindowControl17fullScreenChangedEb @ 425 NONAME
	_ZN10QtMobility19QVideoWindowControl17nativeSizeChangedEv @ 426 NONAME
	_ZN10QtMobility19QVideoWindowControl17saturationChangedEi @ 427 NONAME
	_ZN10QtMobility19QVideoWindowControl19getStaticMetaObjectEv @ 428 NONAME
	_ZN10QtMobility19QVideoWindowControlC2EP7QObject @ 429 NONAME
	_ZN10QtMobility19QVideoWindowControlD0Ev @ 430 NONAME
	_ZN10QtMobility19QVideoWindowControlD1Ev @ 431 NONAME
	_ZN10QtMobility19QVideoWindowControlD2Ev @ 432 NONAME
	_ZN10QtMobility20QAudioEncoderControl11qt_metacallEN11QMetaObject4CallEiPPv @ 433 NONAME
	_ZN10QtMobility20QAudioEncoderControl11qt_metacastEPKc @ 434 NONAME
	_ZN10QtMobility20QAudioEncoderControl16staticMetaObjectE @ 435 NONAME DATA 16
	_ZN10QtMobility20QAudioEncoderControl19getStaticMetaObjectEv @ 436 NONAME
	_ZN10QtMobility20QAudioEncoderControlC2EP7QObject @ 437 NONAME
	_ZN10QtMobility20QAudioEncoderControlD0Ev @ 438 NONAME
	_ZN10QtMobility20QAudioEncoderControlD1Ev @ 439 NONAME
	_ZN10QtMobility20QAudioEncoderControlD2Ev @ 440 NONAME
	_ZN10QtMobility20QImageCaptureControl10imageSavedERK7QString @ 441 NONAME
	_ZN10QtMobility20QImageCaptureControl11qt_metacallEN11QMetaObject4CallEiPPv @ 442 NONAME
	_ZN10QtMobility20QImageCaptureControl11qt_metacastEPKc @ 443 NONAME
	_ZN10QtMobility20QImageCaptureControl13imageCapturedERK7QStringRK6QImage @ 444 NONAME
	_ZN10QtMobility20QImageCaptureControl16staticMetaObjectE @ 445 NONAME DATA 16
	_ZN10QtMobility20QImageCaptureControl19getStaticMetaObjectEv @ 446 NONAME
	_ZN10QtMobility20QImageCaptureControl22readyForCaptureChangedEb @ 447 NONAME
	_ZN10QtMobility20QImageCaptureControl5errorEiRK7QString @ 448 NONAME
	_ZN10QtMobility20QImageCaptureControlC2EP7QObject @ 449 NONAME
	_ZN10QtMobility20QImageCaptureControlD0Ev @ 450 NONAME
	_ZN10QtMobility20QImageCaptureControlD1Ev @ 451 NONAME
	_ZN10QtMobility20QImageCaptureControlD2Ev @ 452 NONAME
	_ZN10QtMobility20QImageEncoderControl11qt_metacallEN11QMetaObject4CallEiPPv @ 453 NONAME
	_ZN10QtMobility20QImageEncoderControl11qt_metacastEPKc @ 454 NONAME
	_ZN10QtMobility20QImageEncoderControl16staticMetaObjectE @ 455 NONAME DATA 16
	_ZN10QtMobility20QImageEncoderControl19getStaticMetaObjectEv @ 456 NONAME
	_ZN10QtMobility20QImageEncoderControlC2EP7QObject @ 457 NONAME
	_ZN10QtMobility20QImageEncoderControlD0Ev @ 458 NONAME
	_ZN10QtMobility20QImageEncoderControlD1Ev @ 459 NONAME
	_ZN10QtMobility20QImageEncoderControlD2Ev @ 460 NONAME
	_ZN10QtMobility20QMediaPlaylistReaderD0Ev @ 461 NONAME
	_ZN10QtMobility20QMediaPlaylistReaderD1Ev @ 462 NONAME
	_ZN10QtMobility20QMediaPlaylistReaderD2Ev @ 463 NONAME
	_ZN10QtMobility20QMediaPlaylistWriterD0Ev @ 464 NONAME
	_ZN10QtMobility20QMediaPlaylistWriterD1Ev @ 465 NONAME
	_ZN10QtMobility20QMediaPlaylistWriterD2Ev @ 466 NONAME
	_ZN10QtMobility20QMediaStreamsControl11qt_metacallEN11QMetaObject4CallEiPPv @ 467 NONAME
	_ZN10QtMobility20QMediaStreamsControl11qt_metacastEPKc @ 468 NONAME
	_ZN10QtMobility20QMediaStreamsControl14streamsChangedEv @ 469 NONAME
	_ZN10QtMobility20QMediaStreamsControl16staticMetaObjectE @ 470 NONAME DATA 16
	_ZN10QtMobility20QMediaStreamsControl19getStaticMetaObjectEv @ 471 NONAME
	_ZN10QtMobility20QMediaStreamsControl20activeStreamsChangedEv @ 472 NONAME
	_ZN10QtMobility20QMediaStreamsControlC2EP7QObject @ 473 NONAME
	_ZN10QtMobility20QMediaStreamsControlD0Ev @ 474 NONAME
	_ZN10QtMobility20QMediaStreamsControlD1Ev @ 475 NONAME
	_ZN10QtMobility20QMediaStreamsControlD2Ev @ 476 NONAME
	_ZN10QtMobility20QVideoEncoderControl11qt_metacallEN11QMetaObject4CallEiPPv @ 477 NONAME
	_ZN10QtMobility20QVideoEncoderControl11qt_metacastEPKc @ 478 NONAME
	_ZN10QtMobility20QVideoEncoderControl16staticMetaObjectE @ 479 NONAME DATA 16
	_ZN10QtMobility20QVideoEncoderControl19getStaticMetaObjectEv @ 480 NONAME
	_ZN10QtMobility20QVideoEncoderControlC2EP7QObject @ 481 NONAME
	_ZN10QtMobility20QVideoEncoderControlD0Ev @ 482 NONAME
	_ZN10QtMobility20QVideoEncoderControlD1Ev @ 483 NONAME
	_ZN10QtMobility20QVideoEncoderControlD2Ev @ 484 NONAME
	_ZN10QtMobility21QAudioEncoderSettings10setBitRateEi @ 485 NONAME
	_ZN10QtMobility21QAudioEncoderSettings10setQualityENS_7QtMedia15EncodingQualityE @ 486 NONAME
	_ZN10QtMobility21QAudioEncoderSettings13setSampleRateEi @ 487 NONAME
	_ZN10QtMobility21QAudioEncoderSettings15setChannelCountEi @ 488 NONAME
	_ZN10QtMobility21QAudioEncoderSettings15setEncodingModeENS_7QtMedia12EncodingModeE @ 489 NONAME
	_ZN10QtMobility21QAudioEncoderSettings8setCodecERK7QString @ 490 NONAME
	_ZN10QtMobility21QAudioEncoderSettingsC1ERKS0_ @ 491 NONAME
	_ZN10QtMobility21QAudioEncoderSettingsC1Ev @ 492 NONAME
	_ZN10QtMobility21QAudioEncoderSettingsC2ERKS0_ @ 493 NONAME
	_ZN10QtMobility21QAudioEncoderSettingsC2Ev @ 494 NONAME
	_ZN10QtMobility21QAudioEncoderSettingsD1Ev @ 495 NONAME
	_ZN10QtMobility21QAudioEncoderSettingsD2Ev @ 496 NONAME
	_ZN10QtMobility21QAudioEncoderSettingsaSERKS0_ @ 497 NONAME
	_ZN10QtMobility21QImageEncoderSettings10setQualityENS_7QtMedia15EncodingQualityE @ 498 NONAME
	_ZN10QtMobility21QImageEncoderSettings13setResolutionERK5QSize @ 499 NONAME
	_ZN10QtMobility21QImageEncoderSettings13setResolutionEii @ 500 NONAME
	_ZN10QtMobility21QImageEncoderSettings8setCodecERK7QString @ 501 NONAME
	_ZN10QtMobility21QImageEncoderSettingsC1ERKS0_ @ 502 NONAME
	_ZN10QtMobility21QImageEncoderSettingsC1Ev @ 503 NONAME
	_ZN10QtMobility21QImageEncoderSettingsC2ERKS0_ @ 504 NONAME
	_ZN10QtMobility21QImageEncoderSettingsC2Ev @ 505 NONAME
	_ZN10QtMobility21QImageEncoderSettingsD1Ev @ 506 NONAME
	_ZN10QtMobility21QImageEncoderSettingsD2Ev @ 507 NONAME
	_ZN10QtMobility21QImageEncoderSettingsaSERKS0_ @ 508 NONAME
	_ZN10QtMobility21QMediaPlaylistControl11qt_metacallEN11QMetaObject4CallEiPPv @ 509 NONAME
	_ZN10QtMobility21QMediaPlaylistControl11qt_metacastEPKc @ 510 NONAME
	_ZN10QtMobility21QMediaPlaylistControl16staticMetaObjectE @ 511 NONAME DATA 16
	_ZN10QtMobility21QMediaPlaylistControl19currentIndexChangedEi @ 512 NONAME
	_ZN10QtMobility21QMediaPlaylistControl19currentMediaChangedERKNS_13QMediaContentE @ 513 NONAME
	_ZN10QtMobility21QMediaPlaylistControl19getStaticMetaObjectEv @ 514 NONAME
	_ZN10QtMobility21QMediaPlaylistControl19playbackModeChangedENS_14QMediaPlaylist12PlaybackModeE @ 515 NONAME
	_ZN10QtMobility21QMediaPlaylistControl23playlistProviderChangedEv @ 516 NONAME
	_ZN10QtMobility21QMediaPlaylistControlC2EP7QObject @ 517 NONAME
	_ZN10QtMobility21QMediaPlaylistControlD0Ev @ 518 NONAME
	_ZN10QtMobility21QMediaPlaylistControlD1Ev @ 519 NONAME
	_ZN10QtMobility21QMediaPlaylistControlD2Ev @ 520 NONAME
	_ZN10QtMobility21QMediaRecorderControl11qt_metacallEN11QMetaObject4CallEiPPv @ 521 NONAME
	_ZN10QtMobility21QMediaRecorderControl11qt_metacastEPKc @ 522 NONAME
	_ZN10QtMobility21QMediaRecorderControl12stateChangedENS_14QMediaRecorder5StateE @ 523 NONAME
	_ZN10QtMobility21QMediaRecorderControl15durationChangedEx @ 524 NONAME
	_ZN10QtMobility21QMediaRecorderControl16staticMetaObjectE @ 525 NONAME DATA 16
	_ZN10QtMobility21QMediaRecorderControl19getStaticMetaObjectEv @ 526 NONAME
	_ZN10QtMobility21QMediaRecorderControl5errorEiRK7QString @ 527 NONAME
	_ZN10QtMobility21QMediaRecorderControlC2EP7QObject @ 528 NONAME
	_ZN10QtMobility21QMediaRecorderControlD0Ev @ 529 NONAME
	_ZN10QtMobility21QMediaRecorderControlD1Ev @ 530 NONAME
	_ZN10QtMobility21QMediaRecorderControlD2Ev @ 531 NONAME
	_ZN10QtMobility21QMediaServiceProvider11qt_metacallEN11QMetaObject4CallEiPPv @ 532 NONAME
	_ZN10QtMobility21QMediaServiceProvider11qt_metacastEPKc @ 533 NONAME
	_ZN10QtMobility21QMediaServiceProvider16staticMetaObjectE @ 534 NONAME DATA 16
	_ZN10QtMobility21QMediaServiceProvider17deviceDescriptionERK10QByteArrayS3_ @ 535 NONAME
	_ZN10QtMobility21QMediaServiceProvider19getStaticMetaObjectEv @ 536 NONAME
	_ZN10QtMobility21QMediaServiceProvider22defaultServiceProviderEv @ 537 NONAME
	_ZN10QtMobility21QVideoEncoderSettings10setBitRateEi @ 538 NONAME
	_ZN10QtMobility21QVideoEncoderSettings10setQualityENS_7QtMedia15EncodingQualityE @ 539 NONAME
	_ZN10QtMobility21QVideoEncoderSettings12setFrameRateEf @ 540 NONAME
	_ZN10QtMobility21QVideoEncoderSettings13setResolutionERK5QSize @ 541 NONAME
	_ZN10QtMobility21QVideoEncoderSettings13setResolutionEii @ 542 NONAME
	_ZN10QtMobility21QVideoEncoderSettings15setEncodingModeENS_7QtMedia12EncodingModeE @ 543 NONAME
	_ZN10QtMobility21QVideoEncoderSettings8setCodecERK7QString @ 544 NONAME
	_ZN10QtMobility21QVideoEncoderSettingsC1ERKS0_ @ 545 NONAME
	_ZN10QtMobility21QVideoEncoderSettingsC1Ev @ 546 NONAME
	_ZN10QtMobility21QVideoEncoderSettingsC2ERKS0_ @ 547 NONAME
	_ZN10QtMobility21QVideoEncoderSettingsC2Ev @ 548 NONAME
	_ZN10QtMobility21QVideoEncoderSettingsD1Ev @ 549 NONAME
	_ZN10QtMobility21QVideoEncoderSettingsD2Ev @ 550 NONAME
	_ZN10QtMobility21QVideoEncoderSettingsaSERKS0_ @ 551 NONAME
	_ZN10QtMobility21QVideoRendererControl11qt_metacallEN11QMetaObject4CallEiPPv @ 552 NONAME
	_ZN10QtMobility21QVideoRendererControl11qt_metacastEPKc @ 553 NONAME
	_ZN10QtMobility21QVideoRendererControl16staticMetaObjectE @ 554 NONAME DATA 16
	_ZN10QtMobility21QVideoRendererControl19getStaticMetaObjectEv @ 555 NONAME
	_ZN10QtMobility21QVideoRendererControlC2EP7QObject @ 556 NONAME
	_ZN10QtMobility21QVideoRendererControlD0Ev @ 557 NONAME
	_ZN10QtMobility21QVideoRendererControlD1Ev @ 558 NONAME
	_ZN10QtMobility21QVideoRendererControlD2Ev @ 559 NONAME
	_ZN10QtMobility22QAudioEndpointSelector11qt_metacallEN11QMetaObject4CallEiPPv @ 560 NONAME
	_ZN10QtMobility22QAudioEndpointSelector11qt_metacastEPKc @ 561 NONAME
	_ZN10QtMobility22QAudioEndpointSelector16staticMetaObjectE @ 562 NONAME DATA 16
	_ZN10QtMobility22QAudioEndpointSelector19getStaticMetaObjectEv @ 563 NONAME
	_ZN10QtMobility22QAudioEndpointSelector21activeEndpointChangedERK7QString @ 564 NONAME
	_ZN10QtMobility22QAudioEndpointSelector25availableEndpointsChangedEv @ 565 NONAME
	_ZN10QtMobility22QAudioEndpointSelectorC2EP7QObject @ 566 NONAME
	_ZN10QtMobility22QAudioEndpointSelectorD0Ev @ 567 NONAME
	_ZN10QtMobility22QAudioEndpointSelectorD1Ev @ 568 NONAME
	_ZN10QtMobility22QAudioEndpointSelectorD2Ev @ 569 NONAME
	_ZN10QtMobility22QCameraExposureControl10flashReadyEb @ 570 NONAME
	_ZN10QtMobility22QCameraExposureControl11qt_metacallEN11QMetaObject4CallEiPPv @ 571 NONAME
	_ZN10QtMobility22QCameraExposureControl11qt_metacastEPKc @ 572 NONAME
	_ZN10QtMobility22QCameraExposureControl14exposureLockedEv @ 573 NONAME
	_ZN10QtMobility22QCameraExposureControl15apertureChangedEf @ 574 NONAME
	_ZN10QtMobility22QCameraExposureControl16staticMetaObjectE @ 575 NONAME DATA 16
	_ZN10QtMobility22QCameraExposureControl19getStaticMetaObjectEv @ 576 NONAME
	_ZN10QtMobility22QCameraExposureControl19shutterSpeedChangedEf @ 577 NONAME
	_ZN10QtMobility22QCameraExposureControl20apertureRangeChangedEv @ 578 NONAME
	_ZN10QtMobility22QCameraExposureControl21isoSensitivityChangedEi @ 579 NONAME
	_ZN10QtMobility22QCameraExposureControlC2EP7QObject @ 580 NONAME
	_ZN10QtMobility22QCameraExposureControlD0Ev @ 581 NONAME
	_ZN10QtMobility22QCameraExposureControlD1Ev @ 582 NONAME
	_ZN10QtMobility22QCameraExposureControlD2Ev @ 583 NONAME
	_ZN10QtMobility22QMediaContainerControl11qt_metacallEN11QMetaObject4CallEiPPv @ 584 NONAME
	_ZN10QtMobility22QMediaContainerControl11qt_metacastEPKc @ 585 NONAME
	_ZN10QtMobility22QMediaContainerControl16staticMetaObjectE @ 586 NONAME DATA 16
	_ZN10QtMobility22QMediaContainerControl19getStaticMetaObjectEv @ 587 NONAME
	_ZN10QtMobility22QMediaContainerControlC2EP7QObject @ 588 NONAME
	_ZN10QtMobility22QMediaContainerControlD0Ev @ 589 NONAME
	_ZN10QtMobility22QMediaContainerControlD1Ev @ 590 NONAME
	_ZN10QtMobility22QMediaContainerControlD2Ev @ 591 NONAME
	_ZN10QtMobility22QMediaPlaylistIOPlugin11qt_metacallEN11QMetaObject4CallEiPPv @ 592 NONAME
	_ZN10QtMobility22QMediaPlaylistIOPlugin11qt_metacastEPKc @ 593 NONAME
	_ZN10QtMobility22QMediaPlaylistIOPlugin16staticMetaObjectE @ 594 NONAME DATA 16
	_ZN10QtMobility22QMediaPlaylistIOPlugin19getStaticMetaObjectEv @ 595 NONAME
	_ZN10QtMobility22QMediaPlaylistIOPluginC2EP7QObject @ 596 NONAME
	_ZN10QtMobility22QMediaPlaylistIOPluginD0Ev @ 597 NONAME
	_ZN10QtMobility22QMediaPlaylistIOPluginD1Ev @ 598 NONAME
	_ZN10QtMobility22QMediaPlaylistIOPluginD2Ev @ 599 NONAME
	_ZN10QtMobility22QMediaPlaylistProvider10loadFailedENS_14QMediaPlaylist5ErrorERK7QString @ 600 NONAME
	_ZN10QtMobility22QMediaPlaylistProvider11insertMediaEiRK5QListINS_13QMediaContentEE @ 601 NONAME
	_ZN10QtMobility22QMediaPlaylistProvider11insertMediaEiRKNS_13QMediaContentE @ 602 NONAME
	_ZN10QtMobility22QMediaPlaylistProvider11qt_metacallEN11QMetaObject4CallEiPPv @ 603 NONAME
	_ZN10QtMobility22QMediaPlaylistProvider11qt_metacastEPKc @ 604 NONAME
	_ZN10QtMobility22QMediaPlaylistProvider11removeMediaEi @ 605 NONAME
	_ZN10QtMobility22QMediaPlaylistProvider11removeMediaEii @ 606 NONAME
	_ZN10QtMobility22QMediaPlaylistProvider12mediaChangedEii @ 607 NONAME
	_ZN10QtMobility22QMediaPlaylistProvider12mediaRemovedEii @ 608 NONAME
	_ZN10QtMobility22QMediaPlaylistProvider13mediaInsertedEii @ 609 NONAME
	_ZN10QtMobility22QMediaPlaylistProvider16staticMetaObjectE @ 610 NONAME DATA 16
	_ZN10QtMobility22QMediaPlaylistProvider19getStaticMetaObjectEv @ 611 NONAME
	_ZN10QtMobility22QMediaPlaylistProvider21mediaAboutToBeRemovedEii @ 612 NONAME
	_ZN10QtMobility22QMediaPlaylistProvider22mediaAboutToBeInsertedEii @ 613 NONAME
	_ZN10QtMobility22QMediaPlaylistProvider4loadEP9QIODevicePKc @ 614 NONAME
	_ZN10QtMobility22QMediaPlaylistProvider4loadERK4QUrlPKc @ 615 NONAME
	_ZN10QtMobility22QMediaPlaylistProvider4saveEP9QIODevicePKc @ 616 NONAME
	_ZN10QtMobility22QMediaPlaylistProvider4saveERK4QUrlPKc @ 617 NONAME
	_ZN10QtMobility22QMediaPlaylistProvider5clearEv @ 618 NONAME
	_ZN10QtMobility22QMediaPlaylistProvider6loadedEv @ 619 NONAME
	_ZN10QtMobility22QMediaPlaylistProvider7shuffleEv @ 620 NONAME
	_ZN10QtMobility22QMediaPlaylistProvider8addMediaERK5QListINS_13QMediaContentEE @ 621 NONAME
	_ZN10QtMobility22QMediaPlaylistProvider8addMediaERKNS_13QMediaContentE @ 622 NONAME
	_ZN10QtMobility22QMediaPlaylistProviderC2EP7QObject @ 623 NONAME
	_ZN10QtMobility22QMediaPlaylistProviderC2ERNS_29QMediaPlaylistProviderPrivateEP7QObject @ 624 NONAME
	_ZN10QtMobility22QMediaPlaylistProviderD0Ev @ 625 NONAME
	_ZN10QtMobility22QMediaPlaylistProviderD1Ev @ 626 NONAME
	_ZN10QtMobility22QMediaPlaylistProviderD2Ev @ 627 NONAME
	_ZN10QtMobility23QImageProcessingControl11qt_metacallEN11QMetaObject4CallEiPPv @ 628 NONAME
	_ZN10QtMobility23QImageProcessingControl11qt_metacastEPKc @ 629 NONAME
	_ZN10QtMobility23QImageProcessingControl16staticMetaObjectE @ 630 NONAME DATA 16
	_ZN10QtMobility23QImageProcessingControl19getStaticMetaObjectEv @ 631 NONAME
	_ZN10QtMobility23QImageProcessingControlC2EP7QObject @ 632 NONAME
	_ZN10QtMobility23QImageProcessingControlD0Ev @ 633 NONAME
	_ZN10QtMobility23QImageProcessingControlD1Ev @ 634 NONAME
	_ZN10QtMobility23QImageProcessingControlD2Ev @ 635 NONAME
	_ZN10QtMobility23QMediaPlaylistNavigator11qt_metacallEN11QMetaObject4CallEiPPv @ 636 NONAME
	_ZN10QtMobility23QMediaPlaylistNavigator11qt_metacastEPKc @ 637 NONAME
	_ZN10QtMobility23QMediaPlaylistNavigator11setPlaylistEPNS_22QMediaPlaylistProviderE @ 638 NONAME
	_ZN10QtMobility23QMediaPlaylistNavigator15setPlaybackModeENS_14QMediaPlaylist12PlaybackModeE @ 639 NONAME
	_ZN10QtMobility23QMediaPlaylistNavigator16staticMetaObjectE @ 640 NONAME DATA 16
	_ZN10QtMobility23QMediaPlaylistNavigator19currentIndexChangedEi @ 641 NONAME
	_ZN10QtMobility23QMediaPlaylistNavigator19getStaticMetaObjectEv @ 642 NONAME
	_ZN10QtMobility23QMediaPlaylistNavigator19playbackModeChangedENS_14QMediaPlaylist12PlaybackModeE @ 643 NONAME
	_ZN10QtMobility23QMediaPlaylistNavigator23surroundingItemsChangedEv @ 644 NONAME
	_ZN10QtMobility23QMediaPlaylistNavigator4jumpEi @ 645 NONAME
	_ZN10QtMobility23QMediaPlaylistNavigator4nextEv @ 646 NONAME
	_ZN10QtMobility23QMediaPlaylistNavigator8previousEv @ 647 NONAME
	_ZN10QtMobility23QMediaPlaylistNavigator9activatedERKNS_13QMediaContentE @ 648 NONAME
	_ZN10QtMobility23QMediaPlaylistNavigatorC1EPNS_22QMediaPlaylistProviderEP7QObject @ 649 NONAME
	_ZN10QtMobility23QMediaPlaylistNavigatorC2EPNS_22QMediaPlaylistProviderEP7QObject @ 650 NONAME
	_ZN10QtMobility23QMediaPlaylistNavigatorD0Ev @ 651 NONAME
	_ZN10QtMobility23QMediaPlaylistNavigatorD1Ev @ 652 NONAME
	_ZN10QtMobility23QMediaPlaylistNavigatorD2Ev @ 653 NONAME
	_ZN10QtMobility25QMediaServiceProviderHintC1E6QFlagsINS0_7FeatureEE @ 654 NONAME
	_ZN10QtMobility25QMediaServiceProviderHintC1ERK10QByteArray @ 655 NONAME
	_ZN10QtMobility25QMediaServiceProviderHintC1ERK7QStringRK11QStringList @ 656 NONAME
	_ZN10QtMobility25QMediaServiceProviderHintC1ERKS0_ @ 657 NONAME
	_ZN10QtMobility25QMediaServiceProviderHintC1Ev @ 658 NONAME
	_ZN10QtMobility25QMediaServiceProviderHintC2E6QFlagsINS0_7FeatureEE @ 659 NONAME
	_ZN10QtMobility25QMediaServiceProviderHintC2ERK10QByteArray @ 660 NONAME
	_ZN10QtMobility25QMediaServiceProviderHintC2ERK7QStringRK11QStringList @ 661 NONAME
	_ZN10QtMobility25QMediaServiceProviderHintC2ERKS0_ @ 662 NONAME
	_ZN10QtMobility25QMediaServiceProviderHintC2Ev @ 663 NONAME
	_ZN10QtMobility25QMediaServiceProviderHintD1Ev @ 664 NONAME
	_ZN10QtMobility25QMediaServiceProviderHintD2Ev @ 665 NONAME
	_ZN10QtMobility25QMediaServiceProviderHintaSERKS0_ @ 666 NONAME
	_ZN10QtMobility27QLocalMediaPlaylistProvider11insertMediaEiRK5QListINS_13QMediaContentEE @ 667 NONAME
	_ZN10QtMobility27QLocalMediaPlaylistProvider11insertMediaEiRKNS_13QMediaContentE @ 668 NONAME
	_ZN10QtMobility27QLocalMediaPlaylistProvider11qt_metacallEN11QMetaObject4CallEiPPv @ 669 NONAME
	_ZN10QtMobility27QLocalMediaPlaylistProvider11qt_metacastEPKc @ 670 NONAME
	_ZN10QtMobility27QLocalMediaPlaylistProvider11removeMediaEi @ 671 NONAME
	_ZN10QtMobility27QLocalMediaPlaylistProvider11removeMediaEii @ 672 NONAME
	_ZN10QtMobility27QLocalMediaPlaylistProvider16staticMetaObjectE @ 673 NONAME DATA 16
	_ZN10QtMobility27QLocalMediaPlaylistProvider19getStaticMetaObjectEv @ 674 NONAME
	_ZN10QtMobility27QLocalMediaPlaylistProvider5clearEv @ 675 NONAME
	_ZN10QtMobility27QLocalMediaPlaylistProvider7shuffleEv @ 676 NONAME
	_ZN10QtMobility27QLocalMediaPlaylistProvider8addMediaERK5QListINS_13QMediaContentEE @ 677 NONAME
	_ZN10QtMobility27QLocalMediaPlaylistProvider8addMediaERKNS_13QMediaContentE @ 678 NONAME
	_ZN10QtMobility27QLocalMediaPlaylistProviderC1EP7QObject @ 679 NONAME
	_ZN10QtMobility27QLocalMediaPlaylistProviderC2EP7QObject @ 680 NONAME
	_ZN10QtMobility27QLocalMediaPlaylistProviderD0Ev @ 681 NONAME
	_ZN10QtMobility27QLocalMediaPlaylistProviderD1Ev @ 682 NONAME
	_ZN10QtMobility27QLocalMediaPlaylistProviderD2Ev @ 683 NONAME
	_ZN10QtMobility27QMediaServiceProviderPlugin11qt_metacallEN11QMetaObject4CallEiPPv @ 684 NONAME
	_ZN10QtMobility27QMediaServiceProviderPlugin11qt_metacastEPKc @ 685 NONAME
	_ZN10QtMobility27QMediaServiceProviderPlugin16staticMetaObjectE @ 686 NONAME DATA 16
	_ZN10QtMobility27QMediaServiceProviderPlugin19getStaticMetaObjectEv @ 687 NONAME
	_ZN10QtMobility7QCamera10flashReadyEb @ 688 NONAME
	_ZN10QtMobility7QCamera11qt_metacallEN11QMetaObject4CallEiPPv @ 689 NONAME
	_ZN10QtMobility7QCamera11qt_metacastEPKc @ 690 NONAME
	_ZN10QtMobility7QCamera12focusReachedEv @ 691 NONAME
	_ZN10QtMobility7QCamera12lockExposureEv @ 692 NONAME
	_ZN10QtMobility7QCamera12setFlashModeENS0_9FlashModeE @ 693 NONAME
	_ZN10QtMobility7QCamera12setFocusModeENS0_9FocusModeE @ 694 NONAME
	_ZN10QtMobility7QCamera12stateChangedENS0_5StateE @ 695 NONAME
	_ZN10QtMobility7QCamera13startFocusingEv @ 696 NONAME
	_ZN10QtMobility7QCamera14cancelFocusingEv @ 697 NONAME
	_ZN10QtMobility7QCamera14exposureLockedEv @ 698 NONAME
	_ZN10QtMobility7QCamera14setCaptureModeENS0_11CaptureModeE @ 699 NONAME
	_ZN10QtMobility7QCamera14unlockExposureEv @ 700 NONAME
	_ZN10QtMobility7QCamera15apertureChangedEf @ 701 NONAME
	_ZN10QtMobility7QCamera15setAutoApertureEv @ 702 NONAME
	_ZN10QtMobility7QCamera15setExposureModeENS0_12ExposureModeE @ 703 NONAME
	_ZN10QtMobility7QCamera15setMeteringModeENS0_12MeteringModeE @ 704 NONAME
	_ZN10QtMobility7QCamera16availableDevicesEv @ 705 NONAME
	_ZN10QtMobility7QCamera16staticMetaObjectE @ 706 NONAME DATA 16
	_ZN10QtMobility7QCamera17deviceDescriptionERK10QByteArray @ 707 NONAME
	_ZN10QtMobility7QCamera17setManualApertureEf @ 708 NONAME
	_ZN10QtMobility7QCamera18captureModeChangedENS0_11CaptureModeE @ 709 NONAME
	_ZN10QtMobility7QCamera18digitalZoomChangedEf @ 710 NONAME
	_ZN10QtMobility7QCamera18focusStatusChangedENS0_11FocusStatusE @ 711 NONAME
	_ZN10QtMobility7QCamera18focusUnableToReachEv @ 712 NONAME
	_ZN10QtMobility7QCamera18opticalZoomChangedEf @ 713 NONAME
	_ZN10QtMobility7QCamera19getStaticMetaObjectEv @ 714 NONAME
	_ZN10QtMobility7QCamera19setAutoShutterSpeedEv @ 715 NONAME
	_ZN10QtMobility7QCamera19setWhiteBalanceModeENS0_16WhiteBalanceModeE @ 716 NONAME
	_ZN10QtMobility7QCamera19shutterSpeedChangedEf @ 717 NONAME
	_ZN10QtMobility7QCamera20apertureRangeChangedEv @ 718 NONAME
	_ZN10QtMobility7QCamera21isoSensitivityChangedEi @ 719 NONAME
	_ZN10QtMobility7QCamera21setAutoIsoSensitivityEv @ 720 NONAME
	_ZN10QtMobility7QCamera21setManualShutterSpeedEf @ 721 NONAME
	_ZN10QtMobility7QCamera21setManualWhiteBalanceEi @ 722 NONAME
	_ZN10QtMobility7QCamera23setExposureCompensationEf @ 723 NONAME
	_ZN10QtMobility7QCamera23setMacroFocusingEnabledEb @ 724 NONAME
	_ZN10QtMobility7QCamera23setManualIsoSensitivityEi @ 725 NONAME
	_ZN10QtMobility7QCamera4stopEv @ 726 NONAME
	_ZN10QtMobility7QCamera5errorENS0_5ErrorE @ 727 NONAME
	_ZN10QtMobility7QCamera5startEv @ 728 NONAME
	_ZN10QtMobility7QCamera6zoomToEff @ 729 NONAME
	_ZN10QtMobility7QCameraC1EP7QObjectPNS_21QMediaServiceProviderE @ 730 NONAME
	_ZN10QtMobility7QCameraC1ERK10QByteArrayP7QObject @ 731 NONAME
	_ZN10QtMobility7QCameraC2EP7QObjectPNS_21QMediaServiceProviderE @ 732 NONAME
	_ZN10QtMobility7QCameraC2ERK10QByteArrayP7QObject @ 733 NONAME
	_ZN10QtMobility7QCameraD0Ev @ 734 NONAME
	_ZN10QtMobility7QCameraD1Ev @ 735 NONAME
	_ZN10QtMobility7QCameraD2Ev @ 736 NONAME
	_ZN10QtMobilityeqERKNS_15QMediaTimeRangeES2_ @ 737 NONAME
	_ZN10QtMobilityeqERKNS_18QMediaTimeIntervalES2_ @ 738 NONAME
	_ZN10QtMobilitymiERKNS_15QMediaTimeRangeES2_ @ 739 NONAME
	_ZN10QtMobilityneERKNS_15QMediaTimeRangeES2_ @ 740 NONAME
	_ZN10QtMobilityneERKNS_18QMediaTimeIntervalES2_ @ 741 NONAME
	_ZN10QtMobilityplERKNS_15QMediaTimeRangeES2_ @ 742 NONAME
	_ZNK10QtMobility11QRadioTuner10metaObjectEv @ 743 NONAME
	_ZNK10QtMobility11QRadioTuner10stereoModeEv @ 744 NONAME
	_ZNK10QtMobility11QRadioTuner11errorStringEv @ 745 NONAME
	_ZNK10QtMobility11QRadioTuner11isAvailableEv @ 746 NONAME
	_ZNK10QtMobility11QRadioTuner11isSearchingEv @ 747 NONAME
	_ZNK10QtMobility11QRadioTuner13frequencyStepENS0_4BandE @ 748 NONAME
	_ZNK10QtMobility11QRadioTuner14frequencyRangeENS0_4BandE @ 749 NONAME
	_ZNK10QtMobility11QRadioTuner14signalStrengthEv @ 750 NONAME
	_ZNK10QtMobility11QRadioTuner15isBandSupportedENS0_4BandE @ 751 NONAME
	_ZNK10QtMobility11QRadioTuner17availabilityErrorEv @ 752 NONAME
	_ZNK10QtMobility11QRadioTuner4bandEv @ 753 NONAME
	_ZNK10QtMobility11QRadioTuner5errorEv @ 754 NONAME
	_ZNK10QtMobility11QRadioTuner5stateEv @ 755 NONAME
	_ZNK10QtMobility11QRadioTuner6volumeEv @ 756 NONAME
	_ZNK10QtMobility11QRadioTuner7isMutedEv @ 757 NONAME
	_ZNK10QtMobility11QRadioTuner8isStereoEv @ 758 NONAME
	_ZNK10QtMobility11QRadioTuner9frequencyEv @ 759 NONAME
	_ZNK10QtMobility12QMediaObject10metaObjectEv @ 760 NONAME
	_ZNK10QtMobility12QMediaObject11isAvailableEv @ 761 NONAME
	_ZNK10QtMobility12QMediaObject14notifyIntervalEv @ 762 NONAME
	_ZNK10QtMobility12QMediaObject16extendedMetaDataERK7QString @ 763 NONAME
	_ZNK10QtMobility12QMediaObject17availabilityErrorEv @ 764 NONAME
	_ZNK10QtMobility12QMediaObject17availableMetaDataEv @ 765 NONAME
	_ZNK10QtMobility12QMediaObject18isMetaDataWritableEv @ 766 NONAME
	_ZNK10QtMobility12QMediaObject19isMetaDataAvailableEv @ 767 NONAME
	_ZNK10QtMobility12QMediaObject25availableExtendedMetaDataEv @ 768 NONAME
	_ZNK10QtMobility12QMediaObject7serviceEv @ 769 NONAME
	_ZNK10QtMobility12QMediaObject8metaDataENS_7QtMedia8MetaDataE @ 770 NONAME
	_ZNK10QtMobility12QMediaPlayer10isSeekableEv @ 771 NONAME
	_ZNK10QtMobility12QMediaPlayer10metaObjectEv @ 772 NONAME
	_ZNK10QtMobility12QMediaPlayer11errorStringEv @ 773 NONAME
	_ZNK10QtMobility12QMediaPlayer11mediaStatusEv @ 774 NONAME
	_ZNK10QtMobility12QMediaPlayer11mediaStreamEv @ 775 NONAME
	_ZNK10QtMobility12QMediaPlayer12bufferStatusEv @ 776 NONAME
	_ZNK10QtMobility12QMediaPlayer12playbackRateEv @ 777 NONAME
	_ZNK10QtMobility12QMediaPlayer16isAudioAvailableEv @ 778 NONAME
	_ZNK10QtMobility12QMediaPlayer16isVideoAvailableEv @ 779 NONAME
	_ZNK10QtMobility12QMediaPlayer5errorEv @ 780 NONAME
	_ZNK10QtMobility12QMediaPlayer5mediaEv @ 781 NONAME
	_ZNK10QtMobility12QMediaPlayer5stateEv @ 782 NONAME
	_ZNK10QtMobility12QMediaPlayer6volumeEv @ 783 NONAME
	_ZNK10QtMobility12QMediaPlayer7isMutedEv @ 784 NONAME
	_ZNK10QtMobility12QMediaPlayer8durationEv @ 785 NONAME
	_ZNK10QtMobility12QMediaPlayer8positionEv @ 786 NONAME
	_ZNK10QtMobility12QVideoWidget10brightnessEv @ 787 NONAME
	_ZNK10QtMobility12QVideoWidget10metaObjectEv @ 788 NONAME
	_ZNK10QtMobility12QVideoWidget10saturationEv @ 789 NONAME
	_ZNK10QtMobility12QVideoWidget11mediaObjectEv @ 790 NONAME
	_ZNK10QtMobility12QVideoWidget15aspectRatioModeEv @ 791 NONAME
	_ZNK10QtMobility12QVideoWidget3hueEv @ 792 NONAME
	_ZNK10QtMobility12QVideoWidget8contrastEv @ 793 NONAME
	_ZNK10QtMobility12QVideoWidget8sizeHintEv @ 794 NONAME
	_ZNK10QtMobility13QMediaContent12canonicalUrlEv @ 795 NONAME
	_ZNK10QtMobility13QMediaContent17canonicalResourceEv @ 796 NONAME
	_ZNK10QtMobility13QMediaContent6isNullEv @ 797 NONAME
	_ZNK10QtMobility13QMediaContent9resourcesEv @ 798 NONAME
	_ZNK10QtMobility13QMediaContenteqERKS0_ @ 799 NONAME
	_ZNK10QtMobility13QMediaContentneERKS0_ @ 800 NONAME
	_ZNK10QtMobility13QMediaControl10metaObjectEv @ 801 NONAME
	_ZNK10QtMobility13QMediaService10metaObjectEv @ 802 NONAME
	_ZNK10QtMobility14QCameraControl10metaObjectEv @ 803 NONAME
	_ZNK10QtMobility14QMediaPlaylist10isReadOnlyEv @ 804 NONAME
	_ZNK10QtMobility14QMediaPlaylist10mediaCountEv @ 805 NONAME
	_ZNK10QtMobility14QMediaPlaylist10metaObjectEv @ 806 NONAME
	_ZNK10QtMobility14QMediaPlaylist11errorStringEv @ 807 NONAME
	_ZNK10QtMobility14QMediaPlaylist11mediaObjectEv @ 808 NONAME
	_ZNK10QtMobility14QMediaPlaylist12currentIndexEv @ 809 NONAME
	_ZNK10QtMobility14QMediaPlaylist12currentMediaEv @ 810 NONAME
	_ZNK10QtMobility14QMediaPlaylist12playbackModeEv @ 811 NONAME
	_ZNK10QtMobility14QMediaPlaylist13previousIndexEi @ 812 NONAME
	_ZNK10QtMobility14QMediaPlaylist5errorEv @ 813 NONAME
	_ZNK10QtMobility14QMediaPlaylist5mediaEi @ 814 NONAME
	_ZNK10QtMobility14QMediaPlaylist7isEmptyEv @ 815 NONAME
	_ZNK10QtMobility14QMediaPlaylist9nextIndexEi @ 816 NONAME
	_ZNK10QtMobility14QMediaRecorder10metaObjectEv @ 817 NONAME
	_ZNK10QtMobility14QMediaRecorder11errorStringEv @ 818 NONAME
	_ZNK10QtMobility14QMediaRecorder11isAvailableEv @ 819 NONAME
	_ZNK10QtMobility14QMediaRecorder13audioSettingsEv @ 820 NONAME
	_ZNK10QtMobility14QMediaRecorder13videoSettingsEv @ 821 NONAME
	_ZNK10QtMobility14QMediaRecorder14outputLocationEv @ 822 NONAME
	_ZNK10QtMobility14QMediaRecorder17availabilityErrorEv @ 823 NONAME
	_ZNK10QtMobility14QMediaRecorder17containerMimeTypeEv @ 824 NONAME
	_ZNK10QtMobility14QMediaRecorder19supportedContainersEv @ 825 NONAME
	_ZNK10QtMobility14QMediaRecorder19supportedFrameRatesERKNS_21QVideoEncoderSettingsEPb @ 826 NONAME
	_ZNK10QtMobility14QMediaRecorder20containerDescriptionERK7QString @ 827 NONAME
	_ZNK10QtMobility14QMediaRecorder20supportedAudioCodecsEv @ 828 NONAME
	_ZNK10QtMobility14QMediaRecorder20supportedResolutionsERKNS_21QVideoEncoderSettingsEPb @ 829 NONAME
	_ZNK10QtMobility14QMediaRecorder20supportedVideoCodecsEv @ 830 NONAME
	_ZNK10QtMobility14QMediaRecorder21audioCodecDescriptionERK7QString @ 831 NONAME
	_ZNK10QtMobility14QMediaRecorder21videoCodecDescriptionERK7QString @ 832 NONAME
	_ZNK10QtMobility14QMediaRecorder25supportedAudioSampleRatesERKNS_21QAudioEncoderSettingsEPb @ 833 NONAME
	_ZNK10QtMobility14QMediaRecorder5errorEv @ 834 NONAME
	_ZNK10QtMobility14QMediaRecorder5stateEv @ 835 NONAME
	_ZNK10QtMobility14QMediaRecorder8durationEv @ 836 NONAME
	_ZNK10QtMobility14QMediaResource10audioCodecEv @ 837 NONAME
	_ZNK10QtMobility14QMediaResource10resolutionEv @ 838 NONAME
	_ZNK10QtMobility14QMediaResource10sampleRateEv @ 839 NONAME
	_ZNK10QtMobility14QMediaResource10videoCodecEv @ 840 NONAME
	_ZNK10QtMobility14QMediaResource12audioBitRateEv @ 841 NONAME
	_ZNK10QtMobility14QMediaResource12channelCountEv @ 842 NONAME
	_ZNK10QtMobility14QMediaResource12videoBitRateEv @ 843 NONAME
	_ZNK10QtMobility14QMediaResource3urlEv @ 844 NONAME
	_ZNK10QtMobility14QMediaResource6isNullEv @ 845 NONAME
	_ZNK10QtMobility14QMediaResource8dataSizeEv @ 846 NONAME
	_ZNK10QtMobility14QMediaResource8languageEv @ 847 NONAME
	_ZNK10QtMobility14QMediaResource8mimeTypeEv @ 848 NONAME
	_ZNK10QtMobility14QMediaResourceeqERKS0_ @ 849 NONAME
	_ZNK10QtMobility14QMediaResourceneERKS0_ @ 850 NONAME
	_ZNK10QtMobility15QMediaTimeRange10latestTimeEv @ 851 NONAME
	_ZNK10QtMobility15QMediaTimeRange12earliestTimeEv @ 852 NONAME
	_ZNK10QtMobility15QMediaTimeRange12isContinuousEv @ 853 NONAME
	_ZNK10QtMobility15QMediaTimeRange7isEmptyEv @ 854 NONAME
	_ZNK10QtMobility15QMediaTimeRange8containsEx @ 855 NONAME
	_ZNK10QtMobility15QMediaTimeRange9intervalsEv @ 856 NONAME
	_ZNK10QtMobility16QMetaDataControl10metaObjectEv @ 857 NONAME
	_ZNK10QtMobility17QMediaImageViewer10metaObjectEv @ 858 NONAME
	_ZNK10QtMobility17QMediaImageViewer11elapsedTimeEv @ 859 NONAME
	_ZNK10QtMobility17QMediaImageViewer11mediaStatusEv @ 860 NONAME
	_ZNK10QtMobility17QMediaImageViewer5mediaEv @ 861 NONAME
	_ZNK10QtMobility17QMediaImageViewer5stateEv @ 862 NONAME
	_ZNK10QtMobility17QMediaImageViewer7timeoutEv @ 863 NONAME
	_ZNK10QtMobility18QGraphicsVideoItem10metaObjectEv @ 864 NONAME
	_ZNK10QtMobility18QGraphicsVideoItem10nativeSizeEv @ 865 NONAME
	_ZNK10QtMobility18QGraphicsVideoItem11mediaObjectEv @ 866 NONAME
	_ZNK10QtMobility18QGraphicsVideoItem12boundingRectEv @ 867 NONAME
	_ZNK10QtMobility18QGraphicsVideoItem15aspectRatioModeEv @ 868 NONAME
	_ZNK10QtMobility18QGraphicsVideoItem17nativeSizeChangedERK6QSizeF @ 869 NONAME
	_ZNK10QtMobility18QGraphicsVideoItem4sizeEv @ 870 NONAME
	_ZNK10QtMobility18QGraphicsVideoItem6offsetEv @ 871 NONAME
	_ZNK10QtMobility18QMediaTimeInterval10normalizedEv @ 872 NONAME
	_ZNK10QtMobility18QMediaTimeInterval10translatedEx @ 873 NONAME
	_ZNK10QtMobility18QMediaTimeInterval3endEv @ 874 NONAME
	_ZNK10QtMobility18QMediaTimeInterval5startEv @ 875 NONAME
	_ZNK10QtMobility18QMediaTimeInterval8containsEx @ 876 NONAME
	_ZNK10QtMobility18QMediaTimeInterval8isNormalEv @ 877 NONAME
	_ZNK10QtMobility18QRadioTunerControl10metaObjectEv @ 878 NONAME
	_ZNK10QtMobility18QStillImageCapture10metaObjectEv @ 879 NONAME
	_ZNK10QtMobility18QStillImageCapture11errorStringEv @ 880 NONAME
	_ZNK10QtMobility18QStillImageCapture11isAvailableEv @ 881 NONAME
	_ZNK10QtMobility18QStillImageCapture16encodingSettingsEv @ 882 NONAME
	_ZNK10QtMobility18QStillImageCapture17availabilityErrorEv @ 883 NONAME
	_ZNK10QtMobility18QStillImageCapture17isReadyForCaptureEv @ 884 NONAME
	_ZNK10QtMobility18QStillImageCapture20supportedImageCodecsEv @ 885 NONAME
	_ZNK10QtMobility18QStillImageCapture20supportedResolutionsERKNS_21QImageEncoderSettingsEPb @ 886 NONAME
	_ZNK10QtMobility18QStillImageCapture21imageCodecDescriptionERK7QString @ 887 NONAME
	_ZNK10QtMobility18QStillImageCapture5errorEv @ 888 NONAME
	_ZNK10QtMobility19QAudioCaptureSource10metaObjectEv @ 889 NONAME
	_ZNK10QtMobility19QAudioCaptureSource11audioInputsEv @ 890 NONAME
	_ZNK10QtMobility19QAudioCaptureSource11isAvailableEv @ 891 NONAME
	_ZNK10QtMobility19QAudioCaptureSource16activeAudioInputEv @ 892 NONAME
	_ZNK10QtMobility19QAudioCaptureSource16audioDescriptionERK7QString @ 893 NONAME
	_ZNK10QtMobility19QAudioCaptureSource17availabilityErrorEv @ 894 NONAME
	_ZNK10QtMobility19QAudioCaptureSource17defaultAudioInputEv @ 895 NONAME
	_ZNK10QtMobility19QCameraFocusControl10metaObjectEv @ 896 NONAME
	_ZNK10QtMobility19QMediaPlayerControl10metaObjectEv @ 897 NONAME
	_ZNK10QtMobility19QVideoDeviceControl10metaObjectEv @ 898 NONAME
	_ZNK10QtMobility19QVideoOutputControl10metaObjectEv @ 899 NONAME
	_ZNK10QtMobility19QVideoWidgetControl10metaObjectEv @ 900 NONAME
	_ZNK10QtMobility19QVideoWindowControl10metaObjectEv @ 901 NONAME
	_ZNK10QtMobility20QAudioEncoderControl10metaObjectEv @ 902 NONAME
	_ZNK10QtMobility20QImageCaptureControl10metaObjectEv @ 903 NONAME
	_ZNK10QtMobility20QImageEncoderControl10metaObjectEv @ 904 NONAME
	_ZNK10QtMobility20QMediaStreamsControl10metaObjectEv @ 905 NONAME
	_ZNK10QtMobility20QVideoEncoderControl10metaObjectEv @ 906 NONAME
	_ZNK10QtMobility21QAudioEncoderSettings10sampleRateEv @ 907 NONAME
	_ZNK10QtMobility21QAudioEncoderSettings12channelCountEv @ 908 NONAME
	_ZNK10QtMobility21QAudioEncoderSettings12encodingModeEv @ 909 NONAME
	_ZNK10QtMobility21QAudioEncoderSettings5codecEv @ 910 NONAME
	_ZNK10QtMobility21QAudioEncoderSettings6isNullEv @ 911 NONAME
	_ZNK10QtMobility21QAudioEncoderSettings7bitRateEv @ 912 NONAME
	_ZNK10QtMobility21QAudioEncoderSettings7qualityEv @ 913 NONAME
	_ZNK10QtMobility21QAudioEncoderSettingseqERKS0_ @ 914 NONAME
	_ZNK10QtMobility21QAudioEncoderSettingsneERKS0_ @ 915 NONAME
	_ZNK10QtMobility21QImageEncoderSettings10resolutionEv @ 916 NONAME
	_ZNK10QtMobility21QImageEncoderSettings5codecEv @ 917 NONAME
	_ZNK10QtMobility21QImageEncoderSettings6isNullEv @ 918 NONAME
	_ZNK10QtMobility21QImageEncoderSettings7qualityEv @ 919 NONAME
	_ZNK10QtMobility21QImageEncoderSettingseqERKS0_ @ 920 NONAME
	_ZNK10QtMobility21QImageEncoderSettingsneERKS0_ @ 921 NONAME
	_ZNK10QtMobility21QMediaPlaylistControl10metaObjectEv @ 922 NONAME
	_ZNK10QtMobility21QMediaRecorderControl10metaObjectEv @ 923 NONAME
	_ZNK10QtMobility21QMediaServiceProvider10hasSupportERK10QByteArrayRK7QStringRK11QStringListi @ 924 NONAME
	_ZNK10QtMobility21QMediaServiceProvider10metaObjectEv @ 925 NONAME
	_ZNK10QtMobility21QMediaServiceProvider18supportedMimeTypesERK10QByteArrayi @ 926 NONAME
	_ZNK10QtMobility21QMediaServiceProvider7devicesERK10QByteArray @ 927 NONAME
	_ZNK10QtMobility21QVideoEncoderSettings10resolutionEv @ 928 NONAME
	_ZNK10QtMobility21QVideoEncoderSettings12encodingModeEv @ 929 NONAME
	_ZNK10QtMobility21QVideoEncoderSettings5codecEv @ 930 NONAME
	_ZNK10QtMobility21QVideoEncoderSettings6isNullEv @ 931 NONAME
	_ZNK10QtMobility21QVideoEncoderSettings7bitRateEv @ 932 NONAME
	_ZNK10QtMobility21QVideoEncoderSettings7qualityEv @ 933 NONAME
	_ZNK10QtMobility21QVideoEncoderSettings9frameRateEv @ 934 NONAME
	_ZNK10QtMobility21QVideoEncoderSettingseqERKS0_ @ 935 NONAME
	_ZNK10QtMobility21QVideoEncoderSettingsneERKS0_ @ 936 NONAME
	_ZNK10QtMobility21QVideoRendererControl10metaObjectEv @ 937 NONAME
	_ZNK10QtMobility22QAudioEndpointSelector10metaObjectEv @ 938 NONAME
	_ZNK10QtMobility22QCameraExposureControl10metaObjectEv @ 939 NONAME
	_ZNK10QtMobility22QMediaContainerControl10metaObjectEv @ 940 NONAME
	_ZNK10QtMobility22QMediaPlaylistIOPlugin10metaObjectEv @ 941 NONAME
	_ZNK10QtMobility22QMediaPlaylistProvider10isReadOnlyEv @ 942 NONAME
	_ZNK10QtMobility22QMediaPlaylistProvider10metaObjectEv @ 943 NONAME
	_ZNK10QtMobility23QImageProcessingControl10metaObjectEv @ 944 NONAME
	_ZNK10QtMobility23QMediaPlaylistNavigator10metaObjectEv @ 945 NONAME
	_ZNK10QtMobility23QMediaPlaylistNavigator11currentItemEv @ 946 NONAME
	_ZNK10QtMobility23QMediaPlaylistNavigator12currentIndexEv @ 947 NONAME
	_ZNK10QtMobility23QMediaPlaylistNavigator12playbackModeEv @ 948 NONAME
	_ZNK10QtMobility23QMediaPlaylistNavigator12previousItemEi @ 949 NONAME
	_ZNK10QtMobility23QMediaPlaylistNavigator13previousIndexEi @ 950 NONAME
	_ZNK10QtMobility23QMediaPlaylistNavigator6itemAtEi @ 951 NONAME
	_ZNK10QtMobility23QMediaPlaylistNavigator8nextItemEi @ 952 NONAME
	_ZNK10QtMobility23QMediaPlaylistNavigator8playlistEv @ 953 NONAME
	_ZNK10QtMobility23QMediaPlaylistNavigator9nextIndexEi @ 954 NONAME
	_ZNK10QtMobility25QMediaServiceProviderHint4typeEv @ 955 NONAME
	_ZNK10QtMobility25QMediaServiceProviderHint6codecsEv @ 956 NONAME
	_ZNK10QtMobility25QMediaServiceProviderHint6deviceEv @ 957 NONAME
	_ZNK10QtMobility25QMediaServiceProviderHint6isNullEv @ 958 NONAME
	_ZNK10QtMobility25QMediaServiceProviderHint8featuresEv @ 959 NONAME
	_ZNK10QtMobility25QMediaServiceProviderHint8mimeTypeEv @ 960 NONAME
	_ZNK10QtMobility25QMediaServiceProviderHinteqERKS0_ @ 961 NONAME
	_ZNK10QtMobility25QMediaServiceProviderHintneERKS0_ @ 962 NONAME
	_ZNK10QtMobility27QLocalMediaPlaylistProvider10isReadOnlyEv @ 963 NONAME
	_ZNK10QtMobility27QLocalMediaPlaylistProvider10mediaCountEv @ 964 NONAME
	_ZNK10QtMobility27QLocalMediaPlaylistProvider10metaObjectEv @ 965 NONAME
	_ZNK10QtMobility27QLocalMediaPlaylistProvider5mediaEi @ 966 NONAME
	_ZNK10QtMobility27QMediaServiceProviderPlugin10metaObjectEv @ 967 NONAME
	_ZNK10QtMobility7QCamera10metaObjectEv @ 968 NONAME
	_ZNK10QtMobility7QCamera11captureModeEv @ 969 NONAME
	_ZNK10QtMobility7QCamera11digitalZoomEv @ 970 NONAME
	_ZNK10QtMobility7QCamera11errorStringEv @ 971 NONAME
	_ZNK10QtMobility7QCamera11focusStatusEv @ 972 NONAME
	_ZNK10QtMobility7QCamera11isAvailableEv @ 973 NONAME
	_ZNK10QtMobility7QCamera11opticalZoomEv @ 974 NONAME
	_ZNK10QtMobility7QCamera12exposureModeEv @ 975 NONAME
	_ZNK10QtMobility7QCamera12isFlashReadyEv @ 976 NONAME
	_ZNK10QtMobility7QCamera12meteringModeEv @ 977 NONAME
	_ZNK10QtMobility7QCamera12shutterSpeedEv @ 978 NONAME
	_ZNK10QtMobility7QCamera14isoSensitivityEv @ 979 NONAME
	_ZNK10QtMobility7QCamera16isExposureLockedEv @ 980 NONAME
	_ZNK10QtMobility7QCamera16whiteBalanceModeEv @ 981 NONAME
	_ZNK10QtMobility7QCamera17availabilityErrorEv @ 982 NONAME
	_ZNK10QtMobility7QCamera18manualWhiteBalanceEv @ 983 NONAME
	_ZNK10QtMobility7QCamera18maximumDigitalZoomEv @ 984 NONAME
	_ZNK10QtMobility7QCamera18maximumOpticalZoomEv @ 985 NONAME
	_ZNK10QtMobility7QCamera18supportedAperturesEPb @ 986 NONAME
	_ZNK10QtMobility7QCamera19supportedFlashModesEv @ 987 NONAME
	_ZNK10QtMobility7QCamera19supportedFocusModesEv @ 988 NONAME
	_ZNK10QtMobility7QCamera20exposureCompensationEv @ 989 NONAME
	_ZNK10QtMobility7QCamera20macroFocusingEnabledEv @ 990 NONAME
	_ZNK10QtMobility7QCamera21supportedCaptureModesEv @ 991 NONAME
	_ZNK10QtMobility7QCamera22supportedExposureModesEv @ 992 NONAME
	_ZNK10QtMobility7QCamera22supportedMeteringModesEv @ 993 NONAME
	_ZNK10QtMobility7QCamera22supportedShutterSpeedsEPb @ 994 NONAME
	_ZNK10QtMobility7QCamera24isMacroFocusingSupportedEv @ 995 NONAME
	_ZNK10QtMobility7QCamera25supportedIsoSensitivitiesEPb @ 996 NONAME
	_ZNK10QtMobility7QCamera26supportedWhiteBalanceModesEv @ 997 NONAME
	_ZNK10QtMobility7QCamera5errorEv @ 998 NONAME
	_ZNK10QtMobility7QCamera5stateEv @ 999 NONAME
	_ZNK10QtMobility7QCamera8apertureEv @ 1000 NONAME
	_ZNK10QtMobility7QCamera9flashModeEv @ 1001 NONAME
	_ZNK10QtMobility7QCamera9focusModeEv @ 1002 NONAME
	_ZTIN10QtMobility11QRadioTunerE @ 1003 NONAME
	_ZTIN10QtMobility12QMediaObjectE @ 1004 NONAME
	_ZTIN10QtMobility12QMediaPlayerE @ 1005 NONAME
	_ZTIN10QtMobility12QVideoWidgetE @ 1006 NONAME
	_ZTIN10QtMobility13QMediaControlE @ 1007 NONAME
	_ZTIN10QtMobility13QMediaServiceE @ 1008 NONAME
	_ZTIN10QtMobility14QCameraControlE @ 1009 NONAME
	_ZTIN10QtMobility14QMediaPlaylistE @ 1010 NONAME
	_ZTIN10QtMobility14QMediaRecorderE @ 1011 NONAME
	_ZTIN10QtMobility16QMetaDataControlE @ 1012 NONAME
	_ZTIN10QtMobility17QMediaImageViewerE @ 1013 NONAME
	_ZTIN10QtMobility18QGraphicsVideoItemE @ 1014 NONAME
	_ZTIN10QtMobility18QRadioTunerControlE @ 1015 NONAME
	_ZTIN10QtMobility18QStillImageCaptureE @ 1016 NONAME
	_ZTIN10QtMobility19QAudioCaptureSourceE @ 1017 NONAME
	_ZTIN10QtMobility19QCameraFocusControlE @ 1018 NONAME
	_ZTIN10QtMobility19QMediaPlayerControlE @ 1019 NONAME
	_ZTIN10QtMobility19QVideoDeviceControlE @ 1020 NONAME
	_ZTIN10QtMobility19QVideoOutputControlE @ 1021 NONAME
	_ZTIN10QtMobility19QVideoWidgetControlE @ 1022 NONAME
	_ZTIN10QtMobility19QVideoWindowControlE @ 1023 NONAME
	_ZTIN10QtMobility20QAudioEncoderControlE @ 1024 NONAME
	_ZTIN10QtMobility20QImageCaptureControlE @ 1025 NONAME
	_ZTIN10QtMobility20QImageEncoderControlE @ 1026 NONAME
	_ZTIN10QtMobility20QMediaPlaylistReaderE @ 1027 NONAME
	_ZTIN10QtMobility20QMediaPlaylistWriterE @ 1028 NONAME
	_ZTIN10QtMobility20QMediaStreamsControlE @ 1029 NONAME
	_ZTIN10QtMobility20QVideoEncoderControlE @ 1030 NONAME
	_ZTIN10QtMobility21QMediaPlaylistControlE @ 1031 NONAME
	_ZTIN10QtMobility21QMediaRecorderControlE @ 1032 NONAME
	_ZTIN10QtMobility21QMediaServiceProviderE @ 1033 NONAME
	_ZTIN10QtMobility21QVideoRendererControlE @ 1034 NONAME
	_ZTIN10QtMobility22QAudioEndpointSelectorE @ 1035 NONAME
	_ZTIN10QtMobility22QCameraExposureControlE @ 1036 NONAME
	_ZTIN10QtMobility22QMediaContainerControlE @ 1037 NONAME
	_ZTIN10QtMobility22QMediaPlaylistIOPluginE @ 1038 NONAME
	_ZTIN10QtMobility22QMediaPlaylistProviderE @ 1039 NONAME
	_ZTIN10QtMobility23QImageProcessingControlE @ 1040 NONAME
	_ZTIN10QtMobility23QMediaPlaylistNavigatorE @ 1041 NONAME
	_ZTIN10QtMobility25QMediaPlaylistIOInterfaceE @ 1042 NONAME
	_ZTIN10QtMobility27QLocalMediaPlaylistProviderE @ 1043 NONAME
	_ZTIN10QtMobility27QMediaServiceProviderPluginE @ 1044 NONAME
	_ZTIN10QtMobility37QMediaServiceProviderFactoryInterfaceE @ 1045 NONAME
	_ZTIN10QtMobility7QCameraE @ 1046 NONAME
	_ZTVN10QtMobility11QRadioTunerE @ 1047 NONAME
	_ZTVN10QtMobility12QMediaObjectE @ 1048 NONAME
	_ZTVN10QtMobility12QMediaPlayerE @ 1049 NONAME
	_ZTVN10QtMobility12QVideoWidgetE @ 1050 NONAME
	_ZTVN10QtMobility13QMediaControlE @ 1051 NONAME
	_ZTVN10QtMobility13QMediaServiceE @ 1052 NONAME
	_ZTVN10QtMobility14QCameraControlE @ 1053 NONAME
	_ZTVN10QtMobility14QMediaPlaylistE @ 1054 NONAME
	_ZTVN10QtMobility14QMediaRecorderE @ 1055 NONAME
	_ZTVN10QtMobility16QMetaDataControlE @ 1056 NONAME
	_ZTVN10QtMobility17QMediaImageViewerE @ 1057 NONAME
	_ZTVN10QtMobility18QGraphicsVideoItemE @ 1058 NONAME
	_ZTVN10QtMobility18QRadioTunerControlE @ 1059 NONAME
	_ZTVN10QtMobility18QStillImageCaptureE @ 1060 NONAME
	_ZTVN10QtMobility19QAudioCaptureSourceE @ 1061 NONAME
	_ZTVN10QtMobility19QCameraFocusControlE @ 1062 NONAME
	_ZTVN10QtMobility19QMediaPlayerControlE @ 1063 NONAME
	_ZTVN10QtMobility19QVideoDeviceControlE @ 1064 NONAME
	_ZTVN10QtMobility19QVideoOutputControlE @ 1065 NONAME
	_ZTVN10QtMobility19QVideoWidgetControlE @ 1066 NONAME
	_ZTVN10QtMobility19QVideoWindowControlE @ 1067 NONAME
	_ZTVN10QtMobility20QAudioEncoderControlE @ 1068 NONAME
	_ZTVN10QtMobility20QImageCaptureControlE @ 1069 NONAME
	_ZTVN10QtMobility20QImageEncoderControlE @ 1070 NONAME
	_ZTVN10QtMobility20QMediaPlaylistReaderE @ 1071 NONAME
	_ZTVN10QtMobility20QMediaPlaylistWriterE @ 1072 NONAME
	_ZTVN10QtMobility20QMediaStreamsControlE @ 1073 NONAME
	_ZTVN10QtMobility20QVideoEncoderControlE @ 1074 NONAME
	_ZTVN10QtMobility21QMediaPlaylistControlE @ 1075 NONAME
	_ZTVN10QtMobility21QMediaRecorderControlE @ 1076 NONAME
	_ZTVN10QtMobility21QMediaServiceProviderE @ 1077 NONAME
	_ZTVN10QtMobility21QVideoRendererControlE @ 1078 NONAME
	_ZTVN10QtMobility22QAudioEndpointSelectorE @ 1079 NONAME
	_ZTVN10QtMobility22QCameraExposureControlE @ 1080 NONAME
	_ZTVN10QtMobility22QMediaContainerControlE @ 1081 NONAME
	_ZTVN10QtMobility22QMediaPlaylistIOPluginE @ 1082 NONAME
	_ZTVN10QtMobility22QMediaPlaylistProviderE @ 1083 NONAME
	_ZTVN10QtMobility23QImageProcessingControlE @ 1084 NONAME
	_ZTVN10QtMobility23QMediaPlaylistNavigatorE @ 1085 NONAME
	_ZTVN10QtMobility27QLocalMediaPlaylistProviderE @ 1086 NONAME
	_ZTVN10QtMobility27QMediaServiceProviderPluginE @ 1087 NONAME
	_ZTVN10QtMobility7QCameraE @ 1088 NONAME
	_ZThn8_N10QtMobility12QVideoWidgetD0Ev @ 1089 NONAME
	_ZThn8_N10QtMobility12QVideoWidgetD1Ev @ 1090 NONAME
	_ZThn8_N10QtMobility18QGraphicsVideoItem10itemChangeEN13QGraphicsItem18GraphicsItemChangeERK8QVariant @ 1091 NONAME
	_ZThn8_N10QtMobility18QGraphicsVideoItem5paintEP8QPainterPK24QStyleOptionGraphicsItemP7QWidget @ 1092 NONAME
	_ZThn8_N10QtMobility18QGraphicsVideoItemD0Ev @ 1093 NONAME
	_ZThn8_N10QtMobility18QGraphicsVideoItemD1Ev @ 1094 NONAME
	_ZThn8_N10QtMobility22QMediaPlaylistIOPluginD0Ev @ 1095 NONAME
	_ZThn8_N10QtMobility22QMediaPlaylistIOPluginD1Ev @ 1096 NONAME
	_ZThn8_NK10QtMobility18QGraphicsVideoItem12boundingRectEv @ 1097 NONAME

