EXPORTS
	_ZN10QtMobility10QMessageIdC1ERK7QString @ 1 NONAME
	_ZN10QtMobility10QMessageIdC1ERKS0_ @ 2 NONAME
	_ZN10QtMobility10QMessageIdC1Ev @ 3 NONAME
	_ZN10QtMobility10QMessageIdC2ERK7QString @ 4 NONAME
	_ZN10QtMobility10QMessageIdC2ERKS0_ @ 5 NONAME
	_ZN10QtMobility10QMessageIdC2Ev @ 6 NONAME
	_ZN10QtMobility10QMessageIdD1Ev @ 7 NONAME
	_ZN10QtMobility10QMessageIdD2Ev @ 8 NONAME
	_ZN10QtMobility10QMessageIdaSERKS0_ @ 9 NONAME
	_ZN10QtMobility14QMessageFilter10byPriorityENS_8QMessage8PriorityENS_22QMessageDataComparator18EqualityComparatorE @ 10 NONAME
	_ZN10QtMobility14QMessageFilter11byTimeStampERK9QDateTimeNS_22QMessageDataComparator18EqualityComparatorE @ 11 NONAME
	_ZN10QtMobility14QMessageFilter11byTimeStampERK9QDateTimeNS_22QMessageDataComparator18RelationComparatorE @ 12 NONAME
	_ZN10QtMobility14QMessageFilter12byRecipientsERK7QStringNS_22QMessageDataComparator19InclusionComparatorE @ 13 NONAME
	_ZN10QtMobility14QMessageFilter13setMatchFlagsE6QFlagsINS_22QMessageDataComparator9MatchFlagEE @ 14 NONAME
	_ZN10QtMobility14QMessageFilter16byParentFolderIdERKNS_16QMessageFolderIdENS_22QMessageDataComparator18EqualityComparatorE @ 15 NONAME
	_ZN10QtMobility14QMessageFilter16byParentFolderIdERKNS_20QMessageFolderFilterENS_22QMessageDataComparator19InclusionComparatorE @ 16 NONAME
	_ZN10QtMobility14QMessageFilter16byStandardFolderENS_8QMessage14StandardFolderENS_22QMessageDataComparator18EqualityComparatorE @ 17 NONAME
	_ZN10QtMobility14QMessageFilter17byParentAccountIdERKNS_17QMessageAccountIdENS_22QMessageDataComparator18EqualityComparatorE @ 18 NONAME
	_ZN10QtMobility14QMessageFilter17byParentAccountIdERKNS_21QMessageAccountFilterENS_22QMessageDataComparator19InclusionComparatorE @ 19 NONAME
	_ZN10QtMobility14QMessageFilter19byAncestorFolderIdsERKNS_16QMessageFolderIdENS_22QMessageDataComparator19InclusionComparatorE @ 20 NONAME
	_ZN10QtMobility14QMessageFilter19byAncestorFolderIdsERKNS_20QMessageFolderFilterENS_22QMessageDataComparator19InclusionComparatorE @ 21 NONAME
	_ZN10QtMobility14QMessageFilter20byReceptionTimeStampERK9QDateTimeNS_22QMessageDataComparator18EqualityComparatorE @ 22 NONAME
	_ZN10QtMobility14QMessageFilter20byReceptionTimeStampERK9QDateTimeNS_22QMessageDataComparator18RelationComparatorE @ 23 NONAME
	_ZN10QtMobility14QMessageFilter4byIdERK5QListINS_10QMessageIdEENS_22QMessageDataComparator19InclusionComparatorE @ 24 NONAME
	_ZN10QtMobility14QMessageFilter4byIdERKNS_10QMessageIdENS_22QMessageDataComparator18EqualityComparatorE @ 25 NONAME
	_ZN10QtMobility14QMessageFilter4byIdERKS0_NS_22QMessageDataComparator19InclusionComparatorE @ 26 NONAME
	_ZN10QtMobility14QMessageFilter6bySizeEiNS_22QMessageDataComparator18EqualityComparatorE @ 27 NONAME
	_ZN10QtMobility14QMessageFilter6bySizeEiNS_22QMessageDataComparator18RelationComparatorE @ 28 NONAME
	_ZN10QtMobility14QMessageFilter6byTypeE6QFlagsINS_8QMessage4TypeEENS_22QMessageDataComparator19InclusionComparatorE @ 29 NONAME
	_ZN10QtMobility14QMessageFilter6byTypeENS_8QMessage4TypeENS_22QMessageDataComparator18EqualityComparatorE @ 30 NONAME
	_ZN10QtMobility14QMessageFilter8bySenderERK7QStringNS_22QMessageDataComparator18EqualityComparatorE @ 31 NONAME
	_ZN10QtMobility14QMessageFilter8bySenderERK7QStringNS_22QMessageDataComparator19InclusionComparatorE @ 32 NONAME
	_ZN10QtMobility14QMessageFilter8byStatusE6QFlagsINS_8QMessage6StatusEENS_22QMessageDataComparator19InclusionComparatorE @ 33 NONAME
	_ZN10QtMobility14QMessageFilter8byStatusENS_8QMessage6StatusENS_22QMessageDataComparator18EqualityComparatorE @ 34 NONAME
	_ZN10QtMobility14QMessageFilter9bySubjectERK7QStringNS_22QMessageDataComparator18EqualityComparatorE @ 35 NONAME
	_ZN10QtMobility14QMessageFilter9bySubjectERK7QStringNS_22QMessageDataComparator19InclusionComparatorE @ 36 NONAME
	_ZN10QtMobility14QMessageFilterC1ERKS0_ @ 37 NONAME
	_ZN10QtMobility14QMessageFilterC1Ev @ 38 NONAME
	_ZN10QtMobility14QMessageFilterC2ERKS0_ @ 39 NONAME
	_ZN10QtMobility14QMessageFilterC2Ev @ 40 NONAME
	_ZN10QtMobility14QMessageFilterD0Ev @ 41 NONAME
	_ZN10QtMobility14QMessageFilterD1Ev @ 42 NONAME
	_ZN10QtMobility14QMessageFilterD2Ev @ 43 NONAME
	_ZN10QtMobility14QMessageFilteraNERKS0_ @ 44 NONAME
	_ZN10QtMobility14QMessageFilteraSERKS0_ @ 45 NONAME
	_ZN10QtMobility14QMessageFilteroRERKS0_ @ 46 NONAME
	_ZN10QtMobility14QMessageFolderC1ERKNS_16QMessageFolderIdE @ 47 NONAME
	_ZN10QtMobility14QMessageFolderC1ERKS0_ @ 48 NONAME
	_ZN10QtMobility14QMessageFolderC1Ev @ 49 NONAME
	_ZN10QtMobility14QMessageFolderC2ERKNS_16QMessageFolderIdE @ 50 NONAME
	_ZN10QtMobility14QMessageFolderC2ERKS0_ @ 51 NONAME
	_ZN10QtMobility14QMessageFolderC2Ev @ 52 NONAME
	_ZN10QtMobility14QMessageFolderD0Ev @ 53 NONAME
	_ZN10QtMobility14QMessageFolderD1Ev @ 54 NONAME
	_ZN10QtMobility14QMessageFolderD2Ev @ 55 NONAME
	_ZN10QtMobility14QMessageFolderaSERKS0_ @ 56 NONAME
	_ZN10QtMobility15QMessageAccount14defaultAccountENS_8QMessage4TypeE @ 57 NONAME
	_ZN10QtMobility15QMessageAccountC1ERKNS_17QMessageAccountIdE @ 58 NONAME
	_ZN10QtMobility15QMessageAccountC1ERKS0_ @ 59 NONAME
	_ZN10QtMobility15QMessageAccountC1Ev @ 60 NONAME
	_ZN10QtMobility15QMessageAccountC2ERKNS_17QMessageAccountIdE @ 61 NONAME
	_ZN10QtMobility15QMessageAccountC2ERKS0_ @ 62 NONAME
	_ZN10QtMobility15QMessageAccountC2Ev @ 63 NONAME
	_ZN10QtMobility15QMessageAccountD0Ev @ 64 NONAME
	_ZN10QtMobility15QMessageAccountD1Ev @ 65 NONAME
	_ZN10QtMobility15QMessageAccountD2Ev @ 66 NONAME
	_ZN10QtMobility15QMessageAccountaSERKS0_ @ 67 NONAME
	_ZN10QtMobility15QMessageAddress12setAddresseeERK7QString @ 68 NONAME
	_ZN10QtMobility15QMessageAddress17parseEmailAddressERK7QStringPS1_S4_S4_PbS5_ @ 69 NONAME
	_ZN10QtMobility15QMessageAddress7setTypeENS0_4TypeE @ 70 NONAME
	_ZN10QtMobility15QMessageAddressC1ENS0_4TypeERK7QString @ 71 NONAME
	_ZN10QtMobility15QMessageAddressC1ERKS0_ @ 72 NONAME
	_ZN10QtMobility15QMessageAddressC1Ev @ 73 NONAME
	_ZN10QtMobility15QMessageAddressC2ENS0_4TypeERK7QString @ 74 NONAME
	_ZN10QtMobility15QMessageAddressC2ERKS0_ @ 75 NONAME
	_ZN10QtMobility15QMessageAddressC2Ev @ 76 NONAME
	_ZN10QtMobility15QMessageAddressD0Ev @ 77 NONAME
	_ZN10QtMobility15QMessageAddressD1Ev @ 78 NONAME
	_ZN10QtMobility15QMessageAddressD2Ev @ 79 NONAME
	_ZN10QtMobility15QMessageAddressaSERKS0_ @ 80 NONAME
	_ZN10QtMobility15QMessageManager10addMessageEPNS_8QMessageE @ 81 NONAME
	_ZN10QtMobility15QMessageManager11qt_metacallEN11QMetaObject4CallEiPPv @ 82 NONAME
	_ZN10QtMobility15QMessageManager11qt_metacastEPKc @ 83 NONAME
	_ZN10QtMobility15QMessageManager12messageAddedERKNS_10QMessageIdERK4QSetIiE @ 84 NONAME
	_ZN10QtMobility15QMessageManager13removeMessageERKNS_10QMessageIdENS0_13RemovalOptionE @ 85 NONAME
	_ZN10QtMobility15QMessageManager13updateMessageEPNS_8QMessageE @ 86 NONAME
	_ZN10QtMobility15QMessageManager14messageRemovedERKNS_10QMessageIdERK4QSetIiE @ 87 NONAME
	_ZN10QtMobility15QMessageManager14messageUpdatedERKNS_10QMessageIdERK4QSetIiE @ 88 NONAME
	_ZN10QtMobility15QMessageManager14removeMessagesERKNS_14QMessageFilterENS0_13RemovalOptionE @ 89 NONAME
	_ZN10QtMobility15QMessageManager16staticMetaObjectE @ 90 NONAME DATA 16
	_ZN10QtMobility15QMessageManager19getStaticMetaObjectEv @ 91 NONAME
	_ZN10QtMobility15QMessageManager26registerNotificationFilterERKNS_14QMessageFilterE @ 92 NONAME
	_ZN10QtMobility15QMessageManager28unregisterNotificationFilterEi @ 93 NONAME
	_ZN10QtMobility15QMessageManagerC1EP7QObject @ 94 NONAME
	_ZN10QtMobility15QMessageManagerC2EP7QObject @ 95 NONAME
	_ZN10QtMobility15QMessageManagerD0Ev @ 96 NONAME
	_ZN10QtMobility15QMessageManagerD1Ev @ 97 NONAME
	_ZN10QtMobility15QMessageManagerD2Ev @ 98 NONAME
	_ZN10QtMobility15QMessageService11qt_metacallEN11QMetaObject4CallEiPPv @ 99 NONAME
	_ZN10QtMobility15QMessageService11qt_metacastEPKc @ 100 NONAME
	_ZN10QtMobility15QMessageService12retrieveBodyERKNS_10QMessageIdE @ 101 NONAME
	_ZN10QtMobility15QMessageService12stateChangedENS0_5StateE @ 102 NONAME
	_ZN10QtMobility15QMessageService13countMessagesERKNS_14QMessageFilterE @ 103 NONAME
	_ZN10QtMobility15QMessageService13exportUpdatesERKNS_17QMessageAccountIdE @ 104 NONAME
	_ZN10QtMobility15QMessageService13messagesFoundERK5QListINS_10QMessageIdEE @ 105 NONAME
	_ZN10QtMobility15QMessageService13queryMessagesERKNS_14QMessageFilterERK7QString6QFlagsINS_22QMessageDataComparator9MatchFlagEERKNS_17QMessageSortOrderEjj @ 106 NONAME
	_ZN10QtMobility15QMessageService13queryMessagesERKNS_14QMessageFilterERKNS_17QMessageSortOrderEjj @ 107 NONAME
	_ZN10QtMobility15QMessageService14retrieveHeaderERKNS_10QMessageIdE @ 108 NONAME
	_ZN10QtMobility15QMessageService15messagesCountedEi @ 109 NONAME
	_ZN10QtMobility15QMessageService15progressChangedEjj @ 110 NONAME
	_ZN10QtMobility15QMessageService16staticMetaObjectE @ 111 NONAME DATA 16
	_ZN10QtMobility15QMessageService19getStaticMetaObjectEv @ 112 NONAME
	_ZN10QtMobility15QMessageService4sendERNS_8QMessageE @ 113 NONAME
	_ZN10QtMobility15QMessageService4showERKNS_10QMessageIdE @ 114 NONAME
	_ZN10QtMobility15QMessageService6cancelEv @ 115 NONAME
	_ZN10QtMobility15QMessageService7composeERKNS_8QMessageE @ 116 NONAME
	_ZN10QtMobility15QMessageService8retrieveERKNS_10QMessageIdERKNS_26QMessageContentContainerIdE @ 117 NONAME
	_ZN10QtMobility15QMessageServiceC1EP7QObject @ 118 NONAME
	_ZN10QtMobility15QMessageServiceC2EP7QObject @ 119 NONAME
	_ZN10QtMobility15QMessageServiceD0Ev @ 120 NONAME
	_ZN10QtMobility15QMessageServiceD1Ev @ 121 NONAME
	_ZN10QtMobility15QMessageServiceD2Ev @ 122 NONAME
	_ZN10QtMobility16QMessageFolderIdC1ERK7QString @ 123 NONAME
	_ZN10QtMobility16QMessageFolderIdC1ERKS0_ @ 124 NONAME
	_ZN10QtMobility16QMessageFolderIdC1Ev @ 125 NONAME
	_ZN10QtMobility16QMessageFolderIdC2ERK7QString @ 126 NONAME
	_ZN10QtMobility16QMessageFolderIdC2ERKS0_ @ 127 NONAME
	_ZN10QtMobility16QMessageFolderIdC2Ev @ 128 NONAME
	_ZN10QtMobility16QMessageFolderIdD1Ev @ 129 NONAME
	_ZN10QtMobility16QMessageFolderIdD2Ev @ 130 NONAME
	_ZN10QtMobility16QMessageFolderIdaSERKS0_ @ 131 NONAME
	_ZN10QtMobility17QMessageAccountIdC1ERK7QString @ 132 NONAME
	_ZN10QtMobility17QMessageAccountIdC1ERKS0_ @ 133 NONAME
	_ZN10QtMobility17QMessageAccountIdC1Ev @ 134 NONAME
	_ZN10QtMobility17QMessageAccountIdC2ERK7QString @ 135 NONAME
	_ZN10QtMobility17QMessageAccountIdC2ERKS0_ @ 136 NONAME
	_ZN10QtMobility17QMessageAccountIdC2Ev @ 137 NONAME
	_ZN10QtMobility17QMessageAccountIdD1Ev @ 138 NONAME
	_ZN10QtMobility17QMessageAccountIdD2Ev @ 139 NONAME
	_ZN10QtMobility17QMessageAccountIdaSERKS0_ @ 140 NONAME
	_ZN10QtMobility17QMessageSortOrder10byPriorityEN2Qt9SortOrderE @ 141 NONAME
	_ZN10QtMobility17QMessageSortOrder11byTimeStampEN2Qt9SortOrderE @ 142 NONAME
	_ZN10QtMobility17QMessageSortOrder12byRecipientsEN2Qt9SortOrderE @ 143 NONAME
	_ZN10QtMobility17QMessageSortOrder20byReceptionTimeStampEN2Qt9SortOrderE @ 144 NONAME
	_ZN10QtMobility17QMessageSortOrder6bySizeEN2Qt9SortOrderE @ 145 NONAME
	_ZN10QtMobility17QMessageSortOrder6byTypeEN2Qt9SortOrderE @ 146 NONAME
	_ZN10QtMobility17QMessageSortOrder8bySenderEN2Qt9SortOrderE @ 147 NONAME
	_ZN10QtMobility17QMessageSortOrder8byStatusENS_8QMessage6StatusEN2Qt9SortOrderE @ 148 NONAME
	_ZN10QtMobility17QMessageSortOrder9bySubjectEN2Qt9SortOrderE @ 149 NONAME
	_ZN10QtMobility17QMessageSortOrderC1ERKS0_ @ 150 NONAME
	_ZN10QtMobility17QMessageSortOrderC1Ev @ 151 NONAME
	_ZN10QtMobility17QMessageSortOrderC2ERKS0_ @ 152 NONAME
	_ZN10QtMobility17QMessageSortOrderC2Ev @ 153 NONAME
	_ZN10QtMobility17QMessageSortOrderD0Ev @ 154 NONAME
	_ZN10QtMobility17QMessageSortOrderD1Ev @ 155 NONAME
	_ZN10QtMobility17QMessageSortOrderD2Ev @ 156 NONAME
	_ZN10QtMobility17QMessageSortOrderaSERKS0_ @ 157 NONAME
	_ZN10QtMobility17QMessageSortOrderpLERKS0_ @ 158 NONAME
	_ZN10QtMobility20QMessageFolderFilter13setMatchFlagsE6QFlagsINS_22QMessageDataComparator9MatchFlagEE @ 159 NONAME
	_ZN10QtMobility20QMessageFolderFilter16byParentFolderIdERKNS_16QMessageFolderIdENS_22QMessageDataComparator18EqualityComparatorE @ 160 NONAME
	_ZN10QtMobility20QMessageFolderFilter16byParentFolderIdERKS0_NS_22QMessageDataComparator19InclusionComparatorE @ 161 NONAME
	_ZN10QtMobility20QMessageFolderFilter17byParentAccountIdERKNS_17QMessageAccountIdENS_22QMessageDataComparator18EqualityComparatorE @ 162 NONAME
	_ZN10QtMobility20QMessageFolderFilter17byParentAccountIdERKNS_21QMessageAccountFilterENS_22QMessageDataComparator19InclusionComparatorE @ 163 NONAME
	_ZN10QtMobility20QMessageFolderFilter19byAncestorFolderIdsERKNS_16QMessageFolderIdENS_22QMessageDataComparator19InclusionComparatorE @ 164 NONAME
	_ZN10QtMobility20QMessageFolderFilter19byAncestorFolderIdsERKS0_NS_22QMessageDataComparator19InclusionComparatorE @ 165 NONAME
	_ZN10QtMobility20QMessageFolderFilter4byIdERK5QListINS_16QMessageFolderIdEENS_22QMessageDataComparator19InclusionComparatorE @ 166 NONAME
	_ZN10QtMobility20QMessageFolderFilter4byIdERKNS_16QMessageFolderIdENS_22QMessageDataComparator18EqualityComparatorE @ 167 NONAME
	_ZN10QtMobility20QMessageFolderFilter4byIdERKS0_NS_22QMessageDataComparator19InclusionComparatorE @ 168 NONAME
	_ZN10QtMobility20QMessageFolderFilter6byNameERK7QStringNS_22QMessageDataComparator18EqualityComparatorE @ 169 NONAME
	_ZN10QtMobility20QMessageFolderFilter6byNameERK7QStringNS_22QMessageDataComparator19InclusionComparatorE @ 170 NONAME
	_ZN10QtMobility20QMessageFolderFilter6byPathERK7QStringNS_22QMessageDataComparator18EqualityComparatorE @ 171 NONAME
	_ZN10QtMobility20QMessageFolderFilter6byPathERK7QStringNS_22QMessageDataComparator19InclusionComparatorE @ 172 NONAME
	_ZN10QtMobility20QMessageFolderFilterC1ERKS0_ @ 173 NONAME
	_ZN10QtMobility20QMessageFolderFilterC1Ev @ 174 NONAME
	_ZN10QtMobility20QMessageFolderFilterC2ERKS0_ @ 175 NONAME
	_ZN10QtMobility20QMessageFolderFilterC2Ev @ 176 NONAME
	_ZN10QtMobility20QMessageFolderFilterD0Ev @ 177 NONAME
	_ZN10QtMobility20QMessageFolderFilterD1Ev @ 178 NONAME
	_ZN10QtMobility20QMessageFolderFilterD2Ev @ 179 NONAME
	_ZN10QtMobility20QMessageFolderFilteraNERKS0_ @ 180 NONAME
	_ZN10QtMobility20QMessageFolderFilteraSERKS0_ @ 181 NONAME
	_ZN10QtMobility20QMessageFolderFilteroRERKS0_ @ 182 NONAME
	_ZN10QtMobility21QMessageAccountFilter13setMatchFlagsE6QFlagsINS_22QMessageDataComparator9MatchFlagEE @ 183 NONAME
	_ZN10QtMobility21QMessageAccountFilter4byIdERK5QListINS_17QMessageAccountIdEENS_22QMessageDataComparator19InclusionComparatorE @ 184 NONAME
	_ZN10QtMobility21QMessageAccountFilter4byIdERKNS_17QMessageAccountIdENS_22QMessageDataComparator18EqualityComparatorE @ 185 NONAME
	_ZN10QtMobility21QMessageAccountFilter4byIdERKS0_NS_22QMessageDataComparator19InclusionComparatorE @ 186 NONAME
	_ZN10QtMobility21QMessageAccountFilter6byNameERK7QStringNS_22QMessageDataComparator18EqualityComparatorE @ 187 NONAME
	_ZN10QtMobility21QMessageAccountFilter6byNameERK7QStringNS_22QMessageDataComparator19InclusionComparatorE @ 188 NONAME
	_ZN10QtMobility21QMessageAccountFilterC1ERKS0_ @ 189 NONAME
	_ZN10QtMobility21QMessageAccountFilterC1Ev @ 190 NONAME
	_ZN10QtMobility21QMessageAccountFilterC2ERKS0_ @ 191 NONAME
	_ZN10QtMobility21QMessageAccountFilterC2Ev @ 192 NONAME
	_ZN10QtMobility21QMessageAccountFilterD0Ev @ 193 NONAME
	_ZN10QtMobility21QMessageAccountFilterD1Ev @ 194 NONAME
	_ZN10QtMobility21QMessageAccountFilterD2Ev @ 195 NONAME
	_ZN10QtMobility21QMessageAccountFilteraNERKS0_ @ 196 NONAME
	_ZN10QtMobility21QMessageAccountFilteraSERKS0_ @ 197 NONAME
	_ZN10QtMobility21QMessageAccountFilteroRERKS0_ @ 198 NONAME
	_ZN10QtMobility23QMessageFolderSortOrder6byNameEN2Qt9SortOrderE @ 199 NONAME
	_ZN10QtMobility23QMessageFolderSortOrder6byPathEN2Qt9SortOrderE @ 200 NONAME
	_ZN10QtMobility23QMessageFolderSortOrderC1ERKS0_ @ 201 NONAME
	_ZN10QtMobility23QMessageFolderSortOrderC1Ev @ 202 NONAME
	_ZN10QtMobility23QMessageFolderSortOrderC2ERKS0_ @ 203 NONAME
	_ZN10QtMobility23QMessageFolderSortOrderC2Ev @ 204 NONAME
	_ZN10QtMobility23QMessageFolderSortOrderD0Ev @ 205 NONAME
	_ZN10QtMobility23QMessageFolderSortOrderD1Ev @ 206 NONAME
	_ZN10QtMobility23QMessageFolderSortOrderD2Ev @ 207 NONAME
	_ZN10QtMobility23QMessageFolderSortOrderaSERKS0_ @ 208 NONAME
	_ZN10QtMobility23QMessageFolderSortOrderpLERKS0_ @ 209 NONAME
	_ZN10QtMobility24QMessageAccountSortOrder6byNameEN2Qt9SortOrderE @ 210 NONAME
	_ZN10QtMobility24QMessageAccountSortOrderC1ERKS0_ @ 211 NONAME
	_ZN10QtMobility24QMessageAccountSortOrderC1Ev @ 212 NONAME
	_ZN10QtMobility24QMessageAccountSortOrderC2ERKS0_ @ 213 NONAME
	_ZN10QtMobility24QMessageAccountSortOrderC2Ev @ 214 NONAME
	_ZN10QtMobility24QMessageAccountSortOrderD0Ev @ 215 NONAME
	_ZN10QtMobility24QMessageAccountSortOrderD1Ev @ 216 NONAME
	_ZN10QtMobility24QMessageAccountSortOrderD2Ev @ 217 NONAME
	_ZN10QtMobility24QMessageAccountSortOrderaSERKS0_ @ 218 NONAME
	_ZN10QtMobility24QMessageContentContainer17setDerivedMessageEPNS_8QMessageE @ 219 NONAME
	_ZN10QtMobility24QMessageContentContainerC1ERKS0_ @ 220 NONAME
	_ZN10QtMobility24QMessageContentContainerC1Ev @ 221 NONAME
	_ZN10QtMobility24QMessageContentContainerC2ERKS0_ @ 222 NONAME
	_ZN10QtMobility24QMessageContentContainerC2Ev @ 223 NONAME
	_ZN10QtMobility24QMessageContentContainerD0Ev @ 224 NONAME
	_ZN10QtMobility24QMessageContentContainerD1Ev @ 225 NONAME
	_ZN10QtMobility24QMessageContentContainerD2Ev @ 226 NONAME
	_ZN10QtMobility24QMessageContentContaineraSERKS0_ @ 227 NONAME
	_ZN10QtMobility26QMessageContentContainerIdC1ERK7QString @ 228 NONAME
	_ZN10QtMobility26QMessageContentContainerIdC1ERKS0_ @ 229 NONAME
	_ZN10QtMobility26QMessageContentContainerIdC1Ev @ 230 NONAME
	_ZN10QtMobility26QMessageContentContainerIdC2ERK7QString @ 231 NONAME
	_ZN10QtMobility26QMessageContentContainerIdC2ERKS0_ @ 232 NONAME
	_ZN10QtMobility26QMessageContentContainerIdC2Ev @ 233 NONAME
	_ZN10QtMobility26QMessageContentContainerIdD1Ev @ 234 NONAME
	_ZN10QtMobility26QMessageContentContainerIdD2Ev @ 235 NONAME
	_ZN10QtMobility26QMessageContentContainerIdaSERKS0_ @ 236 NONAME
	_ZN10QtMobility5qHashERKNS_10QMessageIdE @ 237 NONAME
	_ZN10QtMobility5qHashERKNS_16QMessageFolderIdE @ 238 NONAME
	_ZN10QtMobility5qHashERKNS_17QMessageAccountIdE @ 239 NONAME
	_ZN10QtMobility8QMessage10setSubjectERK7QString @ 240 NONAME
	_ZN10QtMobility8QMessage11setPriorityENS0_8PriorityE @ 241 NONAME
	_ZN10QtMobility8QMessage15setReceivedDateERK9QDateTime @ 242 NONAME
	_ZN10QtMobility8QMessage16clearAttachmentsEv @ 243 NONAME
	_ZN10QtMobility8QMessage17appendAttachmentsERK11QStringList @ 244 NONAME
	_ZN10QtMobility8QMessage17preferredCharsetsEv @ 245 NONAME
	_ZN10QtMobility8QMessage18setParentAccountIdERKNS_17QMessageAccountIdE @ 246 NONAME
	_ZN10QtMobility8QMessage19preferredCharsetForERK7QString @ 247 NONAME
	_ZN10QtMobility8QMessage20setPreferredCharsetsERK5QListI10QByteArrayE @ 248 NONAME
	_ZN10QtMobility8QMessage5setCcERK5QListINS_15QMessageAddressEE @ 249 NONAME
	_ZN10QtMobility8QMessage5setToERK5QListINS_15QMessageAddressEE @ 250 NONAME
	_ZN10QtMobility8QMessage5setToERKNS_15QMessageAddressE @ 251 NONAME
	_ZN10QtMobility8QMessage6setBccERK5QListINS_15QMessageAddressEE @ 252 NONAME
	_ZN10QtMobility8QMessage7setBodyER11QTextStreamRK10QByteArray @ 253 NONAME
	_ZN10QtMobility8QMessage7setBodyERK7QStringRK10QByteArray @ 254 NONAME
	_ZN10QtMobility8QMessage7setDateERK9QDateTime @ 255 NONAME
	_ZN10QtMobility8QMessage7setFromERKNS_15QMessageAddressE @ 256 NONAME
	_ZN10QtMobility8QMessage7setTypeENS0_4TypeE @ 257 NONAME
	_ZN10QtMobility8QMessage9setStatusE6QFlagsINS0_6StatusEE @ 258 NONAME
	_ZN10QtMobility8QMessage9setStatusENS0_6StatusEb @ 259 NONAME
	_ZN10QtMobility8QMessageC1ERKNS_10QMessageIdE @ 260 NONAME
	_ZN10QtMobility8QMessageC1ERKS0_ @ 261 NONAME
	_ZN10QtMobility8QMessageC1Ev @ 262 NONAME
	_ZN10QtMobility8QMessageC2ERKNS_10QMessageIdE @ 263 NONAME
	_ZN10QtMobility8QMessageC2ERKS0_ @ 264 NONAME
	_ZN10QtMobility8QMessageC2Ev @ 265 NONAME
	_ZN10QtMobility8QMessageD0Ev @ 266 NONAME
	_ZN10QtMobility8QMessageD1Ev @ 267 NONAME
	_ZN10QtMobility8QMessageD2Ev @ 268 NONAME
	_ZN10QtMobility8QMessageaSERKS0_ @ 269 NONAME
	_ZNK10QtMobility10QMessageId7isValidEv @ 270 NONAME
	_ZNK10QtMobility10QMessageId8toStringEv @ 271 NONAME
	_ZNK10QtMobility10QMessageIdeqERKS0_ @ 272 NONAME
	_ZNK10QtMobility10QMessageIdltERKS0_ @ 273 NONAME
	_ZNK10QtMobility10QMessageIdneERKS0_ @ 274 NONAME
	_ZNK10QtMobility14QMessageFilter10matchFlagsEv @ 275 NONAME
	_ZNK10QtMobility14QMessageFilter11isSupportedEv @ 276 NONAME
	_ZNK10QtMobility14QMessageFilter7isEmptyEv @ 277 NONAME
	_ZNK10QtMobility14QMessageFilteranERKS0_ @ 278 NONAME
	_ZNK10QtMobility14QMessageFiltercoEv @ 279 NONAME
	_ZNK10QtMobility14QMessageFiltereqERKS0_ @ 280 NONAME
	_ZNK10QtMobility14QMessageFilterneERKS0_ @ 281 NONAME
	_ZNK10QtMobility14QMessageFilterorERKS0_ @ 282 NONAME
	_ZNK10QtMobility14QMessageFolder14parentFolderIdEv @ 283 NONAME
	_ZNK10QtMobility14QMessageFolder15parentAccountIdEv @ 284 NONAME
	_ZNK10QtMobility14QMessageFolder2idEv @ 285 NONAME
	_ZNK10QtMobility14QMessageFolder4nameEv @ 286 NONAME
	_ZNK10QtMobility14QMessageFolder4pathEv @ 287 NONAME
	_ZNK10QtMobility15QMessageAccount12messageTypesEv @ 288 NONAME
	_ZNK10QtMobility15QMessageAccount2idEv @ 289 NONAME
	_ZNK10QtMobility15QMessageAccount4nameEv @ 290 NONAME
	_ZNK10QtMobility15QMessageAddress4typeEv @ 291 NONAME
	_ZNK10QtMobility15QMessageAddress9addresseeEv @ 292 NONAME
	_ZNK10QtMobility15QMessageAddresseqERKS0_ @ 293 NONAME
	_ZNK10QtMobility15QMessageAddressneERKS0_ @ 294 NONAME
	_ZNK10QtMobility15QMessageManager10metaObjectEv @ 295 NONAME
	_ZNK10QtMobility15QMessageManager12countFoldersERKNS_20QMessageFolderFilterE @ 296 NONAME
	_ZNK10QtMobility15QMessageManager12queryFoldersERKNS_20QMessageFolderFilterERK5QListINS_23QMessageFolderSortOrderEEjj @ 297 NONAME
	_ZNK10QtMobility15QMessageManager12queryFoldersERKNS_20QMessageFolderFilterERKNS_23QMessageFolderSortOrderEjj @ 298 NONAME
	_ZNK10QtMobility15QMessageManager13countAccountsERKNS_21QMessageAccountFilterE @ 299 NONAME
	_ZNK10QtMobility15QMessageManager13countMessagesERKNS_14QMessageFilterE @ 300 NONAME
	_ZNK10QtMobility15QMessageManager13queryAccountsERKNS_21QMessageAccountFilterERK5QListINS_24QMessageAccountSortOrderEEjj @ 301 NONAME
	_ZNK10QtMobility15QMessageManager13queryAccountsERKNS_21QMessageAccountFilterERKNS_24QMessageAccountSortOrderEjj @ 302 NONAME
	_ZNK10QtMobility15QMessageManager13queryMessagesERKNS_14QMessageFilterERK5QListINS_17QMessageSortOrderEEjj @ 303 NONAME
	_ZNK10QtMobility15QMessageManager13queryMessagesERKNS_14QMessageFilterERK7QString6QFlagsINS_22QMessageDataComparator9MatchFlagEERK5QListINS_17QMessageSortOrderEEjj @ 304 NONAME
	_ZNK10QtMobility15QMessageManager13queryMessagesERKNS_14QMessageFilterERK7QString6QFlagsINS_22QMessageDataComparator9MatchFlagEERKNS_17QMessageSortOrderEjj @ 305 NONAME
	_ZNK10QtMobility15QMessageManager13queryMessagesERKNS_14QMessageFilterERKNS_17QMessageSortOrderEjj @ 306 NONAME
	_ZNK10QtMobility15QMessageManager5errorEv @ 307 NONAME
	_ZNK10QtMobility15QMessageManager6folderERKNS_16QMessageFolderIdE @ 308 NONAME
	_ZNK10QtMobility15QMessageManager7accountERKNS_17QMessageAccountIdE @ 309 NONAME
	_ZNK10QtMobility15QMessageManager7messageERKNS_10QMessageIdE @ 310 NONAME
	_ZNK10QtMobility15QMessageService10metaObjectEv @ 311 NONAME
	_ZNK10QtMobility15QMessageService5errorEv @ 312 NONAME
	_ZNK10QtMobility15QMessageService5stateEv @ 313 NONAME
	_ZNK10QtMobility16QMessageFolderId7isValidEv @ 314 NONAME
	_ZNK10QtMobility16QMessageFolderId8toStringEv @ 315 NONAME
	_ZNK10QtMobility16QMessageFolderIdeqERKS0_ @ 316 NONAME
	_ZNK10QtMobility16QMessageFolderIdltERKS0_ @ 317 NONAME
	_ZNK10QtMobility16QMessageFolderIdneERKS0_ @ 318 NONAME
	_ZNK10QtMobility17QMessageAccountId7isValidEv @ 319 NONAME
	_ZNK10QtMobility17QMessageAccountId8toStringEv @ 320 NONAME
	_ZNK10QtMobility17QMessageAccountIdeqERKS0_ @ 321 NONAME
	_ZNK10QtMobility17QMessageAccountIdltERKS0_ @ 322 NONAME
	_ZNK10QtMobility17QMessageAccountIdneERKS0_ @ 323 NONAME
	_ZNK10QtMobility17QMessageSortOrder11isSupportedEv @ 324 NONAME
	_ZNK10QtMobility17QMessageSortOrder7isEmptyEv @ 325 NONAME
	_ZNK10QtMobility17QMessageSortOrdereqERKS0_ @ 326 NONAME
	_ZNK10QtMobility17QMessageSortOrderneERKS0_ @ 327 NONAME
	_ZNK10QtMobility17QMessageSortOrderplERKS0_ @ 328 NONAME
	_ZNK10QtMobility20QMessageFolderFilter10matchFlagsEv @ 329 NONAME
	_ZNK10QtMobility20QMessageFolderFilter11isSupportedEv @ 330 NONAME
	_ZNK10QtMobility20QMessageFolderFilter7isEmptyEv @ 331 NONAME
	_ZNK10QtMobility20QMessageFolderFilteranERKS0_ @ 332 NONAME
	_ZNK10QtMobility20QMessageFolderFiltercoEv @ 333 NONAME
	_ZNK10QtMobility20QMessageFolderFiltereqERKS0_ @ 334 NONAME
	_ZNK10QtMobility20QMessageFolderFilterneERKS0_ @ 335 NONAME
	_ZNK10QtMobility20QMessageFolderFilterorERKS0_ @ 336 NONAME
	_ZNK10QtMobility21QMessageAccountFilter10matchFlagsEv @ 337 NONAME
	_ZNK10QtMobility21QMessageAccountFilter11isSupportedEv @ 338 NONAME
	_ZNK10QtMobility21QMessageAccountFilter7isEmptyEv @ 339 NONAME
	_ZNK10QtMobility21QMessageAccountFilteranERKS0_ @ 340 NONAME
	_ZNK10QtMobility21QMessageAccountFiltercoEv @ 341 NONAME
	_ZNK10QtMobility21QMessageAccountFiltereqERKS0_ @ 342 NONAME
	_ZNK10QtMobility21QMessageAccountFilterneERKS0_ @ 343 NONAME
	_ZNK10QtMobility21QMessageAccountFilterorERKS0_ @ 344 NONAME
	_ZNK10QtMobility23QMessageFolderSortOrder11isSupportedEv @ 345 NONAME
	_ZNK10QtMobility23QMessageFolderSortOrder7isEmptyEv @ 346 NONAME
	_ZNK10QtMobility23QMessageFolderSortOrdereqERKS0_ @ 347 NONAME
	_ZNK10QtMobility23QMessageFolderSortOrderneERKS0_ @ 348 NONAME
	_ZNK10QtMobility23QMessageFolderSortOrderplERKS0_ @ 349 NONAME
	_ZNK10QtMobility24QMessageAccountSortOrder11isSupportedEv @ 350 NONAME
	_ZNK10QtMobility24QMessageAccountSortOrder7isEmptyEv @ 351 NONAME
	_ZNK10QtMobility24QMessageAccountSortOrdereqERKS0_ @ 352 NONAME
	_ZNK10QtMobility24QMessageAccountSortOrderneERKS0_ @ 353 NONAME
	_ZNK10QtMobility24QMessageContentContainer10contentIdsEv @ 354 NONAME
	_ZNK10QtMobility24QMessageContentContainer11contentTypeEv @ 355 NONAME
	_ZNK10QtMobility24QMessageContentContainer11textContentEv @ 356 NONAME
	_ZNK10QtMobility24QMessageContentContainer12headerFieldsEv @ 357 NONAME
	_ZNK10QtMobility24QMessageContentContainer12writeContentER11QDataStream @ 358 NONAME
	_ZNK10QtMobility24QMessageContentContainer14contentCharsetEv @ 359 NONAME
	_ZNK10QtMobility24QMessageContentContainer14contentSubTypeEv @ 360 NONAME
	_ZNK10QtMobility24QMessageContentContainer16headerFieldValueERK10QByteArray @ 361 NONAME
	_ZNK10QtMobility24QMessageContentContainer16writeTextContentER11QTextStream @ 362 NONAME
	_ZNK10QtMobility24QMessageContentContainer17headerFieldValuesERK10QByteArray @ 363 NONAME
	_ZNK10QtMobility24QMessageContentContainer17suggestedFileNameEv @ 364 NONAME
	_ZNK10QtMobility24QMessageContentContainer18isContentAvailableEv @ 365 NONAME
	_ZNK10QtMobility24QMessageContentContainer4findERKNS_26QMessageContentContainerIdE @ 366 NONAME
	_ZNK10QtMobility24QMessageContentContainer4sizeEv @ 367 NONAME
	_ZNK10QtMobility24QMessageContentContainer7contentEv @ 368 NONAME
	_ZNK10QtMobility24QMessageContentContainer8containsERKNS_26QMessageContentContainerIdE @ 369 NONAME
	_ZNK10QtMobility26QMessageContentContainerId7isValidEv @ 370 NONAME
	_ZNK10QtMobility26QMessageContentContainerId8toStringEv @ 371 NONAME
	_ZNK10QtMobility26QMessageContentContainerIdeqERKS0_ @ 372 NONAME
	_ZNK10QtMobility26QMessageContentContainerIdneERKS0_ @ 373 NONAME
	_ZNK10QtMobility8QMessage10isModifiedEv @ 374 NONAME
	_ZNK10QtMobility8QMessage12receivedDateEv @ 375 NONAME
	_ZNK10QtMobility8QMessage13attachmentIdsEv @ 376 NONAME
	_ZNK10QtMobility8QMessage14parentFolderIdEv @ 377 NONAME
	_ZNK10QtMobility8QMessage14standardFolderEv @ 378 NONAME
	_ZNK10QtMobility8QMessage15parentAccountIdEv @ 379 NONAME
	_ZNK10QtMobility8QMessage21createResponseMessageENS0_12ResponseTypeE @ 380 NONAME
	_ZNK10QtMobility8QMessage2ccEv @ 381 NONAME
	_ZNK10QtMobility8QMessage2idEv @ 382 NONAME
	_ZNK10QtMobility8QMessage2toEv @ 383 NONAME
	_ZNK10QtMobility8QMessage3bccEv @ 384 NONAME
	_ZNK10QtMobility8QMessage4dateEv @ 385 NONAME
	_ZNK10QtMobility8QMessage4fromEv @ 386 NONAME
	_ZNK10QtMobility8QMessage4sizeEv @ 387 NONAME
	_ZNK10QtMobility8QMessage4typeEv @ 388 NONAME
	_ZNK10QtMobility8QMessage6bodyIdEv @ 389 NONAME
	_ZNK10QtMobility8QMessage6statusEv @ 390 NONAME
	_ZNK10QtMobility8QMessage7subjectEv @ 391 NONAME
	_ZNK10QtMobility8QMessage8priorityEv @ 392 NONAME
	_ZTIN10QtMobility14QMessageFilterE @ 393 NONAME
	_ZTIN10QtMobility14QMessageFolderE @ 394 NONAME
	_ZTIN10QtMobility15QMessageAccountE @ 395 NONAME
	_ZTIN10QtMobility15QMessageAddressE @ 396 NONAME
	_ZTIN10QtMobility15QMessageManagerE @ 397 NONAME
	_ZTIN10QtMobility15QMessageServiceE @ 398 NONAME
	_ZTIN10QtMobility17QMessageSortOrderE @ 399 NONAME
	_ZTIN10QtMobility20QMessageFolderFilterE @ 400 NONAME
	_ZTIN10QtMobility21QMessageAccountFilterE @ 401 NONAME
	_ZTIN10QtMobility23QMessageFolderSortOrderE @ 402 NONAME
	_ZTIN10QtMobility24QMessageAccountSortOrderE @ 403 NONAME
	_ZTIN10QtMobility24QMessageContentContainerE @ 404 NONAME
	_ZTIN10QtMobility8QMessageE @ 405 NONAME
	_ZTVN10QtMobility14QMessageFilterE @ 406 NONAME
	_ZTVN10QtMobility14QMessageFolderE @ 407 NONAME
	_ZTVN10QtMobility15QMessageAccountE @ 408 NONAME
	_ZTVN10QtMobility15QMessageAddressE @ 409 NONAME
	_ZTVN10QtMobility15QMessageManagerE @ 410 NONAME
	_ZTVN10QtMobility15QMessageServiceE @ 411 NONAME
	_ZTVN10QtMobility17QMessageSortOrderE @ 412 NONAME
	_ZTVN10QtMobility20QMessageFolderFilterE @ 413 NONAME
	_ZTVN10QtMobility21QMessageAccountFilterE @ 414 NONAME
	_ZTVN10QtMobility23QMessageFolderSortOrderE @ 415 NONAME
	_ZTVN10QtMobility24QMessageAccountSortOrderE @ 416 NONAME
	_ZTVN10QtMobility24QMessageContentContainerE @ 417 NONAME
	_ZTVN10QtMobility8QMessageE @ 418 NONAME

