EXPORTS
	_ZN10QtMobility14QOrganizerItem10addCommentERK7QString @ 1 NONAME
	_ZN10QtMobility14QOrganizerItem10saveDetailEPNS_20QOrganizerItemDetailE @ 2 NONAME
	_ZN10QtMobility14QOrganizerItem12clearDetailsEv @ 3 NONAME
	_ZN10QtMobility14QOrganizerItem12removeDetailEPNS_20QOrganizerItemDetailE @ 4 NONAME
	_ZN10QtMobility14QOrganizerItem13clearCommentsEv @ 5 NONAME
	_ZN10QtMobility14QOrganizerItem14setDescriptionERK7QString @ 6 NONAME
	_ZN10QtMobility14QOrganizerItem14setDescriptionERKNS_25QOrganizerItemDescriptionE @ 7 NONAME
	_ZN10QtMobility14QOrganizerItem15setDisplayLabelERK7QString @ 8 NONAME
	_ZN10QtMobility14QOrganizerItem15setDisplayLabelERKNS_26QOrganizerItemDisplayLabelE @ 9 NONAME
	_ZN10QtMobility14QOrganizerItem5setIdERKNS_16QOrganizerItemIdE @ 10 NONAME
	_ZN10QtMobility14QOrganizerItem6assignERKS0_PKc @ 11 NONAME
	_ZN10QtMobility14QOrganizerItem7setGuidERK7QString @ 12 NONAME
	_ZN10QtMobility14QOrganizerItem7setTypeERK7QString @ 13 NONAME
	_ZN10QtMobility14QOrganizerItem7setTypeERKNS_18QOrganizerItemTypeE @ 14 NONAME
	_ZN10QtMobility14QOrganizerItemC1EPKc @ 15 NONAME
	_ZN10QtMobility14QOrganizerItemC1ERKS0_ @ 16 NONAME
	_ZN10QtMobility14QOrganizerItemC1ERKS0_PKc @ 17 NONAME
	_ZN10QtMobility14QOrganizerItemC1Ev @ 18 NONAME
	_ZN10QtMobility14QOrganizerItemC2EPKc @ 19 NONAME
	_ZN10QtMobility14QOrganizerItemC2ERKS0_ @ 20 NONAME
	_ZN10QtMobility14QOrganizerItemC2ERKS0_PKc @ 21 NONAME
	_ZN10QtMobility14QOrganizerItemC2Ev @ 22 NONAME
	_ZN10QtMobility14QOrganizerItemD1Ev @ 23 NONAME
	_ZN10QtMobility14QOrganizerItemD2Ev @ 24 NONAME
	_ZN10QtMobility14QOrganizerItemaSERKS0_ @ 25 NONAME
	_ZN10QtMobility14QOrganizerTodo11setPriorityENS_22QOrganizerItemPriority8PriorityE @ 26 NONAME
	_ZN10QtMobility14QOrganizerTodo14setDueDateTimeERK9QDateTime @ 27 NONAME
	_ZN10QtMobility14QOrganizerTodo16setStartDateTimeERK9QDateTime @ 28 NONAME
	_ZN10QtMobility14QOrganizerTodo16setTimeSpecifiedEb @ 29 NONAME
	_ZN10QtMobility14QOrganizerTodo17setExceptionDatesERK5QListI5QDateE @ 30 NONAME
	_ZN10QtMobility14QOrganizerTodo17setExceptionRulesERK5QListINS_28QOrganizerItemRecurrenceRuleEE @ 31 NONAME
	_ZN10QtMobility14QOrganizerTodo18setRecurrenceDatesERK5QListI5QDateE @ 32 NONAME
	_ZN10QtMobility14QOrganizerTodo18setRecurrenceRulesERK5QListINS_28QOrganizerItemRecurrenceRuleEE @ 33 NONAME
	_ZN10QtMobility14QOrganizerTodo19setFinishedDateTimeERK9QDateTime @ 34 NONAME
	_ZN10QtMobility14QOrganizerTodo21setProgressPercentageEi @ 35 NONAME
	_ZN10QtMobility14QOrganizerTodo9setStatusENS_22QOrganizerTodoProgress6StatusE @ 36 NONAME
	_ZN10QtMobility15QOrganizerEvent11setLocationERK7QString @ 37 NONAME
	_ZN10QtMobility15QOrganizerEvent11setPriorityENS_22QOrganizerItemPriority8PriorityE @ 38 NONAME
	_ZN10QtMobility15QOrganizerEvent14setEndDateTimeERK9QDateTime @ 39 NONAME
	_ZN10QtMobility15QOrganizerEvent16setStartDateTimeERK9QDateTime @ 40 NONAME
	_ZN10QtMobility15QOrganizerEvent16setTimeSpecifiedEb @ 41 NONAME
	_ZN10QtMobility15QOrganizerEvent17setExceptionDatesERK5QListI5QDateE @ 42 NONAME
	_ZN10QtMobility15QOrganizerEvent17setExceptionRulesERK5QListINS_28QOrganizerItemRecurrenceRuleEE @ 43 NONAME
	_ZN10QtMobility15QOrganizerEvent18setRecurrenceDatesERK5QListI5QDateE @ 44 NONAME
	_ZN10QtMobility15QOrganizerEvent18setRecurrenceRulesERK5QListINS_28QOrganizerItemRecurrenceRuleEE @ 45 NONAME
	_ZN10QtMobility16QOrganizerItemId10setLocalIdERKNS_21QOrganizerItemLocalIdE @ 46 NONAME
	_ZN10QtMobility16QOrganizerItemId13setManagerUriERK7QString @ 47 NONAME
	_ZN10QtMobility16QOrganizerItemIdC1ERKS0_ @ 48 NONAME
	_ZN10QtMobility16QOrganizerItemIdC1Ev @ 49 NONAME
	_ZN10QtMobility16QOrganizerItemIdC2ERKS0_ @ 50 NONAME
	_ZN10QtMobility16QOrganizerItemIdC2Ev @ 51 NONAME
	_ZN10QtMobility16QOrganizerItemIdD1Ev @ 52 NONAME
	_ZN10QtMobility16QOrganizerItemIdD2Ev @ 53 NONAME
	_ZN10QtMobility16QOrganizerItemIdaSERKS0_ @ 54 NONAME
	_ZN10QtMobility17QOrganizerJournal11setDateTimeERK9QDateTime @ 55 NONAME
	_ZN10QtMobility18QOrganizerItemGuid14DefinitionNameE @ 56 NONAME DATA 5
	_ZN10QtMobility18QOrganizerItemGuid9FieldGuidE @ 57 NONAME DATA 5
	_ZN10QtMobility18QOrganizerItemType11TypeJournalE @ 58 NONAME DATA 8
	_ZN10QtMobility18QOrganizerItemType14DefinitionNameE @ 59 NONAME DATA 5
	_ZN10QtMobility18QOrganizerItemType18TypeTodoOccurrenceE @ 60 NONAME DATA 15
	_ZN10QtMobility18QOrganizerItemType19TypeEventOccurrenceE @ 61 NONAME DATA 16
	_ZN10QtMobility18QOrganizerItemType8TypeNoteE @ 62 NONAME DATA 5
	_ZN10QtMobility18QOrganizerItemType8TypeTodoE @ 63 NONAME DATA 5
	_ZN10QtMobility18QOrganizerItemType9FieldTypeE @ 64 NONAME DATA 5
	_ZN10QtMobility18QOrganizerItemType9TypeEventE @ 65 NONAME DATA 6
	_ZN10QtMobility20QOrganizerCollection11setMetaDataERK4QMapI7QString8QVariantE @ 66 NONAME
	_ZN10QtMobility20QOrganizerCollection11setMetaDataERK7QStringRK8QVariant @ 67 NONAME
	_ZN10QtMobility20QOrganizerCollection14KeyDescriptionE @ 68 NONAME DATA 12
	_ZN10QtMobility20QOrganizerCollection5setIdERKNS_22QOrganizerCollectionIdE @ 69 NONAME
	_ZN10QtMobility20QOrganizerCollection7KeyNameE @ 70 NONAME DATA 5
	_ZN10QtMobility20QOrganizerCollection8KeyColorE @ 71 NONAME DATA 6
	_ZN10QtMobility20QOrganizerCollection8KeyImageE @ 72 NONAME DATA 6
	_ZN10QtMobility20QOrganizerCollection8metaDataERK7QString @ 73 NONAME
	_ZN10QtMobility20QOrganizerCollectionC1ERKS0_ @ 74 NONAME
	_ZN10QtMobility20QOrganizerCollectionC1Ev @ 75 NONAME
	_ZN10QtMobility20QOrganizerCollectionC2ERKS0_ @ 76 NONAME
	_ZN10QtMobility20QOrganizerCollectionC2Ev @ 77 NONAME
	_ZN10QtMobility20QOrganizerCollectionD1Ev @ 78 NONAME
	_ZN10QtMobility20QOrganizerCollectionD2Ev @ 79 NONAME
	_ZN10QtMobility20QOrganizerCollectionaSERKS0_ @ 80 NONAME
	_ZN10QtMobility20QOrganizerItemDetail11removeValueEPKc @ 81 NONAME
	_ZN10QtMobility20QOrganizerItemDetail11removeValueERK7QString @ 82 NONAME
	_ZN10QtMobility20QOrganizerItemDetail6assignERKS0_PKc @ 83 NONAME
	_ZN10QtMobility20QOrganizerItemDetail6assignERKS0_RK7QString @ 84 NONAME
	_ZN10QtMobility20QOrganizerItemDetail8resetKeyEv @ 85 NONAME
	_ZN10QtMobility20QOrganizerItemDetail8setValueEPKcRK8QVariant @ 86 NONAME
	_ZN10QtMobility20QOrganizerItemDetail8setValueERK7QStringRK8QVariant @ 87 NONAME
	_ZN10QtMobility20QOrganizerItemDetailC1EPKc @ 88 NONAME
	_ZN10QtMobility20QOrganizerItemDetailC1ERK7QString @ 89 NONAME
	_ZN10QtMobility20QOrganizerItemDetailC1ERKS0_ @ 90 NONAME
	_ZN10QtMobility20QOrganizerItemDetailC1ERKS0_PKc @ 91 NONAME
	_ZN10QtMobility20QOrganizerItemDetailC1ERKS0_RK7QString @ 92 NONAME
	_ZN10QtMobility20QOrganizerItemDetailC1Ev @ 93 NONAME
	_ZN10QtMobility20QOrganizerItemDetailC2EPKc @ 94 NONAME
	_ZN10QtMobility20QOrganizerItemDetailC2ERK7QString @ 95 NONAME
	_ZN10QtMobility20QOrganizerItemDetailC2ERKS0_ @ 96 NONAME
	_ZN10QtMobility20QOrganizerItemDetailC2ERKS0_PKc @ 97 NONAME
	_ZN10QtMobility20QOrganizerItemDetailC2ERKS0_RK7QString @ 98 NONAME
	_ZN10QtMobility20QOrganizerItemDetailC2Ev @ 99 NONAME
	_ZN10QtMobility20QOrganizerItemDetailD1Ev @ 100 NONAME
	_ZN10QtMobility20QOrganizerItemDetailD2Ev @ 101 NONAME
	_ZN10QtMobility20QOrganizerItemDetailaSERKS0_ @ 102 NONAME
	_ZN10QtMobility20QOrganizerItemFilterC1EPNS_27QOrganizerItemFilterPrivateE @ 103 NONAME
	_ZN10QtMobility20QOrganizerItemFilterC1ERKS0_ @ 104 NONAME
	_ZN10QtMobility20QOrganizerItemFilterC1Ev @ 105 NONAME
	_ZN10QtMobility20QOrganizerItemFilterC2EPNS_27QOrganizerItemFilterPrivateE @ 106 NONAME
	_ZN10QtMobility20QOrganizerItemFilterC2ERKS0_ @ 107 NONAME
	_ZN10QtMobility20QOrganizerItemFilterC2Ev @ 108 NONAME
	_ZN10QtMobility20QOrganizerItemFilterD1Ev @ 109 NONAME
	_ZN10QtMobility20QOrganizerItemFilterD2Ev @ 110 NONAME
	_ZN10QtMobility20QOrganizerItemFilteraSERKS0_ @ 111 NONAME
	_ZN10QtMobility21QOrganizerItemComment12FieldCommentE @ 112 NONAME DATA 8
	_ZN10QtMobility21QOrganizerItemComment14DefinitionNameE @ 113 NONAME DATA 8
	_ZN10QtMobility21QOrganizerItemComment5matchERK7QString @ 114 NONAME
	_ZN10QtMobility21QOrganizerItemLocalIdC1EPNS_27QOrganizerItemEngineLocalIdE @ 115 NONAME
	_ZN10QtMobility21QOrganizerItemLocalIdC1ERKS0_ @ 116 NONAME
	_ZN10QtMobility21QOrganizerItemLocalIdC1Ev @ 117 NONAME
	_ZN10QtMobility21QOrganizerItemLocalIdC2EPNS_27QOrganizerItemEngineLocalIdE @ 118 NONAME
	_ZN10QtMobility21QOrganizerItemLocalIdC2ERKS0_ @ 119 NONAME
	_ZN10QtMobility21QOrganizerItemLocalIdC2Ev @ 120 NONAME
	_ZN10QtMobility21QOrganizerItemLocalIdD1Ev @ 121 NONAME
	_ZN10QtMobility21QOrganizerItemLocalIdD2Ev @ 122 NONAME
	_ZN10QtMobility21QOrganizerItemLocalIdaSERKS0_ @ 123 NONAME
	_ZN10QtMobility21QOrganizerItemManager10itemsAddedERK5QListINS_21QOrganizerItemLocalIdEE @ 124 NONAME
	_ZN10QtMobility21QOrganizerItemManager10removeItemERKNS_21QOrganizerItemLocalIdE @ 125 NONAME
	_ZN10QtMobility21QOrganizerItemManager11dataChangedEv @ 126 NONAME
	_ZN10QtMobility21QOrganizerItemManager11qt_metacallEN11QMetaObject4CallEiPPv @ 127 NONAME
	_ZN10QtMobility21QOrganizerItemManager11qt_metacastEPKc @ 128 NONAME
	_ZN10QtMobility21QOrganizerItemManager11removeItemsERK5QListINS_21QOrganizerItemLocalIdEE @ 129 NONAME
	_ZN10QtMobility21QOrganizerItemManager12createEngineERK7QStringRK4QMapIS1_S1_E @ 130 NONAME
	_ZN10QtMobility21QOrganizerItemManager12itemsChangedERK5QListINS_21QOrganizerItemLocalIdEE @ 131 NONAME
	_ZN10QtMobility21QOrganizerItemManager12itemsRemovedERK5QListINS_21QOrganizerItemLocalIdEE @ 132 NONAME
	_ZN10QtMobility21QOrganizerItemManager14compatibleItemERKNS_14QOrganizerItemE @ 133 NONAME
	_ZN10QtMobility21QOrganizerItemManager14saveCollectionEPNS_20QOrganizerCollectionE @ 134 NONAME
	_ZN10QtMobility21QOrganizerItemManager16collectionsAddedERK5QListINS_27QOrganizerCollectionLocalIdEE @ 135 NONAME
	_ZN10QtMobility21QOrganizerItemManager16removeCollectionERKNS_27QOrganizerCollectionLocalIdE @ 136 NONAME
	_ZN10QtMobility21QOrganizerItemManager16staticMetaObjectE @ 137 NONAME DATA 16
	_ZN10QtMobility21QOrganizerItemManager17availableManagersEv @ 138 NONAME
	_ZN10QtMobility21QOrganizerItemManager18collectionsChangedERK5QListINS_27QOrganizerCollectionLocalIdEE @ 139 NONAME
	_ZN10QtMobility21QOrganizerItemManager18collectionsRemovedERK5QListINS_27QOrganizerCollectionLocalIdEE @ 140 NONAME
	_ZN10QtMobility21QOrganizerItemManager19getStaticMetaObjectEv @ 141 NONAME
	_ZN10QtMobility21QOrganizerItemManager20compatibleCollectionERKNS_20QOrganizerCollectionE @ 142 NONAME
	_ZN10QtMobility21QOrganizerItemManager20saveDetailDefinitionERKNS_30QOrganizerItemDetailDefinitionERK7QString @ 143 NONAME
	_ZN10QtMobility21QOrganizerItemManager22removeDetailDefinitionERK7QStringS3_ @ 144 NONAME
	_ZN10QtMobility21QOrganizerItemManager7fromUriERK7QStringP7QObject @ 145 NONAME
	_ZN10QtMobility21QOrganizerItemManager8buildUriERK7QStringRK4QMapIS1_S1_Ei @ 146 NONAME
	_ZN10QtMobility21QOrganizerItemManager8parseUriERK7QStringPS1_P4QMapIS1_S1_E @ 147 NONAME
	_ZN10QtMobility21QOrganizerItemManager8saveItemEPNS_14QOrganizerItemERKNS_27QOrganizerCollectionLocalIdE @ 148 NONAME
	_ZN10QtMobility21QOrganizerItemManager9saveItemsEP5QListINS_14QOrganizerItemEERKNS_27QOrganizerCollectionLocalIdE @ 149 NONAME
	_ZN10QtMobility21QOrganizerItemManagerC1EP7QObject @ 150 NONAME
	_ZN10QtMobility21QOrganizerItemManagerC1ERK7QStringRK4QMapIS1_S1_EP7QObject @ 151 NONAME
	_ZN10QtMobility21QOrganizerItemManagerC1ERK7QStringiRK4QMapIS1_S1_EP7QObject @ 152 NONAME
	_ZN10QtMobility21QOrganizerItemManagerC2EP7QObject @ 153 NONAME
	_ZN10QtMobility21QOrganizerItemManagerC2ERK7QStringRK4QMapIS1_S1_EP7QObject @ 154 NONAME
	_ZN10QtMobility21QOrganizerItemManagerC2ERK7QStringiRK4QMapIS1_S1_EP7QObject @ 155 NONAME
	_ZN10QtMobility21QOrganizerItemManagerD0Ev @ 156 NONAME
	_ZN10QtMobility21QOrganizerItemManagerD1Ev @ 157 NONAME
	_ZN10QtMobility21QOrganizerItemManagerD2Ev @ 158 NONAME
	_ZN10QtMobility22QOrganizerCollectionId10setLocalIdERKNS_27QOrganizerCollectionLocalIdE @ 159 NONAME
	_ZN10QtMobility22QOrganizerCollectionId13setManagerUriERK7QString @ 160 NONAME
	_ZN10QtMobility22QOrganizerCollectionIdC1ERKS0_ @ 161 NONAME
	_ZN10QtMobility22QOrganizerCollectionIdC1Ev @ 162 NONAME
	_ZN10QtMobility22QOrganizerCollectionIdC2ERKS0_ @ 163 NONAME
	_ZN10QtMobility22QOrganizerCollectionIdC2Ev @ 164 NONAME
	_ZN10QtMobility22QOrganizerCollectionIdD1Ev @ 165 NONAME
	_ZN10QtMobility22QOrganizerCollectionIdD2Ev @ 166 NONAME
	_ZN10QtMobility22QOrganizerCollectionIdaSERKS0_ @ 167 NONAME
	_ZN10QtMobility22QOrganizerItemLocation10FieldLabelE @ 168 NONAME DATA 6
	_ZN10QtMobility22QOrganizerItemLocation13FieldLatitudeE @ 169 NONAME DATA 9
	_ZN10QtMobility22QOrganizerItemLocation14DefinitionNameE @ 170 NONAME DATA 9
	_ZN10QtMobility22QOrganizerItemLocation14FieldLongitudeE @ 171 NONAME DATA 10
	_ZN10QtMobility22QOrganizerItemLocation5matchERK7QString @ 172 NONAME
	_ZN10QtMobility22QOrganizerItemPriority13FieldPriorityE @ 173 NONAME DATA 9
	_ZN10QtMobility22QOrganizerItemPriority14DefinitionNameE @ 174 NONAME DATA 9
	_ZN10QtMobility22QOrganizerItemPriority5matchENS0_8PriorityE @ 175 NONAME
	_ZN10QtMobility22QOrganizerItemReminder14DefinitionNameE @ 176 NONAME DATA 9
	_ZN10QtMobility22QOrganizerItemReminder17FieldReminderTypeE @ 177 NONAME DATA 13
	_ZN10QtMobility22QOrganizerItemReminder20FieldRepetitionCountE @ 178 NONAME DATA 16
	_ZN10QtMobility22QOrganizerItemReminder20FieldRepetitionDelayE @ 179 NONAME DATA 16
	_ZN10QtMobility22QOrganizerItemReminder23FieldSecondsBeforeStartE @ 180 NONAME DATA 19
	_ZN10QtMobility22QOrganizerTodoProgress11FieldStatusE @ 181 NONAME DATA 7
	_ZN10QtMobility22QOrganizerTodoProgress14DefinitionNameE @ 182 NONAME DATA 13
	_ZN10QtMobility22QOrganizerTodoProgress21FieldFinishedDateTimeE @ 183 NONAME DATA 17
	_ZN10QtMobility22QOrganizerTodoProgress23FieldPercentageCompleteE @ 184 NONAME DATA 19
	_ZN10QtMobility23QOrganizerItemChangeSet11dataChangedEv @ 185 NONAME
	_ZN10QtMobility23QOrganizerItemChangeSet11emitSignalsEPNS_27QOrganizerItemManagerEngineE @ 186 NONAME
	_ZN10QtMobility23QOrganizerItemChangeSet14setDataChangedEb @ 187 NONAME
	_ZN10QtMobility23QOrganizerItemChangeSet15clearAddedItemsEv @ 188 NONAME
	_ZN10QtMobility23QOrganizerItemChangeSet15insertAddedItemERKNS_21QOrganizerItemLocalIdE @ 189 NONAME
	_ZN10QtMobility23QOrganizerItemChangeSet16insertAddedItemsERK5QListINS_21QOrganizerItemLocalIdEE @ 190 NONAME
	_ZN10QtMobility23QOrganizerItemChangeSet17clearChangedItemsEv @ 191 NONAME
	_ZN10QtMobility23QOrganizerItemChangeSet17clearRemovedItemsEv @ 192 NONAME
	_ZN10QtMobility23QOrganizerItemChangeSet17insertChangedItemERKNS_21QOrganizerItemLocalIdE @ 193 NONAME
	_ZN10QtMobility23QOrganizerItemChangeSet17insertRemovedItemERKNS_21QOrganizerItemLocalIdE @ 194 NONAME
	_ZN10QtMobility23QOrganizerItemChangeSet18insertChangedItemsERK5QListINS_21QOrganizerItemLocalIdEE @ 195 NONAME
	_ZN10QtMobility23QOrganizerItemChangeSet18insertRemovedItemsERK5QListINS_21QOrganizerItemLocalIdEE @ 196 NONAME
	_ZN10QtMobility23QOrganizerItemChangeSet8clearAllEv @ 197 NONAME
	_ZN10QtMobility23QOrganizerItemChangeSetC1ERKS0_ @ 198 NONAME
	_ZN10QtMobility23QOrganizerItemChangeSetC1Ev @ 199 NONAME
	_ZN10QtMobility23QOrganizerItemChangeSetC2ERKS0_ @ 200 NONAME
	_ZN10QtMobility23QOrganizerItemChangeSetC2Ev @ 201 NONAME
	_ZN10QtMobility23QOrganizerItemChangeSetD1Ev @ 202 NONAME
	_ZN10QtMobility23QOrganizerItemChangeSetD2Ev @ 203 NONAME
	_ZN10QtMobility23QOrganizerItemChangeSetaSERKS0_ @ 204 NONAME
	_ZN10QtMobility23QOrganizerItemFetchHint20setOptimizationHintsE6QFlagsINS0_16OptimizationHintEE @ 205 NONAME
	_ZN10QtMobility23QOrganizerItemFetchHint24setDetailDefinitionsHintERK11QStringList @ 206 NONAME
	_ZN10QtMobility23QOrganizerItemFetchHintC1ERKS0_ @ 207 NONAME
	_ZN10QtMobility23QOrganizerItemFetchHintC1Ev @ 208 NONAME
	_ZN10QtMobility23QOrganizerItemFetchHintC2ERKS0_ @ 209 NONAME
	_ZN10QtMobility23QOrganizerItemFetchHintC2Ev @ 210 NONAME
	_ZN10QtMobility23QOrganizerItemFetchHintD1Ev @ 211 NONAME
	_ZN10QtMobility23QOrganizerItemFetchHintD2Ev @ 212 NONAME
	_ZN10QtMobility23QOrganizerItemFetchHintaSERKS0_ @ 213 NONAME
	_ZN10QtMobility23QOrganizerItemSortOrder12setDirectionEN2Qt9SortOrderE @ 214 NONAME
	_ZN10QtMobility23QOrganizerItemSortOrder14setBlankPolicyENS0_11BlankPolicyE @ 215 NONAME
	_ZN10QtMobility23QOrganizerItemSortOrder18setCaseSensitivityEN2Qt15CaseSensitivityE @ 216 NONAME
	_ZN10QtMobility23QOrganizerItemSortOrder23setDetailDefinitionNameERK7QStringS3_ @ 217 NONAME
	_ZN10QtMobility23QOrganizerItemSortOrderC1ERKS0_ @ 218 NONAME
	_ZN10QtMobility23QOrganizerItemSortOrderC1Ev @ 219 NONAME
	_ZN10QtMobility23QOrganizerItemSortOrderC2ERKS0_ @ 220 NONAME
	_ZN10QtMobility23QOrganizerItemSortOrderC2Ev @ 221 NONAME
	_ZN10QtMobility23QOrganizerItemSortOrderD1Ev @ 222 NONAME
	_ZN10QtMobility23QOrganizerItemSortOrderD2Ev @ 223 NONAME
	_ZN10QtMobility23QOrganizerItemSortOrderaSERKS0_ @ 224 NONAME
	_ZN10QtMobility23QOrganizerItemTimestamp14DefinitionNameE @ 225 NONAME DATA 10
	_ZN10QtMobility23QOrganizerItemTimestamp22FieldCreationTimestampE @ 226 NONAME DATA 18
	_ZN10QtMobility23QOrganizerItemTimestamp26FieldModificationTimestampE @ 227 NONAME DATA 22
	_ZN10QtMobility23QOrganizerTodoTimeRange14DefinitionNameE @ 228 NONAME DATA 14
	_ZN10QtMobility23QOrganizerTodoTimeRange16FieldDueDateTimeE @ 229 NONAME DATA 12
	_ZN10QtMobility23QOrganizerTodoTimeRange18FieldStartDateTimeE @ 230 NONAME DATA 14
	_ZN10QtMobility23QOrganizerTodoTimeRange18FieldTimeSpecifiedE @ 231 NONAME DATA 14
	_ZN10QtMobility24QOrganizerEventTimeRange14DefinitionNameE @ 232 NONAME DATA 15
	_ZN10QtMobility24QOrganizerEventTimeRange16FieldEndDateTimeE @ 233 NONAME DATA 12
	_ZN10QtMobility24QOrganizerEventTimeRange18FieldStartDateTimeE @ 234 NONAME DATA 14
	_ZN10QtMobility24QOrganizerEventTimeRange18FieldTimeSpecifiedE @ 235 NONAME DATA 14
	_ZN10QtMobility24QOrganizerItemRecurrence14DefinitionNameE @ 236 NONAME DATA 11
	_ZN10QtMobility24QOrganizerItemRecurrence19FieldExceptionDatesE @ 237 NONAME DATA 15
	_ZN10QtMobility24QOrganizerItemRecurrence19FieldExceptionRulesE @ 238 NONAME DATA 15
	_ZN10QtMobility24QOrganizerItemRecurrence20FieldRecurrenceDatesE @ 239 NONAME DATA 16
	_ZN10QtMobility24QOrganizerItemRecurrence20FieldRecurrenceRulesE @ 240 NONAME DATA 16
	_ZN10QtMobility24QOrganizerTodoOccurrence11setPriorityENS_22QOrganizerItemPriority8PriorityE @ 241 NONAME
	_ZN10QtMobility24QOrganizerTodoOccurrence14setDueDateTimeERK9QDateTime @ 242 NONAME
	_ZN10QtMobility24QOrganizerTodoOccurrence15setOriginalDateERK5QDate @ 243 NONAME
	_ZN10QtMobility24QOrganizerTodoOccurrence16setParentLocalIdERKNS_21QOrganizerItemLocalIdE @ 244 NONAME
	_ZN10QtMobility24QOrganizerTodoOccurrence16setStartDateTimeERK9QDateTime @ 245 NONAME
	_ZN10QtMobility24QOrganizerTodoOccurrence19setFinishedDateTimeERK9QDateTime @ 246 NONAME
	_ZN10QtMobility24QOrganizerTodoOccurrence21setProgressPercentageEi @ 247 NONAME
	_ZN10QtMobility24QOrganizerTodoOccurrence9setStatusENS_22QOrganizerTodoProgress6StatusE @ 248 NONAME
	_ZN10QtMobility25QOrganizerEventOccurrence11setLocationERK7QString @ 249 NONAME
	_ZN10QtMobility25QOrganizerEventOccurrence11setPriorityENS_22QOrganizerItemPriority8PriorityE @ 250 NONAME
	_ZN10QtMobility25QOrganizerEventOccurrence14setEndDateTimeERK9QDateTime @ 251 NONAME
	_ZN10QtMobility25QOrganizerEventOccurrence15setOriginalDateERK5QDate @ 252 NONAME
	_ZN10QtMobility25QOrganizerEventOccurrence16setParentLocalIdERKNS_21QOrganizerItemLocalIdE @ 253 NONAME
	_ZN10QtMobility25QOrganizerEventOccurrence16setStartDateTimeERK9QDateTime @ 254 NONAME
	_ZN10QtMobility25QOrganizerItemDescription14DefinitionNameE @ 255 NONAME DATA 12
	_ZN10QtMobility25QOrganizerItemDescription16FieldDescriptionE @ 256 NONAME DATA 12
	_ZN10QtMobility25QOrganizerItemSaveRequest11qt_metacallEN11QMetaObject4CallEiPPv @ 257 NONAME
	_ZN10QtMobility25QOrganizerItemSaveRequest11qt_metacastEPKc @ 258 NONAME
	_ZN10QtMobility25QOrganizerItemSaveRequest15setCollectionIdERKNS_27QOrganizerCollectionLocalIdE @ 259 NONAME
	_ZN10QtMobility25QOrganizerItemSaveRequest16staticMetaObjectE @ 260 NONAME DATA 16
	_ZN10QtMobility25QOrganizerItemSaveRequest19getStaticMetaObjectEv @ 261 NONAME
	_ZN10QtMobility25QOrganizerItemSaveRequest7setItemERKNS_14QOrganizerItemE @ 262 NONAME
	_ZN10QtMobility25QOrganizerItemSaveRequest8setItemsERK5QListINS_14QOrganizerItemEE @ 263 NONAME
	_ZN10QtMobility25QOrganizerItemSaveRequestC1EP7QObject @ 264 NONAME
	_ZN10QtMobility25QOrganizerItemSaveRequestC2EP7QObject @ 265 NONAME
	_ZN10QtMobility25QOrganizerItemUnionFilter10setFiltersERK5QListINS_20QOrganizerItemFilterEE @ 266 NONAME
	_ZN10QtMobility25QOrganizerItemUnionFilter5clearEv @ 267 NONAME
	_ZN10QtMobility25QOrganizerItemUnionFilter6appendERKNS_20QOrganizerItemFilterE @ 268 NONAME
	_ZN10QtMobility25QOrganizerItemUnionFilter6removeERKNS_20QOrganizerItemFilterE @ 269 NONAME
	_ZN10QtMobility25QOrganizerItemUnionFilter7prependERKNS_20QOrganizerItemFilterE @ 270 NONAME
	_ZN10QtMobility25QOrganizerItemUnionFilterC1ERKNS_20QOrganizerItemFilterE @ 271 NONAME
	_ZN10QtMobility25QOrganizerItemUnionFilterC1Ev @ 272 NONAME
	_ZN10QtMobility25QOrganizerItemUnionFilterC2ERKNS_20QOrganizerItemFilterE @ 273 NONAME
	_ZN10QtMobility25QOrganizerItemUnionFilterC2Ev @ 274 NONAME
	_ZN10QtMobility25QOrganizerItemUnionFilterlsERKNS_20QOrganizerItemFilterE @ 275 NONAME
	_ZN10QtMobility26QOrganizerItemDetailFilter13setMatchFlagsE6QFlagsINS_20QOrganizerItemFilter9MatchFlagEE @ 276 NONAME
	_ZN10QtMobility26QOrganizerItemDetailFilter23setDetailDefinitionNameERK7QStringS3_ @ 277 NONAME
	_ZN10QtMobility26QOrganizerItemDetailFilter8setValueERK8QVariant @ 278 NONAME
	_ZN10QtMobility26QOrganizerItemDetailFilterC1ERKNS_20QOrganizerItemFilterE @ 279 NONAME
	_ZN10QtMobility26QOrganizerItemDetailFilterC1Ev @ 280 NONAME
	_ZN10QtMobility26QOrganizerItemDetailFilterC2ERKNS_20QOrganizerItemFilterE @ 281 NONAME
	_ZN10QtMobility26QOrganizerItemDetailFilterC2Ev @ 282 NONAME
	_ZN10QtMobility26QOrganizerItemDisplayLabel10FieldLabelE @ 283 NONAME DATA 6
	_ZN10QtMobility26QOrganizerItemDisplayLabel14DefinitionNameE @ 284 NONAME DATA 13
	_ZN10QtMobility26QOrganizerItemDisplayLabel5matchERK7QString @ 285 NONAME
	_ZN10QtMobility26QOrganizerItemFetchRequest10setEndDateERK9QDateTime @ 286 NONAME
	_ZN10QtMobility26QOrganizerItemFetchRequest10setSortingERK5QListINS_23QOrganizerItemSortOrderEE @ 287 NONAME
	_ZN10QtMobility26QOrganizerItemFetchRequest11qt_metacallEN11QMetaObject4CallEiPPv @ 288 NONAME
	_ZN10QtMobility26QOrganizerItemFetchRequest11qt_metacastEPKc @ 289 NONAME
	_ZN10QtMobility26QOrganizerItemFetchRequest12setFetchHintERKNS_23QOrganizerItemFetchHintE @ 290 NONAME
	_ZN10QtMobility26QOrganizerItemFetchRequest12setStartDateERK9QDateTime @ 291 NONAME
	_ZN10QtMobility26QOrganizerItemFetchRequest16staticMetaObjectE @ 292 NONAME DATA 16
	_ZN10QtMobility26QOrganizerItemFetchRequest19getStaticMetaObjectEv @ 293 NONAME
	_ZN10QtMobility26QOrganizerItemFetchRequest9setFilterERKNS_20QOrganizerItemFilterE @ 294 NONAME
	_ZN10QtMobility26QOrganizerItemFetchRequestC1EP7QObject @ 295 NONAME
	_ZN10QtMobility26QOrganizerItemFetchRequestC2EP7QObject @ 296 NONAME
	_ZN10QtMobility26QOrganizerJournalTimeRange14DefinitionNameE @ 297 NONAME DATA 17
	_ZN10QtMobility26QOrganizerJournalTimeRange18FieldEntryDateTimeE @ 298 NONAME DATA 14
	_ZN10QtMobility27QOrganizerCollectionLocalIdC1EPNS_33QOrganizerCollectionEngineLocalIdE @ 299 NONAME
	_ZN10QtMobility27QOrganizerCollectionLocalIdC1ERKS0_ @ 300 NONAME
	_ZN10QtMobility27QOrganizerCollectionLocalIdC1Ev @ 301 NONAME
	_ZN10QtMobility27QOrganizerCollectionLocalIdC2EPNS_33QOrganizerCollectionEngineLocalIdE @ 302 NONAME
	_ZN10QtMobility27QOrganizerCollectionLocalIdC2ERKS0_ @ 303 NONAME
	_ZN10QtMobility27QOrganizerCollectionLocalIdC2Ev @ 304 NONAME
	_ZN10QtMobility27QOrganizerCollectionLocalIdD1Ev @ 305 NONAME
	_ZN10QtMobility27QOrganizerCollectionLocalIdD2Ev @ 306 NONAME
	_ZN10QtMobility27QOrganizerCollectionLocalIdaSERKS0_ @ 307 NONAME
	_ZN10QtMobility27QOrganizerItemEmailReminder12FieldSubjectE @ 308 NONAME DATA 8
	_ZN10QtMobility27QOrganizerItemEmailReminder14DefinitionNameE @ 309 NONAME DATA 14
	_ZN10QtMobility27QOrganizerItemEmailReminder15FieldRecipientsE @ 310 NONAME DATA 11
	_ZN10QtMobility27QOrganizerItemEmailReminder16FieldAttachmentsE @ 311 NONAME DATA 12
	_ZN10QtMobility27QOrganizerItemEmailReminder9FieldBodyE @ 312 NONAME DATA 5
	_ZN10QtMobility27QOrganizerItemInvalidFilterC1ERKNS_20QOrganizerItemFilterE @ 313 NONAME
	_ZN10QtMobility27QOrganizerItemInvalidFilterC1Ev @ 314 NONAME
	_ZN10QtMobility27QOrganizerItemInvalidFilterC2ERKNS_20QOrganizerItemFilterE @ 315 NONAME
	_ZN10QtMobility27QOrganizerItemInvalidFilterC2Ev @ 316 NONAME
	_ZN10QtMobility27QOrganizerItemLocalIdFilter5clearEv @ 317 NONAME
	_ZN10QtMobility27QOrganizerItemLocalIdFilter6insertERKNS_21QOrganizerItemLocalIdE @ 318 NONAME
	_ZN10QtMobility27QOrganizerItemLocalIdFilter6removeERKNS_21QOrganizerItemLocalIdE @ 319 NONAME
	_ZN10QtMobility27QOrganizerItemLocalIdFilter6setIdsERK5QListINS_21QOrganizerItemLocalIdEE @ 320 NONAME
	_ZN10QtMobility27QOrganizerItemLocalIdFilterC1ERKNS_20QOrganizerItemFilterE @ 321 NONAME
	_ZN10QtMobility27QOrganizerItemLocalIdFilterC1Ev @ 322 NONAME
	_ZN10QtMobility27QOrganizerItemLocalIdFilterC2ERKNS_20QOrganizerItemFilterE @ 323 NONAME
	_ZN10QtMobility27QOrganizerItemLocalIdFilterC2Ev @ 324 NONAME
	_ZN10QtMobility27QOrganizerItemManagerEngine10itemsAddedERK5QListINS_21QOrganizerItemLocalIdEE @ 325 NONAME
	_ZN10QtMobility27QOrganizerItemManagerEngine10removeItemERKNS_21QOrganizerItemLocalIdEPNS_21QOrganizerItemManager5ErrorE @ 326 NONAME
	_ZN10QtMobility27QOrganizerItemManagerEngine10testFilterERKNS_20QOrganizerItemFilterERKNS_14QOrganizerItemE @ 327 NONAME
	_ZN10QtMobility27QOrganizerItemManagerEngine11compareItemERKNS_14QOrganizerItemES3_RK5QListINS_23QOrganizerItemSortOrderEE @ 328 NONAME
	_ZN10QtMobility27QOrganizerItemManagerEngine11dataChangedEv @ 329 NONAME
	_ZN10QtMobility27QOrganizerItemManagerEngine11qt_metacallEN11QMetaObject4CallEiPPv @ 330 NONAME
	_ZN10QtMobility27QOrganizerItemManagerEngine11qt_metacastEPKc @ 331 NONAME
	_ZN10QtMobility27QOrganizerItemManagerEngine11removeItemsERK5QListINS_21QOrganizerItemLocalIdEEP4QMapIiNS_21QOrganizerItemManager5ErrorEEPS8_ @ 332 NONAME
	_ZN10QtMobility27QOrganizerItemManagerEngine12itemsChangedERK5QListINS_21QOrganizerItemLocalIdEE @ 333 NONAME
	_ZN10QtMobility27QOrganizerItemManagerEngine12itemsRemovedERK5QListINS_21QOrganizerItemLocalIdEE @ 334 NONAME
	_ZN10QtMobility27QOrganizerItemManagerEngine12startRequestEPNS_29QOrganizerItemAbstractRequestE @ 335 NONAME
	_ZN10QtMobility27QOrganizerItemManagerEngine13cancelRequestEPNS_29QOrganizerItemAbstractRequestE @ 336 NONAME
	_ZN10QtMobility27QOrganizerItemManagerEngine14compareVariantERK8QVariantS3_N2Qt15CaseSensitivityE @ 337 NONAME
	_ZN10QtMobility27QOrganizerItemManagerEngine14saveCollectionEPNS_20QOrganizerCollectionEPNS_21QOrganizerItemManager5ErrorE @ 338 NONAME
	_ZN10QtMobility27QOrganizerItemManagerEngine16collectionsAddedERK5QListINS_27QOrganizerCollectionLocalIdEE @ 339 NONAME
	_ZN10QtMobility27QOrganizerItemManagerEngine16removeCollectionERKNS_27QOrganizerCollectionLocalIdEPNS_21QOrganizerItemManager5ErrorE @ 340 NONAME
	_ZN10QtMobility27QOrganizerItemManagerEngine16requestDestroyedEPNS_29QOrganizerItemAbstractRequestE @ 341 NONAME
	_ZN10QtMobility27QOrganizerItemManagerEngine16staticMetaObjectE @ 342 NONAME DATA 16
	_ZN10QtMobility27QOrganizerItemManagerEngine17engineLocalItemIdERKNS_21QOrganizerItemLocalIdE @ 343 NONAME
	_ZN10QtMobility27QOrganizerItemManagerEngine17schemaDefinitionsEi @ 344 NONAME
	_ZN10QtMobility27QOrganizerItemManagerEngine18collectionsChangedERK5QListINS_27QOrganizerCollectionLocalIdEE @ 345 NONAME
	_ZN10QtMobility27QOrganizerItemManagerEngine18collectionsRemovedERK5QListINS_27QOrganizerCollectionLocalIdEE @ 346 NONAME
	_ZN10QtMobility27QOrganizerItemManagerEngine18isItemBetweenDatesERKNS_14QOrganizerItemERK9QDateTimeS6_ @ 347 NONAME
	_ZN10QtMobility27QOrganizerItemManagerEngine18updateRequestStateEPNS_29QOrganizerItemAbstractRequestENS1_5StateE @ 348 NONAME
	_ZN10QtMobility27QOrganizerItemManagerEngine19canonicalizedFilterERKNS_20QOrganizerItemFilterE @ 349 NONAME
	_ZN10QtMobility27QOrganizerItemManagerEngine19getStaticMetaObjectEv @ 350 NONAME
	_ZN10QtMobility27QOrganizerItemManagerEngine19setItemCollectionIdEPNS_14QOrganizerItemERKNS_22QOrganizerCollectionIdE @ 351 NONAME
	_ZN10QtMobility27QOrganizerItemManagerEngine20saveDetailDefinitionERKNS_30QOrganizerItemDetailDefinitionERK7QStringPNS_21QOrganizerItemManager5ErrorE @ 352 NONAME
	_ZN10QtMobility27QOrganizerItemManagerEngine21updateItemSaveRequestEPNS_25QOrganizerItemSaveRequestERK5QListINS_14QOrganizerItemEENS_21QOrganizerItemManager5ErrorERK4QMapIiS9_ENS_29QOrganizerItemAbstractRequest5StateE @ 353 NONAME
	_ZN10QtMobility27QOrganizerItemManagerEngine22removeDetailDefinitionERK7QStringS3_PNS_21QOrganizerItemManager5ErrorE @ 354 NONAME
	_ZN10QtMobility27QOrganizerItemManagerEngine22updateItemFetchRequestEPNS_26QOrganizerItemFetchRequestERK5QListINS_14QOrganizerItemEENS_21QOrganizerItemManager5ErrorENS_29QOrganizerItemAbstractRequest5StateE @ 355 NONAME
	_ZN10QtMobility27QOrganizerItemManagerEngine22waitForRequestFinishedEPNS_29QOrganizerItemAbstractRequestEi @ 356 NONAME
	_ZN10QtMobility27QOrganizerItemManagerEngine23engineLocalCollectionIdERKNS_27QOrganizerCollectionLocalIdE @ 357 NONAME
	_ZN10QtMobility27QOrganizerItemManagerEngine23updateItemRemoveRequestEPNS_27QOrganizerItemRemoveRequestENS_21QOrganizerItemManager5ErrorERK4QMapIiS4_ENS_29QOrganizerItemAbstractRequest5StateE @ 358 NONAME
	_ZN10QtMobility27QOrganizerItemManagerEngine26setDetailAccessConstraintsEPNS_20QOrganizerItemDetailE6QFlagsINS1_16AccessConstraintEE @ 359 NONAME
	_ZN10QtMobility27QOrganizerItemManagerEngine27updateCollectionSaveRequestEPNS_31QOrganizerCollectionSaveRequestERK5QListINS_20QOrganizerCollectionEENS_21QOrganizerItemManager5ErrorERK4QMapIiS9_ENS_29QOrganizerItemAbstractRequest5StateE @ 360 NONAME
	_ZN10QtMobility27QOrganizerItemManagerEngine27updateDefinitionSaveRequestEPNS_41QOrganizerItemDetailDefinitionSaveRequestERK5QListINS_30QOrganizerItemDetailDefinitionEENS_21QOrganizerItemManager5ErrorERK4QMapIiS9_ENS_29QOrganizerItemAbstractRequest5StateE @ 361 NONAME
	_ZN10QtMobility27QOrganizerItemManagerEngine28updateCollectionFetchRequestEPNS_32QOrganizerCollectionFetchRequestERK5QListINS_20QOrganizerCollectionEENS_21QOrganizerItemManager5ErrorERK4QMapIiS9_ENS_29QOrganizerItemAbstractRequest5StateE @ 362 NONAME
	_ZN10QtMobility27QOrganizerItemManagerEngine28updateDefinitionFetchRequestEPNS_42QOrganizerItemDetailDefinitionFetchRequestERK4QMapI7QStringNS_30QOrganizerItemDetailDefinitionEENS_21QOrganizerItemManager5ErrorERKS3_IiSA_ENS_29QOrganizerItemAbstractRequest5StateE @ 363 NONAME
	_ZN10QtMobility27QOrganizerItemManagerEngine29updateCollectionRemoveRequestEPNS_33QOrganizerCollectionRemoveRequestENS_21QOrganizerItemManager5ErrorERK4QMapIiS4_ENS_29QOrganizerItemAbstractRequest5StateE @ 364 NONAME
	_ZN10QtMobility27QOrganizerItemManagerEngine29updateDefinitionRemoveRequestEPNS_43QOrganizerItemDetailDefinitionRemoveRequestENS_21QOrganizerItemManager5ErrorERK4QMapIiS4_ENS_29QOrganizerItemAbstractRequest5StateE @ 365 NONAME
	_ZN10QtMobility27QOrganizerItemManagerEngine29updateItemLocalIdFetchRequestEPNS_33QOrganizerItemLocalIdFetchRequestERK5QListINS_21QOrganizerItemLocalIdEENS_21QOrganizerItemManager5ErrorENS_29QOrganizerItemAbstractRequest5StateE @ 366 NONAME
	_ZN10QtMobility27QOrganizerItemManagerEngine30updateItemInstanceFetchRequestEPNS_34QOrganizerItemInstanceFetchRequestERK5QListINS_14QOrganizerItemEENS_21QOrganizerItemManager5ErrorENS_29QOrganizerItemAbstractRequest5StateE @ 367 NONAME
	_ZN10QtMobility27QOrganizerItemManagerEngine31updateItemFetchForExportRequestEPNS_35QOrganizerItemFetchForExportRequestERK5QListINS_14QOrganizerItemEENS_21QOrganizerItemManager5ErrorENS_29QOrganizerItemAbstractRequest5StateE @ 368 NONAME
	_ZN10QtMobility27QOrganizerItemManagerEngine35updateCollectionLocalIdFetchRequestEPNS_39QOrganizerCollectionLocalIdFetchRequestERK5QListINS_27QOrganizerCollectionLocalIdEENS_21QOrganizerItemManager5ErrorENS_29QOrganizerItemAbstractRequest5StateE @ 369 NONAME
	_ZN10QtMobility27QOrganizerItemManagerEngine8saveItemEPNS_14QOrganizerItemERKNS_27QOrganizerCollectionLocalIdEPNS_21QOrganizerItemManager5ErrorE @ 370 NONAME
	_ZN10QtMobility27QOrganizerItemManagerEngine9addSortedEP5QListINS_14QOrganizerItemEERKS2_RKS1_INS_23QOrganizerItemSortOrderEE @ 371 NONAME
	_ZN10QtMobility27QOrganizerItemManagerEngine9saveItemsEP5QListINS_14QOrganizerItemEERKNS_27QOrganizerCollectionLocalIdEP4QMapIiNS_21QOrganizerItemManager5ErrorEEPSA_ @ 372 NONAME
	_ZN10QtMobility27QOrganizerItemManagerEngine9sortItemsERK5QListINS_14QOrganizerItemEERKS1_INS_23QOrganizerItemSortOrderEE @ 373 NONAME
	_ZN10QtMobility27QOrganizerItemRemoveRequest10setItemIdsERK5QListINS_21QOrganizerItemLocalIdEE @ 374 NONAME
	_ZN10QtMobility27QOrganizerItemRemoveRequest11qt_metacallEN11QMetaObject4CallEiPPv @ 375 NONAME
	_ZN10QtMobility27QOrganizerItemRemoveRequest11qt_metacastEPKc @ 376 NONAME
	_ZN10QtMobility27QOrganizerItemRemoveRequest16staticMetaObjectE @ 377 NONAME DATA 16
	_ZN10QtMobility27QOrganizerItemRemoveRequest19getStaticMetaObjectEv @ 378 NONAME
	_ZN10QtMobility27QOrganizerItemRemoveRequest9setItemIdERKNS_21QOrganizerItemLocalIdE @ 379 NONAME
	_ZN10QtMobility27QOrganizerItemRemoveRequestC1EP7QObject @ 380 NONAME
	_ZN10QtMobility27QOrganizerItemRemoveRequestC2EP7QObject @ 381 NONAME
	_ZN10QtMobility28QOrganizerItemInstanceOrigin14DefinitionNameE @ 382 NONAME DATA 15
	_ZN10QtMobility28QOrganizerItemInstanceOrigin17FieldOriginalDateE @ 383 NONAME DATA 13
	_ZN10QtMobility28QOrganizerItemInstanceOrigin18FieldParentLocalIdE @ 384 NONAME DATA 14
	_ZN10QtMobility28QOrganizerItemRecurrenceRule10FieldCountE @ 385 NONAME DATA 6
	_ZN10QtMobility28QOrganizerItemRecurrenceRule10setEndDateERK5QDate @ 386 NONAME
	_ZN10QtMobility28QOrganizerItemRecurrenceRule11FieldMonthsE @ 387 NONAME DATA 7
	_ZN10QtMobility28QOrganizerItemRecurrenceRule11setIntervalEi @ 388 NONAME
	_ZN10QtMobility28QOrganizerItemRecurrenceRule12FieldEndDateE @ 389 NONAME DATA 8
	_ZN10QtMobility28QOrganizerItemRecurrenceRule12setFrequencyENS0_9FrequencyE @ 390 NONAME
	_ZN10QtMobility28QOrganizerItemRecurrenceRule12setPositionsERK5QListIiE @ 391 NONAME
	_ZN10QtMobility28QOrganizerItemRecurrenceRule12setWeekStartEN2Qt9DayOfWeekE @ 392 NONAME
	_ZN10QtMobility28QOrganizerItemRecurrenceRule13FieldIntervalE @ 393 NONAME DATA 9
	_ZN10QtMobility28QOrganizerItemRecurrenceRule13setDaysOfWeekERK5QListIN2Qt9DayOfWeekEE @ 394 NONAME
	_ZN10QtMobility28QOrganizerItemRecurrenceRule13setDaysOfYearERK5QListIiE @ 395 NONAME
	_ZN10QtMobility28QOrganizerItemRecurrenceRule14FieldFrequencyE @ 396 NONAME DATA 10
	_ZN10QtMobility28QOrganizerItemRecurrenceRule14FieldPositionsE @ 397 NONAME DATA 10
	_ZN10QtMobility28QOrganizerItemRecurrenceRule14FieldStartDateE @ 398 NONAME DATA 10
	_ZN10QtMobility28QOrganizerItemRecurrenceRule14FieldWeekStartE @ 399 NONAME DATA 10
	_ZN10QtMobility28QOrganizerItemRecurrenceRule14setDaysOfMonthERK5QListIiE @ 400 NONAME
	_ZN10QtMobility28QOrganizerItemRecurrenceRule14setWeeksOfYearERK5QListIiE @ 401 NONAME
	_ZN10QtMobility28QOrganizerItemRecurrenceRule15FieldDaysOfWeekE @ 402 NONAME DATA 11
	_ZN10QtMobility28QOrganizerItemRecurrenceRule15FieldDaysOfYearE @ 403 NONAME DATA 11
	_ZN10QtMobility28QOrganizerItemRecurrenceRule16FieldDaysOfMonthE @ 404 NONAME DATA 12
	_ZN10QtMobility28QOrganizerItemRecurrenceRule16FieldWeeksOfYearE @ 405 NONAME DATA 12
	_ZN10QtMobility28QOrganizerItemRecurrenceRule16setVariantValuesERK4QMapI7QString8QVariantE @ 406 NONAME
	_ZN10QtMobility28QOrganizerItemRecurrenceRule17fromVariantValuesERK4QMapI7QString8QVariantE @ 407 NONAME
	_ZN10QtMobility28QOrganizerItemRecurrenceRule8setCountEi @ 408 NONAME
	_ZN10QtMobility28QOrganizerItemRecurrenceRule9setMonthsERK5QListINS0_5MonthEE @ 409 NONAME
	_ZN10QtMobility28QOrganizerItemRecurrenceRuleC1ERKS0_ @ 410 NONAME
	_ZN10QtMobility28QOrganizerItemRecurrenceRuleC1Ev @ 411 NONAME
	_ZN10QtMobility28QOrganizerItemRecurrenceRuleC2ERKS0_ @ 412 NONAME
	_ZN10QtMobility28QOrganizerItemRecurrenceRuleC2Ev @ 413 NONAME
	_ZN10QtMobility28QOrganizerItemRecurrenceRuleD1Ev @ 414 NONAME
	_ZN10QtMobility28QOrganizerItemRecurrenceRuleD2Ev @ 415 NONAME
	_ZN10QtMobility28QOrganizerItemRecurrenceRuleaSERKS0_ @ 416 NONAME
	_ZN10QtMobility28QOrganizerItemVisualReminder12FieldDataUrlE @ 417 NONAME DATA 8
	_ZN10QtMobility28QOrganizerItemVisualReminder12FieldMessageE @ 418 NONAME DATA 8
	_ZN10QtMobility28QOrganizerItemVisualReminder14DefinitionNameE @ 419 NONAME DATA 15
	_ZN10QtMobility29QOrganizerCollectionChangeSet11dataChangedEv @ 420 NONAME
	_ZN10QtMobility29QOrganizerCollectionChangeSet11emitSignalsEPNS_27QOrganizerItemManagerEngineE @ 421 NONAME
	_ZN10QtMobility29QOrganizerCollectionChangeSet14setDataChangedEb @ 422 NONAME
	_ZN10QtMobility29QOrganizerCollectionChangeSet21clearAddedCollectionsEv @ 423 NONAME
	_ZN10QtMobility29QOrganizerCollectionChangeSet21insertAddedCollectionERKNS_27QOrganizerCollectionLocalIdE @ 424 NONAME
	_ZN10QtMobility29QOrganizerCollectionChangeSet22insertAddedCollectionsERK5QListINS_27QOrganizerCollectionLocalIdEE @ 425 NONAME
	_ZN10QtMobility29QOrganizerCollectionChangeSet23clearChangedCollectionsEv @ 426 NONAME
	_ZN10QtMobility29QOrganizerCollectionChangeSet23clearRemovedCollectionsEv @ 427 NONAME
	_ZN10QtMobility29QOrganizerCollectionChangeSet23insertChangedCollectionERKNS_27QOrganizerCollectionLocalIdE @ 428 NONAME
	_ZN10QtMobility29QOrganizerCollectionChangeSet23insertRemovedCollectionERKNS_27QOrganizerCollectionLocalIdE @ 429 NONAME
	_ZN10QtMobility29QOrganizerCollectionChangeSet24insertChangedCollectionsERK5QListINS_27QOrganizerCollectionLocalIdEE @ 430 NONAME
	_ZN10QtMobility29QOrganizerCollectionChangeSet24insertRemovedCollectionsERK5QListINS_27QOrganizerCollectionLocalIdEE @ 431 NONAME
	_ZN10QtMobility29QOrganizerCollectionChangeSet8clearAllEv @ 432 NONAME
	_ZN10QtMobility29QOrganizerCollectionChangeSetC1ERKS0_ @ 433 NONAME
	_ZN10QtMobility29QOrganizerCollectionChangeSetC1Ev @ 434 NONAME
	_ZN10QtMobility29QOrganizerCollectionChangeSetC2ERKS0_ @ 435 NONAME
	_ZN10QtMobility29QOrganizerCollectionChangeSetC2Ev @ 436 NONAME
	_ZN10QtMobility29QOrganizerCollectionChangeSetD1Ev @ 437 NONAME
	_ZN10QtMobility29QOrganizerCollectionChangeSetD2Ev @ 438 NONAME
	_ZN10QtMobility29QOrganizerCollectionChangeSetaSERKS0_ @ 439 NONAME
	_ZN10QtMobility29QOrganizerItemAbstractRequest10setManagerEPNS_21QOrganizerItemManagerE @ 440 NONAME
	_ZN10QtMobility29QOrganizerItemAbstractRequest11qt_metacallEN11QMetaObject4CallEiPPv @ 441 NONAME
	_ZN10QtMobility29QOrganizerItemAbstractRequest11qt_metacastEPKc @ 442 NONAME
	_ZN10QtMobility29QOrganizerItemAbstractRequest12stateChangedENS0_5StateE @ 443 NONAME
	_ZN10QtMobility29QOrganizerItemAbstractRequest15waitForFinishedEi @ 444 NONAME
	_ZN10QtMobility29QOrganizerItemAbstractRequest16resultsAvailableEv @ 445 NONAME
	_ZN10QtMobility29QOrganizerItemAbstractRequest16staticMetaObjectE @ 446 NONAME DATA 16
	_ZN10QtMobility29QOrganizerItemAbstractRequest19getStaticMetaObjectEv @ 447 NONAME
	_ZN10QtMobility29QOrganizerItemAbstractRequest5startEv @ 448 NONAME
	_ZN10QtMobility29QOrganizerItemAbstractRequest6cancelEv @ 449 NONAME
	_ZN10QtMobility29QOrganizerItemAbstractRequestC1EPNS_36QOrganizerItemAbstractRequestPrivateEP7QObject @ 450 NONAME
	_ZN10QtMobility29QOrganizerItemAbstractRequestC2EPNS_36QOrganizerItemAbstractRequestPrivateEP7QObject @ 451 NONAME
	_ZN10QtMobility29QOrganizerItemAbstractRequestD0Ev @ 452 NONAME
	_ZN10QtMobility29QOrganizerItemAbstractRequestD1Ev @ 453 NONAME
	_ZN10QtMobility29QOrganizerItemAbstractRequestD2Ev @ 454 NONAME
	_ZN10QtMobility29QOrganizerItemAudibleReminder12FieldDataUrlE @ 455 NONAME DATA 8
	_ZN10QtMobility29QOrganizerItemAudibleReminder14DefinitionNameE @ 456 NONAME DATA 16
	_ZN10QtMobility29QOrganizerItemChangeLogFilter12setEventTypeENS0_9EventTypeE @ 457 NONAME
	_ZN10QtMobility29QOrganizerItemChangeLogFilter8setSinceERK9QDateTime @ 458 NONAME
	_ZN10QtMobility29QOrganizerItemChangeLogFilterC1ENS0_9EventTypeE @ 459 NONAME
	_ZN10QtMobility29QOrganizerItemChangeLogFilterC1ERKNS_20QOrganizerItemFilterE @ 460 NONAME
	_ZN10QtMobility29QOrganizerItemChangeLogFilterC2ENS0_9EventTypeE @ 461 NONAME
	_ZN10QtMobility29QOrganizerItemChangeLogFilterC2ERKNS_20QOrganizerItemFilterE @ 462 NONAME
	_ZN10QtMobility30QOrganizerItemCollectionFilter15setCollectionIdERKNS_27QOrganizerCollectionLocalIdE @ 463 NONAME
	_ZN10QtMobility30QOrganizerItemCollectionFilter16setCollectionIdsERK4QSetINS_27QOrganizerCollectionLocalIdEE @ 464 NONAME
	_ZN10QtMobility30QOrganizerItemCollectionFilterC1ERKNS_20QOrganizerItemFilterE @ 465 NONAME
	_ZN10QtMobility30QOrganizerItemCollectionFilterC1Ev @ 466 NONAME
	_ZN10QtMobility30QOrganizerItemCollectionFilterC2ERKNS_20QOrganizerItemFilterE @ 467 NONAME
	_ZN10QtMobility30QOrganizerItemCollectionFilterC2Ev @ 468 NONAME
	_ZN10QtMobility30QOrganizerItemDetailDefinition11insertFieldERK7QStringRKNS_35QOrganizerItemDetailFieldDefinitionE @ 469 NONAME
	_ZN10QtMobility30QOrganizerItemDetailDefinition11removeFieldERK7QString @ 470 NONAME
	_ZN10QtMobility30QOrganizerItemDetailDefinition7setNameERK7QString @ 471 NONAME
	_ZN10QtMobility30QOrganizerItemDetailDefinition9setFieldsERK4QMapI7QStringNS_35QOrganizerItemDetailFieldDefinitionEE @ 472 NONAME
	_ZN10QtMobility30QOrganizerItemDetailDefinition9setUniqueEb @ 473 NONAME
	_ZN10QtMobility30QOrganizerItemDetailDefinitionC1ERKS0_ @ 474 NONAME
	_ZN10QtMobility30QOrganizerItemDetailDefinitionC1Ev @ 475 NONAME
	_ZN10QtMobility30QOrganizerItemDetailDefinitionC2ERKS0_ @ 476 NONAME
	_ZN10QtMobility30QOrganizerItemDetailDefinitionC2Ev @ 477 NONAME
	_ZN10QtMobility30QOrganizerItemDetailDefinitionD1Ev @ 478 NONAME
	_ZN10QtMobility30QOrganizerItemDetailDefinitionD2Ev @ 479 NONAME
	_ZN10QtMobility30QOrganizerItemDetailDefinitionaSERKS0_ @ 480 NONAME
	_ZN10QtMobility31QOrganizerCollectionSaveRequest11qt_metacallEN11QMetaObject4CallEiPPv @ 481 NONAME
	_ZN10QtMobility31QOrganizerCollectionSaveRequest11qt_metacastEPKc @ 482 NONAME
	_ZN10QtMobility31QOrganizerCollectionSaveRequest13setCollectionERKNS_20QOrganizerCollectionE @ 483 NONAME
	_ZN10QtMobility31QOrganizerCollectionSaveRequest14setCollectionsERK5QListINS_20QOrganizerCollectionEE @ 484 NONAME
	_ZN10QtMobility31QOrganizerCollectionSaveRequest16staticMetaObjectE @ 485 NONAME DATA 16
	_ZN10QtMobility31QOrganizerCollectionSaveRequest19getStaticMetaObjectEv @ 486 NONAME
	_ZN10QtMobility31QOrganizerCollectionSaveRequestC1EP7QObject @ 487 NONAME
	_ZN10QtMobility31QOrganizerCollectionSaveRequestC2EP7QObject @ 488 NONAME
	_ZN10QtMobility31QOrganizerItemDetailRangeFilter13setMatchFlagsE6QFlagsINS_20QOrganizerItemFilter9MatchFlagEE @ 489 NONAME
	_ZN10QtMobility31QOrganizerItemDetailRangeFilter23setDetailDefinitionNameERK7QStringS3_ @ 490 NONAME
	_ZN10QtMobility31QOrganizerItemDetailRangeFilter8setRangeERK8QVariantS3_6QFlagsINS0_9RangeFlagEE @ 491 NONAME
	_ZN10QtMobility31QOrganizerItemDetailRangeFilterC1ERKNS_20QOrganizerItemFilterE @ 492 NONAME
	_ZN10QtMobility31QOrganizerItemDetailRangeFilterC1Ev @ 493 NONAME
	_ZN10QtMobility31QOrganizerItemDetailRangeFilterC2ERKNS_20QOrganizerItemFilterE @ 494 NONAME
	_ZN10QtMobility31QOrganizerItemDetailRangeFilterC2Ev @ 495 NONAME
	_ZN10QtMobility32QOrganizerCollectionFetchRequest11qt_metacallEN11QMetaObject4CallEiPPv @ 496 NONAME
	_ZN10QtMobility32QOrganizerCollectionFetchRequest11qt_metacastEPKc @ 497 NONAME
	_ZN10QtMobility32QOrganizerCollectionFetchRequest16setCollectionIdsERK5QListINS_27QOrganizerCollectionLocalIdEE @ 498 NONAME
	_ZN10QtMobility32QOrganizerCollectionFetchRequest16staticMetaObjectE @ 499 NONAME DATA 16
	_ZN10QtMobility32QOrganizerCollectionFetchRequest19getStaticMetaObjectEv @ 500 NONAME
	_ZN10QtMobility32QOrganizerCollectionFetchRequestC1EP7QObject @ 501 NONAME
	_ZN10QtMobility32QOrganizerCollectionFetchRequestC2EP7QObject @ 502 NONAME
	_ZN10QtMobility32QOrganizerItemIntersectionFilter10setFiltersERK5QListINS_20QOrganizerItemFilterEE @ 503 NONAME
	_ZN10QtMobility32QOrganizerItemIntersectionFilter5clearEv @ 504 NONAME
	_ZN10QtMobility32QOrganizerItemIntersectionFilter6appendERKNS_20QOrganizerItemFilterE @ 505 NONAME
	_ZN10QtMobility32QOrganizerItemIntersectionFilter6removeERKNS_20QOrganizerItemFilterE @ 506 NONAME
	_ZN10QtMobility32QOrganizerItemIntersectionFilter7prependERKNS_20QOrganizerItemFilterE @ 507 NONAME
	_ZN10QtMobility32QOrganizerItemIntersectionFilterC1ERKNS_20QOrganizerItemFilterE @ 508 NONAME
	_ZN10QtMobility32QOrganizerItemIntersectionFilterC1Ev @ 509 NONAME
	_ZN10QtMobility32QOrganizerItemIntersectionFilterC2ERKNS_20QOrganizerItemFilterE @ 510 NONAME
	_ZN10QtMobility32QOrganizerItemIntersectionFilterC2Ev @ 511 NONAME
	_ZN10QtMobility32QOrganizerItemIntersectionFilterlsERKNS_20QOrganizerItemFilterE @ 512 NONAME
	_ZN10QtMobility33QOrganizerCollectionRemoveRequest11qt_metacallEN11QMetaObject4CallEiPPv @ 513 NONAME
	_ZN10QtMobility33QOrganizerCollectionRemoveRequest11qt_metacastEPKc @ 514 NONAME
	_ZN10QtMobility33QOrganizerCollectionRemoveRequest15setCollectionIdERKNS_27QOrganizerCollectionLocalIdE @ 515 NONAME
	_ZN10QtMobility33QOrganizerCollectionRemoveRequest16setCollectionIdsERK5QListINS_27QOrganizerCollectionLocalIdEE @ 516 NONAME
	_ZN10QtMobility33QOrganizerCollectionRemoveRequest16staticMetaObjectE @ 517 NONAME DATA 16
	_ZN10QtMobility33QOrganizerCollectionRemoveRequest19getStaticMetaObjectEv @ 518 NONAME
	_ZN10QtMobility33QOrganizerCollectionRemoveRequestC1EP7QObject @ 519 NONAME
	_ZN10QtMobility33QOrganizerCollectionRemoveRequestC2EP7QObject @ 520 NONAME
	_ZN10QtMobility33QOrganizerItemLocalIdFetchRequest10setEndDateERK9QDateTime @ 521 NONAME
	_ZN10QtMobility33QOrganizerItemLocalIdFetchRequest10setSortingERK5QListINS_23QOrganizerItemSortOrderEE @ 522 NONAME
	_ZN10QtMobility33QOrganizerItemLocalIdFetchRequest11qt_metacallEN11QMetaObject4CallEiPPv @ 523 NONAME
	_ZN10QtMobility33QOrganizerItemLocalIdFetchRequest11qt_metacastEPKc @ 524 NONAME
	_ZN10QtMobility33QOrganizerItemLocalIdFetchRequest12setStartDateERK9QDateTime @ 525 NONAME
	_ZN10QtMobility33QOrganizerItemLocalIdFetchRequest16staticMetaObjectE @ 526 NONAME DATA 16
	_ZN10QtMobility33QOrganizerItemLocalIdFetchRequest19getStaticMetaObjectEv @ 527 NONAME
	_ZN10QtMobility33QOrganizerItemLocalIdFetchRequest9setFilterERKNS_20QOrganizerItemFilterE @ 528 NONAME
	_ZN10QtMobility33QOrganizerItemLocalIdFetchRequestC1EP7QObject @ 529 NONAME
	_ZN10QtMobility33QOrganizerItemLocalIdFetchRequestC2EP7QObject @ 530 NONAME
	_ZN10QtMobility34QOrganizerItemInstanceFetchRequest10setEndDateERK9QDateTime @ 531 NONAME
	_ZN10QtMobility34QOrganizerItemInstanceFetchRequest11qt_metacallEN11QMetaObject4CallEiPPv @ 532 NONAME
	_ZN10QtMobility34QOrganizerItemInstanceFetchRequest11qt_metacastEPKc @ 533 NONAME
	_ZN10QtMobility34QOrganizerItemInstanceFetchRequest12setFetchHintERKNS_23QOrganizerItemFetchHintE @ 534 NONAME
	_ZN10QtMobility34QOrganizerItemInstanceFetchRequest12setGeneratorERKNS_14QOrganizerItemE @ 535 NONAME
	_ZN10QtMobility34QOrganizerItemInstanceFetchRequest12setStartDateERK9QDateTime @ 536 NONAME
	_ZN10QtMobility34QOrganizerItemInstanceFetchRequest16staticMetaObjectE @ 537 NONAME DATA 16
	_ZN10QtMobility34QOrganizerItemInstanceFetchRequest17setMaxOccurrencesEi @ 538 NONAME
	_ZN10QtMobility34QOrganizerItemInstanceFetchRequest19getStaticMetaObjectEv @ 539 NONAME
	_ZN10QtMobility34QOrganizerItemInstanceFetchRequestC1EP7QObject @ 540 NONAME
	_ZN10QtMobility34QOrganizerItemInstanceFetchRequestC2EP7QObject @ 541 NONAME
	_ZN10QtMobility34QOrganizerItemManagerEngineFactoryD0Ev @ 542 NONAME
	_ZN10QtMobility34QOrganizerItemManagerEngineFactoryD1Ev @ 543 NONAME
	_ZN10QtMobility34QOrganizerItemManagerEngineFactoryD2Ev @ 544 NONAME
	_ZN10QtMobility35QOrganizerItemDetailFieldDefinition11setDataTypeEi @ 545 NONAME
	_ZN10QtMobility35QOrganizerItemDetailFieldDefinition18setAllowableValuesE5QListI8QVariantE @ 546 NONAME
	_ZN10QtMobility35QOrganizerItemDetailFieldDefinitionC1ERKS0_ @ 547 NONAME
	_ZN10QtMobility35QOrganizerItemDetailFieldDefinitionC1Ev @ 548 NONAME
	_ZN10QtMobility35QOrganizerItemDetailFieldDefinitionC2ERKS0_ @ 549 NONAME
	_ZN10QtMobility35QOrganizerItemDetailFieldDefinitionC2Ev @ 550 NONAME
	_ZN10QtMobility35QOrganizerItemDetailFieldDefinitionD1Ev @ 551 NONAME
	_ZN10QtMobility35QOrganizerItemDetailFieldDefinitionD2Ev @ 552 NONAME
	_ZN10QtMobility35QOrganizerItemDetailFieldDefinitionaSERKS0_ @ 553 NONAME
	_ZN10QtMobility35QOrganizerItemFetchForExportRequest10setEndDateERK9QDateTime @ 554 NONAME
	_ZN10QtMobility35QOrganizerItemFetchForExportRequest10setSortingERK5QListINS_23QOrganizerItemSortOrderEE @ 555 NONAME
	_ZN10QtMobility35QOrganizerItemFetchForExportRequest11qt_metacallEN11QMetaObject4CallEiPPv @ 556 NONAME
	_ZN10QtMobility35QOrganizerItemFetchForExportRequest11qt_metacastEPKc @ 557 NONAME
	_ZN10QtMobility35QOrganizerItemFetchForExportRequest12setFetchHintERKNS_23QOrganizerItemFetchHintE @ 558 NONAME
	_ZN10QtMobility35QOrganizerItemFetchForExportRequest12setStartDateERK9QDateTime @ 559 NONAME
	_ZN10QtMobility35QOrganizerItemFetchForExportRequest16staticMetaObjectE @ 560 NONAME DATA 16
	_ZN10QtMobility35QOrganizerItemFetchForExportRequest19getStaticMetaObjectEv @ 561 NONAME
	_ZN10QtMobility35QOrganizerItemFetchForExportRequest9setFilterERKNS_20QOrganizerItemFilterE @ 562 NONAME
	_ZN10QtMobility35QOrganizerItemFetchForExportRequestC1EP7QObject @ 563 NONAME
	_ZN10QtMobility35QOrganizerItemFetchForExportRequestC2EP7QObject @ 564 NONAME
	_ZN10QtMobility39QOrganizerCollectionLocalIdFetchRequest11qt_metacallEN11QMetaObject4CallEiPPv @ 565 NONAME
	_ZN10QtMobility39QOrganizerCollectionLocalIdFetchRequest11qt_metacastEPKc @ 566 NONAME
	_ZN10QtMobility39QOrganizerCollectionLocalIdFetchRequest16staticMetaObjectE @ 567 NONAME DATA 16
	_ZN10QtMobility39QOrganizerCollectionLocalIdFetchRequest19getStaticMetaObjectEv @ 568 NONAME
	_ZN10QtMobility39QOrganizerCollectionLocalIdFetchRequestC1EP7QObject @ 569 NONAME
	_ZN10QtMobility39QOrganizerCollectionLocalIdFetchRequestC2EP7QObject @ 570 NONAME
	_ZN10QtMobility41QOrganizerItemDetailDefinitionSaveRequest11qt_metacallEN11QMetaObject4CallEiPPv @ 571 NONAME
	_ZN10QtMobility41QOrganizerItemDetailDefinitionSaveRequest11qt_metacastEPKc @ 572 NONAME
	_ZN10QtMobility41QOrganizerItemDetailDefinitionSaveRequest11setItemTypeERK7QString @ 573 NONAME
	_ZN10QtMobility41QOrganizerItemDetailDefinitionSaveRequest13setDefinitionERKNS_30QOrganizerItemDetailDefinitionE @ 574 NONAME
	_ZN10QtMobility41QOrganizerItemDetailDefinitionSaveRequest14setDefinitionsERK5QListINS_30QOrganizerItemDetailDefinitionEE @ 575 NONAME
	_ZN10QtMobility41QOrganizerItemDetailDefinitionSaveRequest16staticMetaObjectE @ 576 NONAME DATA 16
	_ZN10QtMobility41QOrganizerItemDetailDefinitionSaveRequest19getStaticMetaObjectEv @ 577 NONAME
	_ZN10QtMobility41QOrganizerItemDetailDefinitionSaveRequestC1EP7QObject @ 578 NONAME
	_ZN10QtMobility41QOrganizerItemDetailDefinitionSaveRequestC2EP7QObject @ 579 NONAME
	_ZN10QtMobility42QOrganizerItemDetailDefinitionFetchRequest11qt_metacallEN11QMetaObject4CallEiPPv @ 580 NONAME
	_ZN10QtMobility42QOrganizerItemDetailDefinitionFetchRequest11qt_metacastEPKc @ 581 NONAME
	_ZN10QtMobility42QOrganizerItemDetailDefinitionFetchRequest11setItemTypeERK7QString @ 582 NONAME
	_ZN10QtMobility42QOrganizerItemDetailDefinitionFetchRequest16staticMetaObjectE @ 583 NONAME DATA 16
	_ZN10QtMobility42QOrganizerItemDetailDefinitionFetchRequest17setDefinitionNameERK7QString @ 584 NONAME
	_ZN10QtMobility42QOrganizerItemDetailDefinitionFetchRequest18setDefinitionNamesERK11QStringList @ 585 NONAME
	_ZN10QtMobility42QOrganizerItemDetailDefinitionFetchRequest19getStaticMetaObjectEv @ 586 NONAME
	_ZN10QtMobility42QOrganizerItemDetailDefinitionFetchRequestC1EP7QObject @ 587 NONAME
	_ZN10QtMobility42QOrganizerItemDetailDefinitionFetchRequestC2EP7QObject @ 588 NONAME
	_ZN10QtMobility43QOrganizerItemDetailDefinitionRemoveRequest11qt_metacallEN11QMetaObject4CallEiPPv @ 589 NONAME
	_ZN10QtMobility43QOrganizerItemDetailDefinitionRemoveRequest11qt_metacastEPKc @ 590 NONAME
	_ZN10QtMobility43QOrganizerItemDetailDefinitionRemoveRequest11setItemTypeERK7QString @ 591 NONAME
	_ZN10QtMobility43QOrganizerItemDetailDefinitionRemoveRequest16staticMetaObjectE @ 592 NONAME DATA 16
	_ZN10QtMobility43QOrganizerItemDetailDefinitionRemoveRequest17setDefinitionNameERK7QString @ 593 NONAME
	_ZN10QtMobility43QOrganizerItemDetailDefinitionRemoveRequest18setDefinitionNamesERK11QStringList @ 594 NONAME
	_ZN10QtMobility43QOrganizerItemDetailDefinitionRemoveRequest19getStaticMetaObjectEv @ 595 NONAME
	_ZN10QtMobility43QOrganizerItemDetailDefinitionRemoveRequestC1EP7QObject @ 596 NONAME
	_ZN10QtMobility43QOrganizerItemDetailDefinitionRemoveRequestC2EP7QObject @ 597 NONAME
	_ZN10QtMobility5qHashERKNS_14QOrganizerItemE @ 598 NONAME
	_ZN10QtMobility5qHashERKNS_16QOrganizerItemIdE @ 599 NONAME
	_ZN10QtMobility5qHashERKNS_20QOrganizerCollectionE @ 600 NONAME
	_ZN10QtMobility5qHashERKNS_20QOrganizerItemDetailE @ 601 NONAME
	_ZN10QtMobility5qHashERKNS_21QOrganizerItemLocalIdE @ 602 NONAME
	_ZN10QtMobility5qHashERKNS_22QOrganizerCollectionIdE @ 603 NONAME
	_ZN10QtMobility5qHashERKNS_27QOrganizerCollectionLocalIdE @ 604 NONAME
	_ZN10QtMobilityanERKNS_20QOrganizerItemFilterES2_ @ 605 NONAME
	_ZN10QtMobilitylsE6QDebugRKNS_14QOrganizerItemE @ 606 NONAME
	_ZN10QtMobilitylsE6QDebugRKNS_16QOrganizerItemIdE @ 607 NONAME
	_ZN10QtMobilitylsE6QDebugRKNS_20QOrganizerCollectionE @ 608 NONAME
	_ZN10QtMobilitylsE6QDebugRKNS_20QOrganizerItemDetailE @ 609 NONAME
	_ZN10QtMobilitylsE6QDebugRKNS_21QOrganizerItemLocalIdE @ 610 NONAME
	_ZN10QtMobilitylsE6QDebugRKNS_22QOrganizerCollectionIdE @ 611 NONAME
	_ZN10QtMobilitylsE6QDebugRKNS_27QOrganizerCollectionLocalIdE @ 612 NONAME
	_ZN10QtMobilitylsER11QDataStreamRKNS_14QOrganizerItemE @ 613 NONAME
	_ZN10QtMobilitylsER11QDataStreamRKNS_16QOrganizerItemIdE @ 614 NONAME
	_ZN10QtMobilitylsER11QDataStreamRKNS_20QOrganizerCollectionE @ 615 NONAME
	_ZN10QtMobilitylsER11QDataStreamRKNS_20QOrganizerItemDetailE @ 616 NONAME
	_ZN10QtMobilitylsER11QDataStreamRKNS_20QOrganizerItemFilterE @ 617 NONAME
	_ZN10QtMobilitylsER11QDataStreamRKNS_21QOrganizerItemLocalIdE @ 618 NONAME
	_ZN10QtMobilitylsER11QDataStreamRKNS_22QOrganizerCollectionIdE @ 619 NONAME
	_ZN10QtMobilitylsER11QDataStreamRKNS_23QOrganizerItemFetchHintE @ 620 NONAME
	_ZN10QtMobilitylsER11QDataStreamRKNS_23QOrganizerItemSortOrderE @ 621 NONAME
	_ZN10QtMobilitylsER11QDataStreamRKNS_27QOrganizerCollectionLocalIdE @ 622 NONAME
	_ZN10QtMobilitylsER11QDataStreamRKNS_30QOrganizerItemDetailDefinitionE @ 623 NONAME
	_ZN10QtMobilitylsER11QDataStreamRKNS_35QOrganizerItemDetailFieldDefinitionE @ 624 NONAME
	_ZN10QtMobilityorERKNS_20QOrganizerItemFilterES2_ @ 625 NONAME
	_ZN10QtMobilityrsER11QDataStreamRNS_14QOrganizerItemE @ 626 NONAME
	_ZN10QtMobilityrsER11QDataStreamRNS_16QOrganizerItemIdE @ 627 NONAME
	_ZN10QtMobilityrsER11QDataStreamRNS_20QOrganizerCollectionE @ 628 NONAME
	_ZN10QtMobilityrsER11QDataStreamRNS_20QOrganizerItemDetailE @ 629 NONAME
	_ZN10QtMobilityrsER11QDataStreamRNS_20QOrganizerItemFilterE @ 630 NONAME
	_ZN10QtMobilityrsER11QDataStreamRNS_22QOrganizerCollectionIdE @ 631 NONAME
	_ZN10QtMobilityrsER11QDataStreamRNS_23QOrganizerItemFetchHintE @ 632 NONAME
	_ZN10QtMobilityrsER11QDataStreamRNS_23QOrganizerItemSortOrderE @ 633 NONAME
	_ZN10QtMobilityrsER11QDataStreamRNS_30QOrganizerItemDetailDefinitionE @ 634 NONAME
	_ZN10QtMobilityrsER11QDataStreamRNS_35QOrganizerItemDetailFieldDefinitionE @ 635 NONAME
	_ZNK10QtMobility14QOrganizerItem11descriptionEv @ 636 NONAME
	_ZNK10QtMobility14QOrganizerItem12collectionIdEv @ 637 NONAME
	_ZNK10QtMobility14QOrganizerItem12displayLabelEv @ 638 NONAME
	_ZNK10QtMobility14QOrganizerItem2idEv @ 639 NONAME
	_ZNK10QtMobility14QOrganizerItem4guidEv @ 640 NONAME
	_ZNK10QtMobility14QOrganizerItem4typeEv @ 641 NONAME
	_ZNK10QtMobility14QOrganizerItem6detailEPKc @ 642 NONAME
	_ZNK10QtMobility14QOrganizerItem6detailERK7QString @ 643 NONAME
	_ZNK10QtMobility14QOrganizerItem7detailsEPKc @ 644 NONAME
	_ZNK10QtMobility14QOrganizerItem7detailsEPKcS2_RK7QString @ 645 NONAME
	_ZNK10QtMobility14QOrganizerItem7detailsERK7QString @ 646 NONAME
	_ZNK10QtMobility14QOrganizerItem7detailsERK7QStringS3_S3_ @ 647 NONAME
	_ZNK10QtMobility14QOrganizerItem7isEmptyEv @ 648 NONAME
	_ZNK10QtMobility14QOrganizerItem7localIdEv @ 649 NONAME
	_ZNK10QtMobility14QOrganizerItem8commentsEv @ 650 NONAME
	_ZNK10QtMobility14QOrganizerItemeqERKS0_ @ 651 NONAME
	_ZNK10QtMobility14QOrganizerTodo11dueDateTimeEv @ 652 NONAME
	_ZNK10QtMobility14QOrganizerTodo13startDateTimeEv @ 653 NONAME
	_ZNK10QtMobility14QOrganizerTodo14exceptionDatesEv @ 654 NONAME
	_ZNK10QtMobility14QOrganizerTodo14exceptionRulesEv @ 655 NONAME
	_ZNK10QtMobility14QOrganizerTodo15isTimeSpecifiedEv @ 656 NONAME
	_ZNK10QtMobility14QOrganizerTodo15recurrenceDatesEv @ 657 NONAME
	_ZNK10QtMobility14QOrganizerTodo15recurrenceRulesEv @ 658 NONAME
	_ZNK10QtMobility14QOrganizerTodo16finishedDateTimeEv @ 659 NONAME
	_ZNK10QtMobility14QOrganizerTodo18progressPercentageEv @ 660 NONAME
	_ZNK10QtMobility14QOrganizerTodo6statusEv @ 661 NONAME
	_ZNK10QtMobility14QOrganizerTodo8priorityEv @ 662 NONAME
	_ZNK10QtMobility15QOrganizerEvent11endDateTimeEv @ 663 NONAME
	_ZNK10QtMobility15QOrganizerEvent13startDateTimeEv @ 664 NONAME
	_ZNK10QtMobility15QOrganizerEvent14exceptionDatesEv @ 665 NONAME
	_ZNK10QtMobility15QOrganizerEvent14exceptionRulesEv @ 666 NONAME
	_ZNK10QtMobility15QOrganizerEvent15isTimeSpecifiedEv @ 667 NONAME
	_ZNK10QtMobility15QOrganizerEvent15recurrenceDatesEv @ 668 NONAME
	_ZNK10QtMobility15QOrganizerEvent15recurrenceRulesEv @ 669 NONAME
	_ZNK10QtMobility15QOrganizerEvent8locationEv @ 670 NONAME
	_ZNK10QtMobility15QOrganizerEvent8priorityEv @ 671 NONAME
	_ZNK10QtMobility16QOrganizerItemId10managerUriEv @ 672 NONAME
	_ZNK10QtMobility16QOrganizerItemId6isNullEv @ 673 NONAME
	_ZNK10QtMobility16QOrganizerItemId7localIdEv @ 674 NONAME
	_ZNK10QtMobility16QOrganizerItemIdeqERKS0_ @ 675 NONAME
	_ZNK10QtMobility16QOrganizerItemIdltERKS0_ @ 676 NONAME
	_ZNK10QtMobility16QOrganizerItemIdneERKS0_ @ 677 NONAME
	_ZNK10QtMobility17QOrganizerJournal8dateTimeEv @ 678 NONAME
	_ZNK10QtMobility20QOrganizerCollection2idEv @ 679 NONAME
	_ZNK10QtMobility20QOrganizerCollection7localIdEv @ 680 NONAME
	_ZNK10QtMobility20QOrganizerCollection8metaDataEv @ 681 NONAME
	_ZNK10QtMobility20QOrganizerCollectioneqERKS0_ @ 682 NONAME
	_ZNK10QtMobility20QOrganizerItemDetail12variantValueEPKc @ 683 NONAME
	_ZNK10QtMobility20QOrganizerItemDetail12variantValueERK7QString @ 684 NONAME
	_ZNK10QtMobility20QOrganizerItemDetail13variantValuesEv @ 685 NONAME
	_ZNK10QtMobility20QOrganizerItemDetail14definitionNameEv @ 686 NONAME
	_ZNK10QtMobility20QOrganizerItemDetail17accessConstraintsEv @ 687 NONAME
	_ZNK10QtMobility20QOrganizerItemDetail3keyEv @ 688 NONAME
	_ZNK10QtMobility20QOrganizerItemDetail5valueEPKc @ 689 NONAME
	_ZNK10QtMobility20QOrganizerItemDetail5valueERK7QString @ 690 NONAME
	_ZNK10QtMobility20QOrganizerItemDetail7isEmptyEv @ 691 NONAME
	_ZNK10QtMobility20QOrganizerItemDetail8hasValueEPKc @ 692 NONAME
	_ZNK10QtMobility20QOrganizerItemDetail8hasValueERK7QString @ 693 NONAME
	_ZNK10QtMobility20QOrganizerItemDetaileqERKS0_ @ 694 NONAME
	_ZNK10QtMobility20QOrganizerItemFilter4typeEv @ 695 NONAME
	_ZNK10QtMobility20QOrganizerItemFiltereqERKS0_ @ 696 NONAME
	_ZNK10QtMobility21QOrganizerItemLocalId6isNullEv @ 697 NONAME
	_ZNK10QtMobility21QOrganizerItemLocalIdeqERKS0_ @ 698 NONAME
	_ZNK10QtMobility21QOrganizerItemLocalIdltERKS0_ @ 699 NONAME
	_ZNK10QtMobility21QOrganizerItemLocalIdneERKS0_ @ 700 NONAME
	_ZNK10QtMobility21QOrganizerItemManager10hasFeatureENS0_14ManagerFeatureERK7QString @ 701 NONAME
	_ZNK10QtMobility21QOrganizerItemManager10managerUriEv @ 702 NONAME
	_ZNK10QtMobility21QOrganizerItemManager10metaObjectEv @ 703 NONAME
	_ZNK10QtMobility21QOrganizerItemManager11collectionsERK5QListINS_27QOrganizerCollectionLocalIdEE @ 704 NONAME
	_ZNK10QtMobility21QOrganizerItemManager11managerNameEv @ 705 NONAME
	_ZNK10QtMobility21QOrganizerItemManager13collectionIdsEv @ 706 NONAME
	_ZNK10QtMobility21QOrganizerItemManager13itemInstancesERKNS_14QOrganizerItemERK9QDateTimeS6_iRKNS_23QOrganizerItemFetchHintE @ 707 NONAME
	_ZNK10QtMobility21QOrganizerItemManager14itemsForExportERK9QDateTimeS3_RKNS_20QOrganizerItemFilterERK5QListINS_23QOrganizerItemSortOrderEERKNS_23QOrganizerItemFetchHintE @ 708 NONAME
	_ZNK10QtMobility21QOrganizerItemManager14managerVersionEv @ 709 NONAME
	_ZNK10QtMobility21QOrganizerItemManager16detailDefinitionERK7QStringS3_ @ 710 NONAME
	_ZNK10QtMobility21QOrganizerItemManager17detailDefinitionsERK7QString @ 711 NONAME
	_ZNK10QtMobility21QOrganizerItemManager17isFilterSupportedERKNS_20QOrganizerItemFilterE @ 712 NONAME
	_ZNK10QtMobility21QOrganizerItemManager17managerParametersEv @ 713 NONAME
	_ZNK10QtMobility21QOrganizerItemManager18supportedItemTypesEv @ 714 NONAME
	_ZNK10QtMobility21QOrganizerItemManager19defaultCollectionIdEv @ 715 NONAME
	_ZNK10QtMobility21QOrganizerItemManager4itemERKNS_21QOrganizerItemLocalIdERKNS_23QOrganizerItemFetchHintE @ 716 NONAME
	_ZNK10QtMobility21QOrganizerItemManager5errorEv @ 717 NONAME
	_ZNK10QtMobility21QOrganizerItemManager5itemsERK9QDateTimeS3_RKNS_20QOrganizerItemFilterERK5QListINS_23QOrganizerItemSortOrderEERKNS_23QOrganizerItemFetchHintE @ 718 NONAME
	_ZNK10QtMobility21QOrganizerItemManager5itemsERKNS_20QOrganizerItemFilterERK5QListINS_23QOrganizerItemSortOrderEERKNS_23QOrganizerItemFetchHintE @ 719 NONAME
	_ZNK10QtMobility21QOrganizerItemManager7itemIdsERK9QDateTimeS3_RKNS_20QOrganizerItemFilterERK5QListINS_23QOrganizerItemSortOrderEE @ 720 NONAME
	_ZNK10QtMobility21QOrganizerItemManager7itemIdsERKNS_20QOrganizerItemFilterERK5QListINS_23QOrganizerItemSortOrderEE @ 721 NONAME
	_ZNK10QtMobility21QOrganizerItemManager8errorMapEv @ 722 NONAME
	_ZNK10QtMobility22QOrganizerCollectionId10managerUriEv @ 723 NONAME
	_ZNK10QtMobility22QOrganizerCollectionId6isNullEv @ 724 NONAME
	_ZNK10QtMobility22QOrganizerCollectionId7localIdEv @ 725 NONAME
	_ZNK10QtMobility22QOrganizerCollectionIdeqERKS0_ @ 726 NONAME
	_ZNK10QtMobility22QOrganizerCollectionIdltERKS0_ @ 727 NONAME
	_ZNK10QtMobility22QOrganizerCollectionIdneERKS0_ @ 728 NONAME
	_ZNK10QtMobility23QOrganizerItemChangeSet10addedItemsEv @ 729 NONAME
	_ZNK10QtMobility23QOrganizerItemChangeSet12changedItemsEv @ 730 NONAME
	_ZNK10QtMobility23QOrganizerItemChangeSet12removedItemsEv @ 731 NONAME
	_ZNK10QtMobility23QOrganizerItemFetchHint17optimizationHintsEv @ 732 NONAME
	_ZNK10QtMobility23QOrganizerItemFetchHint21detailDefinitionsHintEv @ 733 NONAME
	_ZNK10QtMobility23QOrganizerItemSortOrder11blankPolicyEv @ 734 NONAME
	_ZNK10QtMobility23QOrganizerItemSortOrder15caseSensitivityEv @ 735 NONAME
	_ZNK10QtMobility23QOrganizerItemSortOrder15detailFieldNameEv @ 736 NONAME
	_ZNK10QtMobility23QOrganizerItemSortOrder20detailDefinitionNameEv @ 737 NONAME
	_ZNK10QtMobility23QOrganizerItemSortOrder7isValidEv @ 738 NONAME
	_ZNK10QtMobility23QOrganizerItemSortOrder9directionEv @ 739 NONAME
	_ZNK10QtMobility23QOrganizerItemSortOrdereqERKS0_ @ 740 NONAME
	_ZNK10QtMobility24QOrganizerTodoOccurrence11dueDateTimeEv @ 741 NONAME
	_ZNK10QtMobility24QOrganizerTodoOccurrence12originalDateEv @ 742 NONAME
	_ZNK10QtMobility24QOrganizerTodoOccurrence13parentLocalIdEv @ 743 NONAME
	_ZNK10QtMobility24QOrganizerTodoOccurrence13startDateTimeEv @ 744 NONAME
	_ZNK10QtMobility24QOrganizerTodoOccurrence16finishedDateTimeEv @ 745 NONAME
	_ZNK10QtMobility24QOrganizerTodoOccurrence18progressPercentageEv @ 746 NONAME
	_ZNK10QtMobility24QOrganizerTodoOccurrence6statusEv @ 747 NONAME
	_ZNK10QtMobility24QOrganizerTodoOccurrence8priorityEv @ 748 NONAME
	_ZNK10QtMobility25QOrganizerEventOccurrence11endDateTimeEv @ 749 NONAME
	_ZNK10QtMobility25QOrganizerEventOccurrence12originalDateEv @ 750 NONAME
	_ZNK10QtMobility25QOrganizerEventOccurrence13parentLocalIdEv @ 751 NONAME
	_ZNK10QtMobility25QOrganizerEventOccurrence13startDateTimeEv @ 752 NONAME
	_ZNK10QtMobility25QOrganizerEventOccurrence8locationEv @ 753 NONAME
	_ZNK10QtMobility25QOrganizerEventOccurrence8priorityEv @ 754 NONAME
	_ZNK10QtMobility25QOrganizerItemSaveRequest10metaObjectEv @ 755 NONAME
	_ZNK10QtMobility25QOrganizerItemSaveRequest12collectionIdEv @ 756 NONAME
	_ZNK10QtMobility25QOrganizerItemSaveRequest5itemsEv @ 757 NONAME
	_ZNK10QtMobility25QOrganizerItemSaveRequest8errorMapEv @ 758 NONAME
	_ZNK10QtMobility25QOrganizerItemUnionFilter7filtersEv @ 759 NONAME
	_ZNK10QtMobility26QOrganizerItemDetailFilter10matchFlagsEv @ 760 NONAME
	_ZNK10QtMobility26QOrganizerItemDetailFilter15detailFieldNameEv @ 761 NONAME
	_ZNK10QtMobility26QOrganizerItemDetailFilter20detailDefinitionNameEv @ 762 NONAME
	_ZNK10QtMobility26QOrganizerItemDetailFilter5valueEv @ 763 NONAME
	_ZNK10QtMobility26QOrganizerItemFetchRequest10metaObjectEv @ 764 NONAME
	_ZNK10QtMobility26QOrganizerItemFetchRequest5itemsEv @ 765 NONAME
	_ZNK10QtMobility26QOrganizerItemFetchRequest6filterEv @ 766 NONAME
	_ZNK10QtMobility26QOrganizerItemFetchRequest7endDateEv @ 767 NONAME
	_ZNK10QtMobility26QOrganizerItemFetchRequest7sortingEv @ 768 NONAME
	_ZNK10QtMobility26QOrganizerItemFetchRequest9fetchHintEv @ 769 NONAME
	_ZNK10QtMobility26QOrganizerItemFetchRequest9startDateEv @ 770 NONAME
	_ZNK10QtMobility27QOrganizerCollectionLocalId6isNullEv @ 771 NONAME
	_ZNK10QtMobility27QOrganizerCollectionLocalIdeqERKS0_ @ 772 NONAME
	_ZNK10QtMobility27QOrganizerCollectionLocalIdltERKS0_ @ 773 NONAME
	_ZNK10QtMobility27QOrganizerCollectionLocalIdneERKS0_ @ 774 NONAME
	_ZNK10QtMobility27QOrganizerItemLocalIdFilter3idsEv @ 775 NONAME
	_ZNK10QtMobility27QOrganizerItemManagerEngine10hasFeatureENS_21QOrganizerItemManager14ManagerFeatureERK7QString @ 776 NONAME
	_ZNK10QtMobility27QOrganizerItemManagerEngine10managerUriEv @ 777 NONAME
	_ZNK10QtMobility27QOrganizerItemManagerEngine10metaObjectEv @ 778 NONAME
	_ZNK10QtMobility27QOrganizerItemManagerEngine11collectionsERK5QListINS_27QOrganizerCollectionLocalIdEEP4QMapIiNS_21QOrganizerItemManager5ErrorEEPS8_ @ 779 NONAME
	_ZNK10QtMobility27QOrganizerItemManagerEngine11managerNameEv @ 780 NONAME
	_ZNK10QtMobility27QOrganizerItemManagerEngine12validateItemERKNS_14QOrganizerItemEPNS_21QOrganizerItemManager5ErrorE @ 781 NONAME
	_ZNK10QtMobility27QOrganizerItemManagerEngine13collectionIdsEPNS_21QOrganizerItemManager5ErrorE @ 782 NONAME
	_ZNK10QtMobility27QOrganizerItemManagerEngine13itemInstancesERKNS_14QOrganizerItemERK9QDateTimeS6_iRKNS_23QOrganizerItemFetchHintEPNS_21QOrganizerItemManager5ErrorE @ 783 NONAME
	_ZNK10QtMobility27QOrganizerItemManagerEngine14compatibleItemERKNS_14QOrganizerItemEPNS_21QOrganizerItemManager5ErrorE @ 784 NONAME
	_ZNK10QtMobility27QOrganizerItemManagerEngine14itemsForExportERK9QDateTimeS3_RKNS_20QOrganizerItemFilterERK5QListINS_23QOrganizerItemSortOrderEERKNS_23QOrganizerItemFetchHintEPNS_21QOrganizerItemManager5ErrorE @ 785 NONAME
	_ZNK10QtMobility27QOrganizerItemManagerEngine16detailDefinitionERK7QStringS3_PNS_21QOrganizerItemManager5ErrorE @ 786 NONAME
	_ZNK10QtMobility27QOrganizerItemManagerEngine17detailDefinitionsERK7QStringPNS_21QOrganizerItemManager5ErrorE @ 787 NONAME
	_ZNK10QtMobility27QOrganizerItemManagerEngine17isFilterSupportedERKNS_20QOrganizerItemFilterE @ 788 NONAME
	_ZNK10QtMobility27QOrganizerItemManagerEngine17managerParametersEv @ 789 NONAME
	_ZNK10QtMobility27QOrganizerItemManagerEngine18supportedItemTypesEv @ 790 NONAME
	_ZNK10QtMobility27QOrganizerItemManagerEngine18validateCollectionERKNS_20QOrganizerCollectionEPNS_21QOrganizerItemManager5ErrorE @ 791 NONAME
	_ZNK10QtMobility27QOrganizerItemManagerEngine18validateDefinitionERKNS_30QOrganizerItemDetailDefinitionEPNS_21QOrganizerItemManager5ErrorE @ 792 NONAME
	_ZNK10QtMobility27QOrganizerItemManagerEngine19defaultCollectionIdEPNS_21QOrganizerItemManager5ErrorE @ 793 NONAME
	_ZNK10QtMobility27QOrganizerItemManagerEngine20compatibleCollectionERKNS_20QOrganizerCollectionEPNS_21QOrganizerItemManager5ErrorE @ 794 NONAME
	_ZNK10QtMobility27QOrganizerItemManagerEngine4itemERKNS_21QOrganizerItemLocalIdERKNS_23QOrganizerItemFetchHintEPNS_21QOrganizerItemManager5ErrorE @ 795 NONAME
	_ZNK10QtMobility27QOrganizerItemManagerEngine5itemsERK9QDateTimeS3_RKNS_20QOrganizerItemFilterERK5QListINS_23QOrganizerItemSortOrderEERKNS_23QOrganizerItemFetchHintEPNS_21QOrganizerItemManager5ErrorE @ 796 NONAME
	_ZNK10QtMobility27QOrganizerItemManagerEngine7itemIdsERK9QDateTimeS3_RKNS_20QOrganizerItemFilterERK5QListINS_23QOrganizerItemSortOrderEEPNS_21QOrganizerItemManager5ErrorE @ 797 NONAME
	_ZNK10QtMobility27QOrganizerItemRemoveRequest10metaObjectEv @ 798 NONAME
	_ZNK10QtMobility27QOrganizerItemRemoveRequest7itemIdsEv @ 799 NONAME
	_ZNK10QtMobility27QOrganizerItemRemoveRequest8errorMapEv @ 800 NONAME
	_ZNK10QtMobility28QOrganizerItemRecurrenceRule10daysOfWeekEv @ 801 NONAME
	_ZNK10QtMobility28QOrganizerItemRecurrenceRule10daysOfYearEv @ 802 NONAME
	_ZNK10QtMobility28QOrganizerItemRecurrenceRule11daysOfMonthEv @ 803 NONAME
	_ZNK10QtMobility28QOrganizerItemRecurrenceRule11weeksOfYearEv @ 804 NONAME
	_ZNK10QtMobility28QOrganizerItemRecurrenceRule13variantValuesEv @ 805 NONAME
	_ZNK10QtMobility28QOrganizerItemRecurrenceRule5countEv @ 806 NONAME
	_ZNK10QtMobility28QOrganizerItemRecurrenceRule6monthsEv @ 807 NONAME
	_ZNK10QtMobility28QOrganizerItemRecurrenceRule7endDateEv @ 808 NONAME
	_ZNK10QtMobility28QOrganizerItemRecurrenceRule8intervalEv @ 809 NONAME
	_ZNK10QtMobility28QOrganizerItemRecurrenceRule9frequencyEv @ 810 NONAME
	_ZNK10QtMobility28QOrganizerItemRecurrenceRule9positionsEv @ 811 NONAME
	_ZNK10QtMobility28QOrganizerItemRecurrenceRule9weekStartEv @ 812 NONAME
	_ZNK10QtMobility29QOrganizerCollectionChangeSet16addedCollectionsEv @ 813 NONAME
	_ZNK10QtMobility29QOrganizerCollectionChangeSet18changedCollectionsEv @ 814 NONAME
	_ZNK10QtMobility29QOrganizerCollectionChangeSet18removedCollectionsEv @ 815 NONAME
	_ZNK10QtMobility29QOrganizerItemAbstractRequest10isCanceledEv @ 816 NONAME
	_ZNK10QtMobility29QOrganizerItemAbstractRequest10isFinishedEv @ 817 NONAME
	_ZNK10QtMobility29QOrganizerItemAbstractRequest10isInactiveEv @ 818 NONAME
	_ZNK10QtMobility29QOrganizerItemAbstractRequest10metaObjectEv @ 819 NONAME
	_ZNK10QtMobility29QOrganizerItemAbstractRequest4typeEv @ 820 NONAME
	_ZNK10QtMobility29QOrganizerItemAbstractRequest5errorEv @ 821 NONAME
	_ZNK10QtMobility29QOrganizerItemAbstractRequest5stateEv @ 822 NONAME
	_ZNK10QtMobility29QOrganizerItemAbstractRequest7managerEv @ 823 NONAME
	_ZNK10QtMobility29QOrganizerItemAbstractRequest8isActiveEv @ 824 NONAME
	_ZNK10QtMobility29QOrganizerItemChangeLogFilter5sinceEv @ 825 NONAME
	_ZNK10QtMobility29QOrganizerItemChangeLogFilter9eventTypeEv @ 826 NONAME
	_ZNK10QtMobility30QOrganizerItemCollectionFilter13collectionIdsEv @ 827 NONAME
	_ZNK10QtMobility30QOrganizerItemDetailDefinition4nameEv @ 828 NONAME
	_ZNK10QtMobility30QOrganizerItemDetailDefinition6fieldsEv @ 829 NONAME
	_ZNK10QtMobility30QOrganizerItemDetailDefinition7isEmptyEv @ 830 NONAME
	_ZNK10QtMobility30QOrganizerItemDetailDefinition8isUniqueEv @ 831 NONAME
	_ZNK10QtMobility30QOrganizerItemDetailDefinitioneqERKS0_ @ 832 NONAME
	_ZNK10QtMobility31QOrganizerCollectionSaveRequest10metaObjectEv @ 833 NONAME
	_ZNK10QtMobility31QOrganizerCollectionSaveRequest11collectionsEv @ 834 NONAME
	_ZNK10QtMobility31QOrganizerCollectionSaveRequest8errorMapEv @ 835 NONAME
	_ZNK10QtMobility31QOrganizerItemDetailRangeFilter10matchFlagsEv @ 836 NONAME
	_ZNK10QtMobility31QOrganizerItemDetailRangeFilter10rangeFlagsEv @ 837 NONAME
	_ZNK10QtMobility31QOrganizerItemDetailRangeFilter15detailFieldNameEv @ 838 NONAME
	_ZNK10QtMobility31QOrganizerItemDetailRangeFilter20detailDefinitionNameEv @ 839 NONAME
	_ZNK10QtMobility31QOrganizerItemDetailRangeFilter8maxValueEv @ 840 NONAME
	_ZNK10QtMobility31QOrganizerItemDetailRangeFilter8minValueEv @ 841 NONAME
	_ZNK10QtMobility32QOrganizerCollectionFetchRequest10metaObjectEv @ 842 NONAME
	_ZNK10QtMobility32QOrganizerCollectionFetchRequest11collectionsEv @ 843 NONAME
	_ZNK10QtMobility32QOrganizerCollectionFetchRequest13collectionIdsEv @ 844 NONAME
	_ZNK10QtMobility32QOrganizerCollectionFetchRequest8errorMapEv @ 845 NONAME
	_ZNK10QtMobility32QOrganizerItemIntersectionFilter7filtersEv @ 846 NONAME
	_ZNK10QtMobility33QOrganizerCollectionRemoveRequest10metaObjectEv @ 847 NONAME
	_ZNK10QtMobility33QOrganizerCollectionRemoveRequest13collectionIdsEv @ 848 NONAME
	_ZNK10QtMobility33QOrganizerCollectionRemoveRequest8errorMapEv @ 849 NONAME
	_ZNK10QtMobility33QOrganizerItemLocalIdFetchRequest10metaObjectEv @ 850 NONAME
	_ZNK10QtMobility33QOrganizerItemLocalIdFetchRequest6filterEv @ 851 NONAME
	_ZNK10QtMobility33QOrganizerItemLocalIdFetchRequest7endDateEv @ 852 NONAME
	_ZNK10QtMobility33QOrganizerItemLocalIdFetchRequest7itemIdsEv @ 853 NONAME
	_ZNK10QtMobility33QOrganizerItemLocalIdFetchRequest7sortingEv @ 854 NONAME
	_ZNK10QtMobility33QOrganizerItemLocalIdFetchRequest9startDateEv @ 855 NONAME
	_ZNK10QtMobility34QOrganizerItemInstanceFetchRequest10metaObjectEv @ 856 NONAME
	_ZNK10QtMobility34QOrganizerItemInstanceFetchRequest14maxOccurrencesEv @ 857 NONAME
	_ZNK10QtMobility34QOrganizerItemInstanceFetchRequest5itemsEv @ 858 NONAME
	_ZNK10QtMobility34QOrganizerItemInstanceFetchRequest7endDateEv @ 859 NONAME
	_ZNK10QtMobility34QOrganizerItemInstanceFetchRequest9fetchHintEv @ 860 NONAME
	_ZNK10QtMobility34QOrganizerItemInstanceFetchRequest9generatorEv @ 861 NONAME
	_ZNK10QtMobility34QOrganizerItemInstanceFetchRequest9startDateEv @ 862 NONAME
	_ZNK10QtMobility34QOrganizerItemManagerEngineFactory31supportedImplementationVersionsEv @ 863 NONAME
	_ZNK10QtMobility35QOrganizerItemDetailFieldDefinition15allowableValuesEv @ 864 NONAME
	_ZNK10QtMobility35QOrganizerItemDetailFieldDefinition8dataTypeEv @ 865 NONAME
	_ZNK10QtMobility35QOrganizerItemDetailFieldDefinitioneqERKS0_ @ 866 NONAME
	_ZNK10QtMobility35QOrganizerItemDetailFieldDefinitionneERKS0_ @ 867 NONAME
	_ZNK10QtMobility35QOrganizerItemFetchForExportRequest10metaObjectEv @ 868 NONAME
	_ZNK10QtMobility35QOrganizerItemFetchForExportRequest5itemsEv @ 869 NONAME
	_ZNK10QtMobility35QOrganizerItemFetchForExportRequest6filterEv @ 870 NONAME
	_ZNK10QtMobility35QOrganizerItemFetchForExportRequest7endDateEv @ 871 NONAME
	_ZNK10QtMobility35QOrganizerItemFetchForExportRequest7sortingEv @ 872 NONAME
	_ZNK10QtMobility35QOrganizerItemFetchForExportRequest9fetchHintEv @ 873 NONAME
	_ZNK10QtMobility35QOrganizerItemFetchForExportRequest9startDateEv @ 874 NONAME
	_ZNK10QtMobility39QOrganizerCollectionLocalIdFetchRequest10metaObjectEv @ 875 NONAME
	_ZNK10QtMobility39QOrganizerCollectionLocalIdFetchRequest13collectionIdsEv @ 876 NONAME
	_ZNK10QtMobility41QOrganizerItemDetailDefinitionSaveRequest10metaObjectEv @ 877 NONAME
	_ZNK10QtMobility41QOrganizerItemDetailDefinitionSaveRequest11definitionsEv @ 878 NONAME
	_ZNK10QtMobility41QOrganizerItemDetailDefinitionSaveRequest8errorMapEv @ 879 NONAME
	_ZNK10QtMobility41QOrganizerItemDetailDefinitionSaveRequest8itemTypeEv @ 880 NONAME
	_ZNK10QtMobility42QOrganizerItemDetailDefinitionFetchRequest10metaObjectEv @ 881 NONAME
	_ZNK10QtMobility42QOrganizerItemDetailDefinitionFetchRequest11definitionsEv @ 882 NONAME
	_ZNK10QtMobility42QOrganizerItemDetailDefinitionFetchRequest15definitionNamesEv @ 883 NONAME
	_ZNK10QtMobility42QOrganizerItemDetailDefinitionFetchRequest8errorMapEv @ 884 NONAME
	_ZNK10QtMobility42QOrganizerItemDetailDefinitionFetchRequest8itemTypeEv @ 885 NONAME
	_ZNK10QtMobility43QOrganizerItemDetailDefinitionRemoveRequest10metaObjectEv @ 886 NONAME
	_ZNK10QtMobility43QOrganizerItemDetailDefinitionRemoveRequest15definitionNamesEv @ 887 NONAME
	_ZNK10QtMobility43QOrganizerItemDetailDefinitionRemoveRequest8errorMapEv @ 888 NONAME
	_ZNK10QtMobility43QOrganizerItemDetailDefinitionRemoveRequest8itemTypeEv @ 889 NONAME
	_ZTIN10QtMobility21QOrganizerItemManagerE @ 890 NONAME
	_ZTIN10QtMobility25QOrganizerItemSaveRequestE @ 891 NONAME
	_ZTIN10QtMobility26QOrganizerItemFetchRequestE @ 892 NONAME
	_ZTIN10QtMobility27QOrganizerItemEngineLocalIdE @ 893 NONAME
	_ZTIN10QtMobility27QOrganizerItemManagerEngineE @ 894 NONAME
	_ZTIN10QtMobility27QOrganizerItemRemoveRequestE @ 895 NONAME
	_ZTIN10QtMobility29QOrganizerItemAbstractRequestE @ 896 NONAME
	_ZTIN10QtMobility31QOrganizerCollectionSaveRequestE @ 897 NONAME
	_ZTIN10QtMobility32QOrganizerCollectionFetchRequestE @ 898 NONAME
	_ZTIN10QtMobility33QOrganizerCollectionEngineLocalIdE @ 899 NONAME
	_ZTIN10QtMobility33QOrganizerCollectionRemoveRequestE @ 900 NONAME
	_ZTIN10QtMobility33QOrganizerItemLocalIdFetchRequestE @ 901 NONAME
	_ZTIN10QtMobility34QOrganizerItemInstanceFetchRequestE @ 902 NONAME
	_ZTIN10QtMobility34QOrganizerItemManagerEngineFactoryE @ 903 NONAME
	_ZTIN10QtMobility35QOrganizerItemFetchForExportRequestE @ 904 NONAME
	_ZTIN10QtMobility39QOrganizerCollectionLocalIdFetchRequestE @ 905 NONAME
	_ZTIN10QtMobility41QOrganizerItemDetailDefinitionSaveRequestE @ 906 NONAME
	_ZTIN10QtMobility42QOrganizerItemDetailDefinitionFetchRequestE @ 907 NONAME
	_ZTIN10QtMobility43QOrganizerItemDetailDefinitionRemoveRequestE @ 908 NONAME
	_ZTVN10QtMobility21QOrganizerItemManagerE @ 909 NONAME
	_ZTVN10QtMobility25QOrganizerItemSaveRequestE @ 910 NONAME
	_ZTVN10QtMobility26QOrganizerItemFetchRequestE @ 911 NONAME
	_ZTVN10QtMobility27QOrganizerItemManagerEngineE @ 912 NONAME
	_ZTVN10QtMobility27QOrganizerItemRemoveRequestE @ 913 NONAME
	_ZTVN10QtMobility29QOrganizerItemAbstractRequestE @ 914 NONAME
	_ZTVN10QtMobility31QOrganizerCollectionSaveRequestE @ 915 NONAME
	_ZTVN10QtMobility32QOrganizerCollectionFetchRequestE @ 916 NONAME
	_ZTVN10QtMobility33QOrganizerCollectionRemoveRequestE @ 917 NONAME
	_ZTVN10QtMobility33QOrganizerItemLocalIdFetchRequestE @ 918 NONAME
	_ZTVN10QtMobility34QOrganizerItemInstanceFetchRequestE @ 919 NONAME
	_ZTVN10QtMobility34QOrganizerItemManagerEngineFactoryE @ 920 NONAME
	_ZTVN10QtMobility35QOrganizerItemFetchForExportRequestE @ 921 NONAME
	_ZTVN10QtMobility39QOrganizerCollectionLocalIdFetchRequestE @ 922 NONAME
	_ZTVN10QtMobility41QOrganizerItemDetailDefinitionSaveRequestE @ 923 NONAME
	_ZTVN10QtMobility42QOrganizerItemDetailDefinitionFetchRequestE @ 924 NONAME
	_ZTVN10QtMobility43QOrganizerItemDetailDefinitionRemoveRequestE @ 925 NONAME

