EXPORTS
	_ZN10QtMobility14QServiceFilter12setInterfaceERK7QStringS3_NS0_16VersionMatchRuleE @ 1 NONAME
	_ZN10QtMobility14QServiceFilter14setServiceNameERK7QString @ 2 NONAME
	_ZN10QtMobility14QServiceFilter15setCapabilitiesENS0_19CapabilityMatchRuleERK11QStringList @ 3 NONAME
	_ZN10QtMobility14QServiceFilter18setCustomAttributeERK7QStringS3_ @ 4 NONAME
	_ZN10QtMobility14QServiceFilter20clearCustomAttributeERK7QString @ 5 NONAME
	_ZN10QtMobility14QServiceFilterC1ERK7QStringS3_NS0_16VersionMatchRuleE @ 6 NONAME
	_ZN10QtMobility14QServiceFilterC1ERKS0_ @ 7 NONAME
	_ZN10QtMobility14QServiceFilterC1Ev @ 8 NONAME
	_ZN10QtMobility14QServiceFilterC2ERK7QStringS3_NS0_16VersionMatchRuleE @ 9 NONAME
	_ZN10QtMobility14QServiceFilterC2ERKS0_ @ 10 NONAME
	_ZN10QtMobility14QServiceFilterC2Ev @ 11 NONAME
	_ZN10QtMobility14QServiceFilterD1Ev @ 12 NONAME
	_ZN10QtMobility14QServiceFilterD2Ev @ 13 NONAME
	_ZN10QtMobility14QServiceFilteraSERKS0_ @ 14 NONAME
	_ZN10QtMobility15QServiceContext11qt_metacallEN11QMetaObject4CallEiPPv @ 15 NONAME
	_ZN10QtMobility15QServiceContext11qt_metacastEPKc @ 16 NONAME
	_ZN10QtMobility15QServiceContext11setClientIdERK7QString @ 17 NONAME
	_ZN10QtMobility15QServiceContext13setClientNameERK7QString @ 18 NONAME
	_ZN10QtMobility15QServiceContext16staticMetaObjectE @ 19 NONAME DATA 16
	_ZN10QtMobility15QServiceContext19getStaticMetaObjectEv @ 20 NONAME
	_ZN10QtMobility15QServiceContextC2EP7QObject @ 21 NONAME
	_ZN10QtMobility15QServiceContextD0Ev @ 22 NONAME
	_ZN10QtMobility15QServiceContextD1Ev @ 23 NONAME
	_ZN10QtMobility15QServiceContextD2Ev @ 24 NONAME
	_ZN10QtMobility15QServiceManager10addServiceEP9QIODevice @ 25 NONAME
	_ZN10QtMobility15QServiceManager10addServiceERK7QString @ 26 NONAME
	_ZN10QtMobility15QServiceManager11qt_metacallEN11QMetaObject4CallEiPPv @ 27 NONAME
	_ZN10QtMobility15QServiceManager11qt_metacastEPKc @ 28 NONAME
	_ZN10QtMobility15QServiceManager12serviceAddedERK7QStringNS_8QService5ScopeE @ 29 NONAME
	_ZN10QtMobility15QServiceManager13connectNotifyEPKc @ 30 NONAME
	_ZN10QtMobility15QServiceManager13loadInterfaceERK7QStringPNS_15QServiceContextEPNS_24QAbstractSecuritySessionE @ 31 NONAME
	_ZN10QtMobility15QServiceManager13loadInterfaceERKNS_27QServiceInterfaceDescriptorEPNS_15QServiceContextEPNS_24QAbstractSecuritySessionE @ 32 NONAME
	_ZN10QtMobility15QServiceManager13removeServiceERK7QString @ 33 NONAME
	_ZN10QtMobility15QServiceManager14serviceRemovedERK7QStringNS_8QService5ScopeE @ 34 NONAME
	_ZN10QtMobility15QServiceManager16disconnectNotifyEPKc @ 35 NONAME
	_ZN10QtMobility15QServiceManager16staticMetaObjectE @ 36 NONAME DATA 16
	_ZN10QtMobility15QServiceManager19getStaticMetaObjectEv @ 37 NONAME
	_ZN10QtMobility15QServiceManager19setInterfaceDefaultERK7QStringS3_ @ 38 NONAME
	_ZN10QtMobility15QServiceManager19setInterfaceDefaultERKNS_27QServiceInterfaceDescriptorE @ 39 NONAME
	_ZN10QtMobility15QServiceManagerC1ENS_8QService5ScopeEP7QObject @ 40 NONAME
	_ZN10QtMobility15QServiceManagerC1EP7QObject @ 41 NONAME
	_ZN10QtMobility15QServiceManagerC2ENS_8QService5ScopeEP7QObject @ 42 NONAME
	_ZN10QtMobility15QServiceManagerC2EP7QObject @ 43 NONAME
	_ZN10QtMobility15QServiceManagerD0Ev @ 44 NONAME
	_ZN10QtMobility15QServiceManagerD1Ev @ 45 NONAME
	_ZN10QtMobility15QServiceManagerD2Ev @ 46 NONAME
	_ZN10QtMobility23QServicePluginInterface14installServiceEv @ 47 NONAME
	_ZN10QtMobility23QServicePluginInterface16uninstallServiceEv @ 48 NONAME
	_ZN10QtMobility23QServicePluginInterfaceC2Ev @ 49 NONAME
	_ZN10QtMobility23QServicePluginInterfaceD0Ev @ 50 NONAME
	_ZN10QtMobility23QServicePluginInterfaceD1Ev @ 51 NONAME
	_ZN10QtMobility23QServicePluginInterfaceD2Ev @ 52 NONAME
	_ZN10QtMobility24QAbstractSecuritySession11qt_metacallEN11QMetaObject4CallEiPPv @ 53 NONAME
	_ZN10QtMobility24QAbstractSecuritySession11qt_metacastEPKc @ 54 NONAME
	_ZN10QtMobility24QAbstractSecuritySession16staticMetaObjectE @ 55 NONAME DATA 16
	_ZN10QtMobility24QAbstractSecuritySession19getStaticMetaObjectEv @ 56 NONAME
	_ZN10QtMobility24QAbstractSecuritySessionC2EP7QObject @ 57 NONAME
	_ZN10QtMobility24QAbstractSecuritySessionD0Ev @ 58 NONAME
	_ZN10QtMobility24QAbstractSecuritySessionD1Ev @ 59 NONAME
	_ZN10QtMobility24QAbstractSecuritySessionD2Ev @ 60 NONAME
	_ZN10QtMobility27QServiceInterfaceDescriptorC1ERKS0_ @ 61 NONAME
	_ZN10QtMobility27QServiceInterfaceDescriptorC1Ev @ 62 NONAME
	_ZN10QtMobility27QServiceInterfaceDescriptorC2ERKS0_ @ 63 NONAME
	_ZN10QtMobility27QServiceInterfaceDescriptorC2Ev @ 64 NONAME
	_ZN10QtMobility27QServiceInterfaceDescriptorD1Ev @ 65 NONAME
	_ZN10QtMobility27QServiceInterfaceDescriptorD2Ev @ 66 NONAME
	_ZN10QtMobility27QServiceInterfaceDescriptoraSERKS0_ @ 67 NONAME
	_ZN10QtMobilitylsE6QDebugRKNS_27QServiceInterfaceDescriptorE @ 68 NONAME
	_ZN10QtMobilitylsER11QDataStreamRKNS_14QServiceFilterE @ 69 NONAME
	_ZN10QtMobilitylsER11QDataStreamRKNS_27QServiceInterfaceDescriptorE @ 70 NONAME
	_ZN10QtMobilityrsER11QDataStreamRNS_14QServiceFilterE @ 71 NONAME
	_ZN10QtMobilityrsER11QDataStreamRNS_27QServiceInterfaceDescriptorE @ 72 NONAME
	_ZNK10QtMobility14QServiceFilter11serviceNameEv @ 73 NONAME
	_ZNK10QtMobility14QServiceFilter12capabilitiesEv @ 74 NONAME
	_ZNK10QtMobility14QServiceFilter12majorVersionEv @ 75 NONAME
	_ZNK10QtMobility14QServiceFilter12minorVersionEv @ 76 NONAME
	_ZNK10QtMobility14QServiceFilter13interfaceNameEv @ 77 NONAME
	_ZNK10QtMobility14QServiceFilter15customAttributeERK7QString @ 78 NONAME
	_ZNK10QtMobility14QServiceFilter16customAttributesEv @ 79 NONAME
	_ZNK10QtMobility14QServiceFilter16versionMatchRuleEv @ 80 NONAME
	_ZNK10QtMobility14QServiceFilter19capabilityMatchRuleEv @ 81 NONAME
	_ZNK10QtMobility15QServiceContext10clientNameEv @ 82 NONAME
	_ZNK10QtMobility15QServiceContext10metaObjectEv @ 83 NONAME
	_ZNK10QtMobility15QServiceContext8clientIdEv @ 84 NONAME
	_ZNK10QtMobility15QServiceManager10metaObjectEv @ 85 NONAME
	_ZNK10QtMobility15QServiceManager12findServicesERK7QString @ 86 NONAME
	_ZNK10QtMobility15QServiceManager14findInterfacesERK7QString @ 87 NONAME
	_ZNK10QtMobility15QServiceManager14findInterfacesERKNS_14QServiceFilterE @ 88 NONAME
	_ZNK10QtMobility15QServiceManager16interfaceDefaultERK7QString @ 89 NONAME
	_ZNK10QtMobility15QServiceManager5errorEv @ 90 NONAME
	_ZNK10QtMobility15QServiceManager5scopeEv @ 91 NONAME
	_ZNK10QtMobility24QAbstractSecuritySession10metaObjectEv @ 92 NONAME
	_ZNK10QtMobility27QServiceInterfaceDescriptor11serviceNameEv @ 93 NONAME
	_ZNK10QtMobility27QServiceInterfaceDescriptor12majorVersionEv @ 94 NONAME
	_ZNK10QtMobility27QServiceInterfaceDescriptor12minorVersionEv @ 95 NONAME
	_ZNK10QtMobility27QServiceInterfaceDescriptor13interfaceNameEv @ 96 NONAME
	_ZNK10QtMobility27QServiceInterfaceDescriptor15customAttributeERK7QString @ 97 NONAME
	_ZNK10QtMobility27QServiceInterfaceDescriptor16customAttributesEv @ 98 NONAME
	_ZNK10QtMobility27QServiceInterfaceDescriptor5scopeEv @ 99 NONAME
	_ZNK10QtMobility27QServiceInterfaceDescriptor7isValidEv @ 100 NONAME
	_ZNK10QtMobility27QServiceInterfaceDescriptor9attributeENS0_9AttributeE @ 101 NONAME
	_ZNK10QtMobility27QServiceInterfaceDescriptoreqERKS0_ @ 102 NONAME
	_ZTIN10QtMobility15QServiceContextE @ 103 NONAME
	_ZTIN10QtMobility15QServiceManagerE @ 104 NONAME
	_ZTIN10QtMobility23QServicePluginInterfaceE @ 105 NONAME
	_ZTIN10QtMobility24QAbstractSecuritySessionE @ 106 NONAME
	_ZTVN10QtMobility15QServiceContextE @ 107 NONAME
	_ZTVN10QtMobility15QServiceManagerE @ 108 NONAME
	_ZTVN10QtMobility23QServicePluginInterfaceE @ 109 NONAME
	_ZTVN10QtMobility24QAbstractSecuritySessionE @ 110 NONAME

