EXPORTS
	_ZN10QtMobility11QSystemInfo11qt_metacallEN11QMetaObject4CallEiPPv @ 1 NONAME
	_ZN10QtMobility11QSystemInfo11qt_metacastEPKc @ 2 NONAME
	_ZN10QtMobility11QSystemInfo15currentLanguageEv @ 3 NONAME
	_ZN10QtMobility11QSystemInfo16staticMetaObjectE @ 4 NONAME DATA 16
	_ZN10QtMobility11QSystemInfo18availableLanguagesEv @ 5 NONAME
	_ZN10QtMobility11QSystemInfo18currentCountryCodeEv @ 6 NONAME
	_ZN10QtMobility11QSystemInfo19getStaticMetaObjectEv @ 7 NONAME
	_ZN10QtMobility11QSystemInfo19hasFeatureSupportedENS0_7FeatureE @ 8 NONAME
	_ZN10QtMobility11QSystemInfo22currentLanguageChangedERK7QString @ 9 NONAME
	_ZN10QtMobility11QSystemInfo7versionENS0_7VersionERK7QString @ 10 NONAME
	_ZN10QtMobility11QSystemInfoC1EP7QObject @ 11 NONAME
	_ZN10QtMobility11QSystemInfoC2EP7QObject @ 12 NONAME
	_ZN10QtMobility11QSystemInfoD0Ev @ 13 NONAME
	_ZN10QtMobility11QSystemInfoD1Ev @ 14 NONAME
	_ZN10QtMobility11QSystemInfoD2Ev @ 15 NONAME
	_ZN10QtMobility17QSystemDeviceInfo11productNameEv @ 16 NONAME
	_ZN10QtMobility17QSystemDeviceInfo11qt_metacallEN11QMetaObject4CallEiPPv @ 17 NONAME
	_ZN10QtMobility17QSystemDeviceInfo11qt_metacastEPKc @ 18 NONAME
	_ZN10QtMobility17QSystemDeviceInfo12manufacturerEv @ 19 NONAME
	_ZN10QtMobility17QSystemDeviceInfo13batteryStatusEv @ 20 NONAME
	_ZN10QtMobility17QSystemDeviceInfo14currentProfileEv @ 21 NONAME
	_ZN10QtMobility17QSystemDeviceInfo14isDeviceLockedEv @ 22 NONAME
	_ZN10QtMobility17QSystemDeviceInfo15inputMethodTypeEv @ 23 NONAME
	_ZN10QtMobility17QSystemDeviceInfo16staticMetaObjectE @ 24 NONAME DATA 16
	_ZN10QtMobility17QSystemDeviceInfo17currentPowerStateEv @ 25 NONAME
	_ZN10QtMobility17QSystemDeviceInfo17powerStateChangedENS0_10PowerStateE @ 26 NONAME
	_ZN10QtMobility17QSystemDeviceInfo19batteryLevelChangedEi @ 27 NONAME
	_ZN10QtMobility17QSystemDeviceInfo19getStaticMetaObjectEv @ 28 NONAME
	_ZN10QtMobility17QSystemDeviceInfo20batteryStatusChangedENS0_13BatteryStatusE @ 29 NONAME
	_ZN10QtMobility17QSystemDeviceInfo21bluetoothStateChangedEb @ 30 NONAME
	_ZN10QtMobility17QSystemDeviceInfo21currentProfileChangedENS0_7ProfileE @ 31 NONAME
	_ZN10QtMobility17QSystemDeviceInfo4imeiEv @ 32 NONAME
	_ZN10QtMobility17QSystemDeviceInfo4imsiEv @ 33 NONAME
	_ZN10QtMobility17QSystemDeviceInfo5modelEv @ 34 NONAME
	_ZN10QtMobility17QSystemDeviceInfo9simStatusEv @ 35 NONAME
	_ZN10QtMobility17QSystemDeviceInfoC1EP7QObject @ 36 NONAME
	_ZN10QtMobility17QSystemDeviceInfoC2EP7QObject @ 37 NONAME
	_ZN10QtMobility17QSystemDeviceInfoD0Ev @ 38 NONAME
	_ZN10QtMobility17QSystemDeviceInfoD1Ev @ 39 NONAME
	_ZN10QtMobility17QSystemDeviceInfoD2Ev @ 40 NONAME
	_ZN10QtMobility18QSystemDisplayInfo10colorDepthEi @ 41 NONAME
	_ZN10QtMobility18QSystemDisplayInfo11qt_metacallEN11QMetaObject4CallEiPPv @ 42 NONAME
	_ZN10QtMobility18QSystemDisplayInfo11qt_metacastEPKc @ 43 NONAME
	_ZN10QtMobility18QSystemDisplayInfo16staticMetaObjectE @ 44 NONAME DATA 16
	_ZN10QtMobility18QSystemDisplayInfo17displayBrightnessEi @ 45 NONAME
	_ZN10QtMobility18QSystemDisplayInfo19getStaticMetaObjectEv @ 46 NONAME
	_ZN10QtMobility18QSystemDisplayInfoC1EP7QObject @ 47 NONAME
	_ZN10QtMobility18QSystemDisplayInfoC2EP7QObject @ 48 NONAME
	_ZN10QtMobility18QSystemDisplayInfoD0Ev @ 49 NONAME
	_ZN10QtMobility18QSystemDisplayInfoD1Ev @ 50 NONAME
	_ZN10QtMobility18QSystemDisplayInfoD2Ev @ 51 NONAME
	_ZN10QtMobility18QSystemNetworkInfo10macAddressENS0_11NetworkModeE @ 52 NONAME
	_ZN10QtMobility18QSystemNetworkInfo11networkNameENS0_11NetworkModeE @ 53 NONAME
	_ZN10QtMobility18QSystemNetworkInfo11qt_metacallEN11QMetaObject4CallEiPPv @ 54 NONAME
	_ZN10QtMobility18QSystemNetworkInfo11qt_metacastEPKc @ 55 NONAME
	_ZN10QtMobility18QSystemNetworkInfo13networkStatusENS0_11NetworkModeE @ 56 NONAME
	_ZN10QtMobility18QSystemNetworkInfo16interfaceForModeENS0_11NetworkModeE @ 57 NONAME
	_ZN10QtMobility18QSystemNetworkInfo16locationAreaCodeEv @ 58 NONAME
	_ZN10QtMobility18QSystemNetworkInfo16staticMetaObjectE @ 59 NONAME DATA 16
	_ZN10QtMobility18QSystemNetworkInfo18networkModeChangedENS0_11NetworkModeE @ 60 NONAME
	_ZN10QtMobility18QSystemNetworkInfo18networkNameChangedENS0_11NetworkModeERK7QString @ 61 NONAME
	_ZN10QtMobility18QSystemNetworkInfo19getStaticMetaObjectEv @ 62 NONAME
	_ZN10QtMobility18QSystemNetworkInfo20networkStatusChangedENS0_11NetworkModeENS0_13NetworkStatusE @ 63 NONAME
	_ZN10QtMobility18QSystemNetworkInfo21homeMobileCountryCodeEv @ 64 NONAME
	_ZN10QtMobility18QSystemNetworkInfo21homeMobileNetworkCodeEv @ 65 NONAME
	_ZN10QtMobility18QSystemNetworkInfo21networkSignalStrengthENS0_11NetworkModeE @ 66 NONAME
	_ZN10QtMobility18QSystemNetworkInfo24currentMobileCountryCodeEv @ 67 NONAME
	_ZN10QtMobility18QSystemNetworkInfo24currentMobileNetworkCodeEv @ 68 NONAME
	_ZN10QtMobility18QSystemNetworkInfo28networkSignalStrengthChangedENS0_11NetworkModeEi @ 69 NONAME
	_ZN10QtMobility18QSystemNetworkInfo31currentMobileCountryCodeChangedERK7QString @ 70 NONAME
	_ZN10QtMobility18QSystemNetworkInfo31currentMobileNetworkCodeChangedERK7QString @ 71 NONAME
	_ZN10QtMobility18QSystemNetworkInfo6cellIdEv @ 72 NONAME
	_ZN10QtMobility18QSystemNetworkInfoC1EP7QObject @ 73 NONAME
	_ZN10QtMobility18QSystemNetworkInfoC2EP7QObject @ 74 NONAME
	_ZN10QtMobility18QSystemNetworkInfoD0Ev @ 75 NONAME
	_ZN10QtMobility18QSystemNetworkInfoD1Ev @ 76 NONAME
	_ZN10QtMobility18QSystemNetworkInfoD2Ev @ 77 NONAME
	_ZN10QtMobility18QSystemScreenSaver11qt_metacallEN11QMetaObject4CallEiPPv @ 78 NONAME
	_ZN10QtMobility18QSystemScreenSaver11qt_metacastEPKc @ 79 NONAME
	_ZN10QtMobility18QSystemScreenSaver16staticMetaObjectE @ 80 NONAME DATA 16
	_ZN10QtMobility18QSystemScreenSaver19getStaticMetaObjectEv @ 81 NONAME
	_ZN10QtMobility18QSystemScreenSaver20screenSaverInhibitedEv @ 82 NONAME
	_ZN10QtMobility18QSystemScreenSaver21setScreenSaverInhibitEv @ 83 NONAME
	_ZN10QtMobility18QSystemScreenSaverC1EP7QObject @ 84 NONAME
	_ZN10QtMobility18QSystemScreenSaverC2EP7QObject @ 85 NONAME
	_ZN10QtMobility18QSystemScreenSaverD0Ev @ 86 NONAME
	_ZN10QtMobility18QSystemScreenSaverD1Ev @ 87 NONAME
	_ZN10QtMobility18QSystemScreenSaverD2Ev @ 88 NONAME
	_ZN10QtMobility18QSystemStorageInfo11qt_metacallEN11QMetaObject4CallEiPPv @ 89 NONAME
	_ZN10QtMobility18QSystemStorageInfo11qt_metacastEPKc @ 90 NONAME
	_ZN10QtMobility18QSystemStorageInfo12typeForDriveERK7QString @ 91 NONAME
	_ZN10QtMobility18QSystemStorageInfo13logicalDrivesEv @ 92 NONAME
	_ZN10QtMobility18QSystemStorageInfo14totalDiskSpaceERK7QString @ 93 NONAME
	_ZN10QtMobility18QSystemStorageInfo16staticMetaObjectE @ 94 NONAME DATA 16
	_ZN10QtMobility18QSystemStorageInfo18availableDiskSpaceERK7QString @ 95 NONAME
	_ZN10QtMobility18QSystemStorageInfo19getStaticMetaObjectEv @ 96 NONAME
	_ZN10QtMobility18QSystemStorageInfoC1EP7QObject @ 97 NONAME
	_ZN10QtMobility18QSystemStorageInfoC2EP7QObject @ 98 NONAME
	_ZN10QtMobility18QSystemStorageInfoD0Ev @ 99 NONAME
	_ZN10QtMobility18QSystemStorageInfoD1Ev @ 100 NONAME
	_ZN10QtMobility18QSystemStorageInfoD2Ev @ 101 NONAME
	_ZNK10QtMobility11QSystemInfo10metaObjectEv @ 102 NONAME
	_ZNK10QtMobility17QSystemDeviceInfo10metaObjectEv @ 103 NONAME
	_ZNK10QtMobility17QSystemDeviceInfo12batteryLevelEv @ 104 NONAME
	_ZNK10QtMobility18QSystemDisplayInfo10metaObjectEv @ 105 NONAME
	_ZNK10QtMobility18QSystemNetworkInfo10metaObjectEv @ 106 NONAME
	_ZNK10QtMobility18QSystemScreenSaver10metaObjectEv @ 107 NONAME
	_ZNK10QtMobility18QSystemStorageInfo10metaObjectEv @ 108 NONAME
	_ZTIN10QtMobility11QSystemInfoE @ 109 NONAME
	_ZTIN10QtMobility17QSystemDeviceInfoE @ 110 NONAME
	_ZTIN10QtMobility18QSystemDisplayInfoE @ 111 NONAME
	_ZTIN10QtMobility18QSystemNetworkInfoE @ 112 NONAME
	_ZTIN10QtMobility18QSystemScreenSaverE @ 113 NONAME
	_ZTIN10QtMobility18QSystemStorageInfoE @ 114 NONAME
	_ZTVN10QtMobility11QSystemInfoE @ 115 NONAME
	_ZTVN10QtMobility17QSystemDeviceInfoE @ 116 NONAME
	_ZTVN10QtMobility18QSystemDisplayInfoE @ 117 NONAME
	_ZTVN10QtMobility18QSystemNetworkInfoE @ 118 NONAME
	_ZTVN10QtMobility18QSystemScreenSaverE @ 119 NONAME
	_ZTVN10QtMobility18QSystemStorageInfoE @ 120 NONAME
	_ZN10QtMobility18QSystemNetworkInfo11currentModeEv @ 121 NONAME
	_ZN10QtMobility18QSystemNetworkInfo13connectNotifyEPKc @ 122 NONAME
	_ZN10QtMobility18QSystemNetworkInfo16disconnectNotifyEPKc @ 123 NONAME
	_ZN10QtMobility11QSystemInfo13connectNotifyEPKc @ 124 NONAME
	_ZN10QtMobility11QSystemInfo16disconnectNotifyEPKc @ 125 NONAME
	_ZN10QtMobility17QSystemDeviceInfo13connectNotifyEPKc @ 126 NONAME
	_ZN10QtMobility17QSystemDeviceInfo16disconnectNotifyEPKc @ 127 NONAME
	_ZN10QtMobility17QSystemDeviceInfo26currentBluetoothPowerStateEv @ 128 NONAME
	_ZN10QtMobility18QSystemDisplayInfo11getDPIWidthEi @ 129 NONAME
	_ZN10QtMobility18QSystemDisplayInfo12getDPIHeightEi @ 130 NONAME
	_ZN10QtMobility18QSystemDisplayInfo13physicalWidthEi @ 131 NONAME
	_ZN10QtMobility18QSystemDisplayInfo14getOrientationEi @ 132 NONAME
	_ZN10QtMobility18QSystemDisplayInfo14physicalHeightEi @ 133 NONAME
	_ZN10QtMobility18QSystemDisplayInfo8contrastEi @ 134 NONAME
	_ZN10QtMobility18QSystemStorageInfo19logicalDriveChangedEbRK7QString @ 135 NONAME
	_ZTI10CPhoneInfo @ 136 NONAME ; #<TI>#
	_ZTI12CBatteryInfo @ 137 NONAME ; #<TI>#
	_ZTI14CTelephonyInfo @ 138 NONAME ; #<TI>#
	_ZTI15CChargingStatus @ 139 NONAME ; #<TI>#
	_ZTI15CSubscriberInfo @ 140 NONAME ; #<TI>#
	_ZTI16CCellNetworkInfo @ 141 NONAME ; #<TI>#
	_ZTI23CCellSignalStrengthInfo @ 142 NONAME ; #<TI>#
	_ZTI28CCellNetworkRegistrationInfo @ 143 NONAME ; #<TI>#
	_ZTI9CWlanInfo @ 144 NONAME ; #<TI>#
	_ZTIN10QtMobility18QSystemInfoPrivateE @ 145 NONAME ; #<TI>#
	_ZTIN10QtMobility24QSystemDeviceInfoPrivateE @ 146 NONAME ; #<TI>#
	_ZTIN10QtMobility25QSystemDisplayInfoPrivateE @ 147 NONAME ; #<TI>#
	_ZTIN10QtMobility25QSystemNetworkInfoPrivateE @ 148 NONAME ; #<TI>#
	_ZTIN10QtMobility25QSystemScreenSaverPrivateE @ 149 NONAME ; #<TI>#
	_ZTIN10QtMobility25QSystemStorageInfoPrivateE @ 150 NONAME ; #<TI>#

