EXPORTS
	_ZN10QtMobility13QVersitReader11qt_metacallEN11QMetaObject4CallEiPPv @ 1 NONAME
	_ZN10QtMobility13QVersitReader11qt_metacastEPKc @ 2 NONAME
	_ZN10QtMobility13QVersitReader12startReadingEv @ 3 NONAME
	_ZN10QtMobility13QVersitReader12stateChangedENS0_5StateE @ 4 NONAME
	_ZN10QtMobility13QVersitReader15setDefaultCodecEP10QTextCodec @ 5 NONAME
	_ZN10QtMobility13QVersitReader15waitForFinishedEi @ 6 NONAME
	_ZN10QtMobility13QVersitReader16resultsAvailableER5QListINS_15QVersitDocumentEE @ 7 NONAME
	_ZN10QtMobility13QVersitReader16staticMetaObjectE @ 8 NONAME DATA 16
	_ZN10QtMobility13QVersitReader19getStaticMetaObjectEv @ 9 NONAME
	_ZN10QtMobility13QVersitReader6cancelEv @ 10 NONAME
	_ZN10QtMobility13QVersitReader9setDeviceEP9QIODevice @ 11 NONAME
	_ZN10QtMobility13QVersitReaderC1Ev @ 12 NONAME
	_ZN10QtMobility13QVersitReaderC2Ev @ 13 NONAME
	_ZN10QtMobility13QVersitReaderD0Ev @ 14 NONAME
	_ZN10QtMobility13QVersitReaderD1Ev @ 15 NONAME
	_ZN10QtMobility13QVersitReaderD2Ev @ 16 NONAME
	_ZN10QtMobility13QVersitWriter11qt_metacallEN11QMetaObject4CallEiPPv @ 17 NONAME
	_ZN10QtMobility13QVersitWriter11qt_metacastEPKc @ 18 NONAME
	_ZN10QtMobility13QVersitWriter12startWritingERK5QListINS_15QVersitDocumentEE @ 19 NONAME
	_ZN10QtMobility13QVersitWriter12startWritingEv @ 20 NONAME
	_ZN10QtMobility13QVersitWriter12stateChangedENS0_5StateE @ 21 NONAME
	_ZN10QtMobility13QVersitWriter15setDefaultCodecEP10QTextCodec @ 22 NONAME
	_ZN10QtMobility13QVersitWriter15waitForFinishedEi @ 23 NONAME
	_ZN10QtMobility13QVersitWriter16staticMetaObjectE @ 24 NONAME DATA 16
	_ZN10QtMobility13QVersitWriter17setVersitDocumentERKNS_15QVersitDocumentE @ 25 NONAME
	_ZN10QtMobility13QVersitWriter19getStaticMetaObjectEv @ 26 NONAME
	_ZN10QtMobility13QVersitWriter6cancelEv @ 27 NONAME
	_ZN10QtMobility13QVersitWriter8writeAllEv @ 28 NONAME
	_ZN10QtMobility13QVersitWriter9setDeviceEP9QIODevice @ 29 NONAME
	_ZN10QtMobility13QVersitWriterC1Ev @ 30 NONAME
	_ZN10QtMobility13QVersitWriterC2Ev @ 31 NONAME
	_ZN10QtMobility13QVersitWriterD0Ev @ 32 NONAME
	_ZN10QtMobility13QVersitWriterD1Ev @ 33 NONAME
	_ZN10QtMobility13QVersitWriterD2Ev @ 34 NONAME
	_ZN10QtMobility15QVersitDocument11addPropertyERKNS_15QVersitPropertyE @ 35 NONAME
	_ZN10QtMobility15QVersitDocument14removePropertyERKNS_15QVersitPropertyE @ 36 NONAME
	_ZN10QtMobility15QVersitDocument16removePropertiesERK7QString @ 37 NONAME
	_ZN10QtMobility15QVersitDocument5clearEv @ 38 NONAME
	_ZN10QtMobility15QVersitDocument7setTypeENS0_10VersitTypeE @ 39 NONAME
	_ZN10QtMobility15QVersitDocumentC1ERKS0_ @ 40 NONAME
	_ZN10QtMobility15QVersitDocumentC1Ev @ 41 NONAME
	_ZN10QtMobility15QVersitDocumentC2ERKS0_ @ 42 NONAME
	_ZN10QtMobility15QVersitDocumentC2Ev @ 43 NONAME
	_ZN10QtMobility15QVersitDocumentD1Ev @ 44 NONAME
	_ZN10QtMobility15QVersitDocumentD2Ev @ 45 NONAME
	_ZN10QtMobility15QVersitDocumentaSERKS0_ @ 46 NONAME
	_ZN10QtMobility15QVersitProperty13setParametersERK10QMultiHashI7QStringS2_E @ 47 NONAME
	_ZN10QtMobility15QVersitProperty15insertParameterERK7QStringS3_ @ 48 NONAME
	_ZN10QtMobility15QVersitProperty15removeParameterERK7QStringS3_ @ 49 NONAME
	_ZN10QtMobility15QVersitProperty16removeParametersERK7QString @ 50 NONAME
	_ZN10QtMobility15QVersitProperty5clearEv @ 51 NONAME
	_ZN10QtMobility15QVersitProperty7setNameERK7QString @ 52 NONAME
	_ZN10QtMobility15QVersitProperty8setValueERK8QVariant @ 53 NONAME
	_ZN10QtMobility15QVersitProperty9setGroupsERK11QStringList @ 54 NONAME
	_ZN10QtMobility15QVersitPropertyC1ERKS0_ @ 55 NONAME
	_ZN10QtMobility15QVersitPropertyC1Ev @ 56 NONAME
	_ZN10QtMobility15QVersitPropertyC2ERKS0_ @ 57 NONAME
	_ZN10QtMobility15QVersitPropertyC2Ev @ 58 NONAME
	_ZN10QtMobility15QVersitPropertyD1Ev @ 59 NONAME
	_ZN10QtMobility15QVersitPropertyD2Ev @ 60 NONAME
	_ZN10QtMobility15QVersitPropertyaSERKS0_ @ 61 NONAME
	_ZN10QtMobility21QVersitDocumentWriter20encodeVersitDocumentERKNS_15QVersitDocumentEP10QTextCodec @ 62 NONAME
	_ZN10QtMobility21QVersitDocumentWriterC2ERK10QByteArrayS3_ @ 63 NONAME
	_ZN10QtMobility22QVersitContactExporter14exportContactsERK5QListINS_8QContactEENS_15QVersitDocument10VersitTypeE @ 64 NONAME
	_ZN10QtMobility22QVersitContactExporter16setDetailHandlerEPNS_35QVersitContactExporterDetailHandlerE @ 65 NONAME
	_ZN10QtMobility22QVersitContactExporter18setResourceHandlerEPNS_22QVersitResourceHandlerE @ 66 NONAME
	_ZN10QtMobility22QVersitContactExporterC1Ev @ 67 NONAME
	_ZN10QtMobility22QVersitContactExporterC2Ev @ 68 NONAME
	_ZN10QtMobility22QVersitContactExporterD1Ev @ 69 NONAME
	_ZN10QtMobility22QVersitContactExporterD2Ev @ 70 NONAME
	_ZN10QtMobility22QVersitContactImporter14importContactsERK5QListINS_15QVersitDocumentEE @ 71 NONAME
	_ZN10QtMobility22QVersitContactImporter18setPropertyHandlerEPNS_37QVersitContactImporterPropertyHandlerE @ 72 NONAME
	_ZN10QtMobility22QVersitContactImporter18setResourceHandlerEPNS_22QVersitResourceHandlerE @ 73 NONAME
	_ZN10QtMobility22QVersitContactImporterC1Ev @ 74 NONAME
	_ZN10QtMobility22QVersitContactImporterC2Ev @ 75 NONAME
	_ZN10QtMobility22QVersitContactImporterD1Ev @ 76 NONAME
	_ZN10QtMobility22QVersitContactImporterD2Ev @ 77 NONAME
	_ZN10QtMobility29QVersitDefaultResourceHandler12loadResourceERK7QStringP10QByteArrayPS1_ @ 78 NONAME
	_ZN10QtMobility29QVersitDefaultResourceHandler12saveResourceERK10QByteArrayRKNS_15QVersitPropertyEP7QString @ 79 NONAME
	_ZNK10QtMobility13QVersitReader10metaObjectEv @ 80 NONAME
	_ZNK10QtMobility13QVersitReader12defaultCodecEv @ 81 NONAME
	_ZNK10QtMobility13QVersitReader5errorEv @ 82 NONAME
	_ZNK10QtMobility13QVersitReader5stateEv @ 83 NONAME
	_ZNK10QtMobility13QVersitReader6deviceEv @ 84 NONAME
	_ZNK10QtMobility13QVersitReader7resultsEv @ 85 NONAME
	_ZNK10QtMobility13QVersitWriter10metaObjectEv @ 86 NONAME
	_ZNK10QtMobility13QVersitWriter12defaultCodecEv @ 87 NONAME
	_ZNK10QtMobility13QVersitWriter14versitDocumentEv @ 88 NONAME
	_ZNK10QtMobility13QVersitWriter5errorEv @ 89 NONAME
	_ZNK10QtMobility13QVersitWriter5stateEv @ 90 NONAME
	_ZNK10QtMobility13QVersitWriter6deviceEv @ 91 NONAME
	_ZNK10QtMobility15QVersitDocument10propertiesEv @ 92 NONAME
	_ZNK10QtMobility15QVersitDocument4typeEv @ 93 NONAME
	_ZNK10QtMobility15QVersitDocument7isEmptyEv @ 94 NONAME
	_ZNK10QtMobility15QVersitDocumenteqERKS0_ @ 95 NONAME
	_ZNK10QtMobility15QVersitDocumentneERKS0_ @ 96 NONAME
	_ZNK10QtMobility15QVersitProperty10parametersEv @ 97 NONAME
	_ZNK10QtMobility15QVersitProperty12variantValueEv @ 98 NONAME
	_ZNK10QtMobility15QVersitProperty4nameEv @ 99 NONAME
	_ZNK10QtMobility15QVersitProperty5valueEv @ 100 NONAME
	_ZNK10QtMobility15QVersitProperty6groupsEv @ 101 NONAME
	_ZNK10QtMobility15QVersitProperty7isEmptyEv @ 102 NONAME
	_ZNK10QtMobility15QVersitPropertyeqERKS0_ @ 103 NONAME
	_ZNK10QtMobility15QVersitPropertyneERKS0_ @ 104 NONAME
	_ZNK10QtMobility21QVersitDocumentWriter19encodeGroupsAndNameERKNS_15QVersitPropertyEP10QTextCodec @ 105 NONAME
	_ZNK10QtMobility22QVersitContactExporter13detailHandlerEv @ 106 NONAME
	_ZNK10QtMobility22QVersitContactExporter15resourceHandlerEv @ 107 NONAME
	_ZNK10QtMobility22QVersitContactImporter15propertyHandlerEv @ 108 NONAME
	_ZNK10QtMobility22QVersitContactImporter15resourceHandlerEv @ 109 NONAME
	_ZTIN10QtMobility13QVersitReaderE @ 110 NONAME ; #<TI>#
	_ZTIN10QtMobility13QVersitWriterE @ 111 NONAME ; #<TI>#
	_ZTIN10QtMobility21QVersitDocumentWriterE @ 112 NONAME ; #<TI>#
	_ZTIN10QtMobility22QVersitResourceHandlerE @ 113 NONAME ; #<TI>#
	_ZTIN10QtMobility29QVersitDefaultResourceHandlerE @ 114 NONAME ; #<TI>#
	_ZTVN10QtMobility13QVersitReaderE @ 115 NONAME ; #<VT>#
	_ZTVN10QtMobility13QVersitWriterE @ 116 NONAME ; #<VT>#
	_ZTVN10QtMobility21QVersitDocumentWriterE @ 117 NONAME ; #<VT>#
	_ZTVN10QtMobility29QVersitDefaultResourceHandlerE @ 118 NONAME ; #<VT>#

