EXPORTS
	?waitForRequestProgress@QContactManagerEngine@@UAE_NPAVQContactAbstractRequest@@H@Z @ 1 NONAME ; bool QContactManagerEngine::waitForRequestProgress(class QContactAbstractRequest *, int)
	?type@QContactFilter@@QBE?AW4FilterType@1@XZ @ 2 NONAME ; enum QContactFilter::FilterType QContactFilter::type(void) const
	?dataChanged@QContactManager@@IAEXXZ @ 3 NONAME ; void QContactManager::dataChanged(void)
	?relationshipType@QContactRelationshipFetchRequest@@QBE?AVQString@@XZ @ 4 NONAME ; class QString QContactRelationshipFetchRequest::relationshipType(void) const
	?FieldEmailAddress@QContactEmailAddress@@2U?$Latin1Literal@$0N@@@B @ 5 NONAME ; struct Latin1Literal<13> const QContactEmailAddress::FieldEmailAddress
	?append@QContactIntersectionFilter@@QAEXABVQContactFilter@@@Z @ 6 NONAME ; void QContactIntersectionFilter::append(class QContactFilter const &)
	?metaObject@QContactDetailDefinitionRemoveRequest@@UBEPBUQMetaObject@@XZ @ 7 NONAME ; struct QMetaObject const * QContactDetailDefinitionRemoveRequest::metaObject(void) const
	?d_func@QContactUnionFilter@@ABEPBVQContactUnionFilterPrivate@@XZ @ 8 NONAME ; class QContactUnionFilterPrivate const * QContactUnionFilter::d_func(void) const
	?prefix@QContactName@@QBE?AVQString@@XZ @ 9 NONAME ; class QString QContactName::prefix(void) const
	?setSyncTarget@QContactSyncTarget@@QAEXABVQString@@@Z @ 10 NONAME ; void QContactSyncTarget::setSyncTarget(class QString const &)
	?d_func@QContactDetailDefinitionFetchRequest@@AAEPAVQContactDetailDefinitionFetchRequestPrivate@@XZ @ 11 NONAME ; class QContactDetailDefinitionFetchRequestPrivate * QContactDetailDefinitionFetchRequest::d_func(void)
	??0QContactDetailDefinition@@QAE@XZ @ 12 NONAME ; QContactDetailDefinition::QContactDetailDefinition(void)
	??0QContactActionDescriptor@@QAE@ABV0@@Z @ 13 NONAME ; QContactActionDescriptor::QContactActionDescriptor(class QContactActionDescriptor const &)
	?schemaDefinitions@QContactManagerEngine@@SA?AV?$QMap@VQString@@V?$QMap@VQString@@VQContactDetailDefinition@@@@@@XZ @ 14 NONAME ; class QMap<class QString, class QMap<class QString, class QContactDetailDefinition> > QContactManagerEngine::schemaDefinitions(void)
	?tr@QContactManager@@SA?AVQString@@PBD0H@Z @ 15 NONAME ; class QString QContactManager::tr(char const *, char const *, int)
	?SubTypeBulletinBoardSystem@QContactPhoneNumber@@2U?$Latin1Literal@$0BE@@@B @ 16 NONAME ; struct Latin1Literal<20> const QContactPhoneNumber::SubTypeBulletinBoardSystem
	?d_func@QContactDetailDefinitionSaveRequest@@ABEPBVQContactDetailDefinitionSaveRequestPrivate@@XZ @ 17 NONAME ; class QContactDetailDefinitionSaveRequestPrivate const * QContactDetailDefinitionSaveRequest::d_func(void) const
	?requestDestroyed@QContactManagerEngine@@UAEXPAVQContactAbstractRequest@@@Z @ 18 NONAME ; void QContactManagerEngine::requestDestroyed(class QContactAbstractRequest *)
	??8QContactFilter@@QBE_NABV0@@Z @ 19 NONAME ; bool QContactFilter::operator==(class QContactFilter const &) const
	?trUtf8@QContactAbstractRequest@@SA?AVQString@@PBD0H@Z @ 20 NONAME ; class QString QContactAbstractRequest::trUtf8(char const *, char const *, int)
	?setSubTypes@QContactOnlineAccount@@QAEXABVQString@@@Z @ 21 NONAME ; void QContactOnlineAccount::setSubTypes(class QString const &)
	?latitude@QContactGeolocation@@QBENXZ @ 22 NONAME ; double QContactGeolocation::latitude(void) const
	??BQContactSortOrder@@QBE?AV?$QList@VQContactSortOrder@@@@XZ @ 23 NONAME ; QContactSortOrder::operator class QList<class QContactSortOrder>(void) const
	?setName@QContactOrganization@@QAEXABVQString@@@Z @ 24 NONAME ; void QContactOrganization::setName(class QString const &)
	?d_func@QContactChangeLogFilter@@ABEPBVQContactChangeLogFilterPrivate@@XZ @ 25 NONAME ; class QContactChangeLogFilterPrivate const * QContactChangeLogFilter::d_func(void) const
	?saveRelationships@QContactMemoryEngine@@UAE?AV?$QList@W4Error@QContactManager@@@@PAV?$QList@VQContactRelationship@@@@AAW4Error@QContactManager@@@Z @ 26 NONAME ; class QList<enum QContactManager::Error> QContactMemoryEngine::saveRelationships(class QList<class QContactRelationship> *, enum QContactManager::Error &)
	?tr@QContactDetailDefinitionSaveRequest@@SA?AVQString@@PBD0H@Z @ 27 NONAME ; class QString QContactDetailDefinitionSaveRequest::tr(char const *, char const *, int)
	?setAllowableValues@QContactDetailDefinitionField@@QAEXV?$QList@VQVariant@@@@@Z @ 28 NONAME ; void QContactDetailDefinitionField::setAllowableValues(class QList<class QVariant>)
	??0QContactNote@@QAE@XZ @ 29 NONAME ; QContactNote::QContactNote(void)
	?getStaticMetaObject@QContactAbstractRequest@@SAABUQMetaObject@@XZ @ 30 NONAME ; struct QMetaObject const & QContactAbstractRequest::getStaticMetaObject(void)
	?trUtf8@QContactRelationshipSaveRequest@@SA?AVQString@@PBD0H@Z @ 31 NONAME ; class QString QContactRelationshipSaveRequest::trUtf8(char const *, char const *, int)
	?setCustomLabel@QContactName@@QAEXABVQString@@@Z @ 32 NONAME ; void QContactName::setCustomLabel(class QString const &)
	?managerUri@QContactId@@QBE?AVQString@@XZ @ 33 NONAME ; class QString QContactId::managerUri(void) const
	??0QContactGender@@QAE@XZ @ 34 NONAME ; QContactGender::QContactGender(void)
	??1QContactOnlineAccount@@UAE@XZ @ 35 NONAME ; QContactOnlineAccount::~QContactOnlineAccount(void)
	??_EQContactManagerEngine@@UAE@I@Z @ 36 NONAME ; QContactManagerEngine::~QContactManagerEngine(unsigned int)
	??0QContactEmailAddress@@QAE@XZ @ 37 NONAME ; QContactEmailAddress::QContactEmailAddress(void)
	??0QContact@@QAE@ABV0@@Z @ 38 NONAME ; QContact::QContact(class QContact const &)
	?setVendorName@QContactActionDescriptor@@QAEXABVQString@@@Z @ 39 NONAME ; void QContactActionDescriptor::setVendorName(class QString const &)
	?details@QContact@@QBE?AV?$QList@VQContactDetail@@@@ABVQString@@@Z @ 40 NONAME ; class QList<class QContactDetail> QContact::details(class QString const &) const
	?setUnique@QContactDetailDefinition@@QAEX_N@Z @ 41 NONAME ; void QContactDetailDefinition::setUnique(bool)
	?assign@QContactDetail@@IAEAAV1@ABV1@ABVQString@@@Z @ 42 NONAME ; class QContactDetail & QContactDetail::assign(class QContactDetail const &, class QString const &)
	?setSpouse@QContactFamily@@QAEXABVQString@@@Z @ 43 NONAME ; void QContactFamily::setSpouse(class QString const &)
	??0QContactIntersectionFilter@@QAE@ABVQContactFilter@@@Z @ 44 NONAME ; QContactIntersectionFilter::QContactIntersectionFilter(class QContactFilter const &)
	?d_func@QContactActionFilter@@ABEPBVQContactActionFilterPrivate@@XZ @ 45 NONAME ; class QContactActionFilterPrivate const * QContactActionFilter::d_func(void) const
	?version@QContactManager@@SAHXZ @ 46 NONAME ; int QContactManager::version(void)
	??0QContactDetailRangeFilter@@QAE@XZ @ 47 NONAME ; QContactDetailRangeFilter::QContactDetailRangeFilter(void)
	?qt_metacast@QContactDetailDefinitionRemoveRequest@@UAEPAXPBD@Z @ 48 NONAME ; void * QContactDetailDefinitionRemoveRequest::qt_metacast(char const *)
	?blankPolicy@QContactSortOrder@@QBE?AW4BlankPolicy@1@XZ @ 49 NONAME ; enum QContactSortOrder::BlankPolicy QContactSortOrder::blankPolicy(void) const
	??4QContactSortOrder@@QAEAAV0@ABV0@@Z @ 50 NONAME ; class QContactSortOrder & QContactSortOrder::operator=(class QContactSortOrder const &)
	?supportedDataTypes@QContactMemoryEngine@@UBE?AV?$QList@W4Type@QVariant@@@@XZ @ 51 NONAME ; class QList<enum QVariant::Type> QContactMemoryEngine::supportedDataTypes(void) const
	?setSubTypes@QContactPhoneNumber@@QAEXABVQStringList@@@Z @ 52 NONAME ; void QContactPhoneNumber::setSubTypes(class QStringList const &)
	??0QContactNote@@QAE@ABVQContactDetail@@@Z @ 53 NONAME ; QContactNote::QContactNote(class QContactDetail const &)
	?d_func@QContactRemoveRequest@@ABEPBVQContactRemoveRequestPrivate@@XZ @ 54 NONAME ; class QContactRemoveRequestPrivate const * QContactRemoveRequest::d_func(void) const
	?SubTypePager@QContactPhoneNumber@@2U?$Latin1Literal@$05@@B @ 55 NONAME ; struct Latin1Literal<6> const QContactPhoneNumber::SubTypePager
	?tr@QContactMemoryEngine@@SA?AVQString@@PBD0H@Z @ 56 NONAME ; class QString QContactMemoryEngine::tr(char const *, char const *, int)
	?removeContact@QContactManager@@QAE_NABI@Z @ 57 NONAME ; bool QContactManager::removeContact(unsigned int const &)
	?FieldLabel@QContactDisplayLabel@@2U?$Latin1Literal@$05@@B @ 58 NONAME ; struct Latin1Literal<6> const QContactDisplayLabel::FieldLabel
	?setPreferredDetail@QContact@@QAE_NABVQString@@ABVQContactDetail@@@Z @ 59 NONAME ; bool QContact::setPreferredDetail(class QString const &, class QContactDetail const &)
	?setValue@QContactActionFilter@@QAEXABVQVariant@@@Z @ 60 NONAME ; void QContactActionFilter::setValue(class QVariant const &)
	??0QContactManager@@QAE@ABVQString@@ABV?$QMap@VQString@@V1@@@PAVQObject@@@Z @ 61 NONAME ; QContactManager::QContactManager(class QString const &, class QMap<class QString, class QString> const &, class QObject *)
	?direction@QContactSortOrder@@QBE?AW4SortOrder@Qt@@XZ @ 62 NONAME ; enum Qt::SortOrder QContactSortOrder::direction(void) const
	?setSubTypes@QContactAddress@@QAEXABVQStringList@@@Z @ 63 NONAME ; void QContactAddress::setSubTypes(class QStringList const &)
	??4QContactPhoneNumber@@QAEAAV0@ABVQContactDetail@@@Z @ 64 NONAME ; class QContactPhoneNumber & QContactPhoneNumber::operator=(class QContactDetail const &)
	?detailDefinitionName@QContactDetailRangeFilter@@QBE?AVQString@@XZ @ 65 NONAME ; class QString QContactDetailRangeFilter::detailDefinitionName(void) const
	??0QContactUrl@@QAE@ABVQContactDetail@@@Z @ 66 NONAME ; QContactUrl::QContactUrl(class QContactDetail const &)
	?managerName@QContactMemoryEngine@@UBE?AVQString@@XZ @ 67 NONAME ; class QString QContactMemoryEngine::managerName(void) const
	?action@QContactAction@@SAPAV1@ABVQContactActionDescriptor@@@Z @ 68 NONAME ; class QContactAction * QContactAction::action(class QContactActionDescriptor const &)
	??_EQContactRemoveRequest@@UAE@I@Z @ 69 NONAME ; QContactRemoveRequest::~QContactRemoveRequest(unsigned int)
	?d_func@QContactChangeLogFilter@@AAEPAVQContactChangeLogFilterPrivate@@XZ @ 70 NONAME ; class QContactChangeLogFilterPrivate * QContactChangeLogFilter::d_func(void)
	??4QContactBirthday@@QAEAAV0@ABVQContactDetail@@@Z @ 71 NONAME ; class QContactBirthday & QContactBirthday::operator=(class QContactDetail const &)
	??0QContactType@@QAE@XZ @ 72 NONAME ; QContactType::QContactType(void)
	?HasAssistant@QContactRelationship@@2U?$Latin1Literal@$0N@@@B @ 73 NONAME ; struct Latin1Literal<13> const QContactRelationship::HasAssistant
	?errors@QContactAbstractRequest@@QBE?AV?$QList@W4Error@QContactManager@@@@XZ @ 74 NONAME ; class QList<enum QContactManager::Error> QContactAbstractRequest::errors(void) const
	??1QContactManagerEngineFactory@@UAE@XZ @ 75 NONAME ; QContactManagerEngineFactory::~QContactManagerEngineFactory(void)
	?setRelationshipType@QContactRelationshipFilter@@QAEXABVQString@@@Z @ 76 NONAME ; void QContactRelationshipFilter::setRelationshipType(class QString const &)
	??0QContactFilter@@IAE@PAVQContactFilterPrivate@@@Z @ 77 NONAME ; QContactFilter::QContactFilter(class QContactFilterPrivate *)
	??_EQContactPhoneNumber@@UAE@I@Z @ 78 NONAME ; QContactPhoneNumber::~QContactPhoneNumber(unsigned int)
	?contactType@QContactDetailDefinitionFetchRequest@@QBE?AVQString@@XZ @ 79 NONAME ; class QString QContactDetailDefinitionFetchRequest::contactType(void) const
	?removeRelationship@QContactMemoryEngine@@AAE_NABVQContactRelationship@@AAVQContactChangeSet@@AAW4Error@QContactManager@@@Z @ 80 NONAME ; bool QContactMemoryEngine::removeRelationship(class QContactRelationship const &, class QContactChangeSet &, enum QContactManager::Error &)
	?d_func@QContactLocalIdFilter@@ABEPBVQContactLocalIdFilterPrivate@@XZ @ 81 NONAME ; class QContactLocalIdFilterPrivate const * QContactLocalIdFilter::d_func(void) const
	?setContactType@QContactDetailDefinitionSaveRequest@@QAEXABVQString@@@Z @ 82 NONAME ; void QContactDetailDefinitionSaveRequest::setContactType(class QString const &)
	?tr@QContactSaveRequest@@SA?AVQString@@PBD0@Z @ 83 NONAME ; class QString QContactSaveRequest::tr(char const *, char const *)
	?progress@QContactDetailDefinitionSaveRequest@@IAEXPAV1@@Z @ 84 NONAME ; void QContactDetailDefinitionSaveRequest::progress(class QContactDetailDefinitionSaveRequest *)
	?isEmpty@QContactDetailDefinition@@QBE_NXZ @ 85 NONAME ; bool QContactDetailDefinition::isEmpty(void) const
	?SubTypeTexturedMesh@QContactAvatar@@2U?$Latin1Literal@$0N@@@B @ 86 NONAME ; struct Latin1Literal<13> const QContactAvatar::SubTypeTexturedMesh
	?FieldCustomLabel@QContactName@@2U?$Latin1Literal@$0M@@@B @ 87 NONAME ; struct Latin1Literal<12> const QContactName::FieldCustomLabel
	??1QContactAddress@@UAE@XZ @ 88 NONAME ; QContactAddress::~QContactAddress(void)
	?timestamp@QContactGeolocation@@QBE?AVQDateTime@@XZ @ 89 NONAME ; class QDateTime QContactGeolocation::timestamp(void) const
	?d_func@QContactFetchRequest@@AAEPAVQContactFetchRequestPrivate@@XZ @ 90 NONAME ; class QContactFetchRequestPrivate * QContactFetchRequest::d_func(void)
	?d_func@QContactDetailRangeFilter@@AAEPAVQContactDetailRangeFilterPrivate@@XZ @ 91 NONAME ; class QContactDetailRangeFilterPrivate * QContactDetailRangeFilter::d_func(void)
	?FieldBirthday@QContactBirthday@@2U?$Latin1Literal@$08@@B @ 92 NONAME ; struct Latin1Literal<9> const QContactBirthday::FieldBirthday
	?removeContacts@QContactManager@@QAE?AV?$QList@W4Error@QContactManager@@@@PAV?$QList@I@@@Z @ 93 NONAME ; class QList<enum QContactManager::Error> QContactManager::removeContacts(class QList<unsigned int> *)
	?getStaticMetaObject@QContactRelationshipSaveRequest@@SAABUQMetaObject@@XZ @ 94 NONAME ; struct QMetaObject const & QContactRelationshipSaveRequest::getStaticMetaObject(void)
	?FieldTitle@QContactOrganization@@2U?$Latin1Literal@$05@@B @ 95 NONAME ; struct Latin1Literal<6> const QContactOrganization::FieldTitle
	?setAvatar@QContactAvatar@@QAEXABVQString@@@Z @ 96 NONAME ; void QContactAvatar::setAvatar(class QString const &)
	?second@QContactRelationship@@QBE?AVQContactId@@XZ @ 97 NONAME ; class QContactId QContactRelationship::second(void) const
	?getStaticMetaObject@QContactDetailDefinitionSaveRequest@@SAABUQMetaObject@@XZ @ 98 NONAME ; struct QMetaObject const & QContactDetailDefinitionSaveRequest::getStaticMetaObject(void)
	?trUtf8@QContactManager@@SA?AVQString@@PBD0@Z @ 99 NONAME ; class QString QContactManager::trUtf8(char const *, char const *)
	?setSorting@QContactLocalIdFetchRequest@@QAEXABV?$QList@VQContactSortOrder@@@@@Z @ 100 NONAME ; void QContactLocalIdFetchRequest::setSorting(class QList<class QContactSortOrder> const &)
	?tr@QContactFetchRequest@@SA?AVQString@@PBD0@Z @ 101 NONAME ; class QString QContactFetchRequest::tr(char const *, char const *)
	??_EQContactManagerEngineFactory@@UAE@I@Z @ 102 NONAME ; QContactManagerEngineFactory::~QContactManagerEngineFactory(unsigned int)
	?selfContactIdChanged@QContactManagerEngine@@IAEXABI0@Z @ 103 NONAME ; void QContactManagerEngine::selfContactIdChanged(unsigned int const &, unsigned int const &)
	?FieldAltitude@QContactGeolocation@@2U?$Latin1Literal@$08@@B @ 104 NONAME ; struct Latin1Literal<9> const QContactGeolocation::FieldAltitude
	??_EQContactLocalIdFilter@@UAE@I@Z @ 105 NONAME ; QContactLocalIdFilter::~QContactLocalIdFilter(unsigned int)
	?relationshipType@QContactRelationship@@QBE?AVQString@@XZ @ 106 NONAME ; class QString QContactRelationship::relationshipType(void) const
	?setCalendarId@QContactAnniversary@@QAEXABVQString@@@Z @ 107 NONAME ; void QContactAnniversary::setCalendarId(class QString const &)
	?FieldNickname@QContactOnlineAccount@@2U?$Latin1Literal@$08@@B @ 108 NONAME ; struct Latin1Literal<9> const QContactOnlineAccount::FieldNickname
	?filter@QContactLocalIdFetchRequest@@QBE?AVQContactFilter@@XZ @ 109 NONAME ; class QContactFilter QContactLocalIdFetchRequest::filter(void) const
	?cancelRequest@QContactMemoryEngine@@UAE_NPAVQContactAbstractRequest@@@Z @ 110 NONAME ; bool QContactMemoryEngine::cancelRequest(class QContactAbstractRequest *)
	?HasSpouse@QContactRelationship@@2U?$Latin1Literal@$09@@B @ 111 NONAME ; struct Latin1Literal<10> const QContactRelationship::HasSpouse
	?qt_metacall@QContactRelationshipSaveRequest@@UAEHW4Call@QMetaObject@@HPAPAX@Z @ 112 NONAME ; int QContactRelationshipSaveRequest::qt_metacall(enum QMetaObject::Call, int, void * *)
	?setSorting@QContactFetchRequest@@QAEXABV?$QList@VQContactSortOrder@@@@@Z @ 113 NONAME ; void QContactFetchRequest::setSorting(class QList<class QContactSortOrder> const &)
	?detailWithAction@QContact@@QBE?AVQContactDetail@@ABVQString@@@Z @ 114 NONAME ; class QContactDetail QContact::detailWithAction(class QString const &) const
	?value@QContactDetailFilter@@QBE?AVQVariant@@XZ @ 115 NONAME ; class QVariant QContactDetailFilter::value(void) const
	?metaObject@QContactRelationshipFetchRequest@@UBEPBUQMetaObject@@XZ @ 116 NONAME ; struct QMetaObject const * QContactRelationshipFetchRequest::metaObject(void) const
	?FieldAccuracy@QContactGeolocation@@2U?$Latin1Literal@$08@@B @ 117 NONAME ; struct Latin1Literal<9> const QContactGeolocation::FieldAccuracy
	?filters@QContactUnionFilter@@QBE?AV?$QList@VQContactFilter@@@@XZ @ 118 NONAME ; class QList<class QContactFilter> QContactUnionFilter::filters(void) const
	?FieldModificationTimestamp@QContactTimestamp@@2U?$Latin1Literal@$0BG@@@B @ 119 NONAME ; struct Latin1Literal<22> const QContactTimestamp::FieldModificationTimestamp
	?TypeGroup@QContactType@@2U?$Latin1Literal@$05@@B @ 120 NONAME ; struct Latin1Literal<6> const QContactType::TypeGroup
	?setRole@QContactRelationshipFilter@@QAEXW4Role@1@@Z @ 121 NONAME ; void QContactRelationshipFilter::setRole(enum QContactRelationshipFilter::Role)
	?setEvent@QContactAnniversary@@QAEXABVQString@@@Z @ 122 NONAME ; void QContactAnniversary::setEvent(class QString const &)
	?managerUri@QContactManager@@QBE?AVQString@@XZ @ 123 NONAME ; class QString QContactManager::managerUri(void) const
	?supportedRelationshipTypes@QContactManager@@QBE?AVQStringList@@ABVQString@@@Z @ 124 NONAME ; class QStringList QContactManager::supportedRelationshipTypes(class QString const &) const
	?getStaticMetaObject@QContactRemoveRequest@@SAABUQMetaObject@@XZ @ 125 NONAME ; struct QMetaObject const & QContactRemoveRequest::getStaticMetaObject(void)
	?detailDefinition@QContactManager@@QBE?AVQContactDetailDefinition@@ABVQString@@0@Z @ 126 NONAME ; class QContactDetailDefinition QContactManager::detailDefinition(class QString const &, class QString const &) const
	?FieldNickname@QContactNickname@@2U?$Latin1Literal@$08@@B @ 127 NONAME ; struct Latin1Literal<9> const QContactNickname::FieldNickname
	?FieldTimestamp@QContactGeolocation@@2U?$Latin1Literal@$09@@B @ 128 NONAME ; struct Latin1Literal<10> const QContactGeolocation::FieldTimestamp
	?selfContactIdChanged@QContactManager@@IAEXABI0@Z @ 129 NONAME ; void QContactManager::selfContactIdChanged(unsigned int const &, unsigned int const &)
	?trUtf8@QContactSaveRequest@@SA?AVQString@@PBD0H@Z @ 130 NONAME ; class QString QContactSaveRequest::trUtf8(char const *, char const *, int)
	?FieldSubType@QContactAnniversary@@2U?$Latin1Literal@$07@@B @ 131 NONAME ; struct Latin1Literal<8> const QContactAnniversary::FieldSubType
	?detailFieldName@QContactSortOrder@@QBE?AVQString@@XZ @ 132 NONAME ; class QString QContactSortOrder::detailFieldName(void) const
	?FieldEvent@QContactAnniversary@@2U?$Latin1Literal@$05@@B @ 133 NONAME ; struct Latin1Literal<6> const QContactAnniversary::FieldEvent
	??0QContactTimestamp@@QAE@XZ @ 134 NONAME ; QContactTimestamp::QContactTimestamp(void)
	?tr@QContactRemoveRequest@@SA?AVQString@@PBD0H@Z @ 135 NONAME ; class QString QContactRemoveRequest::tr(char const *, char const *, int)
	?DefinitionName@QContactPhoneNumber@@2U?$Latin1Literal@$0M@@@B @ 136 NONAME ; struct Latin1Literal<12> const QContactPhoneNumber::DefinitionName
	?FieldAccountUri@QContactOnlineAccount@@2U?$Latin1Literal@$0L@@@B @ 137 NONAME ; struct Latin1Literal<11> const QContactOnlineAccount::FieldAccountUri
	?contacts@QContactManagerEngine@@UBE?AV?$QList@I@@ABV?$QList@VQContactSortOrder@@@@AAW4Error@QContactManager@@@Z @ 138 NONAME ; class QList<unsigned int> QContactManagerEngine::contacts(class QList<class QContactSortOrder> const &, enum QContactManager::Error &) const
	?setServiceProvider@QContactOnlineAccount@@QAEXABVQString@@@Z @ 139 NONAME ; void QContactOnlineAccount::setServiceProvider(class QString const &)
	?staticMetaObject@QContactRelationshipFetchRequest@@2UQMetaObject@@B @ 140 NONAME ; struct QMetaObject const QContactRelationshipFetchRequest::staticMetaObject
	?SubTypeMessagingCapable@QContactPhoneNumber@@2U?$Latin1Literal@$0BB@@@B @ 141 NONAME ; struct Latin1Literal<17> const QContactPhoneNumber::SubTypeMessagingCapable
	?tr@QContactRemoveRequest@@SA?AVQString@@PBD0@Z @ 142 NONAME ; class QString QContactRemoveRequest::tr(char const *, char const *)
	?isEmpty@QContact@@QBE_NXZ @ 143 NONAME ; bool QContact::isEmpty(void) const
	??0QContactAnniversary@@QAE@XZ @ 144 NONAME ; QContactAnniversary::QContactAnniversary(void)
	?tr@QContactRelationshipSaveRequest@@SA?AVQString@@PBD0@Z @ 145 NONAME ; class QString QContactRelationshipSaveRequest::tr(char const *, char const *)
	??0QContactMemoryEngine@@IAE@ABV?$QMap@VQString@@V1@@@@Z @ 146 NONAME ; QContactMemoryEngine::QContactMemoryEngine(class QMap<class QString, class QString> const &)
	??1QContactPhoneNumber@@UAE@XZ @ 147 NONAME ; QContactPhoneNumber::~QContactPhoneNumber(void)
	?SubTypeSip@QContactOnlineAccount@@2U?$Latin1Literal@$03@@B @ 148 NONAME ; struct Latin1Literal<4> const QContactOnlineAccount::SubTypeSip
	?displayLabel@QContact@@QBE?AVQString@@XZ @ 149 NONAME ; class QString QContact::displayLabel(void) const
	?d_func@QContactRelationshipRemoveRequest@@AAEPAVQContactRelationshipRemoveRequestPrivate@@XZ @ 150 NONAME ; class QContactRelationshipRemoveRequestPrivate * QContactRelationshipRemoveRequest::d_func(void)
	?setLatitude@QContactGeolocation@@QAEXN@Z @ 151 NONAME ; void QContactGeolocation::setLatitude(double)
	??0QContactGeolocation@@QAE@ABVQContactDetail@@@Z @ 152 NONAME ; QContactGeolocation::QContactGeolocation(class QContactDetail const &)
	?FieldRegion@QContactAddress@@2U?$Latin1Literal@$06@@B @ 153 NONAME ; struct Latin1Literal<7> const QContactAddress::FieldRegion
	?FieldAltitudeAccuracy@QContactGeolocation@@2U?$Latin1Literal@$0BB@@@B @ 154 NONAME ; struct Latin1Literal<17> const QContactGeolocation::FieldAltitudeAccuracy
	?tr@QContactRelationshipSaveRequest@@SA?AVQString@@PBD0H@Z @ 155 NONAME ; class QString QContactRelationshipSaveRequest::tr(char const *, char const *, int)
	?implementationVersion@QContactMemoryEngine@@UBEHXZ @ 156 NONAME ; int QContactMemoryEngine::implementationVersion(void) const
	?SubTypeParcel@QContactAddress@@2U?$Latin1Literal@$06@@B @ 157 NONAME ; struct Latin1Literal<7> const QContactAddress::SubTypeParcel
	?SubTypeFavourite@QContactUrl@@2U?$Latin1Literal@$09@@B @ 158 NONAME ; struct Latin1Literal<10> const QContactUrl::SubTypeFavourite
	??_EQContactActionFilter@@UAE@I@Z @ 159 NONAME ; QContactActionFilter::~QContactActionFilter(unsigned int)
	?testFilter@QContactManagerEngine@@SA_NABVQContactFilter@@ABVQContact@@@Z @ 160 NONAME ; bool QContactManagerEngine::testFilter(class QContactFilter const &, class QContact const &)
	??1QContactGeolocation@@UAE@XZ @ 161 NONAME ; QContactGeolocation::~QContactGeolocation(void)
	??0QContactBirthday@@QAE@XZ @ 162 NONAME ; QContactBirthday::QContactBirthday(void)
	?label@QContactGeolocation@@QBE?AVQString@@XZ @ 163 NONAME ; class QString QContactGeolocation::label(void) const
	??0QContactRelationshipRemoveRequest@@QAE@XZ @ 164 NONAME ; QContactRelationshipRemoveRequest::QContactRelationshipRemoveRequest(void)
	?number@QContactPhoneNumber@@QBE?AVQString@@XZ @ 165 NONAME ; class QString QContactPhoneNumber::number(void) const
	?DefinitionName@QContactType@@2U?$Latin1Literal@$04@@B @ 166 NONAME ; struct Latin1Literal<5> const QContactType::DefinitionName
	?selfContactId@QContactMemoryEngine@@UBEIAAW4Error@QContactManager@@@Z @ 167 NONAME ; unsigned int QContactMemoryEngine::selfContactId(enum QContactManager::Error &) const
	?suffix@QContactName@@QBE?AVQString@@XZ @ 168 NONAME ; class QString QContactName::suffix(void) const
	?tr@QContactMemoryEngine@@SA?AVQString@@PBD0@Z @ 169 NONAME ; class QString QContactMemoryEngine::tr(char const *, char const *)
	?d_func@QContactDetailDefinitionFetchRequest@@ABEPBVQContactDetailDefinitionFetchRequestPrivate@@XZ @ 170 NONAME ; class QContactDetailDefinitionFetchRequestPrivate const * QContactDetailDefinitionFetchRequest::d_func(void) const
	?actionName@QContactActionFilter@@QBE?AVQString@@XZ @ 171 NONAME ; class QString QContactActionFilter::actionName(void) const
	??1QContactTimestamp@@UAE@XZ @ 172 NONAME ; QContactTimestamp::~QContactTimestamp(void)
	?filterSupported@QContactManager@@QBE_NABVQContactFilter@@@Z @ 173 NONAME ; bool QContactManager::filterSupported(class QContactFilter const &) const
	?FieldSpeed@QContactGeolocation@@2U?$Latin1Literal@$05@@B @ 174 NONAME ; struct Latin1Literal<6> const QContactGeolocation::FieldSpeed
	?staticMetaObject@QContactDetailDefinitionRemoveRequest@@2UQMetaObject@@B @ 175 NONAME ; struct QMetaObject const QContactDetailDefinitionRemoveRequest::staticMetaObject
	?removeRelationship@QContactManager@@QAE_NABVQContactRelationship@@@Z @ 176 NONAME ; bool QContactManager::removeRelationship(class QContactRelationship const &)
	?qt_metacall@QContactRelationshipFetchRequest@@UAEHW4Call@QMetaObject@@HPAPAX@Z @ 177 NONAME ; int QContactRelationshipFetchRequest::qt_metacall(enum QMetaObject::Call, int, void * *)
	?progress@QContactRelationshipRemoveRequest@@IAEXPAV1@@Z @ 178 NONAME ; void QContactRelationshipRemoveRequest::progress(class QContactRelationshipRemoveRequest *)
	?setDefinitionRestrictions@QContactFetchRequest@@QAEXABVQStringList@@@Z @ 179 NONAME ; void QContactFetchRequest::setDefinitionRestrictions(class QStringList const &)
	?SubTypeVoice@QContactPhoneNumber@@2U?$Latin1Literal@$05@@B @ 180 NONAME ; struct Latin1Literal<6> const QContactPhoneNumber::SubTypeVoice
	?hasFeature@QContactManagerEngine@@UBE_NW4ManagerFeature@QContactManager@@ABVQString@@@Z @ 181 NONAME ; bool QContactManagerEngine::hasFeature(enum QContactManager::ManagerFeature, class QString const &) const
	?setDefinitions@QContactDetailDefinitionSaveRequest@@QAEXABV?$QList@VQContactDetailDefinition@@@@@Z @ 182 NONAME ; void QContactDetailDefinitionSaveRequest::setDefinitions(class QList<class QContactDetailDefinition> const &)
	??_EQContactIntersectionFilter@@UAE@I@Z @ 183 NONAME ; QContactIntersectionFilter::~QContactIntersectionFilter(unsigned int)
	?definitionRestrictions@QContactFetchRequest@@QBE?AVQStringList@@XZ @ 184 NONAME ; class QStringList QContactFetchRequest::definitionRestrictions(void) const
	?setRange@QContactDetailRangeFilter@@QAEXABVQVariant@@0V?$QFlags@W4RangeFlag@QContactDetailRangeFilter@@@@@Z @ 185 NONAME ; void QContactDetailRangeFilter::setRange(class QVariant const &, class QVariant const &, class QFlags<enum QContactDetailRangeFilter::RangeFlag>)
	?createEngine@QContactManager@@AAEXABVQString@@ABV?$QMap@VQString@@V1@@@@Z @ 186 NONAME ; void QContactManager::createEngine(class QString const &, class QMap<class QString, class QString> const &)
	?d_func@QContactRelationshipSaveRequest@@ABEPBVQContactRelationshipSaveRequestPrivate@@XZ @ 187 NONAME ; class QContactRelationshipSaveRequestPrivate const * QContactRelationshipSaveRequest::d_func(void) const
	?FieldStatusMessage@QContactOnlineAccount@@2U?$Latin1Literal@$0O@@@B @ 188 NONAME ; struct Latin1Literal<14> const QContactOnlineAccount::FieldStatusMessage
	?FieldPrefix@QContactName@@2U?$Latin1Literal@$06@@B @ 189 NONAME ; struct Latin1Literal<7> const QContactName::FieldPrefix
	??_EQContactSyncTarget@@UAE@I@Z @ 190 NONAME ; QContactSyncTarget::~QContactSyncTarget(unsigned int)
	?tr@QContactActionFactory@@SA?AVQString@@PBD0H@Z @ 191 NONAME ; class QString QContactActionFactory::tr(char const *, char const *, int)
	?setLongitude@QContactGeolocation@@QAEXN@Z @ 192 NONAME ; void QContactGeolocation::setLongitude(double)
	?qt_metacall@QContactFetchRequest@@UAEHW4Call@QMetaObject@@HPAPAX@Z @ 193 NONAME ; int QContactFetchRequest::qt_metacall(enum QMetaObject::Call, int, void * *)
	??0QContactName@@QAE@ABVQContactDetail@@@Z @ 194 NONAME ; QContactName::QContactName(class QContactDetail const &)
	??0QContactDisplayLabel@@QAE@XZ @ 195 NONAME ; QContactDisplayLabel::QContactDisplayLabel(void)
	??1QContactDetailFilter@@UAE@XZ @ 196 NONAME ; QContactDetailFilter::~QContactDetailFilter(void)
	?saveRelationship@QContactMemoryEngine@@UAE_NPAVQContactRelationship@@AAW4Error@QContactManager@@@Z @ 197 NONAME ; bool QContactMemoryEngine::saveRelationship(class QContactRelationship *, enum QContactManager::Error &)
	??U@YA?BVQContactFilter@@ABV0@0@Z @ 198 NONAME ; class QContactFilter const operator|(class QContactFilter const &, class QContactFilter const &)
	?hasFeature@QContactMemoryEngine@@UBE_NW4ManagerFeature@QContactManager@@ABVQString@@@Z @ 199 NONAME ; bool QContactMemoryEngine::hasFeature(enum QContactManager::ManagerFeature, class QString const &) const
	??1QContactUrl@@UAE@XZ @ 200 NONAME ; QContactUrl::~QContactUrl(void)
	?setType@QContact@@QAEXABVQContactType@@@Z @ 201 NONAME ; void QContact::setType(class QContactType const &)
	?metaObject@QContactManagerEngine@@UBEPBUQMetaObject@@XZ @ 202 NONAME ; struct QMetaObject const * QContactManagerEngine::metaObject(void) const
	?getStaticMetaObject@QContactLocalIdFetchRequest@@SAABUQMetaObject@@XZ @ 203 NONAME ; struct QMetaObject const & QContactLocalIdFetchRequest::getStaticMetaObject(void)
	??_EQContactId@@QAE@I@Z @ 204 NONAME ; QContactId::~QContactId(unsigned int)
	?qt_metacall@QContactDetailDefinitionSaveRequest@@UAEHW4Call@QMetaObject@@HPAPAX@Z @ 205 NONAME ; int QContactDetailDefinitionSaveRequest::qt_metacall(enum QMetaObject::Call, int, void * *)
	?PresenceAvailable@QContactOnlineAccount@@2U?$Latin1Literal@$09@@B @ 206 NONAME ; struct Latin1Literal<10> const QContactOnlineAccount::PresenceAvailable
	?isFinished@QContactAbstractRequest@@QBE_NXZ @ 207 NONAME ; bool QContactAbstractRequest::isFinished(void) const
	?sorting@QContactFetchRequest@@QBE?AV?$QList@VQContactSortOrder@@@@XZ @ 208 NONAME ; class QList<class QContactSortOrder> QContactFetchRequest::sorting(void) const
	??1QContactRemoveRequest@@UAE@XZ @ 209 NONAME ; QContactRemoveRequest::~QContactRemoveRequest(void)
	??4QContactType@@QAEAAV0@ABVQContactDetail@@@Z @ 210 NONAME ; class QContactType & QContactType::operator=(class QContactDetail const &)
	?setHeading@QContactGeolocation@@QAEXN@Z @ 211 NONAME ; void QContactGeolocation::setHeading(double)
	?DefinitionName@QContactDisplayLabel@@2U?$Latin1Literal@$0N@@@B @ 212 NONAME ; struct Latin1Literal<13> const QContactDisplayLabel::DefinitionName
	?setRegion@QContactAddress@@QAEXABVQString@@@Z @ 213 NONAME ; void QContactAddress::setRegion(class QString const &)
	?Is@QContactRelationship@@2U?$Latin1Literal@$02@@B @ 214 NONAME ; struct Latin1Literal<3> const QContactRelationship::Is
	?d_func@QContactRelationshipFilter@@AAEPAVQContactRelationshipFilterPrivate@@XZ @ 215 NONAME ; class QContactRelationshipFilterPrivate * QContactRelationshipFilter::d_func(void)
	?emitSignals@QContactChangeSet@@QAEXPAVQContactManagerEngine@@@Z @ 216 NONAME ; void QContactChangeSet::emitSignals(class QContactManagerEngine *)
	?updateRequestStatus@QContactManagerEngine@@SAXPAVQContactAbstractRequest@@W4Error@QContactManager@@AAV?$QList@W4Error@QContactManager@@@@W4Status@2@_N@Z @ 217 NONAME ; void QContactManagerEngine::updateRequestStatus(class QContactAbstractRequest *, enum QContactManager::Error, class QList<enum QContactManager::Error> &, enum QContactAbstractRequest::Status, bool)
	?serviceProvider@QContactOnlineAccount@@QBE?AVQString@@XZ @ 218 NONAME ; class QString QContactOnlineAccount::serviceProvider(void) const
	?FieldAvatar@QContactAvatar@@2U?$Latin1Literal@$06@@B @ 219 NONAME ; struct Latin1Literal<7> const QContactAvatar::FieldAvatar
	?setRelationships@QContactRelationshipSaveRequest@@QAEXABV?$QList@VQContactRelationship@@@@@Z @ 220 NONAME ; void QContactRelationshipSaveRequest::setRelationships(class QList<class QContactRelationship> const &)
	?DefinitionName@QContactFamily@@2U?$Latin1Literal@$06@@B @ 221 NONAME ; struct Latin1Literal<7> const QContactFamily::DefinitionName
	??4QContactOnlineAccount@@QAEAAV0@ABVQContactDetail@@@Z @ 222 NONAME ; class QContactOnlineAccount & QContactOnlineAccount::operator=(class QContactDetail const &)
	??1QContactName@@UAE@XZ @ 223 NONAME ; QContactName::~QContactName(void)
	??0QContactAbstractRequest@@QAE@XZ @ 224 NONAME ; QContactAbstractRequest::QContactAbstractRequest(void)
	??9QContactSortOrder@@QBE_NABV0@@Z @ 225 NONAME ; bool QContactSortOrder::operator!=(class QContactSortOrder const &) const
	?contacts@QContactManager@@QBE?AV?$QList@I@@ABV?$QList@VQContactSortOrder@@@@@Z @ 226 NONAME ; class QList<unsigned int> QContactManager::contacts(class QList<class QContactSortOrder> const &) const
	?FieldLatitude@QContactGeolocation@@2U?$Latin1Literal@$08@@B @ 227 NONAME ; struct Latin1Literal<9> const QContactGeolocation::FieldLatitude
	?d_func@QContactFetchRequest@@ABEPBVQContactFetchRequestPrivate@@XZ @ 228 NONAME ; class QContactFetchRequestPrivate const * QContactFetchRequest::d_func(void) const
	?saveContacts@QContactManagerEngine@@UAE?AV?$QList@W4Error@QContactManager@@@@PAV?$QList@VQContact@@@@AAW4Error@QContactManager@@@Z @ 229 NONAME ; class QList<enum QContactManager::Error> QContactManagerEngine::saveContacts(class QList<class QContact> *, enum QContactManager::Error &)
	?error@QContactManager@@QBE?AW4Error@1@XZ @ 230 NONAME ; enum QContactManager::Error QContactManager::error(void) const
	?setVendor@QContactActionFilter@@QAEXABVQString@@H@Z @ 231 NONAME ; void QContactActionFilter::setVendor(class QString const &, int)
	?getStaticMetaObject@QContactRelationshipRemoveRequest@@SAABUQMetaObject@@XZ @ 232 NONAME ; struct QMetaObject const & QContactRelationshipRemoveRequest::getStaticMetaObject(void)
	??1QContactRelationshipFilter@@UAE@XZ @ 233 NONAME ; QContactRelationshipFilter::~QContactRelationshipFilter(void)
	?FieldLocation@QContactOrganization@@2U?$Latin1Literal@$08@@B @ 234 NONAME ; struct Latin1Literal<9> const QContactOrganization::FieldLocation
	?SubTypeCar@QContactPhoneNumber@@2U?$Latin1Literal@$03@@B @ 235 NONAME ; struct Latin1Literal<4> const QContactPhoneNumber::SubTypeCar
	?managerParameters@QContactManager@@QBE?AV?$QMap@VQString@@V1@@@XZ @ 236 NONAME ; class QMap<class QString, class QString> QContactManager::managerParameters(void) const
	??_EQContactDetailFilter@@UAE@I@Z @ 237 NONAME ; QContactDetailFilter::~QContactDetailFilter(unsigned int)
	?availableManagers@QContactManager@@SA?AVQStringList@@XZ @ 238 NONAME ; class QStringList QContactManager::availableManagers(void)
	?setLocalId@QContactId@@QAEXABI@Z @ 239 NONAME ; void QContactId::setLocalId(unsigned int const &)
	?subType@QContactAvatar@@QBE?AVQString@@XZ @ 240 NONAME ; class QString QContactAvatar::subType(void) const
	?setAltitudeAccuracy@QContactGeolocation@@QAEXN@Z @ 241 NONAME ; void QContactGeolocation::setAltitudeAccuracy(double)
	??1QContactAvatar@@UAE@XZ @ 242 NONAME ; QContactAvatar::~QContactAvatar(void)
	??1QContactNickname@@UAE@XZ @ 243 NONAME ; QContactNickname::~QContactNickname(void)
	?qt_metacall@QContactActionFactory@@UAEHW4Call@QMetaObject@@HPAPAX@Z @ 244 NONAME ; int QContactActionFactory::qt_metacall(enum QMetaObject::Call, int, void * *)
	?setDetailDefinitionName@QContactDetailRangeFilter@@QAEXABVQString@@0@Z @ 245 NONAME ; void QContactDetailRangeFilter::setDetailDefinitionName(class QString const &, class QString const &)
	?setActionName@QContactActionFilter@@QAEXABVQString@@@Z @ 246 NONAME ; void QContactActionFilter::setActionName(class QString const &)
	??_EQContactRelationshipFilter@@UAE@I@Z @ 247 NONAME ; QContactRelationshipFilter::~QContactRelationshipFilter(unsigned int)
	??1QContactRelationshipFetchRequest@@UAE@XZ @ 248 NONAME ; QContactRelationshipFetchRequest::~QContactRelationshipFetchRequest(void)
	?second@QContactRelationshipRemoveRequest@@QBE?AVQContactId@@XZ @ 249 NONAME ; class QContactId QContactRelationshipRemoveRequest::second(void) const
	?name@QContactOrganization@@QBE?AVQString@@XZ @ 250 NONAME ; class QString QContactOrganization::name(void) const
	??_EQContactActionDescriptor@@QAE@I@Z @ 251 NONAME ; QContactActionDescriptor::~QContactActionDescriptor(unsigned int)
	?saveRelationships@QContactManagerEngine@@UAE?AV?$QList@W4Error@QContactManager@@@@PAV?$QList@VQContactRelationship@@@@AAW4Error@QContactManager@@@Z @ 252 NONAME ; class QList<enum QContactManager::Error> QContactManagerEngine::saveRelationships(class QList<class QContactRelationship> *, enum QContactManager::Error &)
	?setLogo@QContactOrganization@@QAEXABVQString@@@Z @ 253 NONAME ; void QContactOrganization::setLogo(class QString const &)
	??0QContactActionFilter@@QAE@XZ @ 254 NONAME ; QContactActionFilter::QContactActionFilter(void)
	?contactsAdded@QContactManagerEngine@@IAEXABV?$QList@I@@@Z @ 255 NONAME ; void QContactManagerEngine::contactsAdded(class QList<unsigned int> const &)
	??_EQContactActionFactory@@UAE@I@Z @ 256 NONAME ; QContactActionFactory::~QContactActionFactory(unsigned int)
	?DefinitionName@QContactSyncTarget@@2U?$Latin1Literal@$0L@@@B @ 257 NONAME ; struct Latin1Literal<11> const QContactSyncTarget::DefinitionName
	?names@QContactDetailDefinitionRemoveRequest@@QBE?AVQStringList@@XZ @ 258 NONAME ; class QStringList QContactDetailDefinitionRemoveRequest::names(void) const
	?qt_metacast@QContactRemoveRequest@@UAEPAXPBD@Z @ 259 NONAME ; void * QContactRemoveRequest::qt_metacast(char const *)
	?managerParameters@QContactMemoryEngine@@UBE?AV?$QMap@VQString@@V1@@@XZ @ 260 NONAME ; class QMap<class QString, class QString> QContactMemoryEngine::managerParameters(void) const
	??_EQContactAction@@UAE@I@Z @ 261 NONAME ; QContactAction::~QContactAction(unsigned int)
	?metaObject@QContactManager@@UBEPBUQMetaObject@@XZ @ 262 NONAME ; struct QMetaObject const * QContactManager::metaObject(void) const
	??_EQContactFamily@@UAE@I@Z @ 263 NONAME ; QContactFamily::~QContactFamily(unsigned int)
	?updateRequest@QContactManagerEngine@@SAXPAVQContactAbstractRequest@@ABV?$QList@VQContact@@@@W4Error@QContactManager@@ABV?$QList@W4Error@QContactManager@@@@W4Status@2@_N@Z @ 264 NONAME ; void QContactManagerEngine::updateRequest(class QContactAbstractRequest *, class QList<class QContact> const &, enum QContactManager::Error, class QList<enum QContactManager::Error> const &, enum QContactAbstractRequest::Status, bool)
	?variantValue@QContactDetail@@QBE?AVQVariant@@ABVQString@@@Z @ 265 NONAME ; class QVariant QContactDetail::variantValue(class QString const &) const
	??_EQContactAvatar@@UAE@I@Z @ 266 NONAME ; QContactAvatar::~QContactAvatar(unsigned int)
	??1QContactUnionFilter@@UAE@XZ @ 267 NONAME ; QContactUnionFilter::~QContactUnionFilter(void)
	?FieldSubType@QContactAvatar@@2U?$Latin1Literal@$07@@B @ 268 NONAME ; struct Latin1Literal<8> const QContactAvatar::FieldSubType
	?FieldLast@QContactName@@2U?$Latin1Literal@$04@@B @ 269 NONAME ; struct Latin1Literal<5> const QContactName::FieldLast
	?SubTypeLandline@QContactPhoneNumber@@2U?$Latin1Literal@$08@@B @ 270 NONAME ; struct Latin1Literal<9> const QContactPhoneNumber::SubTypeLandline
	?created@QContactTimestamp@@QBE?AVQDateTime@@XZ @ 271 NONAME ; class QDateTime QContactTimestamp::created(void) const
	?staticMetaObject@QContactRelationshipSaveRequest@@2UQMetaObject@@B @ 272 NONAME ; struct QMetaObject const QContactRelationshipSaveRequest::staticMetaObject
	?postOfficeBox@QContactAddress@@QBE?AVQString@@XZ @ 273 NONAME ; class QString QContactAddress::postOfficeBox(void) const
	?staticMetaObject@QContactAbstractRequest@@2UQMetaObject@@B @ 274 NONAME ; struct QMetaObject const QContactAbstractRequest::staticMetaObject
	?FieldSubTypes@QContactOnlineAccount@@2U?$Latin1Literal@$08@@B @ 275 NONAME ; struct Latin1Literal<9> const QContactOnlineAccount::FieldSubTypes
	?progress@QContactLocalIdFetchRequest@@IAEXPAV1@_N@Z @ 276 NONAME ; void QContactLocalIdFetchRequest::progress(class QContactLocalIdFetchRequest *, bool)
	??0QContactUrl@@QAE@XZ @ 277 NONAME ; QContactUrl::QContactUrl(void)
	?PresenceOffline@QContactOnlineAccount@@2U?$Latin1Literal@$07@@B @ 278 NONAME ; struct Latin1Literal<8> const QContactOnlineAccount::PresenceOffline
	??_EQContactRelationshipSaveRequest@@UAE@I@Z @ 279 NONAME ; QContactRelationshipSaveRequest::~QContactRelationshipSaveRequest(unsigned int)
	?FieldGender@QContactGender@@2U?$Latin1Literal@$06@@B @ 280 NONAME ; struct Latin1Literal<7> const QContactGender::FieldGender
	??1QContactActionFactory@@UAE@XZ @ 281 NONAME ; QContactActionFactory::~QContactActionFactory(void)
	?SubTypePostal@QContactAddress@@2U?$Latin1Literal@$06@@B @ 282 NONAME ; struct Latin1Literal<7> const QContactAddress::SubTypePostal
	?qt_metacall@QContactDetailDefinitionFetchRequest@@UAEHW4Call@QMetaObject@@HPAPAX@Z @ 283 NONAME ; int QContactDetailDefinitionFetchRequest::qt_metacall(enum QMetaObject::Call, int, void * *)
	?FieldFirst@QContactName@@2U?$Latin1Literal@$05@@B @ 284 NONAME ; struct Latin1Literal<6> const QContactName::FieldFirst
	?d_func@QContactRelationshipFetchRequest@@AAEPAVQContactRelationshipFetchRequestPrivate@@XZ @ 285 NONAME ; class QContactRelationshipFetchRequestPrivate * QContactRelationshipFetchRequest::d_func(void)
	?supportedDataTypes@QContactManagerEngine@@UBE?AV?$QList@W4Type@QVariant@@@@XZ @ 286 NONAME ; class QList<enum QVariant::Type> QContactManagerEngine::supportedDataTypes(void) const
	??0QContactFilter@@QAE@XZ @ 287 NONAME ; QContactFilter::QContactFilter(void)
	?addSorted@QContactManagerEngine@@SAXPAV?$QList@VQContact@@@@ABVQContact@@ABV?$QList@VQContactSortOrder@@@@@Z @ 288 NONAME ; void QContactManagerEngine::addSorted(class QList<class QContact> *, class QContact const &, class QList<class QContactSortOrder> const &)
	??0QContactPhoneNumber@@QAE@XZ @ 289 NONAME ; QContactPhoneNumber::QContactPhoneNumber(void)
	??4QContactRelationship@@QAEAAV0@ABV0@@Z @ 290 NONAME ; class QContactRelationship & QContactRelationship::operator=(class QContactRelationship const &)
	?engines@QContactMemoryEngine@@0V?$QMap@VQString@@PAVQContactMemoryEngine@@@@A @ 291 NONAME ; class QMap<class QString, class QContactMemoryEngine *> QContactMemoryEngine::engines
	?definitions@QContactDetailDefinitionFetchRequest@@QBE?AV?$QMap@VQString@@VQContactDetailDefinition@@@@XZ @ 292 NONAME ; class QMap<class QString, class QContactDetailDefinition> QContactDetailDefinitionFetchRequest::definitions(void) const
	?note@QContactNote@@QBE?AVQString@@XZ @ 293 NONAME ; class QString QContactNote::note(void) const
	??1QContactNote@@UAE@XZ @ 294 NONAME ; QContactNote::~QContactNote(void)
	?FieldOriginalDate@QContactAnniversary@@2U?$Latin1Literal@$0N@@@B @ 295 NONAME ; struct Latin1Literal<13> const QContactAnniversary::FieldOriginalDate
	?type@QContactType@@QBE?AVQString@@XZ @ 296 NONAME ; class QString QContactType::type(void) const
	??0QContactOnlineAccount@@QAE@XZ @ 297 NONAME ; QContactOnlineAccount::QContactOnlineAccount(void)
	?accuracy@QContactGeolocation@@QBENXZ @ 298 NONAME ; double QContactGeolocation::accuracy(void) const
	?TypeContact@QContactType@@2U?$Latin1Literal@$07@@B @ 299 NONAME ; struct Latin1Literal<8> const QContactType::TypeContact
	?selfContactId@QContactManager@@QBEIXZ @ 300 NONAME ; unsigned int QContactManager::selfContactId(void) const
	?dataChanged@QContactManagerEngine@@IAEXXZ @ 301 NONAME ; void QContactManagerEngine::dataChanged(void)
	?FieldType@QContactType@@2U?$Latin1Literal@$04@@B @ 302 NONAME ; struct Latin1Literal<5> const QContactType::FieldType
	??1QContactInvalidFilter@@UAE@XZ @ 303 NONAME ; QContactInvalidFilter::~QContactInvalidFilter(void)
	?setDataChanged@QContactChangeSet@@QAEX_N@Z @ 304 NONAME ; void QContactChangeSet::setDataChanged(bool)
	??0QContactGeolocation@@QAE@XZ @ 305 NONAME ; QContactGeolocation::QContactGeolocation(void)
	??_EQContactOrganization@@UAE@I@Z @ 306 NONAME ; QContactOrganization::~QContactOrganization(unsigned int)
	?append@QContactUnionFilter@@QAEXABVQContactFilter@@@Z @ 307 NONAME ; void QContactUnionFilter::append(class QContactFilter const &)
	?qt_metacall@QContactSaveRequest@@UAEHW4Call@QMetaObject@@HPAPAX@Z @ 308 NONAME ; int QContactSaveRequest::qt_metacall(enum QMetaObject::Call, int, void * *)
	?progress@QContactRelationshipSaveRequest@@IAEXPAV1@@Z @ 309 NONAME ; void QContactRelationshipSaveRequest::progress(class QContactRelationshipSaveRequest *)
	??1QContactAction@@UAE@XZ @ 310 NONAME ; QContactAction::~QContactAction(void)
	??1QContactDetailDefinition@@QAE@XZ @ 311 NONAME ; QContactDetailDefinition::~QContactDetailDefinition(void)
	?PresenceHidden@QContactOnlineAccount@@2U?$Latin1Literal@$06@@B @ 312 NONAME ; struct Latin1Literal<7> const QContactOnlineAccount::PresenceHidden
	?buildUri@QContactManager@@SA?AVQString@@ABV2@ABV?$QMap@VQString@@V1@@@H@Z @ 313 NONAME ; class QString QContactManager::buildUri(class QString const &, class QMap<class QString, class QString> const &, int)
	?tr@QContactRelationshipFetchRequest@@SA?AVQString@@PBD0H@Z @ 314 NONAME ; class QString QContactRelationshipFetchRequest::tr(char const *, char const *, int)
	?ContextHome@QContactDetail@@2U?$Latin1Literal@$04@@B @ 315 NONAME ; struct Latin1Literal<5> const QContactDetail::ContextHome
	?setLabel@QContactGeolocation@@QAEXABVQString@@@Z @ 316 NONAME ; void QContactGeolocation::setLabel(class QString const &)
	?participantRole@QContactRelationshipFetchRequest@@QBE?AW4Role@QContactRelationshipFilter@@XZ @ 317 NONAME ; enum QContactRelationshipFilter::Role QContactRelationshipFetchRequest::participantRole(void) const
	??0QContactRelationshipFilter@@QAE@ABVQContactFilter@@@Z @ 318 NONAME ; QContactRelationshipFilter::QContactRelationshipFilter(class QContactFilter const &)
	?contexts@QContactDetail@@QBE?AVQStringList@@XZ @ 319 NONAME ; class QStringList QContactDetail::contexts(void) const
	?removeDetailDefinition@QContactManager@@QAE_NABVQString@@0@Z @ 320 NONAME ; bool QContactManager::removeDetailDefinition(class QString const &, class QString const &)
	??1QContactRelationship@@QAE@XZ @ 321 NONAME ; QContactRelationship::~QContactRelationship(void)
	?relationships@QContactMemoryEngine@@UBE?AV?$QList@VQContactRelationship@@@@ABVQString@@ABVQContactId@@W4Role@QContactRelationshipFilter@@AAW4Error@QContactManager@@@Z @ 322 NONAME ; class QList<class QContactRelationship> QContactMemoryEngine::relationships(class QString const &, class QContactId const &, enum QContactRelationshipFilter::Role, enum QContactManager::Error &) const
	?PresenceBusy@QContactOnlineAccount@@2U?$Latin1Literal@$04@@B @ 323 NONAME ; struct Latin1Literal<5> const QContactOnlineAccount::PresenceBusy
	??0QContactChangeSet@@QAE@XZ @ 324 NONAME ; QContactChangeSet::QContactChangeSet(void)
	?d_func@QContactSaveRequest@@ABEPBVQContactSaveRequestPrivate@@XZ @ 325 NONAME ; class QContactSaveRequestPrivate const * QContactSaveRequest::d_func(void) const
	?removedContacts@QContactChangeSet@@QAEAAV?$QSet@I@@XZ @ 326 NONAME ; class QSet<unsigned int> & QContactChangeSet::removedContacts(void)
	?removeDetailDefinition@QContactManagerEngine@@UAE_NABVQString@@0AAW4Error@QContactManager@@@Z @ 327 NONAME ; bool QContactManagerEngine::removeDetailDefinition(class QString const &, class QString const &, enum QContactManager::Error &)
	?matchFlags@QContactDetailRangeFilter@@QBE?AV?$QFlags@W4MatchFlag@QContactFilter@@@@XZ @ 328 NONAME ; class QFlags<enum QContactFilter::MatchFlag> QContactDetailRangeFilter::matchFlags(void) const
	?managerName@QContactManager@@QBE?AVQString@@XZ @ 329 NONAME ; class QString QContactManager::managerName(void) const
	?removeDetailDefinition@QContactMemoryEngine@@AAE_NABVQString@@0AAVQContactChangeSet@@AAW4Error@QContactManager@@@Z @ 330 NONAME ; bool QContactMemoryEngine::removeDetailDefinition(class QString const &, class QString const &, class QContactChangeSet &, enum QContactManager::Error &)
	?setCaseSensitivity@QContactSortOrder@@QAEXW4CaseSensitivity@Qt@@@Z @ 331 NONAME ; void QContactSortOrder::setCaseSensitivity(enum Qt::CaseSensitivity)
	?contactsAdded@QContactManager@@IAEXABV?$QList@I@@@Z @ 332 NONAME ; void QContactManager::contactsAdded(class QList<unsigned int> const &)
	?staticMetaObject@QContactDetailDefinitionFetchRequest@@2UQMetaObject@@B @ 333 NONAME ; struct QMetaObject const QContactDetailDefinitionFetchRequest::staticMetaObject
	??9QContactId@@QBE_NABV0@@Z @ 334 NONAME ; bool QContactId::operator!=(class QContactId const &) const
	??_EQContactAbstractRequest@@UAE@I@Z @ 335 NONAME ; QContactAbstractRequest::~QContactAbstractRequest(unsigned int)
	?setSecond@QContactRelationshipRemoveRequest@@QAEXABVQContactId@@@Z @ 336 NONAME ; void QContactRelationshipRemoveRequest::setSecond(class QContactId const &)
	?longitude@QContactGeolocation@@QBENXZ @ 337 NONAME ; double QContactGeolocation::longitude(void) const
	?validateContact@QContactManagerEngine@@UBE_NABVQContact@@AAW4Error@QContactManager@@@Z @ 338 NONAME ; bool QContactManagerEngine::validateContact(class QContact const &, enum QContactManager::Error &) const
	??0QContactDetail@@QAE@XZ @ 339 NONAME ; QContactDetail::QContactDetail(void)
	?remove@QContactIntersectionFilter@@QAEXABVQContactFilter@@@Z @ 340 NONAME ; void QContactIntersectionFilter::remove(class QContactFilter const &)
	?PresenceExtendedAway@QContactOnlineAccount@@2U?$Latin1Literal@$0N@@@B @ 341 NONAME ; struct Latin1Literal<13> const QContactOnlineAccount::PresenceExtendedAway
	?tr@QContactDetailDefinitionRemoveRequest@@SA?AVQString@@PBD0H@Z @ 342 NONAME ; class QString QContactDetailDefinitionRemoveRequest::tr(char const *, char const *, int)
	??1QContactType@@UAE@XZ @ 343 NONAME ; QContactType::~QContactType(void)
	?trUtf8@QContactRelationshipSaveRequest@@SA?AVQString@@PBD0@Z @ 344 NONAME ; class QString QContactRelationshipSaveRequest::trUtf8(char const *, char const *)
	?fields@QContactDetailDefinition@@QAEAAV?$QMap@VQString@@VQContactDetailDefinitionField@@@@XZ @ 345 NONAME ; class QMap<class QString, class QContactDetailDefinitionField> & QContactDetailDefinition::fields(void)
	?implementationVersion@QContactActionFilter@@QBEHXZ @ 346 NONAME ; int QContactActionFilter::implementationVersion(void) const
	?trUtf8@QContactSaveRequest@@SA?AVQString@@PBD0@Z @ 347 NONAME ; class QString QContactSaveRequest::trUtf8(char const *, char const *)
	?role@QContactRelationshipFilter@@QBE?AW4Role@1@XZ @ 348 NONAME ; enum QContactRelationshipFilter::Role QContactRelationshipFilter::role(void) const
	?GenderUnspecified@QContactGender@@2U?$Latin1Literal@$0M@@@B @ 349 NONAME ; struct Latin1Literal<12> const QContactGender::GenderUnspecified
	?removeRelationship@QContactMemoryEngine@@UAE_NABVQContactRelationship@@AAW4Error@QContactManager@@@Z @ 350 NONAME ; bool QContactMemoryEngine::removeRelationship(class QContactRelationship const &, enum QContactManager::Error &)
	??0QContactDetail@@IAE@ABV0@ABVQString@@@Z @ 351 NONAME ; QContactDetail::QContactDetail(class QContactDetail const &, class QString const &)
	?progress@QContactDetailDefinitionRemoveRequest@@IAEXPAV1@@Z @ 352 NONAME ; void QContactDetailDefinitionRemoveRequest::progress(class QContactDetailDefinitionRemoveRequest *)
	??0QContactRelationshipSaveRequest@@QAE@XZ @ 353 NONAME ; QContactRelationshipSaveRequest::QContactRelationshipSaveRequest(void)
	??4QContactFilter@@QAEAAV0@ABV0@@Z @ 354 NONAME ; class QContactFilter & QContactFilter::operator=(class QContactFilter const &)
	?staticMetaObject@QContactFetchRequest@@2UQMetaObject@@B @ 355 NONAME ; struct QMetaObject const QContactFetchRequest::staticMetaObject
	?FieldNote@QContactNote@@2U?$Latin1Literal@$04@@B @ 356 NONAME ; struct Latin1Literal<5> const QContactNote::FieldNote
	?detailFieldName@QContactDetailRangeFilter@@QBE?AVQString@@XZ @ 357 NONAME ; class QString QContactDetailRangeFilter::detailFieldName(void) const
	?qt_metacast@QContactManagerEngine@@UAEPAXPBD@Z @ 358 NONAME ; void * QContactManagerEngine::qt_metacast(char const *)
	?relationshipsRemoved@QContactManagerEngine@@IAEXABV?$QList@I@@@Z @ 359 NONAME ; void QContactManagerEngine::relationshipsRemoved(class QList<unsigned int> const &)
	?setValue@QContactDetail@@QAE_NABVQString@@ABVQVariant@@@Z @ 360 NONAME ; bool QContactDetail::setValue(class QString const &, class QVariant const &)
	?trUtf8@QContactDetailDefinitionRemoveRequest@@SA?AVQString@@PBD0@Z @ 361 NONAME ; class QString QContactDetailDefinitionRemoveRequest::trUtf8(char const *, char const *)
	?eventType@QContactChangeLogFilter@@QBE?AW4EventType@1@XZ @ 362 NONAME ; enum QContactChangeLogFilter::EventType QContactChangeLogFilter::eventType(void) const
	?localId@QContact@@QBEIXZ @ 363 NONAME ; unsigned int QContact::localId(void) const
	?SubTypeWedding@QContactAnniversary@@2U?$Latin1Literal@$07@@B @ 364 NONAME ; struct Latin1Literal<8> const QContactAnniversary::SubTypeWedding
	?qt_metacall@QContactRelationshipRemoveRequest@@UAEHW4Call@QMetaObject@@HPAPAX@Z @ 365 NONAME ; int QContactRelationshipRemoveRequest::qt_metacall(enum QMetaObject::Call, int, void * *)
	?DefinitionName@QContactGeolocation@@2U?$Latin1Literal@$0M@@@B @ 366 NONAME ; struct Latin1Literal<12> const QContactGeolocation::DefinitionName
	?setImplementationVersion@QContactActionDescriptor@@QAEXH@Z @ 367 NONAME ; void QContactActionDescriptor::setImplementationVersion(int)
	?setActionName@QContactActionDescriptor@@QAEXABVQString@@@Z @ 368 NONAME ; void QContactActionDescriptor::setActionName(class QString const &)
	?tr@QContactManager@@SA?AVQString@@PBD0@Z @ 369 NONAME ; class QString QContactManager::tr(char const *, char const *)
	?contacts@QContactMemoryEngine@@UBE?AV?$QList@I@@ABV?$QList@VQContactSortOrder@@@@AAW4Error@QContactManager@@@Z @ 370 NONAME ; class QList<unsigned int> QContactMemoryEngine::contacts(class QList<class QContactSortOrder> const &, enum QContactManager::Error &) const
	??1QContactEmailAddress@@UAE@XZ @ 371 NONAME ; QContactEmailAddress::~QContactEmailAddress(void)
	?setSpeed@QContactGeolocation@@QAEXN@Z @ 372 NONAME ; void QContactGeolocation::setSpeed(double)
	?setAccuracy@QContactGeolocation@@QAEXN@Z @ 373 NONAME ; void QContactGeolocation::setAccuracy(double)
	?caseSensitivity@QContactSortOrder@@QBE?AW4CaseSensitivity@Qt@@XZ @ 374 NONAME ; enum Qt::CaseSensitivity QContactSortOrder::caseSensitivity(void) const
	?DefinitionName@QContactNickname@@2U?$Latin1Literal@$08@@B @ 375 NONAME ; struct Latin1Literal<9> const QContactNickname::DefinitionName
	??9QContact@@QBE_NABV0@@Z @ 376 NONAME ; bool QContact::operator!=(class QContact const &) const
	??0QContactLocalIdFilter@@QAE@ABVQContactFilter@@@Z @ 377 NONAME ; QContactLocalIdFilter::QContactLocalIdFilter(class QContactFilter const &)
	??_EQContactDisplayLabel@@UAE@I@Z @ 378 NONAME ; QContactDisplayLabel::~QContactDisplayLabel(unsigned int)
	??_EQContactFilter@@UAE@I@Z @ 379 NONAME ; QContactFilter::~QContactFilter(unsigned int)
	?trUtf8@QContactAction@@SA?AVQString@@PBD0H@Z @ 380 NONAME ; class QString QContactAction::trUtf8(char const *, char const *, int)
	?saveRelationship@QContactManagerEngine@@UAE_NPAVQContactRelationship@@AAW4Error@QContactManager@@@Z @ 381 NONAME ; bool QContactManagerEngine::saveRelationship(class QContactRelationship *, enum QContactManager::Error &)
	??4QContactId@@QAEAAV0@ABV0@@Z @ 382 NONAME ; class QContactId & QContactId::operator=(class QContactId const &)
	?trUtf8@QContactManagerEngine@@SA?AVQString@@PBD0@Z @ 383 NONAME ; class QString QContactManagerEngine::trUtf8(char const *, char const *)
	?contacts@QContactManager@@QBE?AV?$QList@I@@ABVQContactFilter@@ABV?$QList@VQContactSortOrder@@@@@Z @ 384 NONAME ; class QList<unsigned int> QContactManager::contacts(class QContactFilter const &, class QList<class QContactSortOrder> const &) const
	??0QContactOrganization@@QAE@XZ @ 385 NONAME ; QContactOrganization::QContactOrganization(void)
	?syncTarget@QContactSyncTarget@@QBE?AVQString@@XZ @ 386 NONAME ; class QString QContactSyncTarget::syncTarget(void) const
	??4QContactTimestamp@@QAEAAV0@ABVQContactDetail@@@Z @ 387 NONAME ; class QContactTimestamp & QContactTimestamp::operator=(class QContactDetail const &)
	?relationshipsAdded@QContactManager@@IAEXABV?$QList@I@@@Z @ 388 NONAME ; void QContactManager::relationshipsAdded(class QList<unsigned int> const &)
	??8QContactActionDescriptor@@QBE_NABV0@@Z @ 389 NONAME ; bool QContactActionDescriptor::operator==(class QContactActionDescriptor const &) const
	?isEmpty@QContactActionDescriptor@@QBE_NXZ @ 390 NONAME ; bool QContactActionDescriptor::isEmpty(void) const
	?filterSupported@QContactMemoryEngine@@UBE_NABVQContactFilter@@@Z @ 391 NONAME ; bool QContactMemoryEngine::filterSupported(class QContactFilter const &) const
	??0QContactFetchRequest@@QAE@XZ @ 392 NONAME ; QContactFetchRequest::QContactFetchRequest(void)
	?contact@QContactManagerEngine@@UBE?AVQContact@@ABIAAW4Error@QContactManager@@@Z @ 393 NONAME ; class QContact QContactManagerEngine::contact(unsigned int const &, enum QContactManager::Error &) const
	??4QContactDetailDefinition@@QAEAAV0@ABV0@@Z @ 394 NONAME ; class QContactDetailDefinition & QContactDetailDefinition::operator=(class QContactDetailDefinition const &)
	?originalDate@QContactAnniversary@@QBE?AVQDate@@XZ @ 395 NONAME ; class QDate QContactAnniversary::originalDate(void) const
	?trUtf8@QContactFetchRequest@@SA?AVQString@@PBD0H@Z @ 396 NONAME ; class QString QContactFetchRequest::trUtf8(char const *, char const *, int)
	?subType@QContactUrl@@QBE?AVQString@@XZ @ 397 NONAME ; class QString QContactUrl::subType(void) const
	?getStaticMetaObject@QContactAction@@SAABUQMetaObject@@XZ @ 398 NONAME ; struct QMetaObject const & QContactAction::getStaticMetaObject(void)
	??9QContactFilter@@QBE_NABV0@@Z @ 399 NONAME ; bool QContactFilter::operator!=(class QContactFilter const &) const
	?managerParameters@QContactManagerEngine@@UBE?AV?$QMap@VQString@@V1@@@XZ @ 400 NONAME ; class QMap<class QString, class QString> QContactManagerEngine::managerParameters(void) const
	?updateRequest@QContactManagerEngine@@SAXPAVQContactAbstractRequest@@ABV?$QMap@VQString@@VQContactDetailDefinition@@@@W4Error@QContactManager@@ABV?$QList@W4Error@QContactManager@@@@W4Status@2@_N@Z @ 401 NONAME ; void QContactManagerEngine::updateRequest(class QContactAbstractRequest *, class QMap<class QString, class QContactDetailDefinition> const &, enum QContactManager::Error, class QList<enum QContactManager::Error> const &, enum QContactAbstractRequest::Status, bool)
	?relatedContacts@QContact@@QBE?AV?$QList@VQContactId@@@@ABVQString@@W4Role@QContactRelationshipFilter@@@Z @ 402 NONAME ; class QList<class QContactId> QContact::relatedContacts(class QString const &, enum QContactRelationshipFilter::Role) const
	??_EQContactMemoryEngine@@UAE@I@Z @ 403 NONAME ; QContactMemoryEngine::~QContactMemoryEngine(unsigned int)
	??1QContactActionDescriptor@@QAE@XZ @ 404 NONAME ; QContactActionDescriptor::~QContactActionDescriptor(void)
	??0QContactUnionFilter@@QAE@XZ @ 405 NONAME ; QContactUnionFilter::QContactUnionFilter(void)
	?FieldServiceProvider@QContactOnlineAccount@@2U?$Latin1Literal@$0BA@@@B @ 406 NONAME ; struct Latin1Literal<16> const QContactOnlineAccount::FieldServiceProvider
	??1QContactChangeSet@@QAE@XZ @ 407 NONAME ; QContactChangeSet::~QContactChangeSet(void)
	?otherParticipantId@QContactRelationshipFilter@@QBE?AVQContactId@@XZ @ 408 NONAME ; class QContactId QContactRelationshipFilter::otherParticipantId(void) const
	?setSubTypes@QContactOnlineAccount@@QAEXABVQStringList@@@Z @ 409 NONAME ; void QContactOnlineAccount::setSubTypes(class QStringList const &)
	?HasMember@QContactRelationship@@2U?$Latin1Literal@$09@@B @ 410 NONAME ; struct Latin1Literal<10> const QContactRelationship::HasMember
	?detailDefinitions@QContactMemoryEngine@@UBE?AV?$QMap@VQString@@VQContactDetailDefinition@@@@ABVQString@@AAW4Error@QContactManager@@@Z @ 411 NONAME ; class QMap<class QString, class QContactDetailDefinition> QContactMemoryEngine::detailDefinitions(class QString const &, enum QContactManager::Error &) const
	?staticMetaObject@QContactRelationshipRemoveRequest@@2UQMetaObject@@B @ 412 NONAME ; struct QMetaObject const QContactRelationshipRemoveRequest::staticMetaObject
	?DefinitionName@QContactNote@@2U?$Latin1Literal@$04@@B @ 413 NONAME ; struct Latin1Literal<5> const QContactNote::DefinitionName
	?FieldPostcode@QContactAddress@@2U?$Latin1Literal@$08@@B @ 414 NONAME ; struct Latin1Literal<9> const QContactAddress::FieldPostcode
	?GenderFemale@QContactGender@@2U?$Latin1Literal@$06@@B @ 415 NONAME ; struct Latin1Literal<7> const QContactGender::GenderFemale
	?clear@QContactChangeSet@@QAEXXZ @ 416 NONAME ; void QContactChangeSet::clear(void)
	?participant@QContactRelationshipFetchRequest@@QBE?AVQContactId@@XZ @ 417 NONAME ; class QContactId QContactRelationshipFetchRequest::participant(void) const
	?saveRelationships@QContactManager@@QAE?AV?$QList@W4Error@QContactManager@@@@PAV?$QList@VQContactRelationship@@@@@Z @ 418 NONAME ; class QList<enum QContactManager::Error> QContactManager::saveRelationships(class QList<class QContactRelationship> *)
	?metaObject@QContactRemoveRequest@@UBEPBUQMetaObject@@XZ @ 419 NONAME ; struct QMetaObject const * QContactRemoveRequest::metaObject(void) const
	?setGender@QContactGender@@QAEXABVQString@@@Z @ 420 NONAME ; void QContactGender::setGender(class QString const &)
	?tr@QContactDetailDefinitionFetchRequest@@SA?AVQString@@PBD0H@Z @ 421 NONAME ; class QString QContactDetailDefinitionFetchRequest::tr(char const *, char const *, int)
	?SubTypeHouse@QContactAnniversary@@2U?$Latin1Literal@$05@@B @ 422 NONAME ; struct Latin1Literal<6> const QContactAnniversary::SubTypeHouse
	?supportedRelationshipTypes@QContactManagerEngine@@UBE?AVQStringList@@ABVQString@@@Z @ 423 NONAME ; class QStringList QContactManagerEngine::supportedRelationshipTypes(class QString const &) const
	?setEmailAddress@QContactEmailAddress@@QAEXABVQString@@@Z @ 424 NONAME ; void QContactEmailAddress::setEmailAddress(class QString const &)
	?qt_metacast@QContactLocalIdFetchRequest@@UAEPAXPBD@Z @ 425 NONAME ; void * QContactLocalIdFetchRequest::qt_metacast(char const *)
	?d_func@QContactRelationshipFetchRequest@@ABEPBVQContactRelationshipFetchRequestPrivate@@XZ @ 426 NONAME ; class QContactRelationshipFetchRequestPrivate const * QContactRelationshipFetchRequest::d_func(void) const
	??4QContactAnniversary@@QAEAAV0@ABVQContactDetail@@@Z @ 427 NONAME ; class QContactAnniversary & QContactAnniversary::operator=(class QContactDetail const &)
	?qt_metacast@QContactDetailDefinitionFetchRequest@@UAEPAXPBD@Z @ 428 NONAME ; void * QContactDetailDefinitionFetchRequest::qt_metacast(char const *)
	??4QContactFamily@@QAEAAV0@ABVQContactDetail@@@Z @ 429 NONAME ; class QContactFamily & QContactFamily::operator=(class QContactDetail const &)
	??_EQContactName@@UAE@I@Z @ 430 NONAME ; QContactName::~QContactName(unsigned int)
	??_EQContactGuid@@UAE@I@Z @ 431 NONAME ; QContactGuid::~QContactGuid(unsigned int)
	?ids@QContactLocalIdFilter@@QBE?AV?$QList@I@@XZ @ 432 NONAME ; class QList<unsigned int> QContactLocalIdFilter::ids(void) const
	?relationshipType@QContactRelationshipRemoveRequest@@QBE?AVQString@@XZ @ 433 NONAME ; class QString QContactRelationshipRemoveRequest::relationshipType(void) const
	?setEventType@QContactChangeLogFilter@@QAEXW4EventType@1@@Z @ 434 NONAME ; void QContactChangeLogFilter::setEventType(enum QContactChangeLogFilter::EventType)
	??_EQContactSortOrder@@QAE@I@Z @ 435 NONAME ; QContactSortOrder::~QContactSortOrder(unsigned int)
	?d_func@QContactIntersectionFilter@@AAEPAVQContactIntersectionFilterPrivate@@XZ @ 436 NONAME ; class QContactIntersectionFilterPrivate * QContactIntersectionFilter::d_func(void)
	?speed@QContactGeolocation@@QBENXZ @ 437 NONAME ; double QContactGeolocation::speed(void) const
	?FieldSubTypes@QContactAddress@@2U?$Latin1Literal@$08@@B @ 438 NONAME ; struct Latin1Literal<9> const QContactAddress::FieldSubTypes
	??1QContactLocalIdFetchRequest@@UAE@XZ @ 439 NONAME ; QContactLocalIdFetchRequest::~QContactLocalIdFetchRequest(void)
	??0QContactFamily@@QAE@XZ @ 440 NONAME ; QContactFamily::QContactFamily(void)
	?SubTypeVideo@QContactAvatar@@2U?$Latin1Literal@$05@@B @ 441 NONAME ; struct Latin1Literal<6> const QContactAvatar::SubTypeVideo
	??0QContactType@@QAE@ABVQContactDetail@@@Z @ 442 NONAME ; QContactType::QContactType(class QContactDetail const &)
	?setFilters@QContactIntersectionFilter@@QAEXABV?$QList@VQContactFilter@@@@@Z @ 443 NONAME ; void QContactIntersectionFilter::setFilters(class QList<class QContactFilter> const &)
	?removeContact@QContactMemoryEngine@@UAE_NABIAAW4Error@QContactManager@@@Z @ 444 NONAME ; bool QContactMemoryEngine::removeContact(unsigned int const &, enum QContactManager::Error &)
	?since@QContactChangeLogFilter@@QBE?AVQDateTime@@XZ @ 445 NONAME ; class QDateTime QContactChangeLogFilter::since(void) const
	??0QContactId@@QAE@XZ @ 446 NONAME ; QContactId::QContactId(void)
	?FieldLogo@QContactOrganization@@2U?$Latin1Literal@$04@@B @ 447 NONAME ; struct Latin1Literal<5> const QContactOrganization::FieldLogo
	??4QContactOrganization@@QAEAAV0@ABVQContactDetail@@@Z @ 448 NONAME ; class QContactOrganization & QContactOrganization::operator=(class QContactDetail const &)
	?tr@QContactLocalIdFetchRequest@@SA?AVQString@@PBD0@Z @ 449 NONAME ; class QString QContactLocalIdFetchRequest::tr(char const *, char const *)
	?SubTypeAssistant@QContactPhoneNumber@@2U?$Latin1Literal@$09@@B @ 450 NONAME ; struct Latin1Literal<10> const QContactPhoneNumber::SubTypeAssistant
	?vendorName@QContactActionFilter@@QBE?AVQString@@XZ @ 451 NONAME ; class QString QContactActionFilter::vendorName(void) const
	?trUtf8@QContactActionFactory@@SA?AVQString@@PBD0@Z @ 452 NONAME ; class QString QContactActionFactory::trUtf8(char const *, char const *)
	?trUtf8@QContactDetailDefinitionFetchRequest@@SA?AVQString@@PBD0@Z @ 453 NONAME ; class QString QContactDetailDefinitionFetchRequest::trUtf8(char const *, char const *)
	??1QContactMemoryEngine@@UAE@XZ @ 454 NONAME ; QContactMemoryEngine::~QContactMemoryEngine(void)
	??_EQContactEmailAddress@@UAE@I@Z @ 455 NONAME ; QContactEmailAddress::~QContactEmailAddress(unsigned int)
	?setSubTypes@QContactPhoneNumber@@QAEXABVQString@@@Z @ 456 NONAME ; void QContactPhoneNumber::setSubTypes(class QString const &)
	?d_func@QContactUnionFilter@@AAEPAVQContactUnionFilterPrivate@@XZ @ 457 NONAME ; class QContactUnionFilterPrivate * QContactUnionFilter::d_func(void)
	??0QContactRemoveRequest@@QAE@XZ @ 458 NONAME ; QContactRemoveRequest::QContactRemoveRequest(void)
	?matchFlags@QContactDetailFilter@@QBE?AV?$QFlags@W4MatchFlag@QContactFilter@@@@XZ @ 459 NONAME ; class QFlags<enum QContactFilter::MatchFlag> QContactDetailFilter::matchFlags(void) const
	??1QContactLocalIdFilter@@UAE@XZ @ 460 NONAME ; QContactLocalIdFilter::~QContactLocalIdFilter(void)
	?setRelationshipOrder@QContact@@QAEXABV?$QList@VQContactRelationship@@@@@Z @ 461 NONAME ; void QContact::setRelationshipOrder(class QList<class QContactRelationship> const &)
	?qt_metacast@QContactMemoryEngine@@UAEPAXPBD@Z @ 462 NONAME ; void * QContactMemoryEngine::qt_metacast(char const *)
	?setContexts@QContactDetail@@QAEXABVQString@@@Z @ 463 NONAME ; void QContactDetail::setContexts(class QString const &)
	??1QContactManager@@UAE@XZ @ 464 NONAME ; QContactManager::~QContactManager(void)
	??8QContactSortOrder@@QBE_NABV0@@Z @ 465 NONAME ; bool QContactSortOrder::operator==(class QContactSortOrder const &) const
	?setIds@QContactLocalIdFilter@@QAEXABV?$QList@I@@@Z @ 466 NONAME ; void QContactLocalIdFilter::setIds(class QList<unsigned int> const &)
	?DefinitionName@QContactOrganization@@2U?$Latin1Literal@$0N@@@B @ 467 NONAME ; struct Latin1Literal<13> const QContactOrganization::DefinitionName
	?d_func@QContactDetailFilter@@AAEPAVQContactDetailFilterPrivate@@XZ @ 468 NONAME ; class QContactDetailFilterPrivate * QContactDetailFilter::d_func(void)
	??1QContactGender@@UAE@XZ @ 469 NONAME ; QContactGender::~QContactGender(void)
	?relationships@QContactRelationshipSaveRequest@@QBE?AV?$QList@VQContactRelationship@@@@XZ @ 470 NONAME ; class QList<class QContactRelationship> QContactRelationshipSaveRequest::relationships(void) const
	?Aggregates@QContactRelationship@@2U?$Latin1Literal@$0L@@@B @ 471 NONAME ; struct Latin1Literal<11> const QContactRelationship::Aggregates
	?trUtf8@QContactRelationshipRemoveRequest@@SA?AVQString@@PBD0H@Z @ 472 NONAME ; class QString QContactRelationshipRemoveRequest::trUtf8(char const *, char const *, int)
	?metaObject@QContactActionFactory@@UBEPBUQMetaObject@@XZ @ 473 NONAME ; struct QMetaObject const * QContactActionFactory::metaObject(void) const
	?isEmpty@QContactDetail@@QBE_NXZ @ 474 NONAME ; bool QContactDetail::isEmpty(void) const
	?SubTypeSipVoip@QContactOnlineAccount@@2U?$Latin1Literal@$07@@B @ 475 NONAME ; struct Latin1Literal<8> const QContactOnlineAccount::SubTypeSipVoip
	?setFirst@QContactRelationship@@QAEXABVQContactId@@@Z @ 476 NONAME ; void QContactRelationship::setFirst(class QContactId const &)
	?tr@QContactAbstractRequest@@SA?AVQString@@PBD0@Z @ 477 NONAME ; class QString QContactAbstractRequest::tr(char const *, char const *)
	??0QContactRelationshipFetchRequest@@QAE@XZ @ 478 NONAME ; QContactRelationshipFetchRequest::QContactRelationshipFetchRequest(void)
	??0QContactRelationshipFilter@@QAE@XZ @ 479 NONAME ; QContactRelationshipFilter::QContactRelationshipFilter(void)
	??0QContactId@@QAE@ABV0@@Z @ 480 NONAME ; QContactId::QContactId(class QContactId const &)
	?removeContact@QContactManagerEngine@@UAE_NABIAAW4Error@QContactManager@@@Z @ 481 NONAME ; bool QContactManagerEngine::removeContact(unsigned int const &, enum QContactManager::Error &)
	??4QContactDisplayLabel@@QAEAAV0@ABVQContactDetail@@@Z @ 482 NONAME ; class QContactDisplayLabel & QContactDisplayLabel::operator=(class QContactDetail const &)
	?prepend@QContactUnionFilter@@QAEXABVQContactFilter@@@Z @ 483 NONAME ; void QContactUnionFilter::prepend(class QContactFilter const &)
	??1QContactSaveRequest@@UAE@XZ @ 484 NONAME ; QContactSaveRequest::~QContactSaveRequest(void)
	??_EQContactLocalIdFetchRequest@@UAE@I@Z @ 485 NONAME ; QContactLocalIdFetchRequest::~QContactLocalIdFetchRequest(unsigned int)
	?date@QContactBirthday@@QBE?AVQDate@@XZ @ 486 NONAME ; class QDate QContactBirthday::date(void) const
	?setTimestamp@QContactGeolocation@@QAEXABVQDateTime@@@Z @ 487 NONAME ; void QContactGeolocation::setTimestamp(class QDateTime const &)
	?setAccessConstraint@QContactDetailDefinition@@QAEXABW4AccessConstraint@1@@Z @ 488 NONAME ; void QContactDetailDefinition::setAccessConstraint(enum QContactDetailDefinition::AccessConstraint const &)
	??_EQContactChangeLogFilter@@UAE@I@Z @ 489 NONAME ; QContactChangeLogFilter::~QContactChangeLogFilter(unsigned int)
	?progress@QContactRelationshipFetchRequest@@IAEXPAV1@_N@Z @ 490 NONAME ; void QContactRelationshipFetchRequest::progress(class QContactRelationshipFetchRequest *, bool)
	?contacts@QContactManagerEngine@@UBE?AV?$QList@I@@ABVQContactFilter@@ABV?$QList@VQContactSortOrder@@@@AAW4Error@QContactManager@@@Z @ 491 NONAME ; class QList<unsigned int> QContactManagerEngine::contacts(class QContactFilter const &, class QList<class QContactSortOrder> const &, enum QContactManager::Error &) const
	??9QContactActionDescriptor@@QBE_NABV0@@Z @ 492 NONAME ; bool QContactActionDescriptor::operator!=(class QContactActionDescriptor const &) const
	?createMemoryEngine@QContactMemoryEngine@@SAPAV1@ABV?$QMap@VQString@@V1@@@@Z @ 493 NONAME ; class QContactMemoryEngine * QContactMemoryEngine::createMemoryEngine(class QMap<class QString, class QString> const &)
	?value@QContactDetail@@QBE?AVQString@@ABV2@@Z @ 494 NONAME ; class QString QContactDetail::value(class QString const &) const
	?FieldMiddle@QContactName@@2U?$Latin1Literal@$06@@B @ 495 NONAME ; struct Latin1Literal<7> const QContactName::FieldMiddle
	?SubTypeDomestic@QContactAddress@@2U?$Latin1Literal@$08@@B @ 496 NONAME ; struct Latin1Literal<9> const QContactAddress::SubTypeDomestic
	??4QContactUrl@@QAEAAV0@ABVQContactDetail@@@Z @ 497 NONAME ; class QContactUrl & QContactUrl::operator=(class QContactDetail const &)
	??_EQContactGeolocation@@UAE@I@Z @ 498 NONAME ; QContactGeolocation::~QContactGeolocation(unsigned int)
	?PresenceAway@QContactOnlineAccount@@2U?$Latin1Literal@$04@@B @ 499 NONAME ; struct Latin1Literal<5> const QContactOnlineAccount::PresenceAway
	?SubTypeVideoShare@QContactOnlineAccount@@2U?$Latin1Literal@$0L@@@B @ 500 NONAME ; struct Latin1Literal<11> const QContactOnlineAccount::SubTypeVideoShare
	?avatar@QContactAvatar@@QBE?AVQString@@XZ @ 501 NONAME ; class QString QContactAvatar::avatar(void) const
	?setDate@QContactBirthday@@QAEXABVQDate@@@Z @ 502 NONAME ; void QContactBirthday::setDate(class QDate const &)
	?setManager@QContactAbstractRequest@@QAEXPAVQContactManager@@@Z @ 503 NONAME ; void QContactAbstractRequest::setManager(class QContactManager *)
	?getStaticMetaObject@QContactSaveRequest@@SAABUQMetaObject@@XZ @ 504 NONAME ; struct QMetaObject const & QContactSaveRequest::getStaticMetaObject(void)
	?setContacts@QContactSaveRequest@@QAEXABV?$QList@VQContact@@@@@Z @ 505 NONAME ; void QContactSaveRequest::setContacts(class QList<class QContact> const &)
	?setOriginalDate@QContactAnniversary@@QAEXABVQDate@@@Z @ 506 NONAME ; void QContactAnniversary::setOriginalDate(class QDate const &)
	??1QContactRelationshipSaveRequest@@UAE@XZ @ 507 NONAME ; QContactRelationshipSaveRequest::~QContactRelationshipSaveRequest(void)
	?rangeFlags@QContactDetailRangeFilter@@QBE?AV?$QFlags@W4RangeFlag@QContactDetailRangeFilter@@@@XZ @ 508 NONAME ; class QFlags<enum QContactDetailRangeFilter::RangeFlag> QContactDetailRangeFilter::rangeFlags(void) const
	??_EQContactRelationshipFetchRequest@@UAE@I@Z @ 509 NONAME ; QContactRelationshipFetchRequest::~QContactRelationshipFetchRequest(unsigned int)
	??_EQContactNote@@UAE@I@Z @ 510 NONAME ; QContactNote::~QContactNote(unsigned int)
	?setFirst@QContactName@@QAEXABVQString@@@Z @ 511 NONAME ; void QContactName::setFirst(class QString const &)
	?qt_metacast@QContactRelationshipRemoveRequest@@UAEPAXPBD@Z @ 512 NONAME ; void * QContactRelationshipRemoveRequest::qt_metacast(char const *)
	?setPostOfficeBox@QContactAddress@@QAEXABVQString@@@Z @ 513 NONAME ; void QContactAddress::setPostOfficeBox(class QString const &)
	??4QContactEmailAddress@@QAEAAV0@ABVQContactDetail@@@Z @ 514 NONAME ; class QContactEmailAddress & QContactEmailAddress::operator=(class QContactDetail const &)
	?trUtf8@QContactRelationshipFetchRequest@@SA?AVQString@@PBD0H@Z @ 515 NONAME ; class QString QContactRelationshipFetchRequest::trUtf8(char const *, char const *, int)
	?removeContacts@QContactMemoryEngine@@UAE?AV?$QList@W4Error@QContactManager@@@@PAV?$QList@I@@AAW4Error@QContactManager@@@Z @ 516 NONAME ; class QList<enum QContactManager::Error> QContactMemoryEngine::removeContacts(class QList<unsigned int> *, enum QContactManager::Error &)
	?setSelfContactId@QContactMemoryEngine@@UAE_NABIAAW4Error@QContactManager@@@Z @ 517 NONAME ; bool QContactMemoryEngine::setSelfContactId(unsigned int const &, enum QContactManager::Error &)
	?FieldSubType@QContactUrl@@2U?$Latin1Literal@$07@@B @ 518 NONAME ; struct Latin1Literal<8> const QContactUrl::FieldSubType
	?cancel@QContactAbstractRequest@@QAE_NXZ @ 519 NONAME ; bool QContactAbstractRequest::cancel(void)
	?contactType@QContactDetailDefinitionRemoveRequest@@QBE?AVQString@@XZ @ 520 NONAME ; class QString QContactDetailDefinitionRemoveRequest::contactType(void) const
	?qt_metacast@QContactRelationshipSaveRequest@@UAEPAXPBD@Z @ 521 NONAME ; void * QContactRelationshipSaveRequest::qt_metacast(char const *)
	??1QContactDisplayLabel@@UAE@XZ @ 522 NONAME ; QContactDisplayLabel::~QContactDisplayLabel(void)
	?metaObject@QContactFetchRequest@@UBEPBUQMetaObject@@XZ @ 523 NONAME ; struct QMetaObject const * QContactFetchRequest::metaObject(void) const
	?tr@QContactSaveRequest@@SA?AVQString@@PBD0H@Z @ 524 NONAME ; class QString QContactSaveRequest::tr(char const *, char const *, int)
	??_EQContactUrl@@UAE@I@Z @ 525 NONAME ; QContactUrl::~QContactUrl(unsigned int)
	?spouse@QContactFamily@@QBE?AVQString@@XZ @ 526 NONAME ; class QString QContactFamily::spouse(void) const
	?isPreferredDetail@QContact@@QBE_NABVQString@@ABVQContactDetail@@@Z @ 527 NONAME ; bool QContact::isPreferredDetail(class QString const &, class QContactDetail const &) const
	?setPostcode@QContactAddress@@QAEXABVQString@@@Z @ 528 NONAME ; void QContactAddress::setPostcode(class QString const &)
	?preferredDetail@QContact@@QBE?AVQContactDetail@@ABVQString@@@Z @ 529 NONAME ; class QContactDetail QContact::preferredDetail(class QString const &) const
	?progress@QContactFetchRequest@@IAEXPAV1@_N@Z @ 530 NONAME ; void QContactFetchRequest::progress(class QContactFetchRequest *, bool)
	??9QContactDetailDefinitionField@@QBE_NABV0@@Z @ 531 NONAME ; bool QContactDetailDefinitionField::operator!=(class QContactDetailDefinitionField const &) const
	?altitude@QContactGeolocation@@QBENXZ @ 532 NONAME ; double QContactGeolocation::altitude(void) const
	?setSubType@QContactAvatar@@QAEXABVQString@@@Z @ 533 NONAME ; void QContactAvatar::setSubType(class QString const &)
	?saveContact@QContactMemoryEngine@@AAE_NPAVQContact@@AAVQContactChangeSet@@AAW4Error@QContactManager@@@Z @ 534 NONAME ; bool QContactMemoryEngine::saveContact(class QContact *, class QContactChangeSet &, enum QContactManager::Error &)
	??_EQContactDetailDefinitionSaveRequest@@UAE@I@Z @ 535 NONAME ; QContactDetailDefinitionSaveRequest::~QContactDetailDefinitionSaveRequest(unsigned int)
	?sorting@QContactLocalIdFetchRequest@@QBE?AV?$QList@VQContactSortOrder@@@@XZ @ 536 NONAME ; class QList<class QContactSortOrder> QContactLocalIdFetchRequest::sorting(void) const
	?contactsChanged@QContactManager@@IAEXABV?$QList@I@@@Z @ 537 NONAME ; void QContactManager::contactsChanged(class QList<unsigned int> const &)
	?getStaticMetaObject@QContactDetailDefinitionRemoveRequest@@SAABUQMetaObject@@XZ @ 538 NONAME ; struct QMetaObject const & QContactDetailDefinitionRemoveRequest::getStaticMetaObject(void)
	?relationships@QContact@@QBE?AV?$QList@VQContactRelationship@@@@ABVQString@@@Z @ 539 NONAME ; class QList<class QContactRelationship> QContact::relationships(class QString const &) const
	?trUtf8@QContactLocalIdFetchRequest@@SA?AVQString@@PBD0H@Z @ 540 NONAME ; class QString QContactLocalIdFetchRequest::trUtf8(char const *, char const *, int)
	?SubTypeEngagement@QContactAnniversary@@2U?$Latin1Literal@$0L@@@B @ 541 NONAME ; struct Latin1Literal<11> const QContactAnniversary::SubTypeEngagement
	?implementationVersion@QContactManager@@QBEHXZ @ 542 NONAME ; int QContactManager::implementationVersion(void) const
	??0QContact@@QAE@XZ @ 543 NONAME ; QContact::QContact(void)
	??0QContactInvalidFilter@@QAE@XZ @ 544 NONAME ; QContactInvalidFilter::QContactInvalidFilter(void)
	?isValid@QContactSortOrder@@QBE_NXZ @ 545 NONAME ; bool QContactSortOrder::isValid(void) const
	??_EQContactFetchRequest@@UAE@I@Z @ 546 NONAME ; QContactFetchRequest::~QContactFetchRequest(unsigned int)
	?isActive@QContactAbstractRequest@@QBE_NXZ @ 547 NONAME ; bool QContactAbstractRequest::isActive(void) const
	?getStaticMetaObject@QContactFetchRequest@@SAABUQMetaObject@@XZ @ 548 NONAME ; struct QMetaObject const & QContactFetchRequest::getStaticMetaObject(void)
	?url@QContactUrl@@QBE?AVQString@@XZ @ 549 NONAME ; class QString QContactUrl::url(void) const
	?implementationVersion@QContactActionDescriptor@@QBEHXZ @ 550 NONAME ; int QContactActionDescriptor::implementationVersion(void) const
	?progress@QContactDetailDefinitionFetchRequest@@IAEXPAV1@_N@Z @ 551 NONAME ; void QContactDetailDefinitionFetchRequest::progress(class QContactDetailDefinitionFetchRequest *, bool)
	??0QContactChangeLogFilter@@QAE@W4EventType@0@@Z @ 552 NONAME ; QContactChangeLogFilter::QContactChangeLogFilter(enum QContactChangeLogFilter::EventType)
	??0QContactDetailDefinitionFetchRequest@@QAE@XZ @ 553 NONAME ; QContactDetailDefinitionFetchRequest::QContactDetailDefinitionFetchRequest(void)
	?setUrl@QContactUrl@@QAEXABVQString@@@Z @ 554 NONAME ; void QContactUrl::setUrl(class QString const &)
	?location@QContactOrganization@@QBE?AVQString@@XZ @ 555 NONAME ; class QString QContactOrganization::location(void) const
	??4QContactNickname@@QAEAAV0@ABVQContactDetail@@@Z @ 556 NONAME ; class QContactNickname & QContactNickname::operator=(class QContactDetail const &)
	?FieldPresence@QContactOnlineAccount@@2U?$Latin1Literal@$08@@B @ 557 NONAME ; struct Latin1Literal<9> const QContactOnlineAccount::FieldPresence
	?FieldUrl@QContactUrl@@2U?$Latin1Literal@$03@@B @ 558 NONAME ; struct Latin1Literal<4> const QContactUrl::FieldUrl
	?details@QContact@@QBE?AV?$QList@VQContactDetail@@@@ABVQString@@00@Z @ 559 NONAME ; class QList<class QContactDetail> QContact::details(class QString const &, class QString const &, class QString const &) const
	?guid@QContactGuid@@QBE?AVQString@@XZ @ 560 NONAME ; class QString QContactGuid::guid(void) const
	?event@QContactAnniversary@@QBE?AVQString@@XZ @ 561 NONAME ; class QString QContactAnniversary::event(void) const
	?FieldContext@QContactDetail@@2U?$Latin1Literal@$07@@B @ 562 NONAME ; struct Latin1Literal<8> const QContactDetail::FieldContext
	?setSelfContactId@QContactManager@@QAE_NABI@Z @ 563 NONAME ; bool QContactManager::setSelfContactId(unsigned int const &)
	?synthesizeDisplayLabel@QContactManagerEngine@@UBE?AVQString@@ABVQContact@@AAW4Error@QContactManager@@@Z @ 564 NONAME ; class QString QContactManagerEngine::synthesizeDisplayLabel(class QContact const &, enum QContactManager::Error &) const
	?getStaticMetaObject@QContactManager@@SAABUQMetaObject@@XZ @ 565 NONAME ; struct QMetaObject const & QContactManager::getStaticMetaObject(void)
	??1QContactActionFilter@@UAE@XZ @ 566 NONAME ; QContactActionFilter::~QContactActionFilter(void)
	?d_func@QContactLocalIdFetchRequest@@ABEPBVQContactLocalIdFetchRequestPrivate@@XZ @ 567 NONAME ; class QContactLocalIdFetchRequestPrivate const * QContactLocalIdFetchRequest::d_func(void) const
	?FieldDepartment@QContactOrganization@@2U?$Latin1Literal@$0L@@@B @ 568 NONAME ; struct Latin1Literal<11> const QContactOrganization::FieldDepartment
	?DefinitionName@QContactTimestamp@@2U?$Latin1Literal@$09@@B @ 569 NONAME ; struct Latin1Literal<10> const QContactTimestamp::DefinitionName
	?DefinitionName@QContactEmailAddress@@2U?$Latin1Literal@$0N@@@B @ 570 NONAME ; struct Latin1Literal<13> const QContactEmailAddress::DefinitionName
	?SubTypeImpp@QContactOnlineAccount@@2U?$Latin1Literal@$04@@B @ 571 NONAME ; struct Latin1Literal<5> const QContactOnlineAccount::SubTypeImpp
	?first@QContactRelationshipRemoveRequest@@QBE?AVQContactId@@XZ @ 572 NONAME ; class QContactId QContactRelationshipRemoveRequest::first(void) const
	??_EQContactAnniversary@@UAE@I@Z @ 573 NONAME ; QContactAnniversary::~QContactAnniversary(unsigned int)
	??0QContactSortOrder@@QAE@ABV0@@Z @ 574 NONAME ; QContactSortOrder::QContactSortOrder(class QContactSortOrder const &)
	??4QContactNote@@QAEAAV0@ABVQContactDetail@@@Z @ 575 NONAME ; class QContactNote & QContactNote::operator=(class QContactDetail const &)
	?metaObject@QContactDetailDefinitionSaveRequest@@UBEPBUQMetaObject@@XZ @ 576 NONAME ; struct QMetaObject const * QContactDetailDefinitionSaveRequest::metaObject(void) const
	??0QContactRelationship@@QAE@ABV0@@Z @ 577 NONAME ; QContactRelationship::QContactRelationship(class QContactRelationship const &)
	??4QContactDetailDefinitionField@@QAEAAV0@ABV0@@Z @ 578 NONAME ; class QContactDetailDefinitionField & QContactDetailDefinitionField::operator=(class QContactDetailDefinitionField const &)
	?metaObject@QContactAction@@UBEPBUQMetaObject@@XZ @ 579 NONAME ; struct QMetaObject const * QContactAction::metaObject(void) const
	?qt_metacall@QContactAbstractRequest@@UAEHW4Call@QMetaObject@@HPAPAX@Z @ 580 NONAME ; int QContactAbstractRequest::qt_metacall(enum QMetaObject::Call, int, void * *)
	?setFirst@QContactRelationshipFetchRequest@@QAEXABVQContactId@@@Z @ 581 NONAME ; void QContactRelationshipFetchRequest::setFirst(class QContactId const &)
	?updateRequest@QContactManagerEngine@@SAXPAVQContactAbstractRequest@@ABV?$QList@I@@W4Error@QContactManager@@ABV?$QList@W4Error@QContactManager@@@@W4Status@2@_N@Z @ 582 NONAME ; void QContactManagerEngine::updateRequest(class QContactAbstractRequest *, class QList<unsigned int> const &, enum QContactManager::Error, class QList<enum QContactManager::Error> const &, enum QContactAbstractRequest::Status, bool)
	?setDirection@QContactSortOrder@@QAEXW4SortOrder@Qt@@@Z @ 583 NONAME ; void QContactSortOrder::setDirection(enum Qt::SortOrder)
	?setStreet@QContactAddress@@QAEXABVQString@@@Z @ 584 NONAME ; void QContactAddress::setStreet(class QString const &)
	?setAssistantName@QContactOrganization@@QAEXABVQString@@@Z @ 585 NONAME ; void QContactOrganization::setAssistantName(class QString const &)
	?metaObject@QContactDetailDefinitionFetchRequest@@UBEPBUQMetaObject@@XZ @ 586 NONAME ; struct QMetaObject const * QContactDetailDefinitionFetchRequest::metaObject(void) const
	??0QContactChangeSet@@QAE@ABV0@@Z @ 587 NONAME ; QContactChangeSet::QContactChangeSet(class QContactChangeSet const &)
	?d_func@QContactDetailFilter@@ABEPBVQContactDetailFilterPrivate@@XZ @ 588 NONAME ; class QContactDetailFilterPrivate const * QContactDetailFilter::d_func(void) const
	?removeDetail@QContact@@QAE_NPAVQContactDetail@@@Z @ 589 NONAME ; bool QContact::removeDetail(class QContactDetail *)
	?waitForRequestFinished@QContactMemoryEngine@@UAE_NPAVQContactAbstractRequest@@H@Z @ 590 NONAME ; bool QContactMemoryEngine::waitForRequestFinished(class QContactAbstractRequest *, int)
	??0QContactNickname@@QAE@XZ @ 591 NONAME ; QContactNickname::QContactNickname(void)
	?qt_metacast@QContactDetailDefinitionSaveRequest@@UAEPAXPBD@Z @ 592 NONAME ; void * QContactDetailDefinitionSaveRequest::qt_metacast(char const *)
	??_EQContactDetailDefinitionFetchRequest@@UAE@I@Z @ 593 NONAME ; QContactDetailDefinitionFetchRequest::~QContactDetailDefinitionFetchRequest(unsigned int)
	?updateRequest@QContactManagerEngine@@SAXPAVQContactAbstractRequest@@ABV?$QList@VQContactRelationship@@@@W4Error@QContactManager@@ABV?$QList@W4Error@QContactManager@@@@W4Status@2@_N@Z @ 594 NONAME ; void QContactManagerEngine::updateRequest(class QContactAbstractRequest *, class QList<class QContactRelationship> const &, enum QContactManager::Error, class QList<enum QContactManager::Error> const &, enum QContactAbstractRequest::Status, bool)
	?setSince@QContactChangeLogFilter@@QAEXABVQDateTime@@@Z @ 595 NONAME ; void QContactChangeLogFilter::setSince(class QDateTime const &)
	??1QContactRelationshipRemoveRequest@@UAE@XZ @ 596 NONAME ; QContactRelationshipRemoveRequest::~QContactRelationshipRemoveRequest(void)
	?setRelationshipType@QContactRelationship@@QAEXABVQString@@@Z @ 597 NONAME ; void QContactRelationship::setRelationshipType(class QString const &)
	??1QContactIntersectionFilter@@UAE@XZ @ 598 NONAME ; QContactIntersectionFilter::~QContactIntersectionFilter(void)
	?heading@QContactGeolocation@@QBENXZ @ 599 NONAME ; double QContactGeolocation::heading(void) const
	?SubTypeEmployment@QContactAnniversary@@2U?$Latin1Literal@$0L@@@B @ 600 NONAME ; struct Latin1Literal<11> const QContactAnniversary::SubTypeEmployment
	??0QContactFilter@@QAE@ABV0@@Z @ 601 NONAME ; QContactFilter::QContactFilter(class QContactFilter const &)
	??0QContactDetailFilter@@QAE@ABVQContactFilter@@@Z @ 602 NONAME ; QContactDetailFilter::QContactDetailFilter(class QContactFilter const &)
	??0QContactAnniversary@@QAE@ABVQContactDetail@@@Z @ 603 NONAME ; QContactAnniversary::QContactAnniversary(class QContactDetail const &)
	?metaObject@QContactSaveRequest@@UBEPBUQMetaObject@@XZ @ 604 NONAME ; struct QMetaObject const * QContactSaveRequest::metaObject(void) const
	?setNames@QContactDetailDefinitionRemoveRequest@@QAEXABVQStringList@@@Z @ 605 NONAME ; void QContactDetailDefinitionRemoveRequest::setNames(class QStringList const &)
	??0QContactBirthday@@QAE@ABVQContactDetail@@@Z @ 606 NONAME ; QContactBirthday::QContactBirthday(class QContactDetail const &)
	?setSuffix@QContactName@@QAEXABVQString@@@Z @ 607 NONAME ; void QContactName::setSuffix(class QString const &)
	??0QContactSaveRequest@@QAE@XZ @ 608 NONAME ; QContactSaveRequest::QContactSaveRequest(void)
	?filterSupported@QContactManagerEngine@@UBE_NABVQContactFilter@@@Z @ 609 NONAME ; bool QContactManagerEngine::filterSupported(class QContactFilter const &) const
	?DefinitionName@QContactBirthday@@2U?$Latin1Literal@$08@@B @ 610 NONAME ; struct Latin1Literal<9> const QContactBirthday::DefinitionName
	??4QContactGeolocation@@QAEAAV0@ABVQContactDetail@@@Z @ 611 NONAME ; class QContactGeolocation & QContactGeolocation::operator=(class QContactDetail const &)
	?qt_metacall@QContactDetailDefinitionRemoveRequest@@UAEHW4Call@QMetaObject@@HPAPAX@Z @ 612 NONAME ; int QContactDetailDefinitionRemoveRequest::qt_metacall(enum QMetaObject::Call, int, void * *)
	?saveDetailDefinition@QContactManager@@QAE_NABVQContactDetailDefinition@@ABVQString@@@Z @ 613 NONAME ; bool QContactManager::saveDetailDefinition(class QContactDetailDefinition const &, class QString const &)
	?id@QContact@@QBE?AVQContactId@@XZ @ 614 NONAME ; class QContactId QContact::id(void) const
	?setSubTypes@QContactAddress@@QAEXABVQString@@@Z @ 615 NONAME ; void QContactAddress::setSubTypes(class QString const &)
	??0QContactGuid@@QAE@ABVQContactDetail@@@Z @ 616 NONAME ; QContactGuid::QContactGuid(class QContactDetail const &)
	?getStaticMetaObject@QContactMemoryEngine@@SAABUQMetaObject@@XZ @ 617 NONAME ; struct QMetaObject const & QContactMemoryEngine::getStaticMetaObject(void)
	?setMatchFlags@QContactDetailRangeFilter@@QAEXV?$QFlags@W4MatchFlag@QContactFilter@@@@@Z @ 618 NONAME ; void QContactDetailRangeFilter::setMatchFlags(class QFlags<enum QContactFilter::MatchFlag>)
	?setRole@QContactOrganization@@QAEXABVQString@@@Z @ 619 NONAME ; void QContactOrganization::setRole(class QString const &)
	?filters@QContactIntersectionFilter@@QBE?AV?$QList@VQContactFilter@@@@XZ @ 620 NONAME ; class QList<class QContactFilter> QContactIntersectionFilter::filters(void) const
	?managerName@QContactManagerEngine@@UBE?AVQString@@XZ @ 621 NONAME ; class QString QContactManagerEngine::managerName(void) const
	?FieldPostOfficeBox@QContactAddress@@2U?$Latin1Literal@$0O@@@B @ 622 NONAME ; struct Latin1Literal<14> const QContactAddress::FieldPostOfficeBox
	??8QContactId@@QBE_NABV0@@Z @ 623 NONAME ; bool QContactId::operator==(class QContactId const &) const
	??1QContactId@@QAE@XZ @ 624 NONAME ; QContactId::~QContactId(void)
	??0QContactLocalIdFetchRequest@@QAE@XZ @ 625 NONAME ; QContactLocalIdFetchRequest::QContactLocalIdFetchRequest(void)
	?d_func@QContactDetailDefinitionRemoveRequest@@ABEPBVQContactDetailDefinitionRemoveRequestPrivate@@XZ @ 626 NONAME ; class QContactDetailDefinitionRemoveRequestPrivate const * QContactDetailDefinitionRemoveRequest::d_func(void) const
	??0QContactGuid@@QAE@XZ @ 627 NONAME ; QContactGuid::QContactGuid(void)
	?FieldAssistantName@QContactOrganization@@2U?$Latin1Literal@$0O@@@B @ 628 NONAME ; struct Latin1Literal<14> const QContactOrganization::FieldAssistantName
	??0QContactTimestamp@@QAE@ABVQContactDetail@@@Z @ 629 NONAME ; QContactTimestamp::QContactTimestamp(class QContactDetail const &)
	?tr@QContactAction@@SA?AVQString@@PBD0H@Z @ 630 NONAME ; class QString QContactAction::tr(char const *, char const *, int)
	?department@QContactOrganization@@QBE?AVQStringList@@XZ @ 631 NONAME ; class QStringList QContactOrganization::department(void) const
	?metaObject@QContactLocalIdFetchRequest@@UBEPBUQMetaObject@@XZ @ 632 NONAME ; struct QMetaObject const * QContactLocalIdFetchRequest::metaObject(void) const
	?trUtf8@QContactDetailDefinitionSaveRequest@@SA?AVQString@@PBD0@Z @ 633 NONAME ; class QString QContactDetailDefinitionSaveRequest::trUtf8(char const *, char const *)
	?qt_metacall@QContactAction@@UAEHW4Call@QMetaObject@@HPAPAX@Z @ 634 NONAME ; int QContactAction::qt_metacall(enum QMetaObject::Call, int, void * *)
	?waitForFinished@QContactAbstractRequest@@QAE_NH@Z @ 635 NONAME ; bool QContactAbstractRequest::waitForFinished(int)
	?DefinitionName@QContactAddress@@2U?$Latin1Literal@$0O@@@B @ 636 NONAME ; struct Latin1Literal<14> const QContactAddress::DefinitionName
	?FieldRole@QContactOrganization@@2U?$Latin1Literal@$04@@B @ 637 NONAME ; struct Latin1Literal<5> const QContactOrganization::FieldRole
	?contacts@QContactSaveRequest@@QBE?AV?$QList@VQContact@@@@XZ @ 638 NONAME ; class QList<class QContact> QContactSaveRequest::contacts(void) const
	?SubTypeVideo@QContactPhoneNumber@@2U?$Latin1Literal@$05@@B @ 639 NONAME ; struct Latin1Literal<6> const QContactPhoneNumber::SubTypeVideo
	??0QContactNickname@@QAE@ABVQContactDetail@@@Z @ 640 NONAME ; QContactNickname::QContactNickname(class QContactDetail const &)
	?FieldCountry@QContactAddress@@2U?$Latin1Literal@$07@@B @ 641 NONAME ; struct Latin1Literal<8> const QContactAddress::FieldCountry
	?version@QContactManagerEngineFactory@@QBEHXZ @ 642 NONAME ; int QContactManagerEngineFactory::version(void) const
	??0QContactActionFilter@@QAE@ABVQContactFilter@@@Z @ 643 NONAME ; QContactActionFilter::QContactActionFilter(class QContactFilter const &)
	?trUtf8@QContactAction@@SA?AVQString@@PBD0@Z @ 644 NONAME ; class QString QContactAction::trUtf8(char const *, char const *)
	?detailDefinitions@QContactManager@@QBE?AV?$QMap@VQString@@VQContactDetailDefinition@@@@ABVQString@@@Z @ 645 NONAME ; class QMap<class QString, class QContactDetailDefinition> QContactManager::detailDefinitions(class QString const &) const
	??0QContactDisplayLabel@@QAE@ABVQContactDetail@@@Z @ 646 NONAME ; QContactDisplayLabel::QContactDisplayLabel(class QContactDetail const &)
	?tr@QContactDetailDefinitionFetchRequest@@SA?AVQString@@PBD0@Z @ 647 NONAME ; class QString QContactDetailDefinitionFetchRequest::tr(char const *, char const *)
	?value@QContactActionFilter@@QBE?AVQVariant@@XZ @ 648 NONAME ; class QVariant QContactActionFilter::value(void) const
	?FieldCalendarId@QContactAnniversary@@2U?$Latin1Literal@$0L@@@B @ 649 NONAME ; struct Latin1Literal<11> const QContactAnniversary::FieldCalendarId
	?managerUri@QContactManagerEngine@@QBE?AVQString@@XZ @ 650 NONAME ; class QString QContactManagerEngine::managerUri(void) const
	?trUtf8@QContactRelationshipFetchRequest@@SA?AVQString@@PBD0@Z @ 651 NONAME ; class QString QContactRelationshipFetchRequest::trUtf8(char const *, char const *)
	?first@QContactName@@QBE?AVQString@@XZ @ 652 NONAME ; class QString QContactName::first(void) const
	?availableActions@QContact@@QBE?AV?$QList@VQContactActionDescriptor@@@@ABVQString@@H@Z @ 653 NONAME ; class QList<class QContactActionDescriptor> QContact::availableActions(class QString const &, int) const
	??0QContactDetailRangeFilter@@QAE@ABVQContactFilter@@@Z @ 654 NONAME ; QContactDetailRangeFilter::QContactDetailRangeFilter(class QContactFilter const &)
	??0QContactUnionFilter@@QAE@ABVQContactFilter@@@Z @ 655 NONAME ; QContactUnionFilter::QContactUnionFilter(class QContactFilter const &)
	?subType@QContactAnniversary@@QBE?AVQString@@XZ @ 656 NONAME ; class QString QContactAnniversary::subType(void) const
	?setFields@QContactDetailDefinition@@QAEXABV?$QMap@VQString@@VQContactDetailDefinitionField@@@@@Z @ 657 NONAME ; void QContactDetailDefinition::setFields(class QMap<class QString, class QContactDetailDefinitionField> const &)
	?last@QContactName@@QBE?AVQString@@XZ @ 658 NONAME ; class QString QContactName::last(void) const
	?filter@QContactRemoveRequest@@QBE?AVQContactFilter@@XZ @ 659 NONAME ; class QContactFilter QContactRemoveRequest::filter(void) const
	?staticMetaObject@QContactLocalIdFetchRequest@@2UQMetaObject@@B @ 660 NONAME ; struct QMetaObject const QContactLocalIdFetchRequest::staticMetaObject
	?ContextWork@QContactDetail@@2U?$Latin1Literal@$04@@B @ 661 NONAME ; struct Latin1Literal<5> const QContactDetail::ContextWork
	?actionName@QContactActionDescriptor@@QBE?AVQString@@XZ @ 662 NONAME ; class QString QContactActionDescriptor::actionName(void) const
	?cancelRequest@QContactManagerEngine@@UAE_NPAVQContactAbstractRequest@@@Z @ 663 NONAME ; bool QContactManagerEngine::cancelRequest(class QContactAbstractRequest *)
	??_EQContactGender@@UAE@I@Z @ 664 NONAME ; QContactGender::~QContactGender(unsigned int)
	?saveDetailDefinition@QContactManagerEngine@@UAE_NABVQContactDetailDefinition@@ABVQString@@AAW4Error@QContactManager@@@Z @ 665 NONAME ; bool QContactManagerEngine::saveDetailDefinition(class QContactDetailDefinition const &, class QString const &, enum QContactManager::Error &)
	?dataType@QContactDetailDefinitionField@@QBE?AW4Type@QVariant@@XZ @ 666 NONAME ; enum QVariant::Type QContactDetailDefinitionField::dataType(void) const
	?setLocation@QContactOrganization@@QAEXABVQString@@@Z @ 667 NONAME ; void QContactOrganization::setLocation(class QString const &)
	??8QContactDetail@@QBE_NABV0@@Z @ 668 NONAME ; bool QContactDetail::operator==(class QContactDetail const &) const
	?supportedContactTypes@QContactManager@@QBE?AVQStringList@@XZ @ 669 NONAME ; class QStringList QContactManager::supportedContactTypes(void) const
	?setManagerUri@QContactId@@QAEXABVQString@@@Z @ 670 NONAME ; void QContactId::setManagerUri(class QString const &)
	?SubTypeMobile@QContactPhoneNumber@@2U?$Latin1Literal@$06@@B @ 671 NONAME ; struct Latin1Literal<7> const QContactPhoneNumber::SubTypeMobile
	?street@QContactAddress@@QBE?AVQString@@XZ @ 672 NONAME ; class QString QContactAddress::street(void) const
	??_EQContactDetail@@UAE@I@Z @ 673 NONAME ; QContactDetail::~QContactDetail(unsigned int)
	?qt_metacast@QContactAbstractRequest@@UAEPAXPBD@Z @ 674 NONAME ; void * QContactAbstractRequest::qt_metacast(char const *)
	??1QContactManagerEngine@@UAE@XZ @ 675 NONAME ; QContactManagerEngine::~QContactManagerEngine(void)
	??_EQContactManager@@UAE@I@Z @ 676 NONAME ; QContactManager::~QContactManager(unsigned int)
	??1QContact@@QAE@XZ @ 677 NONAME ; QContact::~QContact(void)
	?progress@QContactRemoveRequest@@IAEXPAV1@@Z @ 678 NONAME ; void QContactRemoveRequest::progress(class QContactRemoveRequest *)
	?FieldHeading@QContactGeolocation@@2U?$Latin1Literal@$07@@B @ 679 NONAME ; struct Latin1Literal<8> const QContactGeolocation::FieldHeading
	?detailsWithAction@QContact@@QBE?AV?$QList@VQContactDetail@@@@ABVQString@@@Z @ 680 NONAME ; class QList<class QContactDetail> QContact::detailsWithAction(class QString const &) const
	??4QContactChangeSet@@QAEAAV0@ABV0@@Z @ 681 NONAME ; class QContactChangeSet & QContactChangeSet::operator=(class QContactChangeSet const &)
	?presence@QContactOnlineAccount@@QBE?AVQString@@XZ @ 682 NONAME ; class QString QContactOnlineAccount::presence(void) const
	?saveRelationship@QContactMemoryEngine@@AAE_NPAVQContactRelationship@@AAVQContactChangeSet@@AAW4Error@QContactManager@@@Z @ 683 NONAME ; bool QContactMemoryEngine::saveRelationship(class QContactRelationship *, class QContactChangeSet &, enum QContactManager::Error &)
	?values@QContactDetail@@QBE?AV?$QMap@VQString@@VQVariant@@@@XZ @ 684 NONAME ; class QMap<class QString, class QVariant> QContactDetail::values(void) const
	?changedContacts@QContactChangeSet@@QAEAAV?$QSet@I@@XZ @ 685 NONAME ; class QSet<unsigned int> & QContactChangeSet::changedContacts(void)
	?setAccessConstraint@QContactDetailDefinitionField@@QAEXW4AccessConstraint@1@@Z @ 686 NONAME ; void QContactDetailDefinitionField::setAccessConstraint(enum QContactDetailDefinitionField::AccessConstraint)
	?start@QContactAbstractRequest@@QAE_NXZ @ 687 NONAME ; bool QContactAbstractRequest::start(void)
	?qt_metacast@QContactRelationshipFetchRequest@@UAEPAXPBD@Z @ 688 NONAME ; void * QContactRelationshipFetchRequest::qt_metacast(char const *)
	?trUtf8@QContactManagerEngine@@SA?AVQString@@PBD0H@Z @ 689 NONAME ; class QString QContactManagerEngine::trUtf8(char const *, char const *, int)
	?relationships@QContactManager@@QBE?AV?$QList@VQContactRelationship@@@@ABVQContactId@@W4Role@QContactRelationshipFilter@@@Z @ 690 NONAME ; class QList<class QContactRelationship> QContactManager::relationships(class QContactId const &, enum QContactRelationshipFilter::Role) const
	?tr@QContactRelationshipRemoveRequest@@SA?AVQString@@PBD0@Z @ 691 NONAME ; class QString QContactRelationshipRemoveRequest::tr(char const *, char const *)
	?FieldLabel@QContactGeolocation@@2U?$Latin1Literal@$05@@B @ 692 NONAME ; struct Latin1Literal<6> const QContactGeolocation::FieldLabel
	?setNickname@QContactOnlineAccount@@QAEXABVQString@@@Z @ 693 NONAME ; void QContactOnlineAccount::setNickname(class QString const &)
	?metaObject@QContactRelationshipRemoveRequest@@UBEPBUQMetaObject@@XZ @ 694 NONAME ; struct QMetaObject const * QContactRelationshipRemoveRequest::metaObject(void) const
	??1QContactOrganization@@UAE@XZ @ 695 NONAME ; QContactOrganization::~QContactOrganization(void)
	?setGuid@QContactGuid@@QAEXABVQString@@@Z @ 696 NONAME ; void QContactGuid::setGuid(class QString const &)
	?detailDefinition@QContactManagerEngine@@UBE?AVQContactDetailDefinition@@ABVQString@@0AAW4Error@QContactManager@@@Z @ 697 NONAME ; class QContactDetailDefinition QContactManagerEngine::detailDefinition(class QString const &, class QString const &, enum QContactManager::Error &) const
	?saveContact@QContactMemoryEngine@@UAE_NPAVQContact@@AAW4Error@QContactManager@@@Z @ 698 NONAME ; bool QContactMemoryEngine::saveContact(class QContact *, enum QContactManager::Error &)
	??0QContactDetailDefinitionField@@QAE@ABV0@@Z @ 699 NONAME ; QContactDetailDefinitionField::QContactDetailDefinitionField(class QContactDetailDefinitionField const &)
	?hasFeature@QContactManager@@QBE_NW4ManagerFeature@1@ABVQString@@@Z @ 700 NONAME ; bool QContactManager::hasFeature(enum QContactManager::ManagerFeature, class QString const &) const
	?metaObject@QContactAbstractRequest@@UBEPBUQMetaObject@@XZ @ 701 NONAME ; struct QMetaObject const * QContactAbstractRequest::metaObject(void) const
	?qt_metacast@QContactSaveRequest@@UAEPAXPBD@Z @ 702 NONAME ; void * QContactSaveRequest::qt_metacast(char const *)
	??0QContactAvatar@@QAE@ABVQContactDetail@@@Z @ 703 NONAME ; QContactAvatar::QContactAvatar(class QContactDetail const &)
	??1QContactFetchRequest@@UAE@XZ @ 704 NONAME ; QContactFetchRequest::~QContactFetchRequest(void)
	?version@QContactManagerEngine@@SAHXZ @ 705 NONAME ; int QContactManagerEngine::version(void)
	??0QContactLocalIdFilter@@QAE@XZ @ 706 NONAME ; QContactLocalIdFilter::QContactLocalIdFilter(void)
	??1QContactFilter@@UAE@XZ @ 707 NONAME ; QContactFilter::~QContactFilter(void)
	?FieldSpouse@QContactFamily@@2U?$Latin1Literal@$06@@B @ 708 NONAME ; struct Latin1Literal<7> const QContactFamily::FieldSpouse
	?trUtf8@QContactMemoryEngine@@SA?AVQString@@PBD0H@Z @ 709 NONAME ; class QString QContactMemoryEngine::trUtf8(char const *, char const *, int)
	?qt_metacall@QContactManager@@UAEHW4Call@QMetaObject@@HPAPAX@Z @ 710 NONAME ; int QContactManager::qt_metacall(enum QMetaObject::Call, int, void * *)
	?customLabel@QContactName@@QBE?AVQString@@XZ @ 711 NONAME ; class QString QContactName::customLabel(void) const
	??_EQContactOnlineAccount@@UAE@I@Z @ 712 NONAME ; QContactOnlineAccount::~QContactOnlineAccount(unsigned int)
	??9QContactRelationship@@QBE_NABV0@@Z @ 713 NONAME ; bool QContactRelationship::operator!=(class QContactRelationship const &) const
	?staticMetaObject@QContactManagerEngine@@2UQMetaObject@@B @ 714 NONAME ; struct QMetaObject const QContactManagerEngine::staticMetaObject
	?accessConstraint@QContactDetailDefinitionField@@QBE?AW4AccessConstraint@1@XZ @ 715 NONAME ; enum QContactDetailDefinitionField::AccessConstraint QContactDetailDefinitionField::accessConstraint(void) const
	?relationshipOrder@QContact@@QBE?AV?$QList@VQContactRelationship@@@@XZ @ 716 NONAME ; class QList<class QContactRelationship> QContact::relationshipOrder(void) const
	?DefinitionName@QContactOnlineAccount@@2U?$Latin1Literal@$0O@@@B @ 717 NONAME ; struct Latin1Literal<14> const QContactOnlineAccount::DefinitionName
	??_EQContactSaveRequest@@UAE@I@Z @ 718 NONAME ; QContactSaveRequest::~QContactSaveRequest(unsigned int)
	??1QContactChangeLogFilter@@UAE@XZ @ 719 NONAME ; QContactChangeLogFilter::~QContactChangeLogFilter(void)
	?actionDescriptors@QContactAction@@SA?AV?$QList@VQContactActionDescriptor@@@@ABVQString@@0H@Z @ 720 NONAME ; class QList<class QContactActionDescriptor> QContactAction::actionDescriptors(class QString const &, class QString const &, int)
	?prepend@QContactIntersectionFilter@@QAEXABVQContactFilter@@@Z @ 721 NONAME ; void QContactIntersectionFilter::prepend(class QContactFilter const &)
	?FieldSuffix@QContactName@@2U?$Latin1Literal@$06@@B @ 722 NONAME ; struct Latin1Literal<7> const QContactName::FieldSuffix
	??6QContactUnionFilter@@QAEAAV0@ABVQContactFilter@@@Z @ 723 NONAME ; class QContactUnionFilter & QContactUnionFilter::operator<<(class QContactFilter const &)
	??_EQContactRelationshipRemoveRequest@@UAE@I@Z @ 724 NONAME ; QContactRelationshipRemoveRequest::~QContactRelationshipRemoveRequest(unsigned int)
	?contact@QContactMemoryEngine@@UBE?AVQContact@@ABIAAW4Error@QContactManager@@@Z @ 725 NONAME ; class QContact QContactMemoryEngine::contact(unsigned int const &, enum QContactManager::Error &) const
	?subTypes@QContactAddress@@QBE?AVQStringList@@XZ @ 726 NONAME ; class QStringList QContactAddress::subTypes(void) const
	?DefinitionName@QContactGender@@2U?$Latin1Literal@$06@@B @ 727 NONAME ; struct Latin1Literal<7> const QContactGender::DefinitionName
	?setContactType@QContactDetailDefinitionRemoveRequest@@QAEXABVQString@@@Z @ 728 NONAME ; void QContactDetailDefinitionRemoveRequest::setContactType(class QString const &)
	?FieldSyncTarget@QContactSyncTarget@@2U?$Latin1Literal@$0L@@@B @ 729 NONAME ; struct Latin1Literal<11> const QContactSyncTarget::FieldSyncTarget
	?calendarId@QContactAnniversary@@QBE?AVQString@@XZ @ 730 NONAME ; class QString QContactAnniversary::calendarId(void) const
	?setAccountUri@QContactOnlineAccount@@QAEXABVQString@@@Z @ 731 NONAME ; void QContactOnlineAccount::setAccountUri(class QString const &)
	?FieldChildren@QContactFamily@@2U?$Latin1Literal@$08@@B @ 732 NONAME ; struct Latin1Literal<9> const QContactFamily::FieldChildren
	?updateRequest@QContactManagerEngine@@SAXPAVQContactAbstractRequest@@ABV?$QList@VQContactDetailDefinition@@@@W4Error@QContactManager@@ABV?$QList@W4Error@QContactManager@@@@W4Status@2@@Z @ 733 NONAME ; void QContactManagerEngine::updateRequest(class QContactAbstractRequest *, class QList<class QContactDetailDefinition> const &, enum QContactManager::Error, class QList<enum QContactManager::Error> const &, enum QContactAbstractRequest::Status)
	?qt_metacast@QContactActionFactory@@UAEPAXPBD@Z @ 734 NONAME ; void * QContactActionFactory::qt_metacast(char const *)
	??8QContactDetailDefinitionField@@QBE_NABV0@@Z @ 735 NONAME ; bool QContactDetailDefinitionField::operator==(class QContactDetailDefinitionField const &) const
	?setSelfContactId@QContactManagerEngine@@UAE_NABIAAW4Error@QContactManager@@@Z @ 736 NONAME ; bool QContactManagerEngine::setSelfContactId(unsigned int const &, enum QContactManager::Error &)
	?setFilters@QContactUnionFilter@@QAEXABV?$QList@VQContactFilter@@@@@Z @ 737 NONAME ; void QContactUnionFilter::setFilters(class QList<class QContactFilter> const &)
	?setBlankPolicy@QContactSortOrder@@QAEXW4BlankPolicy@1@@Z @ 738 NONAME ; void QContactSortOrder::setBlankPolicy(enum QContactSortOrder::BlankPolicy)
	?setLocality@QContactAddress@@QAEXABVQString@@@Z @ 739 NONAME ; void QContactAddress::setLocality(class QString const &)
	??1QContactDetailDefinitionSaveRequest@@UAE@XZ @ 740 NONAME ; QContactDetailDefinitionSaveRequest::~QContactDetailDefinitionSaveRequest(void)
	?d_func@QContactLocalIdFetchRequest@@AAEPAVQContactLocalIdFetchRequestPrivate@@XZ @ 741 NONAME ; class QContactLocalIdFetchRequestPrivate * QContactLocalIdFetchRequest::d_func(void)
	?d_func@QContactSaveRequest@@AAEPAVQContactSaveRequestPrivate@@XZ @ 742 NONAME ; class QContactSaveRequestPrivate * QContactSaveRequest::d_func(void)
	?trUtf8@QContactFetchRequest@@SA?AVQString@@PBD0@Z @ 743 NONAME ; class QString QContactFetchRequest::trUtf8(char const *, char const *)
	?getStaticMetaObject@QContactManagerEngine@@SAABUQMetaObject@@XZ @ 744 NONAME ; struct QMetaObject const & QContactManagerEngine::getStaticMetaObject(void)
	?remove@QContactUnionFilter@@QAEXABVQContactFilter@@@Z @ 745 NONAME ; void QContactUnionFilter::remove(class QContactFilter const &)
	?setDataType@QContactDetailDefinitionField@@QAEXW4Type@QVariant@@@Z @ 746 NONAME ; void QContactDetailDefinitionField::setDataType(enum QVariant::Type)
	?qt_metacall@QContactManagerEngine@@UAEHW4Call@QMetaObject@@HPAPAX@Z @ 747 NONAME ; int QContactManagerEngine::qt_metacall(enum QMetaObject::Call, int, void * *)
	??1QContactDetail@@UAE@XZ @ 748 NONAME ; QContactDetail::~QContactDetail(void)
	?removeRelationships@QContactManagerEngine@@UAE?AV?$QList@W4Error@QContactManager@@@@ABV?$QList@VQContactRelationship@@@@AAW4Error@QContactManager@@@Z @ 749 NONAME ; class QList<enum QContactManager::Error> QContactManagerEngine::removeRelationships(class QList<class QContactRelationship> const &, enum QContactManager::Error &)
	?statusMessage@QContactOnlineAccount@@QBE?AVQString@@XZ @ 750 NONAME ; class QString QContactOnlineAccount::statusMessage(void) const
	?tr@QContactAction@@SA?AVQString@@PBD0@Z @ 751 NONAME ; class QString QContactAction::tr(char const *, char const *)
	?gender@QContactGender@@QBE?AVQString@@XZ @ 752 NONAME ; class QString QContactGender::gender(void) const
	?SubTypeVideoRingtone@QContactAvatar@@2U?$Latin1Literal@$0O@@@B @ 753 NONAME ; struct Latin1Literal<14> const QContactAvatar::SubTypeVideoRingtone
	?trUtf8@QContactManager@@SA?AVQString@@PBD0H@Z @ 754 NONAME ; class QString QContactManager::trUtf8(char const *, char const *, int)
	??_EQContactRelationship@@QAE@I@Z @ 755 NONAME ; QContactRelationship::~QContactRelationship(unsigned int)
	?SubTypeFacsimile@QContactPhoneNumber@@2U?$Latin1Literal@$09@@B @ 756 NONAME ; struct Latin1Literal<10> const QContactPhoneNumber::SubTypeFacsimile
	?tr@QContactAbstractRequest@@SA?AVQString@@PBD0H@Z @ 757 NONAME ; class QString QContactAbstractRequest::tr(char const *, char const *, int)
	?region@QContactAddress@@QBE?AVQString@@XZ @ 758 NONAME ; class QString QContactAddress::region(void) const
	??4QContactActionDescriptor@@QAEAAV0@ABV0@@Z @ 759 NONAME ; class QContactActionDescriptor & QContactActionDescriptor::operator=(class QContactActionDescriptor const &)
	?trUtf8@QContactDetailDefinitionRemoveRequest@@SA?AVQString@@PBD0H@Z @ 760 NONAME ; class QString QContactDetailDefinitionRemoveRequest::trUtf8(char const *, char const *, int)
	?setFilter@QContactFetchRequest@@QAEXABVQContactFilter@@@Z @ 761 NONAME ; void QContactFetchRequest::setFilter(class QContactFilter const &)
	?label@QContactDisplayLabel@@QBE?AVQString@@XZ @ 762 NONAME ; class QString QContactDisplayLabel::label(void) const
	?setFirst@QContactRelationshipRemoveRequest@@QAEXABVQContactId@@@Z @ 763 NONAME ; void QContactRelationshipRemoveRequest::setFirst(class QContactId const &)
	?tr@QContactManagerEngine@@SA?AVQString@@PBD0@Z @ 764 NONAME ; class QString QContactManagerEngine::tr(char const *, char const *)
	?d_func@QContactRelationshipRemoveRequest@@ABEPBVQContactRelationshipRemoveRequestPrivate@@XZ @ 765 NONAME ; class QContactRelationshipRemoveRequestPrivate const * QContactRelationshipRemoveRequest::d_func(void) const
	?SubTypeInternational@QContactAddress@@2U?$Latin1Literal@$0O@@@B @ 766 NONAME ; struct Latin1Literal<14> const QContactAddress::SubTypeInternational
	?saveDetailDefinition@QContactMemoryEngine@@UAE_NABVQContactDetailDefinition@@ABVQString@@AAW4Error@QContactManager@@@Z @ 767 NONAME ; bool QContactMemoryEngine::saveDetailDefinition(class QContactDetailDefinition const &, class QString const &, enum QContactManager::Error &)
	?FieldGuid@QContactGuid@@2U?$Latin1Literal@$04@@B @ 768 NONAME ; struct Latin1Literal<5> const QContactGuid::FieldGuid
	??0QContactInvalidFilter@@QAE@ABVQContactFilter@@@Z @ 769 NONAME ; QContactInvalidFilter::QContactInvalidFilter(class QContactFilter const &)
	?DefinitionName@QContactGuid@@2U?$Latin1Literal@$04@@B @ 770 NONAME ; struct Latin1Literal<5> const QContactGuid::DefinitionName
	?saveContacts@QContactMemoryEngine@@UAE?AV?$QList@W4Error@QContactManager@@@@PAV?$QList@VQContact@@@@AAW4Error@QContactManager@@@Z @ 771 NONAME ; class QList<enum QContactManager::Error> QContactMemoryEngine::saveContacts(class QList<class QContact> *, enum QContactManager::Error &)
	?contactsRemoved@QContactManagerEngine@@IAEXABV?$QList@I@@@Z @ 772 NONAME ; void QContactManagerEngine::contactsRemoved(class QList<unsigned int> const &)
	??4QContactName@@QAEAAV0@ABVQContactDetail@@@Z @ 773 NONAME ; class QContactName & QContactName::operator=(class QContactDetail const &)
	?relationshipType@QContactRelationshipFilter@@QBE?AVQString@@XZ @ 774 NONAME ; class QString QContactRelationshipFilter::relationshipType(void) const
	?tr@QContactRelationshipFetchRequest@@SA?AVQString@@PBD0@Z @ 775 NONAME ; class QString QContactRelationshipFetchRequest::tr(char const *, char const *)
	??0QContactAddress@@QAE@ABVQContactDetail@@@Z @ 776 NONAME ; QContactAddress::QContactAddress(class QContactDetail const &)
	?altitudeAccuracy@QContactGeolocation@@QBENXZ @ 777 NONAME ; double QContactGeolocation::altitudeAccuracy(void) const
	?getStaticMetaObject@QContactRelationshipFetchRequest@@SAABUQMetaObject@@XZ @ 778 NONAME ; struct QMetaObject const & QContactRelationshipFetchRequest::getStaticMetaObject(void)
	??_EQContactType@@UAE@I@Z @ 779 NONAME ; QContactType::~QContactType(unsigned int)
	??0QContactActionDescriptor@@QAE@ABVQString@@0H@Z @ 780 NONAME ; QContactActionDescriptor::QContactActionDescriptor(class QString const &, class QString const &, int)
	?removeRelationships@QContactManager@@QAE?AV?$QList@W4Error@QContactManager@@@@ABV?$QList@VQContactRelationship@@@@@Z @ 781 NONAME ; class QList<enum QContactManager::Error> QContactManager::removeRelationships(class QList<class QContactRelationship> const &)
	?setNames@QContactDetailDefinitionFetchRequest@@QAEXABVQStringList@@@Z @ 782 NONAME ; void QContactDetailDefinitionFetchRequest::setNames(class QStringList const &)
	?nickname@QContactNickname@@QBE?AVQString@@XZ @ 783 NONAME ; class QString QContactNickname::nickname(void) const
	??0QContactFamily@@QAE@ABVQContactDetail@@@Z @ 784 NONAME ; QContactFamily::QContactFamily(class QContactDetail const &)
	?setName@QContactDetailDefinition@@QAEXABVQString@@@Z @ 785 NONAME ; void QContactDetailDefinition::setName(class QString const &)
	?tr@QContactFetchRequest@@SA?AVQString@@PBD0H@Z @ 786 NONAME ; class QString QContactFetchRequest::tr(char const *, char const *, int)
	?validateActionFilter@QContactManagerEngine@@SA_NABVQContactFilter@@@Z @ 787 NONAME ; bool QContactManagerEngine::validateActionFilter(class QContactFilter const &)
	?FieldLocality@QContactAddress@@2U?$Latin1Literal@$08@@B @ 788 NONAME ; struct Latin1Literal<9> const QContactAddress::FieldLocality
	?type@QContact@@QBE?AVQString@@XZ @ 789 NONAME ; class QString QContact::type(void) const
	??4QContact@@QAEAAV0@ABV0@@Z @ 790 NONAME ; class QContact & QContact::operator=(class QContact const &)
	?vendorName@QContactActionDescriptor@@QBE?AVQString@@XZ @ 791 NONAME ; class QString QContactActionDescriptor::vendorName(void) const
	?subTypes@QContactPhoneNumber@@QBE?AVQStringList@@XZ @ 792 NONAME ; class QStringList QContactPhoneNumber::subTypes(void) const
	?setFilter@QContactRemoveRequest@@QAEXABVQContactFilter@@@Z @ 793 NONAME ; void QContactRemoveRequest::setFilter(class QContactFilter const &)
	?SubTypeModem@QContactPhoneNumber@@2U?$Latin1Literal@$05@@B @ 794 NONAME ; struct Latin1Literal<6> const QContactPhoneNumber::SubTypeModem
	?PresenceUnknown@QContactOnlineAccount@@2U?$Latin1Literal@$07@@B @ 795 NONAME ; struct Latin1Literal<8> const QContactOnlineAccount::PresenceUnknown
	?trUtf8@QContactRemoveRequest@@SA?AVQString@@PBD0@Z @ 796 NONAME ; class QString QContactRemoveRequest::trUtf8(char const *, char const *)
	?removeDetailDefinition@QContactMemoryEngine@@UAE_NABVQString@@0AAW4Error@QContactManager@@@Z @ 797 NONAME ; bool QContactMemoryEngine::removeDetailDefinition(class QString const &, class QString const &, enum QContactManager::Error &)
	?FieldLongitude@QContactGeolocation@@2U?$Latin1Literal@$09@@B @ 798 NONAME ; struct Latin1Literal<10> const QContactGeolocation::FieldLongitude
	?detailFieldName@QContactDetailFilter@@QBE?AVQString@@XZ @ 799 NONAME ; class QString QContactDetailFilter::detailFieldName(void) const
	?setDetailDefinitionName@QContactSortOrder@@QAEXABVQString@@0@Z @ 800 NONAME ; void QContactSortOrder::setDetailDefinitionName(class QString const &, class QString const &)
	?country@QContactAddress@@QBE?AVQString@@XZ @ 801 NONAME ; class QString QContactAddress::country(void) const
	??6QContactIntersectionFilter@@QAEAAV0@ABVQContactFilter@@@Z @ 802 NONAME ; class QContactIntersectionFilter & QContactIntersectionFilter::operator<<(class QContactFilter const &)
	?hasValue@QContactDetail@@QBE_NABVQString@@@Z @ 803 NONAME ; bool QContactDetail::hasValue(class QString const &) const
	?d_func@QContactRelationshipFilter@@ABEPBVQContactRelationshipFilterPrivate@@XZ @ 804 NONAME ; class QContactRelationshipFilterPrivate const * QContactRelationshipFilter::d_func(void) const
	?tr@QContactDetailDefinitionRemoveRequest@@SA?AVQString@@PBD0@Z @ 805 NONAME ; class QString QContactDetailDefinitionRemoveRequest::tr(char const *, char const *)
	?waitForRequestFinished@QContactManagerEngine@@UAE_NPAVQContactAbstractRequest@@H@Z @ 806 NONAME ; bool QContactManagerEngine::waitForRequestFinished(class QContactAbstractRequest *, int)
	??1QContactDetailRangeFilter@@UAE@XZ @ 807 NONAME ; QContactDetailRangeFilter::~QContactDetailRangeFilter(void)
	?setNumber@QContactPhoneNumber@@QAEXABVQString@@@Z @ 808 NONAME ; void QContactPhoneNumber::setNumber(class QString const &)
	?staticMetaObject@QContactActionFactory@@2UQMetaObject@@B @ 809 NONAME ; struct QMetaObject const QContactActionFactory::staticMetaObject
	??0QContactManager@@QAE@ABVQString@@HABV?$QMap@VQString@@V1@@@PAVQObject@@@Z @ 810 NONAME ; QContactManager::QContactManager(class QString const &, int, class QMap<class QString, class QString> const &, class QObject *)
	?qt_metacast@QContactFetchRequest@@UAEPAXPBD@Z @ 811 NONAME ; void * QContactFetchRequest::qt_metacast(char const *)
	?ContextOther@QContactDetail@@2U?$Latin1Literal@$05@@B @ 812 NONAME ; struct Latin1Literal<6> const QContactDetail::ContextOther
	?filter@QContactFetchRequest@@QBE?AVQContactFilter@@XZ @ 813 NONAME ; class QContactFilter QContactFetchRequest::filter(void) const
	?detailDefinitionName@QContactSortOrder@@QBE?AVQString@@XZ @ 814 NONAME ; class QString QContactSortOrder::detailDefinitionName(void) const
	?DefinitionName@QContactAnniversary@@2U?$Latin1Literal@$0M@@@B @ 815 NONAME ; struct Latin1Literal<12> const QContactAnniversary::DefinitionName
	?emailAddress@QContactEmailAddress@@QBE?AVQString@@XZ @ 816 NONAME ; class QString QContactEmailAddress::emailAddress(void) const
	?saveContact@QContactManager@@QAE_NPAVQContact@@@Z @ 817 NONAME ; bool QContactManager::saveContact(class QContact *)
	??_EQContactAddress@@UAE@I@Z @ 818 NONAME ; QContactAddress::~QContactAddress(unsigned int)
	?contacts@QContactFetchRequest@@QBE?AV?$QList@VQContact@@@@XZ @ 819 NONAME ; class QList<class QContact> QContactFetchRequest::contacts(void) const
	?isUnique@QContactDetailDefinition@@QBE_NXZ @ 820 NONAME ; bool QContactDetailDefinition::isUnique(void) const
	?oldAndNewSelfContactId@QContactChangeSet@@QAEAAU?$QPair@II@@XZ @ 821 NONAME ; struct QPair<unsigned int, unsigned int> & QContactChangeSet::oldAndNewSelfContactId(void)
	??_EQContactDetailRangeFilter@@UAE@I@Z @ 822 NONAME ; QContactDetailRangeFilter::~QContactDetailRangeFilter(unsigned int)
	?getStaticMetaObject@QContactActionFactory@@SAABUQMetaObject@@XZ @ 823 NONAME ; struct QMetaObject const & QContactActionFactory::getStaticMetaObject(void)
	?trUtf8@QContactMemoryEngine@@SA?AVQString@@PBD0@Z @ 824 NONAME ; class QString QContactMemoryEngine::trUtf8(char const *, char const *)
	?postcode@QContactAddress@@QBE?AVQString@@XZ @ 825 NONAME ; class QString QContactAddress::postcode(void) const
	?assistantName@QContactOrganization@@QBE?AVQString@@XZ @ 826 NONAME ; class QString QContactOrganization::assistantName(void) const
	?progress@QContactAction@@IAEXW4Status@1@ABV?$QMap@VQString@@VQVariant@@@@@Z @ 827 NONAME ; void QContactAction::progress(enum QContactAction::Status, class QMap<class QString, class QVariant> const &)
	?setFilter@QContactLocalIdFetchRequest@@QAEXABVQContactFilter@@@Z @ 828 NONAME ; void QContactLocalIdFetchRequest::setFilter(class QContactFilter const &)
	?FieldCreationTimestamp@QContactTimestamp@@2U?$Latin1Literal@$0BC@@@B @ 829 NONAME ; struct Latin1Literal<18> const QContactTimestamp::FieldCreationTimestamp
	??_EQContactDetailDefinitionRemoveRequest@@UAE@I@Z @ 830 NONAME ; QContactDetailDefinitionRemoveRequest::~QContactDetailDefinitionRemoveRequest(unsigned int)
	?names@QContactDetailDefinitionFetchRequest@@QBE?AVQStringList@@XZ @ 831 NONAME ; class QStringList QContactDetailDefinitionFetchRequest::names(void) const
	?removeRelationships@QContactMemoryEngine@@UAE?AV?$QList@W4Error@QContactManager@@@@ABV?$QList@VQContactRelationship@@@@AAW4Error@QContactManager@@@Z @ 832 NONAME ; class QList<enum QContactManager::Error> QContactMemoryEngine::removeRelationships(class QList<class QContactRelationship> const &, enum QContactManager::Error &)
	?metaObject@QContactMemoryEngine@@UBEPBUQMetaObject@@XZ @ 833 NONAME ; struct QMetaObject const * QContactMemoryEngine::metaObject(void) const
	?detail@QContact@@QBE?AVQContactDetail@@ABVQString@@@Z @ 834 NONAME ; class QContactDetail QContact::detail(class QString const &) const
	?definitions@QContactDetailDefinitionSaveRequest@@QBE?AV?$QList@VQContactDetailDefinition@@@@XZ @ 835 NONAME ; class QList<class QContactDetailDefinition> QContactDetailDefinitionSaveRequest::definitions(void) const
	?SubTypeHomePage@QContactUrl@@2U?$Latin1Literal@$08@@B @ 836 NONAME ; struct Latin1Literal<9> const QContactUrl::SubTypeHomePage
	?qt_metacast@QContactManager@@UAEPAXPBD@Z @ 837 NONAME ; void * QContactManager::qt_metacast(char const *)
	?role@QContactOrganization@@QBE?AVQString@@XZ @ 838 NONAME ; class QString QContactOrganization::role(void) const
	?saveContact@QContactManagerEngine@@UAE_NPAVQContact@@AAW4Error@QContactManager@@@Z @ 839 NONAME ; bool QContactManagerEngine::saveContact(class QContact *, enum QContactManager::Error &)
	?setPresence@QContactOnlineAccount@@QAEXABVQString@@@Z @ 840 NONAME ; void QContactOnlineAccount::setPresence(class QString const &)
	??1QContactBirthday@@UAE@XZ @ 841 NONAME ; QContactBirthday::~QContactBirthday(void)
	?tr@QContactLocalIdFetchRequest@@SA?AVQString@@PBD0H@Z @ 842 NONAME ; class QString QContactLocalIdFetchRequest::tr(char const *, char const *, int)
	?tr@QContactActionFactory@@SA?AVQString@@PBD0@Z @ 843 NONAME ; class QString QContactActionFactory::tr(char const *, char const *)
	?removeValue@QContactDetail@@QAE_NABVQString@@@Z @ 844 NONAME ; bool QContactDetail::removeValue(class QString const &)
	??_EQContactInvalidFilter@@UAE@I@Z @ 845 NONAME ; QContactInvalidFilter::~QContactInvalidFilter(unsigned int)
	?setDetailDefinitionName@QContactDetailFilter@@QAEXABVQString@@0@Z @ 846 NONAME ; void QContactDetailFilter::setDetailDefinitionName(class QString const &, class QString const &)
	?setSubType@QContactAnniversary@@QAEXABVQString@@@Z @ 847 NONAME ; void QContactAnniversary::setSubType(class QString const &)
	?SubTypeDtmfMenu@QContactPhoneNumber@@2U?$Latin1Literal@$08@@B @ 848 NONAME ; struct Latin1Literal<9> const QContactPhoneNumber::SubTypeDtmfMenu
	?status@QContactAbstractRequest@@QBE?AW4Status@1@XZ @ 849 NONAME ; enum QContactAbstractRequest::Status QContactAbstractRequest::status(void) const
	?setNote@QContactNote@@QAEXABVQString@@@Z @ 850 NONAME ; void QContactNote::setNote(class QString const &)
	??0QContactAvatar@@QAE@XZ @ 851 NONAME ; QContactAvatar::QContactAvatar(void)
	?dataChanged@QContactChangeSet@@QAE_NXZ @ 852 NONAME ; bool QContactChangeSet::dataChanged(void)
	??0QContactAddress@@QAE@XZ @ 853 NONAME ; QContactAddress::QContactAddress(void)
	??_EQContact@@QAE@I@Z @ 854 NONAME ; QContact::~QContact(unsigned int)
	?supportedImplementationVersions@QContactManagerEngineFactory@@UBE?AV?$QList@H@@XZ @ 855 NONAME ; class QList<int> QContactManagerEngineFactory::supportedImplementationVersions(void) const
	?setSubType@QContactUrl@@QAEXABVQString@@@Z @ 856 NONAME ; void QContactUrl::setSubType(class QString const &)
	?getStaticMetaObject@QContactDetailDefinitionFetchRequest@@SAABUQMetaObject@@XZ @ 857 NONAME ; struct QMetaObject const & QContactDetailDefinitionFetchRequest::getStaticMetaObject(void)
	??0QContactDetailDefinitionField@@QAE@XZ @ 858 NONAME ; QContactDetailDefinitionField::QContactDetailDefinitionField(void)
	??0QContactIntersectionFilter@@QAE@XZ @ 859 NONAME ; QContactIntersectionFilter::QContactIntersectionFilter(void)
	?metaObject@QContactRelationshipSaveRequest@@UBEPBUQMetaObject@@XZ @ 860 NONAME ; struct QMetaObject const * QContactRelationshipSaveRequest::metaObject(void) const
	?saveDetail@QContact@@QAE_NPAVQContactDetail@@@Z @ 861 NONAME ; bool QContact::saveDetail(class QContactDetail *)
	?removedRelationshipsContacts@QContactChangeSet@@QAEAAV?$QSet@I@@XZ @ 862 NONAME ; class QSet<unsigned int> & QContactChangeSet::removedRelationshipsContacts(void)
	?SubTypeMemorial@QContactAnniversary@@2U?$Latin1Literal@$08@@B @ 863 NONAME ; struct Latin1Literal<9> const QContactAnniversary::SubTypeMemorial
	??1QContactDetailDefinitionField@@QAE@XZ @ 864 NONAME ; QContactDetailDefinitionField::~QContactDetailDefinitionField(void)
	??0QContactOnlineAccount@@QAE@ABVQContactDetail@@@Z @ 865 NONAME ; QContactOnlineAccount::QContactOnlineAccount(class QContactDetail const &)
	?implementationVersion@QContactManagerEngine@@UBEHXZ @ 866 NONAME ; int QContactManagerEngine::implementationVersion(void) const
	?progress@QContactSaveRequest@@IAEXPAV1@@Z @ 867 NONAME ; void QContactSaveRequest::progress(class QContactSaveRequest *)
	??I@YA?BVQContactFilter@@ABV0@0@Z @ 868 NONAME ; class QContactFilter const operator&(class QContactFilter const &, class QContactFilter const &)
	?setType@QContactType@@QAEXABVQString@@@Z @ 869 NONAME ; void QContactType::setType(class QString const &)
	??_EQContactNickname@@UAE@I@Z @ 870 NONAME ; QContactNickname::~QContactNickname(unsigned int)
	?subTypes@QContactOnlineAccount@@QBE?AVQStringList@@XZ @ 871 NONAME ; class QStringList QContactOnlineAccount::subTypes(void) const
	?definitionName@QContactDetail@@QBE?AVQString@@XZ @ 872 NONAME ; class QString QContactDetail::definitionName(void) const
	??0QContactDetailDefinition@@QAE@ABV0@@Z @ 873 NONAME ; QContactDetailDefinition::QContactDetailDefinition(class QContactDetailDefinition const &)
	?tr@QContactRelationshipRemoveRequest@@SA?AVQString@@PBD0H@Z @ 874 NONAME ; class QString QContactRelationshipRemoveRequest::tr(char const *, char const *, int)
	?staticMetaObject@QContactRemoveRequest@@2UQMetaObject@@B @ 875 NONAME ; struct QMetaObject const QContactRemoveRequest::staticMetaObject
	?supportedContactTypes@QContactManagerEngine@@UBE?AVQStringList@@XZ @ 876 NONAME ; class QStringList QContactManagerEngine::supportedContactTypes(void) const
	??1QContactFamily@@UAE@XZ @ 877 NONAME ; QContactFamily::~QContactFamily(void)
	?children@QContactFamily@@QBE?AVQStringList@@XZ @ 878 NONAME ; class QStringList QContactFamily::children(void) const
	??0QContactDetailDefinitionRemoveRequest@@QAE@XZ @ 879 NONAME ; QContactDetailDefinitionRemoveRequest::QContactDetailDefinitionRemoveRequest(void)
	?qt_metacall@QContactLocalIdFetchRequest@@UAEHW4Call@QMetaObject@@HPAPAX@Z @ 880 NONAME ; int QContactLocalIdFetchRequest::qt_metacall(enum QMetaObject::Call, int, void * *)
	?setContactRelationships@QContactManagerEngine@@SAXPAVQContact@@ABV?$QList@VQContactRelationship@@@@@Z @ 881 NONAME ; void QContactManagerEngine::setContactRelationships(class QContact *, class QList<class QContactRelationship> const &)
	?trUtf8@QContactDetailDefinitionSaveRequest@@SA?AVQString@@PBD0H@Z @ 882 NONAME ; class QString QContactDetailDefinitionSaveRequest::trUtf8(char const *, char const *, int)
	?staticMetaObject@QContactMemoryEngine@@2UQMetaObject@@B @ 883 NONAME ; struct QMetaObject const QContactMemoryEngine::staticMetaObject
	?contact@QContactManager@@QBE?AVQContact@@ABI@Z @ 884 NONAME ; class QContact QContactManager::contact(unsigned int const &) const
	?staticMetaObject@QContactAction@@2UQMetaObject@@B @ 885 NONAME ; struct QMetaObject const QContactAction::staticMetaObject
	?setMatchFlags@QContactDetailFilter@@QAEXV?$QFlags@W4MatchFlag@QContactFilter@@@@@Z @ 886 NONAME ; void QContactDetailFilter::setMatchFlags(class QFlags<enum QContactFilter::MatchFlag>)
	??0QContactSortOrder@@QAE@XZ @ 887 NONAME ; QContactSortOrder::QContactSortOrder(void)
	?addedContacts@QContactChangeSet@@QAEAAV?$QSet@I@@XZ @ 888 NONAME ; class QSet<unsigned int> & QContactChangeSet::addedContacts(void)
	?accessConstraint@QContactDetailDefinition@@QBE?AW4AccessConstraint@1@XZ @ 889 NONAME ; enum QContactDetailDefinition::AccessConstraint QContactDetailDefinition::accessConstraint(void) const
	??_EQContactBirthday@@UAE@I@Z @ 890 NONAME ; QContactBirthday::~QContactBirthday(unsigned int)
	?setCreated@QContactTimestamp@@QAEXABVQDateTime@@@Z @ 891 NONAME ; void QContactTimestamp::setCreated(class QDateTime const &)
	?compareVariant@QContactManagerEngine@@SAHABVQVariant@@0W4CaseSensitivity@Qt@@@Z @ 892 NONAME ; int QContactManagerEngine::compareVariant(class QVariant const &, class QVariant const &, enum Qt::CaseSensitivity)
	?d_func@QContactRemoveRequest@@AAEPAVQContactRemoveRequestPrivate@@XZ @ 893 NONAME ; class QContactRemoveRequestPrivate * QContactRemoveRequest::d_func(void)
	?removeContact@QContactMemoryEngine@@AAE_NABIAAVQContactChangeSet@@AAW4Error@QContactManager@@@Z @ 894 NONAME ; bool QContactMemoryEngine::removeContact(unsigned int const &, class QContactChangeSet &, enum QContactManager::Error &)
	?waitForProgress@QContactAbstractRequest@@QAE_NH@Z @ 895 NONAME ; bool QContactAbstractRequest::waitForProgress(int)
	??1QContactGuid@@UAE@XZ @ 896 NONAME ; QContactGuid::~QContactGuid(void)
	?allowableValues@QContactDetailDefinitionField@@QBE?AV?$QList@VQVariant@@@@XZ @ 897 NONAME ; class QList<class QVariant> QContactDetailDefinitionField::allowableValues(void) const
	??_EQContactUnionFilter@@UAE@I@Z @ 898 NONAME ; QContactUnionFilter::~QContactUnionFilter(unsigned int)
	?setChildren@QContactFamily@@QAEXABVQStringList@@@Z @ 899 NONAME ; void QContactFamily::setChildren(class QStringList const &)
	??0QContactGender@@QAE@ABVQContactDetail@@@Z @ 900 NONAME ; QContactGender::QContactGender(class QContactDetail const &)
	?ids@QContactLocalIdFetchRequest@@QBE?AV?$QList@I@@XZ @ 901 NONAME ; class QList<unsigned int> QContactLocalIdFetchRequest::ids(void) const
	??4QContactSyncTarget@@QAEAAV0@ABVQContactDetail@@@Z @ 902 NONAME ; class QContactSyncTarget & QContactSyncTarget::operator=(class QContactDetail const &)
	?contactType@QContactDetailDefinitionSaveRequest@@QBE?AVQString@@XZ @ 903 NONAME ; class QString QContactDetailDefinitionSaveRequest::contactType(void) const
	??4QContactGuid@@QAEAAV0@ABVQContactDetail@@@Z @ 904 NONAME ; class QContactGuid & QContactGuid::operator=(class QContactDetail const &)
	?performAsynchronousOperation@QContactMemoryEngine@@AAEXXZ @ 905 NONAME ; void QContactMemoryEngine::performAsynchronousOperation(void)
	?fromUri@QContactManager@@SAPAV1@ABVQString@@PAVQObject@@@Z @ 906 NONAME ; class QContactManager * QContactManager::fromUri(class QString const &, class QObject *)
	?qt_metacast@QContactAction@@UAEPAXPBD@Z @ 907 NONAME ; void * QContactAction::qt_metacast(char const *)
	?error@QContactAbstractRequest@@QBE?AW4Error@QContactManager@@XZ @ 908 NONAME ; enum QContactManager::Error QContactAbstractRequest::error(void) const
	?availableActions@QContactAction@@SA?AVQStringList@@ABVQString@@H@Z @ 909 NONAME ; class QStringList QContactAction::availableActions(class QString const &, int)
	?supportedDetails@QContactAction@@UBE?AV?$QList@VQContactDetail@@@@ABVQContact@@@Z @ 910 NONAME ; class QList<class QContactDetail> QContactAction::supportedDetails(class QContact const &) const
	?addedRelationshipsContacts@QContactChangeSet@@QAEAAV?$QSet@I@@XZ @ 911 NONAME ; class QSet<unsigned int> & QContactChangeSet::addedRelationshipsContacts(void)
	?trUtf8@QContactRemoveRequest@@SA?AVQString@@PBD0H@Z @ 912 NONAME ; class QString QContactRemoveRequest::trUtf8(char const *, char const *, int)
	?setPrefix@QContactName@@QAEXABVQString@@@Z @ 913 NONAME ; void QContactName::setPrefix(class QString const &)
	?setContactType@QContactDetailDefinitionFetchRequest@@QAEXABVQString@@@Z @ 914 NONAME ; void QContactDetailDefinitionFetchRequest::setContactType(class QString const &)
	?trUtf8@QContactRelationshipRemoveRequest@@SA?AVQString@@PBD0@Z @ 915 NONAME ; class QString QContactRelationshipRemoveRequest::trUtf8(char const *, char const *)
	?HasManager@QContactRelationship@@2U?$Latin1Literal@$0L@@@B @ 916 NONAME ; struct Latin1Literal<11> const QContactRelationship::HasManager
	?DefinitionName@QContactAvatar@@2U?$Latin1Literal@$06@@B @ 917 NONAME ; struct Latin1Literal<7> const QContactAvatar::DefinitionName
	??8QContactRelationship@@QBE_NABV0@@Z @ 918 NONAME ; bool QContactRelationship::operator==(class QContactRelationship const &) const
	?trUtf8@QContactLocalIdFetchRequest@@SA?AVQString@@PBD0@Z @ 919 NONAME ; class QString QContactLocalIdFetchRequest::trUtf8(char const *, char const *)
	??0QContactChangeLogFilter@@QAE@ABVQContactFilter@@@Z @ 920 NONAME ; QContactChangeLogFilter::QContactChangeLogFilter(class QContactFilter const &)
	?setId@QContact@@QAEXABVQContactId@@@Z @ 921 NONAME ; void QContact::setId(class QContactId const &)
	?relationshipsRemoved@QContactManager@@IAEXABV?$QList@I@@@Z @ 922 NONAME ; void QContactManager::relationshipsRemoved(class QList<unsigned int> const &)
	?d_func@QContactLocalIdFilter@@AAEPAVQContactLocalIdFilterPrivate@@XZ @ 923 NONAME ; class QContactLocalIdFilterPrivate * QContactLocalIdFilter::d_func(void)
	??0QContactOrganization@@QAE@ABVQContactDetail@@@Z @ 924 NONAME ; QContactOrganization::QContactOrganization(class QContactDetail const &)
	?DefinitionName@QContactUrl@@2U?$Latin1Literal@$03@@B @ 925 NONAME ; struct Latin1Literal<4> const QContactUrl::DefinitionName
	??0QContactDetailFilter@@QAE@XZ @ 926 NONAME ; QContactDetailFilter::QContactDetailFilter(void)
	?requestDestroyed@QContactMemoryEngine@@UAEXPAVQContactAbstractRequest@@@Z @ 927 NONAME ; void QContactMemoryEngine::requestDestroyed(class QContactAbstractRequest *)
	?d_func@QContactDetailDefinitionRemoveRequest@@AAEPAVQContactDetailDefinitionRemoveRequestPrivate@@XZ @ 928 NONAME ; class QContactDetailDefinitionRemoveRequestPrivate * QContactDetailDefinitionRemoveRequest::d_func(void)
	?locality@QContactAddress@@QBE?AVQString@@XZ @ 929 NONAME ; class QString QContactAddress::locality(void) const
	?relationshipsAdded@QContactManagerEngine@@IAEXABV?$QList@I@@@Z @ 930 NONAME ; void QContactManagerEngine::relationshipsAdded(class QList<unsigned int> const &)
	??8QContact@@QBE_NABV0@@Z @ 931 NONAME ; bool QContact::operator==(class QContact const &) const
	?sortContacts@QContactManagerEngine@@SA?AV?$QList@I@@ABV?$QList@VQContact@@@@ABV?$QList@VQContactSortOrder@@@@@Z @ 932 NONAME ; class QList<unsigned int> QContactManagerEngine::sortContacts(class QList<class QContact> const &, class QList<class QContactSortOrder> const &)
	??0QContactManagerEngine@@QAE@XZ @ 933 NONAME ; QContactManagerEngine::QContactManagerEngine(void)
	?saveDetailDefinition@QContactMemoryEngine@@AAE_NABVQContactDetailDefinition@@ABVQString@@AAVQContactChangeSet@@AAW4Error@QContactManager@@@Z @ 934 NONAME ; bool QContactMemoryEngine::saveDetailDefinition(class QContactDetailDefinition const &, class QString const &, class QContactChangeSet &, enum QContactManager::Error &)
	?clearDetails@QContact@@QAEXXZ @ 935 NONAME ; void QContact::clearDetails(void)
	?setParticipant@QContactRelationshipFetchRequest@@QAEXABVQContactId@@W4Role@QContactRelationshipFilter@@@Z @ 936 NONAME ; void QContactRelationshipFetchRequest::setParticipant(class QContactId const &, enum QContactRelationshipFilter::Role)
	?contactsChanged@QContactManagerEngine@@IAEXABV?$QList@I@@@Z @ 937 NONAME ; void QContactManagerEngine::contactsChanged(class QList<unsigned int> const &)
	?setCountry@QContactAddress@@QAEXABVQString@@@Z @ 938 NONAME ; void QContactAddress::setCountry(class QString const &)
	?startRequest@QContactMemoryEngine@@UAE_NPAVQContactAbstractRequest@@@Z @ 939 NONAME ; bool QContactMemoryEngine::startRequest(class QContactAbstractRequest *)
	?setContactDisplayLabel@QContactManagerEngine@@QBE?AVQContact@@ABVQString@@ABV2@@Z @ 940 NONAME ; class QContact QContactManagerEngine::setContactDisplayLabel(class QString const &, class QContact const &) const
	?lastModified@QContactTimestamp@@QBE?AVQDateTime@@XZ @ 941 NONAME ; class QDateTime QContactTimestamp::lastModified(void) const
	?qt_metacall@QContactRemoveRequest@@UAEHW4Call@QMetaObject@@HPAPAX@Z @ 942 NONAME ; int QContactRemoveRequest::qt_metacall(enum QMetaObject::Call, int, void * *)
	??8QContactDetailDefinition@@QBE_NABV0@@Z @ 943 NONAME ; bool QContactDetailDefinition::operator==(class QContactDetailDefinition const &) const
	?setValue@QContactDetailFilter@@QAEXABVQVariant@@@Z @ 944 NONAME ; void QContactDetailFilter::setValue(class QVariant const &)
	?setDepartment@QContactOrganization@@QAEXABVQStringList@@@Z @ 945 NONAME ; void QContactOrganization::setDepartment(class QStringList const &)
	?setNickname@QContactNickname@@QAEXABVQString@@@Z @ 946 NONAME ; void QContactNickname::setNickname(class QString const &)
	??4QContactAddress@@QAEAAV0@ABVQContactDetail@@@Z @ 947 NONAME ; class QContactAddress & QContactAddress::operator=(class QContactDetail const &)
	?d_func@QContactActionFilter@@AAEPAVQContactActionFilterPrivate@@XZ @ 948 NONAME ; class QContactActionFilterPrivate * QContactActionFilter::d_func(void)
	?FieldName@QContactOrganization@@2U?$Latin1Literal@$04@@B @ 949 NONAME ; struct Latin1Literal<5> const QContactOrganization::FieldName
	?selfContactId@QContactManagerEngine@@UBEIAAW4Error@QContactManager@@@Z @ 950 NONAME ; unsigned int QContactManagerEngine::selfContactId(enum QContactManager::Error &) const
	?saveRelationship@QContactManager@@QAE_NPAVQContactRelationship@@@Z @ 951 NONAME ; bool QContactManager::saveRelationship(class QContactRelationship *)
	?synthesizeDisplayLabel@QContactManager@@QBE?AVQString@@ABVQContact@@@Z @ 952 NONAME ; class QString QContactManager::synthesizeDisplayLabel(class QContact const &) const
	?setType@QContact@@QAEXABVQString@@@Z @ 953 NONAME ; void QContact::setType(class QString const &)
	?saveContacts@QContactManager@@QAE?AV?$QList@W4Error@QContactManager@@@@PAV?$QList@VQContact@@@@@Z @ 954 NONAME ; class QList<enum QContactManager::Error> QContactManager::saveContacts(class QList<class QContact> *)
	?trUtf8@QContactAbstractRequest@@SA?AVQString@@PBD0@Z @ 955 NONAME ; class QString QContactAbstractRequest::trUtf8(char const *, char const *)
	?qt_metacall@QContactMemoryEngine@@UAEHW4Call@QMetaObject@@HPAPAX@Z @ 956 NONAME ; int QContactMemoryEngine::qt_metacall(enum QMetaObject::Call, int, void * *)
	?d_func@QContactDetailRangeFilter@@ABEPBVQContactDetailRangeFilterPrivate@@XZ @ 957 NONAME ; class QContactDetailRangeFilterPrivate const * QContactDetailRangeFilter::d_func(void) const
	?trUtf8@QContactActionFactory@@SA?AVQString@@PBD0H@Z @ 958 NONAME ; class QString QContactActionFactory::trUtf8(char const *, char const *, int)
	?tr@QContactManagerEngine@@SA?AVQString@@PBD0H@Z @ 959 NONAME ; class QString QContactManagerEngine::tr(char const *, char const *, int)
	??0QContactDetail@@QAE@ABVQString@@@Z @ 960 NONAME ; QContactDetail::QContactDetail(class QString const &)
	??4QContactAvatar@@QAEAAV0@ABVQContactDetail@@@Z @ 961 NONAME ; class QContactAvatar & QContactAvatar::operator=(class QContactDetail const &)
	??0QContactPhoneNumber@@QAE@ABVQContactDetail@@@Z @ 962 NONAME ; QContactPhoneNumber::QContactPhoneNumber(class QContactDetail const &)
	?first@QContactRelationshipFetchRequest@@QBE?AVQContactId@@XZ @ 963 NONAME ; class QContactId QContactRelationshipFetchRequest::first(void) const
	?detailDefinitions@QContactManagerEngine@@UBE?AV?$QMap@VQString@@VQContactDetailDefinition@@@@ABVQString@@AAW4Error@QContactManager@@@Z @ 964 NONAME ; class QMap<class QString, class QContactDetailDefinition> QContactManagerEngine::detailDefinitions(class QString const &, enum QContactManager::Error &) const
	??1QContactAbstractRequest@@UAE@XZ @ 965 NONAME ; QContactAbstractRequest::~QContactAbstractRequest(void)
	?d_func@QContactDetailDefinitionSaveRequest@@AAEPAVQContactDetailDefinitionSaveRequestPrivate@@XZ @ 966 NONAME ; class QContactDetailDefinitionSaveRequestPrivate * QContactDetailDefinitionSaveRequest::d_func(void)
	?nickname@QContactOnlineAccount@@QBE?AVQString@@XZ @ 967 NONAME ; class QString QContactOnlineAccount::nickname(void) const
	?FieldStreet@QContactAddress@@2U?$Latin1Literal@$06@@B @ 968 NONAME ; struct Latin1Literal<7> const QContactAddress::FieldStreet
	?setRelationshipType@QContactRelationshipRemoveRequest@@QAEXABVQString@@@Z @ 969 NONAME ; void QContactRelationshipRemoveRequest::setRelationshipType(class QString const &)
	?staticMetaObject@QContactSaveRequest@@2UQMetaObject@@B @ 970 NONAME ; struct QMetaObject const QContactSaveRequest::staticMetaObject
	?splitUri@QContactManager@@SA_NABVQString@@PAV2@PAV?$QMap@VQString@@V1@@@@Z @ 971 NONAME ; bool QContactManager::splitUri(class QString const &, class QString *, class QMap<class QString, class QString> *)
	??1QContactSortOrder@@QAE@XZ @ 972 NONAME ; QContactSortOrder::~QContactSortOrder(void)
	?setPreferredActions@QContactDetail@@QAEXABV?$QList@VQContactActionDescriptor@@@@@Z @ 973 NONAME ; void QContactDetail::setPreferredActions(class QList<class QContactActionDescriptor> const &)
	??0QContactRelationship@@QAE@XZ @ 974 NONAME ; QContactRelationship::QContactRelationship(void)
	??0QContactDetail@@QAE@ABV0@@Z @ 975 NONAME ; QContactDetail::QContactDetail(class QContactDetail const &)
	?DefinitionName@QContactName@@2U?$Latin1Literal@$04@@B @ 976 NONAME ; struct Latin1Literal<5> const QContactName::DefinitionName
	??1QContactSyncTarget@@UAE@XZ @ 977 NONAME ; QContactSyncTarget::~QContactSyncTarget(void)
	?logo@QContactOrganization@@QBE?AVQString@@XZ @ 978 NONAME ; class QString QContactOrganization::logo(void) const
	?deref@QContactMemoryEngine@@UAEXXZ @ 979 NONAME ; void QContactMemoryEngine::deref(void)
	?setAltitude@QContactGeolocation@@QAEXN@Z @ 980 NONAME ; void QContactGeolocation::setAltitude(double)
	?tr@QContactDetailDefinitionSaveRequest@@SA?AVQString@@PBD0@Z @ 981 NONAME ; class QString QContactDetailDefinitionSaveRequest::tr(char const *, char const *)
	??_EQContactDetailDefinition@@QAE@I@Z @ 982 NONAME ; QContactDetailDefinition::~QContactDetailDefinition(unsigned int)
	?setTitle@QContactOrganization@@QAEXABVQString@@@Z @ 983 NONAME ; void QContactOrganization::setTitle(class QString const &)
	?setOtherParticipantId@QContactRelationshipFilter@@QAEXABVQContactId@@@Z @ 984 NONAME ; void QContactRelationshipFilter::setOtherParticipantId(class QContactId const &)
	?trUtf8@QContactDetailDefinitionFetchRequest@@SA?AVQString@@PBD0H@Z @ 985 NONAME ; class QString QContactDetailDefinitionFetchRequest::trUtf8(char const *, char const *, int)
	?preferredActions@QContactDetail@@QBE?AV?$QList@VQContactActionDescriptor@@@@XZ @ 986 NONAME ; class QList<class QContactActionDescriptor> QContactDetail::preferredActions(void) const
	?removeRelationship@QContactManagerEngine@@UAE_NABVQContactRelationship@@AAW4Error@QContactManager@@@Z @ 987 NONAME ; bool QContactManagerEngine::removeRelationship(class QContactRelationship const &, enum QContactManager::Error &)
	?GenderMale@QContactGender@@2U?$Latin1Literal@$04@@B @ 988 NONAME ; struct Latin1Literal<5> const QContactGender::GenderMale
	?first@QContactRelationship@@QBE?AVQContactId@@XZ @ 989 NONAME ; class QContactId QContactRelationship::first(void) const
	??4QContactGender@@QAEAAV0@ABVQContactDetail@@@Z @ 990 NONAME ; class QContactGender & QContactGender::operator=(class QContactDetail const &)
	??0QContactDetailDefinitionSaveRequest@@QAE@XZ @ 991 NONAME ; QContactDetailDefinitionSaveRequest::QContactDetailDefinitionSaveRequest(void)
	?d_func@QContactRelationshipSaveRequest@@AAEPAVQContactRelationshipSaveRequestPrivate@@XZ @ 992 NONAME ; class QContactRelationshipSaveRequestPrivate * QContactRelationshipSaveRequest::d_func(void)
	?staticMetaObject@QContactManager@@2UQMetaObject@@B @ 993 NONAME ; struct QMetaObject const QContactManager::staticMetaObject
	??0QContactAbstractRequest@@IAE@PAVQContactAbstractRequestPrivate@@@Z @ 994 NONAME ; QContactAbstractRequest::QContactAbstractRequest(class QContactAbstractRequestPrivate *)
	?manager@QContactAbstractRequest@@QBEPAVQContactManager@@XZ @ 995 NONAME ; class QContactManager * QContactAbstractRequest::manager(void) const
	?relationships@QContactManager@@QBE?AV?$QList@VQContactRelationship@@@@ABVQString@@ABVQContactId@@W4Role@QContactRelationshipFilter@@@Z @ 996 NONAME ; class QList<class QContactRelationship> QContactManager::relationships(class QString const &, class QContactId const &, enum QContactRelationshipFilter::Role) const
	?SubTypeImage@QContactAvatar@@2U?$Latin1Literal@$05@@B @ 997 NONAME ; struct Latin1Literal<6> const QContactAvatar::SubTypeImage
	??0QContactName@@QAE@XZ @ 998 NONAME ; QContactName::QContactName(void)
	?removeContacts@QContactManagerEngine@@UAE?AV?$QList@W4Error@QContactManager@@@@PAV?$QList@I@@AAW4Error@QContactManager@@@Z @ 999 NONAME ; class QList<enum QContactManager::Error> QContactManagerEngine::removeContacts(class QList<unsigned int> *, enum QContactManager::Error &)
	?validateDefinition@QContactManagerEngine@@UBE_NABVQContactDetailDefinition@@AAW4Error@QContactManager@@@Z @ 1000 NONAME ; bool QContactManagerEngine::validateDefinition(class QContactDetailDefinition const &, enum QContactManager::Error &) const
	?maxValue@QContactDetailRangeFilter@@QBE?AVQVariant@@XZ @ 1001 NONAME ; class QVariant QContactDetailRangeFilter::maxValue(void) const
	??1QContactDetailDefinitionFetchRequest@@UAE@XZ @ 1002 NONAME ; QContactDetailDefinitionFetchRequest::~QContactDetailDefinitionFetchRequest(void)
	?setSecond@QContactRelationship@@QAEXABVQContactId@@@Z @ 1003 NONAME ; void QContactRelationship::setSecond(class QContactId const &)
	??1QContactDetailDefinitionRemoveRequest@@UAE@XZ @ 1004 NONAME ; QContactDetailDefinitionRemoveRequest::~QContactDetailDefinitionRemoveRequest(void)
	?type@QContactAbstractRequest@@QBE?AW4RequestType@1@XZ @ 1005 NONAME ; enum QContactAbstractRequest::RequestType QContactAbstractRequest::type(void) const
	?accountUri@QContactOnlineAccount@@QBE?AVQString@@XZ @ 1006 NONAME ; class QString QContactOnlineAccount::accountUri(void) const
	??_EQContactTimestamp@@UAE@I@Z @ 1007 NONAME ; QContactTimestamp::~QContactTimestamp(unsigned int)
	?setMiddle@QContactName@@QAEXABVQString@@@Z @ 1008 NONAME ; void QContactName::setMiddle(class QString const &)
	?localId@QContactId@@QBEIXZ @ 1009 NONAME ; unsigned int QContactId::localId(void) const
	?title@QContactOrganization@@QBE?AVQString@@XZ @ 1010 NONAME ; class QString QContactOrganization::title(void) const
	?setLast@QContactName@@QAEXABVQString@@@Z @ 1011 NONAME ; void QContactName::setLast(class QString const &)
	??0QContactEmailAddress@@QAE@ABVQContactDetail@@@Z @ 1012 NONAME ; QContactEmailAddress::QContactEmailAddress(class QContactDetail const &)
	??4QContactDetail@@QAEAAV0@ABV0@@Z @ 1013 NONAME ; class QContactDetail & QContactDetail::operator=(class QContactDetail const &)
	?compareContact@QContactManagerEngine@@SAHABVQContact@@0ABV?$QList@VQContactSortOrder@@@@@Z @ 1014 NONAME ; int QContactManagerEngine::compareContact(class QContact const &, class QContact const &, class QList<class QContactSortOrder> const &)
	?setStatusMessage@QContactOnlineAccount@@QAEXABVQString@@@Z @ 1015 NONAME ; void QContactOnlineAccount::setStatusMessage(class QString const &)
	?setContexts@QContactDetail@@QAEXABVQStringList@@@Z @ 1016 NONAME ; void QContactDetail::setContexts(class QStringList const &)
	?d_func@QContactIntersectionFilter@@ABEPBVQContactIntersectionFilterPrivate@@XZ @ 1017 NONAME ; class QContactIntersectionFilterPrivate const * QContactIntersectionFilter::d_func(void) const
	?relationships@QContactManagerEngine@@UBE?AV?$QList@VQContactRelationship@@@@ABVQString@@ABVQContactId@@W4Role@QContactRelationshipFilter@@AAW4Error@QContactManager@@@Z @ 1018 NONAME ; class QList<class QContactRelationship> QContactManagerEngine::relationships(class QString const &, class QContactId const &, enum QContactRelationshipFilter::Role, enum QContactManager::Error &) const
	?contactsRemoved@QContactManager@@IAEXABV?$QList@I@@@Z @ 1019 NONAME ; void QContactManager::contactsRemoved(class QList<unsigned int> const &)
	?fields@QContactDetailDefinition@@QBE?AV?$QMap@VQString@@VQContactDetailDefinitionField@@@@XZ @ 1020 NONAME ; class QMap<class QString, class QContactDetailDefinitionField> QContactDetailDefinition::fields(void) const
	?minValue@QContactDetailRangeFilter@@QBE?AVQVariant@@XZ @ 1021 NONAME ; class QVariant QContactDetailRangeFilter::minValue(void) const
	?staticMetaObject@QContactDetailDefinitionSaveRequest@@2UQMetaObject@@B @ 1022 NONAME ; struct QMetaObject const QContactDetailDefinitionSaveRequest::staticMetaObject
	?middle@QContactName@@QBE?AVQString@@XZ @ 1023 NONAME ; class QString QContactName::middle(void) const
	?relationships@QContactRelationshipFetchRequest@@QBE?AV?$QList@VQContactRelationship@@@@XZ @ 1024 NONAME ; class QList<class QContactRelationship> QContactRelationshipFetchRequest::relationships(void) const
	??0QContactSyncTarget@@QAE@XZ @ 1025 NONAME ; QContactSyncTarget::QContactSyncTarget(void)
	?startRequest@QContactManagerEngine@@UAE_NPAVQContactAbstractRequest@@@Z @ 1026 NONAME ; bool QContactManagerEngine::startRequest(class QContactAbstractRequest *)
	?supportedDataTypes@QContactManager@@QBE?AV?$QList@W4Type@QVariant@@@@XZ @ 1027 NONAME ; class QList<enum QVariant::Type> QContactManager::supportedDataTypes(void) const
	?FieldSubTypes@QContactPhoneNumber@@2U?$Latin1Literal@$08@@B @ 1028 NONAME ; struct Latin1Literal<9> const QContactPhoneNumber::FieldSubTypes
	?name@QContactDetailDefinition@@QBE?AVQString@@XZ @ 1029 NONAME ; class QString QContactDetailDefinition::name(void) const
	?setRelationshipType@QContactRelationshipFetchRequest@@QAEXABVQString@@@Z @ 1030 NONAME ; void QContactRelationshipFetchRequest::setRelationshipType(class QString const &)
	?detailDefinitionName@QContactDetailFilter@@QBE?AVQString@@XZ @ 1031 NONAME ; class QString QContactDetailFilter::detailDefinitionName(void) const
	?FieldNumber@QContactPhoneNumber@@2U?$Latin1Literal@$0M@@@B @ 1032 NONAME ; struct Latin1Literal<12> const QContactPhoneNumber::FieldNumber
	?SubTypeAudioRingtone@QContactAvatar@@2U?$Latin1Literal@$0O@@@B @ 1033 NONAME ; struct Latin1Literal<14> const QContactAvatar::SubTypeAudioRingtone
	??0QContactSyncTarget@@QAE@ABVQContactDetail@@@Z @ 1034 NONAME ; QContactSyncTarget::QContactSyncTarget(class QContactDetail const &)
	??1QContactAnniversary@@UAE@XZ @ 1035 NONAME ; QContactAnniversary::~QContactAnniversary(void)
	??9QContactDetail@@QBE_NABV0@@Z @ 1036 NONAME ; bool QContactDetail::operator!=(class QContactDetail const &) const
	??9QContactDetailDefinition@@QBE_NABV0@@Z @ 1037 NONAME ; bool QContactDetailDefinition::operator!=(class QContactDetailDefinition const &) const
	?setLastModified@QContactTimestamp@@QAEXABVQDateTime@@@Z @ 1038 NONAME ; void QContactTimestamp::setLastModified(class QDateTime const &)
	?waitForRequestProgress@QContactMemoryEngine@@UAE_NPAVQContactAbstractRequest@@H@Z @ 1039 NONAME ; bool QContactMemoryEngine::waitForRequestProgress(class QContactAbstractRequest *, int)

