EXPORTS
	??0QVersitContactExporter@QtMobility@@QAE@XZ @ 1 NONAME ; QtMobility::QVersitContactExporter::QVersitContactExporter(void)
	??0QVersitContactImporter@QtMobility@@QAE@XZ @ 2 NONAME ; QtMobility::QVersitContactImporter::QVersitContactImporter(void)
	??0QVersitDocument@QtMobility@@QAE@ABV01@@Z @ 3 NONAME ; QtMobility::QVersitDocument::QVersitDocument(class QtMobility::QVersitDocument const &)
	??0QVersitDocument@QtMobility@@QAE@XZ @ 4 NONAME ; QtMobility::QVersitDocument::QVersitDocument(void)
	??0QVersitProperty@QtMobility@@QAE@ABV01@@Z @ 5 NONAME ; QtMobility::QVersitProperty::QVersitProperty(class QtMobility::QVersitProperty const &)
	??0QVersitProperty@QtMobility@@QAE@XZ @ 6 NONAME ; QtMobility::QVersitProperty::QVersitProperty(void)
	??0QVersitReader@QtMobility@@QAE@XZ @ 7 NONAME ; QtMobility::QVersitReader::QVersitReader(void)
	??0QVersitWriter@QtMobility@@QAE@XZ @ 8 NONAME ; QtMobility::QVersitWriter::QVersitWriter(void)
	??1QVersitContactExporter@QtMobility@@UAE@XZ @ 9 NONAME ; QtMobility::QVersitContactExporter::~QVersitContactExporter(void)
	??1QVersitContactImporter@QtMobility@@QAE@XZ @ 10 NONAME ; QtMobility::QVersitContactImporter::~QVersitContactImporter(void)
	??1QVersitDocument@QtMobility@@QAE@XZ @ 11 NONAME ; QtMobility::QVersitDocument::~QVersitDocument(void)
	??1QVersitProperty@QtMobility@@QAE@XZ @ 12 NONAME ; QtMobility::QVersitProperty::~QVersitProperty(void)
	??1QVersitReader@QtMobility@@UAE@XZ @ 13 NONAME ; QtMobility::QVersitReader::~QVersitReader(void)
	??1QVersitWriter@QtMobility@@UAE@XZ @ 14 NONAME ; QtMobility::QVersitWriter::~QVersitWriter(void)
	??4QVersitDocument@QtMobility@@QAEAAV01@ABV01@@Z @ 15 NONAME ; class QtMobility::QVersitDocument & QtMobility::QVersitDocument::operator=(class QtMobility::QVersitDocument const &)
	??4QVersitProperty@QtMobility@@QAEAAV01@ABV01@@Z @ 16 NONAME ; class QtMobility::QVersitProperty & QtMobility::QVersitProperty::operator=(class QtMobility::QVersitProperty const &)
	??_EQVersitContactExporter@QtMobility@@UAE@I@Z @ 17 NONAME ; QtMobility::QVersitContactExporter::~QVersitContactExporter(unsigned int)
	??_EQVersitDocument@QtMobility@@QAE@I@Z @ 18 NONAME ; QtMobility::QVersitDocument::~QVersitDocument(unsigned int)
	??_EQVersitProperty@QtMobility@@QAE@I@Z @ 19 NONAME ; QtMobility::QVersitProperty::~QVersitProperty(unsigned int)
	??_EQVersitReader@QtMobility@@UAE@I@Z @ 20 NONAME ; QtMobility::QVersitReader::~QVersitReader(unsigned int)
	??_EQVersitWriter@QtMobility@@UAE@I@Z @ 21 NONAME ; QtMobility::QVersitWriter::~QVersitWriter(unsigned int)
	?addParameter@QVersitProperty@QtMobility@@QAEXABVQString@@0@Z @ 22 NONAME ; void QtMobility::QVersitProperty::addParameter(class QString const &, class QString const &)
	?addProperty@QVersitDocument@QtMobility@@QAEXABVQVersitProperty@2@@Z @ 23 NONAME ; void QtMobility::QVersitDocument::addProperty(class QtMobility::QVersitProperty const &)
	?audioClipPath@QVersitContactImporter@QtMobility@@QBE?AVQString@@XZ @ 24 NONAME ; class QString QtMobility::QVersitContactImporter::audioClipPath(void) const
	?device@QVersitReader@QtMobility@@QBEPAVQIODevice@@XZ @ 25 NONAME ; class QIODevice * QtMobility::QVersitReader::device(void) const
	?device@QVersitWriter@QtMobility@@QBEPAVQIODevice@@XZ @ 26 NONAME ; class QIODevice * QtMobility::QVersitWriter::device(void) const
	?embeddedDocument@QVersitProperty@QtMobility@@QBE?AVQVersitDocument@2@XZ @ 27 NONAME ; class QtMobility::QVersitDocument QtMobility::QVersitProperty::embeddedDocument(void) const
	?exportContact@QVersitContactExporter@QtMobility@@QAE?AVQVersitDocument@2@ABVQContact@2@W4VersitType@32@@Z @ 28 NONAME ; class QtMobility::QVersitDocument QtMobility::QVersitContactExporter::exportContact(class QtMobility::QContact const &, enum QtMobility::QVersitDocument::VersitType)
	?getStaticMetaObject@QVersitContactExporter@QtMobility@@SAABUQMetaObject@@XZ @ 29 NONAME ; struct QMetaObject const & QtMobility::QVersitContactExporter::getStaticMetaObject(void)
	?getStaticMetaObject@QVersitReader@QtMobility@@SAABUQMetaObject@@XZ @ 30 NONAME ; struct QMetaObject const & QtMobility::QVersitReader::getStaticMetaObject(void)
	?getStaticMetaObject@QVersitWriter@QtMobility@@SAABUQMetaObject@@XZ @ 31 NONAME ; struct QMetaObject const & QtMobility::QVersitWriter::getStaticMetaObject(void)
	?groups@QVersitProperty@QtMobility@@QBE?AVQStringList@@XZ @ 32 NONAME ; class QStringList QtMobility::QVersitProperty::groups(void) const
	?imagePath@QVersitContactImporter@QtMobility@@QBE?AVQString@@XZ @ 33 NONAME ; class QString QtMobility::QVersitContactImporter::imagePath(void) const
	?importContact@QVersitContactImporter@QtMobility@@QAE?AVQContact@2@ABVQVersitDocument@2@@Z @ 34 NONAME ; class QtMobility::QContact QtMobility::QVersitContactImporter::importContact(class QtMobility::QVersitDocument const &)
	?metaObject@QVersitContactExporter@QtMobility@@UBEPBUQMetaObject@@XZ @ 35 NONAME ; struct QMetaObject const * QtMobility::QVersitContactExporter::metaObject(void) const
	?metaObject@QVersitReader@QtMobility@@UBEPBUQMetaObject@@XZ @ 36 NONAME ; struct QMetaObject const * QtMobility::QVersitReader::metaObject(void) const
	?metaObject@QVersitWriter@QtMobility@@UBEPBUQMetaObject@@XZ @ 37 NONAME ; struct QMetaObject const * QtMobility::QVersitWriter::metaObject(void) const
	?name@QVersitProperty@QtMobility@@QBE?AVQString@@XZ @ 38 NONAME ; class QString QtMobility::QVersitProperty::name(void) const
	?parameters@QVersitProperty@QtMobility@@QBE?AV?$QMultiHash@VQString@@V1@@@XZ @ 39 NONAME ; class QMultiHash<class QString, class QString> QtMobility::QVersitProperty::parameters(void) const
	?properties@QVersitDocument@QtMobility@@QBE?AV?$QList@VQVersitProperty@QtMobility@@@@XZ @ 40 NONAME ; class QList<class QtMobility::QVersitProperty> QtMobility::QVersitDocument::properties(void) const
	?qt_metacall@QVersitContactExporter@QtMobility@@UAEHW4Call@QMetaObject@@HPAPAX@Z @ 41 NONAME ; int QtMobility::QVersitContactExporter::qt_metacall(enum QMetaObject::Call, int, void * *)
	?qt_metacall@QVersitReader@QtMobility@@UAEHW4Call@QMetaObject@@HPAPAX@Z @ 42 NONAME ; int QtMobility::QVersitReader::qt_metacall(enum QMetaObject::Call, int, void * *)
	?qt_metacall@QVersitWriter@QtMobility@@UAEHW4Call@QMetaObject@@HPAPAX@Z @ 43 NONAME ; int QtMobility::QVersitWriter::qt_metacall(enum QMetaObject::Call, int, void * *)
	?qt_metacast@QVersitContactExporter@QtMobility@@UAEPAXPBD@Z @ 44 NONAME ; void * QtMobility::QVersitContactExporter::qt_metacast(char const *)
	?qt_metacast@QVersitReader@QtMobility@@UAEPAXPBD@Z @ 45 NONAME ; void * QtMobility::QVersitReader::qt_metacast(char const *)
	?qt_metacast@QVersitWriter@QtMobility@@UAEPAXPBD@Z @ 46 NONAME ; void * QtMobility::QVersitWriter::qt_metacast(char const *)
	?readAll@QVersitReader@QtMobility@@QAE_NXZ @ 47 NONAME ; bool QtMobility::QVersitReader::readAll(void)
	?readingDone@QVersitReader@QtMobility@@IAEXXZ @ 48 NONAME ; void QtMobility::QVersitReader::readingDone(void)
	?removeParameter@QVersitProperty@QtMobility@@QAEXABVQString@@0@Z @ 49 NONAME ; void QtMobility::QVersitProperty::removeParameter(class QString const &, class QString const &)
	?removeProperties@QVersitDocument@QtMobility@@QAEXABVQString@@@Z @ 50 NONAME ; void QtMobility::QVersitDocument::removeProperties(class QString const &)
	?result@QVersitReader@QtMobility@@QBE?AV?$QList@VQVersitDocument@QtMobility@@@@XZ @ 51 NONAME ; class QList<class QtMobility::QVersitDocument> QtMobility::QVersitReader::result(void) const
	?scale@QVersitContactExporter@QtMobility@@IAEXABVQString@@AAVQByteArray@@@Z @ 52 NONAME ; void QtMobility::QVersitContactExporter::scale(class QString const &, class QByteArray &)
	?setAudioClipPath@QVersitContactImporter@QtMobility@@QAEXABVQString@@@Z @ 53 NONAME ; void QtMobility::QVersitContactImporter::setAudioClipPath(class QString const &)
	?setDevice@QVersitReader@QtMobility@@QAEXPAVQIODevice@@@Z @ 54 NONAME ; void QtMobility::QVersitReader::setDevice(class QIODevice *)
	?setDevice@QVersitWriter@QtMobility@@QAEXPAVQIODevice@@@Z @ 55 NONAME ; void QtMobility::QVersitWriter::setDevice(class QIODevice *)
	?setEmbeddedDocument@QVersitProperty@QtMobility@@QAEXABVQVersitDocument@2@@Z @ 56 NONAME ; void QtMobility::QVersitProperty::setEmbeddedDocument(class QtMobility::QVersitDocument const &)
	?setGroups@QVersitProperty@QtMobility@@QAEXABVQStringList@@@Z @ 57 NONAME ; void QtMobility::QVersitProperty::setGroups(class QStringList const &)
	?setImagePath@QVersitContactImporter@QtMobility@@QAEXABVQString@@@Z @ 58 NONAME ; void QtMobility::QVersitContactImporter::setImagePath(class QString const &)
	?setName@QVersitProperty@QtMobility@@QAEXABVQString@@@Z @ 59 NONAME ; void QtMobility::QVersitProperty::setName(class QString const &)
	?setParameters@QVersitProperty@QtMobility@@QAEXABV?$QMultiHash@VQString@@V1@@@@Z @ 60 NONAME ; void QtMobility::QVersitProperty::setParameters(class QMultiHash<class QString, class QString> const &)
	?setValue@QVersitProperty@QtMobility@@QAEXABVQByteArray@@@Z @ 61 NONAME ; void QtMobility::QVersitProperty::setValue(class QByteArray const &)
	?setVersitDocument@QVersitWriter@QtMobility@@QAEXABVQVersitDocument@2@@Z @ 62 NONAME ; void QtMobility::QVersitWriter::setVersitDocument(class QtMobility::QVersitDocument const &)
	?setVersitType@QVersitDocument@QtMobility@@QAEXW4VersitType@12@@Z @ 63 NONAME ; void QtMobility::QVersitDocument::setVersitType(enum QtMobility::QVersitDocument::VersitType)
	?startReading@QVersitReader@QtMobility@@QAE_NXZ @ 64 NONAME ; bool QtMobility::QVersitReader::startReading(void)
	?startWriting@QVersitWriter@QtMobility@@QAE_NXZ @ 65 NONAME ; bool QtMobility::QVersitWriter::startWriting(void)
	?tr@QVersitContactExporter@QtMobility@@SA?AVQString@@PBD0@Z @ 66 NONAME ; class QString QtMobility::QVersitContactExporter::tr(char const *, char const *)
	?tr@QVersitContactExporter@QtMobility@@SA?AVQString@@PBD0H@Z @ 67 NONAME ; class QString QtMobility::QVersitContactExporter::tr(char const *, char const *, int)
	?tr@QVersitReader@QtMobility@@SA?AVQString@@PBD0@Z @ 68 NONAME ; class QString QtMobility::QVersitReader::tr(char const *, char const *)
	?tr@QVersitReader@QtMobility@@SA?AVQString@@PBD0H@Z @ 69 NONAME ; class QString QtMobility::QVersitReader::tr(char const *, char const *, int)
	?tr@QVersitWriter@QtMobility@@SA?AVQString@@PBD0@Z @ 70 NONAME ; class QString QtMobility::QVersitWriter::tr(char const *, char const *)
	?tr@QVersitWriter@QtMobility@@SA?AVQString@@PBD0H@Z @ 71 NONAME ; class QString QtMobility::QVersitWriter::tr(char const *, char const *, int)
	?trUtf8@QVersitContactExporter@QtMobility@@SA?AVQString@@PBD0@Z @ 72 NONAME ; class QString QtMobility::QVersitContactExporter::trUtf8(char const *, char const *)
	?trUtf8@QVersitContactExporter@QtMobility@@SA?AVQString@@PBD0H@Z @ 73 NONAME ; class QString QtMobility::QVersitContactExporter::trUtf8(char const *, char const *, int)
	?trUtf8@QVersitReader@QtMobility@@SA?AVQString@@PBD0@Z @ 74 NONAME ; class QString QtMobility::QVersitReader::trUtf8(char const *, char const *)
	?trUtf8@QVersitReader@QtMobility@@SA?AVQString@@PBD0H@Z @ 75 NONAME ; class QString QtMobility::QVersitReader::trUtf8(char const *, char const *, int)
	?trUtf8@QVersitWriter@QtMobility@@SA?AVQString@@PBD0@Z @ 76 NONAME ; class QString QtMobility::QVersitWriter::trUtf8(char const *, char const *)
	?trUtf8@QVersitWriter@QtMobility@@SA?AVQString@@PBD0H@Z @ 77 NONAME ; class QString QtMobility::QVersitWriter::trUtf8(char const *, char const *, int)
	?unknownContactDetails@QVersitContactExporter@QtMobility@@QAE?AV?$QList@VQContactDetail@QtMobility@@@@XZ @ 78 NONAME ; class QList<class QtMobility::QContactDetail> QtMobility::QVersitContactExporter::unknownContactDetails(void)
	?unknownVersitProperties@QVersitContactImporter@QtMobility@@QAE?AV?$QList@VQVersitProperty@QtMobility@@@@XZ @ 79 NONAME ; class QList<class QtMobility::QVersitProperty> QtMobility::QVersitContactImporter::unknownVersitProperties(void)
	?value@QVersitProperty@QtMobility@@QBE?AVQByteArray@@XZ @ 80 NONAME ; class QByteArray QtMobility::QVersitProperty::value(void) const
	?versitDocument@QVersitWriter@QtMobility@@QBE?AVQVersitDocument@2@XZ @ 81 NONAME ; class QtMobility::QVersitDocument QtMobility::QVersitWriter::versitDocument(void) const
	?versitType@QVersitDocument@QtMobility@@QBE?AW4VersitType@12@XZ @ 82 NONAME ; enum QtMobility::QVersitDocument::VersitType QtMobility::QVersitDocument::versitType(void) const
	?writeAll@QVersitWriter@QtMobility@@QAE_NXZ @ 83 NONAME ; bool QtMobility::QVersitWriter::writeAll(void)
	?writingDone@QVersitWriter@QtMobility@@IAEXXZ @ 84 NONAME ; void QtMobility::QVersitWriter::writingDone(void)
	?staticMetaObject@QVersitWriter@QtMobility@@2UQMetaObject@@B @ 85 NONAME ; struct QMetaObject const QtMobility::QVersitWriter::staticMetaObject
	?staticMetaObject@QVersitContactExporter@QtMobility@@2UQMetaObject@@B @ 86 NONAME ; struct QMetaObject const QtMobility::QVersitContactExporter::staticMetaObject
	?staticMetaObject@QVersitReader@QtMobility@@2UQMetaObject@@B @ 87 NONAME ; struct QMetaObject const QtMobility::QVersitReader::staticMetaObject

